ARM GAS  C:\Users\Petro\AppData\Local\Temp\cc6Lo8fB.s 			page 1


   1              		.cpu cortex-m0
   2              		.fpu softvfp
   3              		.eabi_attribute 20, 1
   4              		.eabi_attribute 21, 1
   5              		.eabi_attribute 23, 3
   6              		.eabi_attribute 24, 1
   7              		.eabi_attribute 25, 1
   8              		.eabi_attribute 26, 1
   9              		.eabi_attribute 30, 6
  10              		.eabi_attribute 34, 0
  11              		.eabi_attribute 18, 4
  12              		.code	16
  13              		.file	"BLE.c"
  14              		.text
  15              	.Ltext0:
  16              		.cfi_sections	.debug_frame
  17              		.global	cyBle_initVar
  18              		.bss
  19              		.type	cyBle_initVar, %object
  20              		.size	cyBle_initVar, 1
  21              	cyBle_initVar:
  22 0000 00       		.space	1
  23              		.comm	cyBle_stackMemoryRam,2768,8
  24              		.global	cyBle_discoveryParam
  25              		.data
  26              		.align	2
  27              		.type	cyBle_discoveryParam, %object
  28              		.size	cyBle_discoveryParam, 16
  29              	cyBle_discoveryParam:
  30 0000 2000     		.short	32
  31 0002 3000     		.short	48
  32 0004 00       		.byte	0
  33 0005 00       		.byte	0
  34 0006 00       		.byte	0
  35 0007 02       		.byte	2
  36 0008 00       		.byte	0
  37 0009 00       		.byte	0
  38 000a 50       		.byte	80
  39 000b A0       		.byte	-96
  40 000c 00       		.byte	0
  41 000d 07       		.byte	7
  42 000e 00       		.byte	0
  43 000f 00       		.space	1
  44              		.global	cyBle_discoveryData
  45              		.align	2
  46              		.type	cyBle_discoveryData, %object
  47              		.size	cyBle_discoveryData, 32
  48              	cyBle_discoveryData:
  49 0010 02       		.byte	2
  50 0011 01       		.byte	1
  51 0012 06       		.byte	6
  52 0013 0E       		.byte	14
  53 0014 09       		.byte	9
  54 0015 42       		.byte	66
  55 0016 61       		.byte	97
  56 0017 74       		.byte	116
  57 0018 74       		.byte	116
ARM GAS  C:\Users\Petro\AppData\Local\Temp\cc6Lo8fB.s 			page 2


  58 0019 65       		.byte	101
  59 001a 72       		.byte	114
  60 001b 79       		.byte	121
  61 001c 20       		.byte	32
  62 001d 4C       		.byte	76
  63 001e 65       		.byte	101
  64 001f 76       		.byte	118
  65 0020 65       		.byte	101
  66 0021 6C       		.byte	108
  67 0022 07       		.byte	7
  68 0023 03       		.byte	3
  69 0024 0A       		.byte	10
  70 0025 18       		.byte	24
  71 0026 0F       		.byte	15
  72 0027 18       		.byte	24
  73 0028 0F       		.byte	15
  74 0029 18       		.byte	24
  75 002a 00       		.byte	0
  76 002b 00       		.byte	0
  77 002c 00       		.byte	0
  78 002d 00       		.byte	0
  79 002e 00       		.byte	0
  80 002f 1A       		.byte	26
  81              		.global	cyBle_scanRspData
  82              		.align	2
  83              		.type	cyBle_scanRspData, %object
  84              		.size	cyBle_scanRspData, 32
  85              	cyBle_scanRspData:
  86 0030 0E       		.byte	14
  87 0031 09       		.byte	9
  88 0032 42       		.byte	66
  89 0033 61       		.byte	97
  90 0034 74       		.byte	116
  91 0035 74       		.byte	116
  92 0036 65       		.byte	101
  93 0037 72       		.byte	114
  94 0038 79       		.byte	121
  95 0039 20       		.byte	32
  96 003a 4C       		.byte	76
  97 003b 65       		.byte	101
  98 003c 76       		.byte	118
  99 003d 65       		.byte	101
 100 003e 6C       		.byte	108
 101 003f 00       		.byte	0
 102 0040 00       		.byte	0
 103 0041 00       		.byte	0
 104 0042 00       		.byte	0
 105 0043 00       		.byte	0
 106 0044 00       		.byte	0
 107 0045 00       		.byte	0
 108 0046 00       		.byte	0
 109 0047 00       		.byte	0
 110 0048 00       		.byte	0
 111 0049 00       		.byte	0
 112 004a 00       		.byte	0
 113 004b 00       		.byte	0
 114 004c 00       		.byte	0
ARM GAS  C:\Users\Petro\AppData\Local\Temp\cc6Lo8fB.s 			page 3


 115 004d 00       		.byte	0
 116 004e 00       		.byte	0
 117 004f 0F       		.byte	15
 118              		.global	cyBle_discoveryModeInfo
 119              		.align	2
 120              		.type	cyBle_discoveryModeInfo, %object
 121              		.size	cyBle_discoveryModeInfo, 20
 122              	cyBle_discoveryModeInfo:
 123 0050 02       		.byte	2
 124 0051 000000   		.space	3
 125 0054 00000000 		.word	cyBle_discoveryParam
 126 0058 00000000 		.word	cyBle_discoveryData
 127 005c 00000000 		.word	cyBle_scanRspData
 128 0060 1E00     		.short	30
 129 0062 0000     		.space	2
 130              		.comm	CyBle_ApplCallback,4,4
 131              		.global	cyBle_deviceAddress
 132              		.align	2
 133              		.type	cyBle_deviceAddress, %object
 134              		.size	cyBle_deviceAddress, 7
 135              	cyBle_deviceAddress:
 136 0064 02       		.byte	2
 137 0065 00       		.byte	0
 138 0066 00       		.byte	0
 139 0067 50       		.byte	80
 140 0068 A0       		.byte	-96
 141 0069 00       		.byte	0
 142 006a 00       		.byte	0
 143              		.global	cyBle_sflashDeviceAddress
 144 006b 00       		.align	2
 145              		.type	cyBle_sflashDeviceAddress, %object
 146              		.size	cyBle_sflashDeviceAddress, 4
 147              	cyBle_sflashDeviceAddress:
 148 006c 00F2FF0F 		.word	268431872
 149              		.global	cyBle_StackFlashptr
 150              		.section	.rodata
 151              		.align	7
 152              		.type	cyBle_StackFlashptr, %object
 153              		.size	cyBle_StackFlashptr, 365
 154              	cyBle_StackFlashptr:
 155 0000 00000000 		.space	365
 155      00000000 
 155      00000000 
 155      00000000 
 155      00000000 
 156              		.section	.text.CyBle_Init,"ax",%progbits
 157              		.align	2
 158              		.global	CyBle_Init
 159              		.code	16
 160              		.thumb_func
 161              		.type	CyBle_Init, %function
 162              	CyBle_Init:
 163              	.LFB2:
 164              		.file 1 ".\\Generated_Source\\PSoC4\\BLE.c"
   1:.\Generated_Source\PSoC4/BLE.c **** /***************************************************************************//**
   2:.\Generated_Source\PSoC4/BLE.c **** * \file CYBLE.c
   3:.\Generated_Source\PSoC4/BLE.c **** * \version 2.30
ARM GAS  C:\Users\Petro\AppData\Local\Temp\cc6Lo8fB.s 			page 4


   4:.\Generated_Source\PSoC4/BLE.c **** * 
   5:.\Generated_Source\PSoC4/BLE.c **** * \brief
   6:.\Generated_Source\PSoC4/BLE.c **** *  This file contains the source code for the Common APIs of the BLE Component.
   7:.\Generated_Source\PSoC4/BLE.c **** * 
   8:.\Generated_Source\PSoC4/BLE.c **** ********************************************************************************
   9:.\Generated_Source\PSoC4/BLE.c **** * \copyright
  10:.\Generated_Source\PSoC4/BLE.c **** * Copyright 2014-2015, Cypress Semiconductor Corporation.  All rights reserved.
  11:.\Generated_Source\PSoC4/BLE.c **** * You may use this file only in accordance with the license, terms, conditions,
  12:.\Generated_Source\PSoC4/BLE.c **** * disclaimers, and limitations in the end user license agreement accompanying
  13:.\Generated_Source\PSoC4/BLE.c **** * the software package with which this file was provided.
  14:.\Generated_Source\PSoC4/BLE.c **** *******************************************************************************/
  15:.\Generated_Source\PSoC4/BLE.c **** 
  16:.\Generated_Source\PSoC4/BLE.c **** #include "BLE_eventHandler.h"
  17:.\Generated_Source\PSoC4/BLE.c **** #include "BLE_HAL_PVT.h"
  18:.\Generated_Source\PSoC4/BLE.c **** #include <stdlib.h>
  19:.\Generated_Source\PSoC4/BLE.c **** 
  20:.\Generated_Source\PSoC4/BLE.c **** 
  21:.\Generated_Source\PSoC4/BLE.c **** /***************************************
  22:.\Generated_Source\PSoC4/BLE.c **** * Function Prototypes
  23:.\Generated_Source\PSoC4/BLE.c **** ***************************************/
  24:.\Generated_Source\PSoC4/BLE.c **** 
  25:.\Generated_Source\PSoC4/BLE.c **** #if(CYBLE_GATT_ROLE_SERVER)
  26:.\Generated_Source\PSoC4/BLE.c ****     #if(CYBLE_GAP_ROLE_PERIPHERAL)
  27:.\Generated_Source\PSoC4/BLE.c ****         static void CyBle_ChangeAdLocalName(const char8 name[], uint8 dest);
  28:.\Generated_Source\PSoC4/BLE.c ****     #endif /* (CYBLE_GAP_ROLE_PERIPHERAL) */
  29:.\Generated_Source\PSoC4/BLE.c **** #endif /* (CYBLE_GATT_ROLE_SERVER) */
  30:.\Generated_Source\PSoC4/BLE.c ****     
  31:.\Generated_Source\PSoC4/BLE.c **** 
  32:.\Generated_Source\PSoC4/BLE.c **** /***************************************
  33:.\Generated_Source\PSoC4/BLE.c **** * Global Variables
  34:.\Generated_Source\PSoC4/BLE.c **** ***************************************/
  35:.\Generated_Source\PSoC4/BLE.c **** 
  36:.\Generated_Source\PSoC4/BLE.c **** /* Indicates whether the BLE has been initialized. The variable is initialized to
  37:.\Generated_Source\PSoC4/BLE.c ****    0 and set to 1 the first time CyBle_Start() is called. This allows the component
  38:.\Generated_Source\PSoC4/BLE.c ****    to restart without reinitialization after the first call to the CyBle_Start() 
  39:.\Generated_Source\PSoC4/BLE.c ****    routine. If reinitialization of the component is required, the variable should 
  40:.\Generated_Source\PSoC4/BLE.c ****    be set to 0 before the CyBle_Start() routine is called. Alternatively, the BLE
  41:.\Generated_Source\PSoC4/BLE.c ****    can be reinitialized by calling the CyBle_Init() function.
  42:.\Generated_Source\PSoC4/BLE.c **** */
  43:.\Generated_Source\PSoC4/BLE.c **** uint8  cyBle_initVar = 0u;
  44:.\Generated_Source\PSoC4/BLE.c **** 
  45:.\Generated_Source\PSoC4/BLE.c **** /* Allocate RAM memory for stack. This buffer could be reused by application when 
  46:.\Generated_Source\PSoC4/BLE.c ****    BLE component is stopped. For export mode buffer is allocated in heap.
  47:.\Generated_Source\PSoC4/BLE.c **** */
  48:.\Generated_Source\PSoC4/BLE.c **** #if(CYBLE_SHARING_MODE_EXPORT)
  49:.\Generated_Source\PSoC4/BLE.c ****     
  50:.\Generated_Source\PSoC4/BLE.c **** uint8 *cyBle_stackMemoryRam = NULL;
  51:.\Generated_Source\PSoC4/BLE.c **** 
  52:.\Generated_Source\PSoC4/BLE.c **** #else
  53:.\Generated_Source\PSoC4/BLE.c **** 
  54:.\Generated_Source\PSoC4/BLE.c **** CYBLE_CYALIGNED_BEGIN uint8 cyBle_stackMemoryRam[CYBLE_STACK_RAM_SIZE] CYBLE_CYALIGNED_END;
  55:.\Generated_Source\PSoC4/BLE.c **** 
  56:.\Generated_Source\PSoC4/BLE.c **** #endif  /* CYBLE_SHARING_MODE_EXPORT */
  57:.\Generated_Source\PSoC4/BLE.c **** 
  58:.\Generated_Source\PSoC4/BLE.c **** #if(CYBLE_GAP_ROLE_PERIPHERAL || CYBLE_GAP_ROLE_BROADCASTER)
  59:.\Generated_Source\PSoC4/BLE.c **** 
  60:.\Generated_Source\PSoC4/BLE.c **** CYBLE_GAPP_DISC_PARAM_T cyBle_discoveryParam =
ARM GAS  C:\Users\Petro\AppData\Local\Temp\cc6Lo8fB.s 			page 5


  61:.\Generated_Source\PSoC4/BLE.c **** {
  62:.\Generated_Source\PSoC4/BLE.c ****     0x0020u,    /* uint16 advertising_interval_min */
  63:.\Generated_Source\PSoC4/BLE.c ****     0x0030u,    /* uint16 advertising_interval_max */
  64:.\Generated_Source\PSoC4/BLE.c ****     CYBLE_GAPP_CONNECTABLE_UNDIRECTED_ADV, /* uint8 advertising_type */
  65:.\Generated_Source\PSoC4/BLE.c ****     0x00u,      /* uint8 own_addr_type */
  66:.\Generated_Source\PSoC4/BLE.c ****     0x00u,      /* uint8 direct_addr_type */
  67:.\Generated_Source\PSoC4/BLE.c ****     {0x02u, 0x00u, 0x00u, 0x50u, 0xA0u, 0x00u}, /* uint8* direct_addr */
  68:.\Generated_Source\PSoC4/BLE.c ****     0x07u,      /* uint8 advertising_channel_map */
  69:.\Generated_Source\PSoC4/BLE.c ****     0x00u,      /* uint8 advertising_filter_policy */
  70:.\Generated_Source\PSoC4/BLE.c **** };
  71:.\Generated_Source\PSoC4/BLE.c **** 
  72:.\Generated_Source\PSoC4/BLE.c **** CYBLE_GAPP_DISC_DATA_T cyBle_discoveryData =
  73:.\Generated_Source\PSoC4/BLE.c **** {
  74:.\Generated_Source\PSoC4/BLE.c ****     { 0x02u, 0x01u, 0x06u, 0x0Eu, 0x09u, 0x42u, 0x61u,
  75:.\Generated_Source\PSoC4/BLE.c ****     0x74u, 0x74u, 0x65u, 0x72u, 0x79u, 0x20u, 0x4Cu, 0x65u,
  76:.\Generated_Source\PSoC4/BLE.c ****     0x76u, 0x65u, 0x6Cu, 0x07u, 0x03u, 0x0Au, 0x18u, 0x0Fu,
  77:.\Generated_Source\PSoC4/BLE.c ****     0x18u, 0x0Fu, 0x18u, 0x00u, 0x00u, 0x00u, 0x00u, 0x00u }, /* uint8 advertising_data[CYBLE_MAX_A
  78:.\Generated_Source\PSoC4/BLE.c ****     0x1Au,      /* uint8 adv_data_length */
  79:.\Generated_Source\PSoC4/BLE.c **** };
  80:.\Generated_Source\PSoC4/BLE.c **** 
  81:.\Generated_Source\PSoC4/BLE.c **** CYBLE_GAPP_SCAN_RSP_DATA_T cyBle_scanRspData =
  82:.\Generated_Source\PSoC4/BLE.c **** {
  83:.\Generated_Source\PSoC4/BLE.c ****     { 0x0Eu, 0x09u, 0x42u, 0x61u, 0x74u, 0x74u, 0x65u,
  84:.\Generated_Source\PSoC4/BLE.c ****     0x72u, 0x79u, 0x20u, 0x4Cu, 0x65u, 0x76u, 0x65u, 0x6Cu,
  85:.\Generated_Source\PSoC4/BLE.c ****     0x00u, 0x00u, 0x00u, 0x00u, 0x00u, 0x00u, 0x00u, 0x00u,
  86:.\Generated_Source\PSoC4/BLE.c ****     0x00u, 0x00u, 0x00u, 0x00u, 0x00u, 0x00u, 0x00u, 0x00u }, /* uint8 scan_rsp_data[CYBLE_MAX_SCAN
  87:.\Generated_Source\PSoC4/BLE.c ****     0x0Fu,      /* uint8 scan_rsp_data_length */
  88:.\Generated_Source\PSoC4/BLE.c **** };
  89:.\Generated_Source\PSoC4/BLE.c **** 
  90:.\Generated_Source\PSoC4/BLE.c **** /* This variable of type CYBLE_GAPP_DISC_MODE_INFO_T is present only when 
  91:.\Generated_Source\PSoC4/BLE.c ****    the BLE component is configured for Peripheral GAP role or Central and 
  92:.\Generated_Source\PSoC4/BLE.c ****    Peripheral GAP role. It contains the Advertisement settings and also the 
  93:.\Generated_Source\PSoC4/BLE.c ****    Advertisement and Scan response data parameters entered in the customizer.
  94:.\Generated_Source\PSoC4/BLE.c ****    This variable can be used by advanced users to change Advertisement settings,
  95:.\Generated_Source\PSoC4/BLE.c ****    Advertisement or Scan response data in runtime. 
  96:.\Generated_Source\PSoC4/BLE.c **** */
  97:.\Generated_Source\PSoC4/BLE.c **** CYBLE_GAPP_DISC_MODE_INFO_T cyBle_discoveryModeInfo =
  98:.\Generated_Source\PSoC4/BLE.c **** {
  99:.\Generated_Source\PSoC4/BLE.c ****     0x02u,      /* uint8 discMode */
 100:.\Generated_Source\PSoC4/BLE.c ****     &cyBle_discoveryParam,
 101:.\Generated_Source\PSoC4/BLE.c ****     &cyBle_discoveryData,
 102:.\Generated_Source\PSoC4/BLE.c ****     &cyBle_scanRspData,
 103:.\Generated_Source\PSoC4/BLE.c ****     0x001Eu,    /* uint16 advTo */
 104:.\Generated_Source\PSoC4/BLE.c **** };
 105:.\Generated_Source\PSoC4/BLE.c **** 
 106:.\Generated_Source\PSoC4/BLE.c **** 
 107:.\Generated_Source\PSoC4/BLE.c **** #endif /* CYBLE_GAP_ROLE_PERIPHERAL || CYBLE_GAP_ROLE_BROADCASTER */
 108:.\Generated_Source\PSoC4/BLE.c **** 
 109:.\Generated_Source\PSoC4/BLE.c **** #if(CYBLE_GAP_ROLE_CENTRAL)
 110:.\Generated_Source\PSoC4/BLE.c ****     
 111:.\Generated_Source\PSoC4/BLE.c **** CYBLE_GAPC_CONN_PARAM_T cyBle_connectionParameters;
 112:.\Generated_Source\PSoC4/BLE.c **** 
 113:.\Generated_Source\PSoC4/BLE.c **** /* Connecting timeout is set to 30 seconds in CyBle_Init function. 
 114:.\Generated_Source\PSoC4/BLE.c ****    Not zero value starts timer in CyBle_GapcConnectDevice API.
 115:.\Generated_Source\PSoC4/BLE.c **** */
 116:.\Generated_Source\PSoC4/BLE.c **** uint16 cyBle_connectingTimeout;
 117:.\Generated_Source\PSoC4/BLE.c ****     
ARM GAS  C:\Users\Petro\AppData\Local\Temp\cc6Lo8fB.s 			page 6


 118:.\Generated_Source\PSoC4/BLE.c **** #endif /* CYBLE_GAP_ROLE_CENTRAL */
 119:.\Generated_Source\PSoC4/BLE.c **** 
 120:.\Generated_Source\PSoC4/BLE.c **** #if(CYBLE_GAP_ROLE_CENTRAL || CYBLE_GAP_ROLE_OBSERVER)
 121:.\Generated_Source\PSoC4/BLE.c ****     
 122:.\Generated_Source\PSoC4/BLE.c **** 
 123:.\Generated_Source\PSoC4/BLE.c ****     
 124:.\Generated_Source\PSoC4/BLE.c **** #endif /* CYBLE_GAP_ROLE_CENTRAL || CYBLE_GAP_ROLE_OBSERVER */
 125:.\Generated_Source\PSoC4/BLE.c **** 
 126:.\Generated_Source\PSoC4/BLE.c **** #if((CYBLE_GAP_ROLE_PERIPHERAL || CYBLE_GAP_ROLE_CENTRAL) && (CYBLE_BONDING_REQUIREMENT == CYBLE_BO
 127:.\Generated_Source\PSoC4/BLE.c **** 
 128:.\Generated_Source\PSoC4/BLE.c **** uint8 cyBle_peerBonding;
 129:.\Generated_Source\PSoC4/BLE.c **** uint8 cyBle_pendingFlashWrite;
 130:.\Generated_Source\PSoC4/BLE.c ****     
 131:.\Generated_Source\PSoC4/BLE.c **** #endif  /* (CYBLE_BONDING_REQUIREMENT == CYBLE_BONDING_YES) */
 132:.\Generated_Source\PSoC4/BLE.c **** 
 133:.\Generated_Source\PSoC4/BLE.c **** CYBLE_CALLBACK_T CyBle_ApplCallback;
 134:.\Generated_Source\PSoC4/BLE.c **** CYBLE_GAP_BD_ADDR_T cyBle_deviceAddress = {{0x02u, 0x00u, 0x00u, 0x50u, 0xA0u, 0x00u}, 0x00u };
 135:.\Generated_Source\PSoC4/BLE.c **** CYBLE_GAP_BD_ADDR_T * cyBle_sflashDeviceAddress = CYBLE_SFLASH_DEVICE_ADDRESS_PTR;
 136:.\Generated_Source\PSoC4/BLE.c **** 
 137:.\Generated_Source\PSoC4/BLE.c **** #if(CYBLE_MODE_PROFILE)
 138:.\Generated_Source\PSoC4/BLE.c ****     #if defined(__ARMCC_VERSION)
 139:.\Generated_Source\PSoC4/BLE.c ****         CY_ALIGN(CYDEV_FLS_ROW_SIZE) const uint8 cyBle_StackFlashptr[CYBLE_STACK_FLASH_SIZE] = {0u}
 140:.\Generated_Source\PSoC4/BLE.c ****     #elif defined (__GNUC__)
 141:.\Generated_Source\PSoC4/BLE.c ****         const uint8 cyBle_StackFlashptr[CYBLE_STACK_FLASH_SIZE] CY_ALIGN(CYDEV_FLS_ROW_SIZE) = {0u}
 142:.\Generated_Source\PSoC4/BLE.c ****     #elif defined (__ICCARM__)
 143:.\Generated_Source\PSoC4/BLE.c ****         #pragma data_alignment=CY_FLASH_SIZEOF_ROW
 144:.\Generated_Source\PSoC4/BLE.c ****         const uint8 cyBle_StackFlashptr[CYBLE_STACK_FLASH_SIZE] = {0u};
 145:.\Generated_Source\PSoC4/BLE.c ****     #endif  /* (__ARMCC_VERSION) */
 146:.\Generated_Source\PSoC4/BLE.c **** #endif /* (CYBLE_MODE_PROFILE) */
 147:.\Generated_Source\PSoC4/BLE.c **** 
 148:.\Generated_Source\PSoC4/BLE.c **** 
 149:.\Generated_Source\PSoC4/BLE.c **** /******************************************************************************
 150:.\Generated_Source\PSoC4/BLE.c **** * Function Name: CyBle_Init
 151:.\Generated_Source\PSoC4/BLE.c **** ***************************************************************************//**
 152:.\Generated_Source\PSoC4/BLE.c **** *
 153:.\Generated_Source\PSoC4/BLE.c **** *   Initializes the component with the parameters set in the customizer.
 154:.\Generated_Source\PSoC4/BLE.c **** * 
 155:.\Generated_Source\PSoC4/BLE.c **** *  \return
 156:.\Generated_Source\PSoC4/BLE.c **** *   None
 157:.\Generated_Source\PSoC4/BLE.c **** * 
 158:.\Generated_Source\PSoC4/BLE.c **** ******************************************************************************/
 159:.\Generated_Source\PSoC4/BLE.c **** void CyBle_Init(void)
 160:.\Generated_Source\PSoC4/BLE.c **** {
 165              		.loc 1 160 0
 166              		.cfi_startproc
 167 0000 80B5     		push	{r7, lr}
 168              		.cfi_def_cfa_offset 8
 169              		.cfi_offset 7, -8
 170              		.cfi_offset 14, -4
 171 0002 00AF     		add	r7, sp, #0
 172              		.cfi_def_cfa_register 7
 161:.\Generated_Source\PSoC4/BLE.c ****     cyBle_eventHandlerFlag = 0u;
 173              		.loc 1 161 0
 174 0004 064B     		ldr	r3, .L2
 175 0006 0022     		mov	r2, #0
 176 0008 1A70     		strb	r2, [r3]
 162:.\Generated_Source\PSoC4/BLE.c ****     cyBle_busyStatus = CYBLE_STACK_STATE_FREE;
ARM GAS  C:\Users\Petro\AppData\Local\Temp\cc6Lo8fB.s 			page 7


 177              		.loc 1 162 0
 178 000a 064B     		ldr	r3, .L2+4
 179 000c 0022     		mov	r2, #0
 180 000e 1A70     		strb	r2, [r3]
 163:.\Generated_Source\PSoC4/BLE.c **** 
 164:.\Generated_Source\PSoC4/BLE.c ****     #if(CYBLE_GAP_ROLE_PERIPHERAL || CYBLE_GAP_ROLE_BROADCASTER) 
 165:.\Generated_Source\PSoC4/BLE.c ****         cyBle_advertisingIntervalType = CYBLE_ADVERTISING_FAST; 
 181              		.loc 1 165 0
 182 0010 054B     		ldr	r3, .L2+8
 183 0012 0022     		mov	r2, #0
 184 0014 1A70     		strb	r2, [r3]
 166:.\Generated_Source\PSoC4/BLE.c ****     #endif /* (CYBLE_GAP_ROLE_PERIPHERAL || CYBLE_GAP_ROLE_BROADCASTER)  */
 167:.\Generated_Source\PSoC4/BLE.c ****     #if(CYBLE_GAP_ROLE_CENTRAL || CYBLE_GAP_ROLE_OBSERVER)
 168:.\Generated_Source\PSoC4/BLE.c ****         cyBle_scanningIntervalType = CYBLE_SCANNING_FAST; 
 169:.\Generated_Source\PSoC4/BLE.c ****     #endif /* (CYBLE_GAP_ROLE_CENTRAL || CYBLE_GAP_ROLE_OBSERVER) */
 170:.\Generated_Source\PSoC4/BLE.c ****         
 171:.\Generated_Source\PSoC4/BLE.c ****     /* Init default connection parameters. 
 172:.\Generated_Source\PSoC4/BLE.c ****        Application may change it before initiating a connection */
 173:.\Generated_Source\PSoC4/BLE.c ****     #if(CYBLE_GAP_ROLE_CENTRAL)
 174:.\Generated_Source\PSoC4/BLE.c ****         cyBle_connectionParameters.scanIntv = cyBle_discoveryInfo.scanIntv;
 175:.\Generated_Source\PSoC4/BLE.c ****         cyBle_connectionParameters.scanWindow = cyBle_discoveryInfo.scanWindow;
 176:.\Generated_Source\PSoC4/BLE.c ****         cyBle_connectionParameters.ownAddrType = cyBle_discoveryInfo.ownAddrType;
 177:.\Generated_Source\PSoC4/BLE.c ****         cyBle_connectionParameters.initiatorFilterPolicy = cyBle_discoveryInfo.scanFilterPolicy;
 178:.\Generated_Source\PSoC4/BLE.c ****         cyBle_connectionParameters.connIntvMin = CYBLE_GAPC_CONNECTION_INTERVAL_MIN;
 179:.\Generated_Source\PSoC4/BLE.c ****         cyBle_connectionParameters.connIntvMax = CYBLE_GAPC_CONNECTION_INTERVAL_MAX;
 180:.\Generated_Source\PSoC4/BLE.c ****         cyBle_connectionParameters.connLatency = CYBLE_GAPC_CONNECTION_SLAVE_LATENCY;
 181:.\Generated_Source\PSoC4/BLE.c ****         cyBle_connectionParameters.supervisionTO = CYBLE_GAPC_CONNECTION_TIME_OUT;
 182:.\Generated_Source\PSoC4/BLE.c ****         cyBle_connectionParameters.minCeLength = 0x0000u;
 183:.\Generated_Source\PSoC4/BLE.c ****         cyBle_connectionParameters.maxCeLength = 0xFFFFu;
 184:.\Generated_Source\PSoC4/BLE.c ****         
 185:.\Generated_Source\PSoC4/BLE.c ****         cyBle_connectingTimeout = CYBLE_GAPC_CONNECTING_TIMEOUT;
 186:.\Generated_Source\PSoC4/BLE.c ****     #endif /* CYBLE_GAP_ROLE_CENTRAL */
 187:.\Generated_Source\PSoC4/BLE.c **** 
 188:.\Generated_Source\PSoC4/BLE.c ****     CyBle_ServiceInit();
 185              		.loc 1 188 0
 186 0016 FFF7FEFF 		bl	CyBle_ServiceInit
 189:.\Generated_Source\PSoC4/BLE.c **** 
 190:.\Generated_Source\PSoC4/BLE.c ****     #if((CYBLE_GAP_ROLE_PERIPHERAL || CYBLE_GAP_ROLE_CENTRAL) && (CYBLE_BONDING_REQUIREMENT == CYBL
 191:.\Generated_Source\PSoC4/BLE.c ****         cyBle_pendingFlashWrite = 0u;
 192:.\Generated_Source\PSoC4/BLE.c ****         cyBle_peerBonding = CYBLE_GAP_BONDING_NONE;
 193:.\Generated_Source\PSoC4/BLE.c ****     #endif  /* (CYBLE_BONDING_REQUIREMENT == CYBLE_BONDING_YES) */
 194:.\Generated_Source\PSoC4/BLE.c **** 
 195:.\Generated_Source\PSoC4/BLE.c **** }
 187              		.loc 1 195 0
 188 001a BD46     		mov	sp, r7
 189              		@ sp needed
 190 001c 80BD     		pop	{r7, pc}
 191              	.L3:
 192 001e C046     		.align	2
 193              	.L2:
 194 0020 00000000 		.word	cyBle_eventHandlerFlag
 195 0024 00000000 		.word	cyBle_busyStatus
 196 0028 00000000 		.word	cyBle_advertisingIntervalType
 197              		.cfi_endproc
 198              	.LFE2:
 199              		.size	CyBle_Init, .-CyBle_Init
 200              		.section	.text.CyBle_ServiceInit,"ax",%progbits
ARM GAS  C:\Users\Petro\AppData\Local\Temp\cc6Lo8fB.s 			page 8


 201              		.align	2
 202              		.global	CyBle_ServiceInit
 203              		.code	16
 204              		.thumb_func
 205              		.type	CyBle_ServiceInit, %function
 206              	CyBle_ServiceInit:
 207              	.LFB3:
 196:.\Generated_Source\PSoC4/BLE.c **** 
 197:.\Generated_Source\PSoC4/BLE.c **** 
 198:.\Generated_Source\PSoC4/BLE.c **** /******************************************************************************
 199:.\Generated_Source\PSoC4/BLE.c **** * Function Name: CyBle_ServiceInit
 200:.\Generated_Source\PSoC4/BLE.c **** ***************************************************************************//**
 201:.\Generated_Source\PSoC4/BLE.c **** * 
 202:.\Generated_Source\PSoC4/BLE.c **** *  Initializes all included services.
 203:.\Generated_Source\PSoC4/BLE.c **** * 
 204:.\Generated_Source\PSoC4/BLE.c **** * \return
 205:.\Generated_Source\PSoC4/BLE.c **** *  None
 206:.\Generated_Source\PSoC4/BLE.c **** * 
 207:.\Generated_Source\PSoC4/BLE.c **** ******************************************************************************/
 208:.\Generated_Source\PSoC4/BLE.c **** void CyBle_ServiceInit(void)
 209:.\Generated_Source\PSoC4/BLE.c **** {
 208              		.loc 1 209 0
 209              		.cfi_startproc
 210 0000 80B5     		push	{r7, lr}
 211              		.cfi_def_cfa_offset 8
 212              		.cfi_offset 7, -8
 213              		.cfi_offset 14, -4
 214 0002 00AF     		add	r7, sp, #0
 215              		.cfi_def_cfa_register 7
 210:.\Generated_Source\PSoC4/BLE.c ****     #if(CYBLE_GATT_ROLE_CLIENT)
 211:.\Generated_Source\PSoC4/BLE.c ****         (void)memset(&cyBle_gapc, 0, sizeof(cyBle_gapc));
 212:.\Generated_Source\PSoC4/BLE.c ****         (void)memset(&cyBle_gattc, 0, sizeof(cyBle_gattc));
 213:.\Generated_Source\PSoC4/BLE.c ****     #endif /* CYBLE_GATT_ROLE_CLIENT */
 214:.\Generated_Source\PSoC4/BLE.c ****     
 215:.\Generated_Source\PSoC4/BLE.c **** 	#ifdef CYBLE_ANCS
 216:.\Generated_Source\PSoC4/BLE.c ****         CyBle_AncsInit();
 217:.\Generated_Source\PSoC4/BLE.c ****     #endif /* CYBLE_ANCS */
 218:.\Generated_Source\PSoC4/BLE.c **** 	
 219:.\Generated_Source\PSoC4/BLE.c ****     #ifdef CYBLE_ANS
 220:.\Generated_Source\PSoC4/BLE.c ****         CyBle_AnsInit();
 221:.\Generated_Source\PSoC4/BLE.c ****     #endif /* CYBLE_ANS */
 222:.\Generated_Source\PSoC4/BLE.c ****     
 223:.\Generated_Source\PSoC4/BLE.c ****     #ifdef CYBLE_BAS
 224:.\Generated_Source\PSoC4/BLE.c ****         CyBle_BasInit();
 216              		.loc 1 224 0
 217 0004 FFF7FEFF 		bl	CyBle_BasInit
 225:.\Generated_Source\PSoC4/BLE.c ****     #endif /* CYBLE_BAS */
 226:.\Generated_Source\PSoC4/BLE.c ****     
 227:.\Generated_Source\PSoC4/BLE.c ****     #ifdef CYBLE_BLS
 228:.\Generated_Source\PSoC4/BLE.c ****         CyBle_BlsInit();
 229:.\Generated_Source\PSoC4/BLE.c ****     #endif /* CYBLE_BLS */
 230:.\Generated_Source\PSoC4/BLE.c ****     
 231:.\Generated_Source\PSoC4/BLE.c ****     #ifdef CYBLE_BMS
 232:.\Generated_Source\PSoC4/BLE.c ****         CyBle_BmsInit();
 233:.\Generated_Source\PSoC4/BLE.c ****     #endif /* CYBLE_BMS */
 234:.\Generated_Source\PSoC4/BLE.c ****     
 235:.\Generated_Source\PSoC4/BLE.c ****     #ifdef CYBLE_CGMS
ARM GAS  C:\Users\Petro\AppData\Local\Temp\cc6Lo8fB.s 			page 9


 236:.\Generated_Source\PSoC4/BLE.c ****         CyBle_CgmsInit();
 237:.\Generated_Source\PSoC4/BLE.c ****     #endif /* CYBLE_CGMS */
 238:.\Generated_Source\PSoC4/BLE.c **** 
 239:.\Generated_Source\PSoC4/BLE.c ****     #ifdef CYBLE_CPS
 240:.\Generated_Source\PSoC4/BLE.c ****         CyBle_CpsInit();
 241:.\Generated_Source\PSoC4/BLE.c ****     #endif /* CYBLE_CPS */
 242:.\Generated_Source\PSoC4/BLE.c **** 
 243:.\Generated_Source\PSoC4/BLE.c ****     #ifdef CYBLE_CSCS
 244:.\Generated_Source\PSoC4/BLE.c ****         CyBle_CscsInit();
 245:.\Generated_Source\PSoC4/BLE.c ****     #endif /* CYBLE_CSCS */
 246:.\Generated_Source\PSoC4/BLE.c ****     
 247:.\Generated_Source\PSoC4/BLE.c ****     #ifdef CYBLE_CTS
 248:.\Generated_Source\PSoC4/BLE.c ****         CyBle_CtsInit();
 249:.\Generated_Source\PSoC4/BLE.c ****     #endif /* CYBLE_CTS */
 250:.\Generated_Source\PSoC4/BLE.c **** 
 251:.\Generated_Source\PSoC4/BLE.c ****     #ifdef CYBLE_DIS
 252:.\Generated_Source\PSoC4/BLE.c ****         CyBle_DisInit();
 218              		.loc 1 252 0
 219 0008 FFF7FEFF 		bl	CyBle_DisInit
 253:.\Generated_Source\PSoC4/BLE.c ****     #endif /* CYBLE_DIS */
 254:.\Generated_Source\PSoC4/BLE.c **** 
 255:.\Generated_Source\PSoC4/BLE.c ****     #ifdef CYBLE_ESS
 256:.\Generated_Source\PSoC4/BLE.c ****         CyBle_EssInit();
 257:.\Generated_Source\PSoC4/BLE.c ****     #endif /* CYBLE_ESS */
 258:.\Generated_Source\PSoC4/BLE.c ****     
 259:.\Generated_Source\PSoC4/BLE.c ****     #ifdef CYBLE_GLS
 260:.\Generated_Source\PSoC4/BLE.c ****         CyBle_GlsInit();
 261:.\Generated_Source\PSoC4/BLE.c ****     #endif /* CYBLE_GLS */
 262:.\Generated_Source\PSoC4/BLE.c ****     
 263:.\Generated_Source\PSoC4/BLE.c ****     #ifdef CYBLE_CUSTOM
 264:.\Generated_Source\PSoC4/BLE.c ****         CyBle_CustomInit();
 265:.\Generated_Source\PSoC4/BLE.c ****     #endif /* CYBLE_CUSTOM */
 266:.\Generated_Source\PSoC4/BLE.c **** 
 267:.\Generated_Source\PSoC4/BLE.c ****     #ifdef CYBLE_HIDS
 268:.\Generated_Source\PSoC4/BLE.c ****         CyBle_HidsInit();
 269:.\Generated_Source\PSoC4/BLE.c ****     #endif /* CYBLE_HIDS */
 270:.\Generated_Source\PSoC4/BLE.c **** 
 271:.\Generated_Source\PSoC4/BLE.c ****     #ifdef CYBLE_HRS
 272:.\Generated_Source\PSoC4/BLE.c ****         CyBle_HrsInit();
 273:.\Generated_Source\PSoC4/BLE.c ****     #endif /* CYBLE_HRS */
 274:.\Generated_Source\PSoC4/BLE.c ****     
 275:.\Generated_Source\PSoC4/BLE.c ****     #ifdef CYBLE_HTS
 276:.\Generated_Source\PSoC4/BLE.c ****         CyBle_HtsInit();
 277:.\Generated_Source\PSoC4/BLE.c ****     #endif /* CYBLE_RSCS */
 278:.\Generated_Source\PSoC4/BLE.c **** 
 279:.\Generated_Source\PSoC4/BLE.c ****     #ifdef CYBLE_IAS
 280:.\Generated_Source\PSoC4/BLE.c ****         CyBle_IasInit();
 281:.\Generated_Source\PSoC4/BLE.c ****     #endif /* CYBLE_IAS */
 282:.\Generated_Source\PSoC4/BLE.c **** 
 283:.\Generated_Source\PSoC4/BLE.c ****     #ifdef CYBLE_LLS
 284:.\Generated_Source\PSoC4/BLE.c ****         CyBle_LlsInit();
 285:.\Generated_Source\PSoC4/BLE.c ****     #endif /* CYBLE_LLS */
 286:.\Generated_Source\PSoC4/BLE.c **** 
 287:.\Generated_Source\PSoC4/BLE.c ****     #ifdef CYBLE_RTUS
 288:.\Generated_Source\PSoC4/BLE.c ****         CyBle_RtusInit();
 289:.\Generated_Source\PSoC4/BLE.c ****     #endif /* CYBLE_RTUS */
 290:.\Generated_Source\PSoC4/BLE.c **** 
ARM GAS  C:\Users\Petro\AppData\Local\Temp\cc6Lo8fB.s 			page 10


 291:.\Generated_Source\PSoC4/BLE.c ****     #ifdef CYBLE_LNS
 292:.\Generated_Source\PSoC4/BLE.c ****         CyBle_LnsInit();
 293:.\Generated_Source\PSoC4/BLE.c ****     #endif /* CYBLE_LNS */
 294:.\Generated_Source\PSoC4/BLE.c ****     
 295:.\Generated_Source\PSoC4/BLE.c ****     #ifdef CYBLE_PASS
 296:.\Generated_Source\PSoC4/BLE.c ****         CyBle_PassInit();
 297:.\Generated_Source\PSoC4/BLE.c ****     #endif /* CYBLE_PASS */
 298:.\Generated_Source\PSoC4/BLE.c ****     
 299:.\Generated_Source\PSoC4/BLE.c ****     #ifdef CYBLE_RSCS
 300:.\Generated_Source\PSoC4/BLE.c ****         CyBle_RscsInit();
 301:.\Generated_Source\PSoC4/BLE.c ****     #endif /* CYBLE_RSCS */
 302:.\Generated_Source\PSoC4/BLE.c **** 
 303:.\Generated_Source\PSoC4/BLE.c ****     #ifdef CYBLE_SCPS
 304:.\Generated_Source\PSoC4/BLE.c ****         CyBle_ScpsInit();
 305:.\Generated_Source\PSoC4/BLE.c ****     #endif /* CYBLE_SCPS */
 306:.\Generated_Source\PSoC4/BLE.c ****     
 307:.\Generated_Source\PSoC4/BLE.c ****     #ifdef CYBLE_TPS
 308:.\Generated_Source\PSoC4/BLE.c ****         CyBle_TpsInit();
 309:.\Generated_Source\PSoC4/BLE.c ****     #endif /* CYBLE_TPS */
 310:.\Generated_Source\PSoC4/BLE.c ****     
 311:.\Generated_Source\PSoC4/BLE.c ****     #ifdef CYBLE_UDS
 312:.\Generated_Source\PSoC4/BLE.c ****         CyBle_UdsInit();
 313:.\Generated_Source\PSoC4/BLE.c ****     #endif /* CYBLE_UDS */
 314:.\Generated_Source\PSoC4/BLE.c **** 
 315:.\Generated_Source\PSoC4/BLE.c ****     #ifdef CYBLE_WPTS
 316:.\Generated_Source\PSoC4/BLE.c ****         CyBle_WptsInit();
 317:.\Generated_Source\PSoC4/BLE.c ****     #endif /* CYBLE_WPTS */
 318:.\Generated_Source\PSoC4/BLE.c **** 
 319:.\Generated_Source\PSoC4/BLE.c ****     #ifdef CYBLE_WSS
 320:.\Generated_Source\PSoC4/BLE.c ****         CyBle_WssInit();
 321:.\Generated_Source\PSoC4/BLE.c ****     #endif /* CYBLE_WSS */
 322:.\Generated_Source\PSoC4/BLE.c **** }
 220              		.loc 1 322 0
 221 000c BD46     		mov	sp, r7
 222              		@ sp needed
 223 000e 80BD     		pop	{r7, pc}
 224              		.cfi_endproc
 225              	.LFE3:
 226              		.size	CyBle_ServiceInit, .-CyBle_ServiceInit
 227              		.section	.rodata
 228 016d 000000   		.align	2
 229              	.LC0:
 230 0170 2400     		.short	36
 231 0172 03       		.byte	3
 232 0173 00       		.space	1
 233 0174 2400     		.short	36
 234 0176 01       		.byte	1
 235 0177 00       		.space	1
 236 0178 3000     		.short	48
 237 017a 01       		.byte	1
 238 017b 00       		.space	1
 239 017c 4800     		.short	72
 240 017e 01       		.byte	1
 241 017f 00       		.space	1
 242 0180 2400     		.short	36
 243 0182 01       		.byte	1
 244 0183 00       		.space	1
ARM GAS  C:\Users\Petro\AppData\Local\Temp\cc6Lo8fB.s 			page 11


 245 0184 2400     		.short	36
 246 0186 01       		.byte	1
 247 0187 00       		.space	1
 248 0188 00000000 		.section	.text.CyBle_Start,"ax",%progbits
 248      00000000 
 248      00000000 
 248      00000000 
 248      00000000 
 249              		.align	2
 250              		.global	CyBle_Start
 251              		.code	16
 252              		.thumb_func
 253              		.type	CyBle_Start, %function
 254              	CyBle_Start:
 255              	.LFB4:
 323:.\Generated_Source\PSoC4/BLE.c **** 
 324:.\Generated_Source\PSoC4/BLE.c **** 
 325:.\Generated_Source\PSoC4/BLE.c **** /******************************************************************************
 326:.\Generated_Source\PSoC4/BLE.c **** * Function Name: CyBle_Start
 327:.\Generated_Source\PSoC4/BLE.c **** ***************************************************************************//**
 328:.\Generated_Source\PSoC4/BLE.c **** * 
 329:.\Generated_Source\PSoC4/BLE.c **** *  This function initializes the BLE Stack, which consists of the BLE Stack 
 330:.\Generated_Source\PSoC4/BLE.c **** *  Manager, BLE Controller, and BLE Host modules. It takes care of initializing
 331:.\Generated_Source\PSoC4/BLE.c **** *  the Profile layer, schedulers, Timer and other platform related
 332:.\Generated_Source\PSoC4/BLE.c **** *  resources required for the BLE component. It also registers the callback 
 333:.\Generated_Source\PSoC4/BLE.c **** *  function for BLE events that will be registered in the BLE stack.
 334:.\Generated_Source\PSoC4/BLE.c **** * 
 335:.\Generated_Source\PSoC4/BLE.c **** *  Note that this function does not reset the BLE Stack.
 336:.\Generated_Source\PSoC4/BLE.c **** * 
 337:.\Generated_Source\PSoC4/BLE.c **** *  For HCI-Mode of operation, this function will not initialize the BLE Host 
 338:.\Generated_Source\PSoC4/BLE.c **** *  module.
 339:.\Generated_Source\PSoC4/BLE.c **** * 
 340:.\Generated_Source\PSoC4/BLE.c **** *  Calling this function results in the generation of CYBLE_EVT_STACK_ON event
 341:.\Generated_Source\PSoC4/BLE.c **** *  on successful initialization of the BLE Stack.
 342:.\Generated_Source\PSoC4/BLE.c **** * 
 343:.\Generated_Source\PSoC4/BLE.c **** *  \param callbackFunc: Event callback function to receive events from BLE stack.
 344:.\Generated_Source\PSoC4/BLE.c **** *   CYBLE_CALLBACK_T is a function pointer type.
 345:.\Generated_Source\PSoC4/BLE.c **** * 
 346:.\Generated_Source\PSoC4/BLE.c **** * \return
 347:.\Generated_Source\PSoC4/BLE.c **** *  CYBLE_API_RESULT_T : Return value indicates if the function succeeded or 
 348:.\Generated_Source\PSoC4/BLE.c **** *  failed. Following are the possible error codes.
 349:.\Generated_Source\PSoC4/BLE.c **** * 
 350:.\Generated_Source\PSoC4/BLE.c **** *   <table>
 351:.\Generated_Source\PSoC4/BLE.c **** *  	  <tr>
 352:.\Generated_Source\PSoC4/BLE.c **** *       <th>Error codes</th>
 353:.\Generated_Source\PSoC4/BLE.c **** *       <th>Description</th>
 354:.\Generated_Source\PSoC4/BLE.c **** *     </tr>
 355:.\Generated_Source\PSoC4/BLE.c **** *     <tr>
 356:.\Generated_Source\PSoC4/BLE.c **** *       <td>CYBLE_ERROR_OK</td>
 357:.\Generated_Source\PSoC4/BLE.c **** *       <td>On successful operation.</td>
 358:.\Generated_Source\PSoC4/BLE.c **** *     </tr>
 359:.\Generated_Source\PSoC4/BLE.c **** *     <tr>
 360:.\Generated_Source\PSoC4/BLE.c **** *       <td>CYBLE_ERROR_INVALID_PARAMETER</td>
 361:.\Generated_Source\PSoC4/BLE.c **** *       <td>On passing a NULL pointer to the function when the BLE stack is not built in HCI mode. 
 362:.\Generated_Source\PSoC4/BLE.c **** *			CYBLE_ERROR_INVALID_PARAMETER is never returned in HCI mode.</td>
 363:.\Generated_Source\PSoC4/BLE.c **** *     </tr>
 364:.\Generated_Source\PSoC4/BLE.c **** *     <tr>
ARM GAS  C:\Users\Petro\AppData\Local\Temp\cc6Lo8fB.s 			page 12


 365:.\Generated_Source\PSoC4/BLE.c **** *       <td>CYBLE_ERROR_REPEATED_ATTEMPTS</td>
 366:.\Generated_Source\PSoC4/BLE.c **** *       <td>On invoking this function more than once without calling CyBle_Shutdown() 
 367:.\Generated_Source\PSoC4/BLE.c **** *           function between calls to this function.</td>
 368:.\Generated_Source\PSoC4/BLE.c **** *     </tr>
 369:.\Generated_Source\PSoC4/BLE.c **** *     <tr>
 370:.\Generated_Source\PSoC4/BLE.c **** *       <td>CYBLE_ERROR_MEMORY_ALLOCATION_FAILED</td>
 371:.\Generated_Source\PSoC4/BLE.c **** *       <td>There is insufficient memory available.</td>
 372:.\Generated_Source\PSoC4/BLE.c **** *     </tr>
 373:.\Generated_Source\PSoC4/BLE.c **** *   </table>
 374:.\Generated_Source\PSoC4/BLE.c **** * 
 375:.\Generated_Source\PSoC4/BLE.c **** *  \globalvars
 376:.\Generated_Source\PSoC4/BLE.c **** *   The CyBle_initVar variable is used to indicate initial
 377:.\Generated_Source\PSoC4/BLE.c **** *   configuration of this component. The variable is initialized to zero (0u)
 378:.\Generated_Source\PSoC4/BLE.c **** *   and set to one (1u) the first time CyBle_Start() is called. This
 379:.\Generated_Source\PSoC4/BLE.c **** *   allows for component initialization without re-initialization in all
 380:.\Generated_Source\PSoC4/BLE.c **** *   subsequent calls to the CyBle_Start() routine.
 381:.\Generated_Source\PSoC4/BLE.c **** * 
 382:.\Generated_Source\PSoC4/BLE.c **** ******************************************************************************/
 383:.\Generated_Source\PSoC4/BLE.c **** CYBLE_API_RESULT_T CyBle_Start(CYBLE_CALLBACK_T callbackFunc)
 384:.\Generated_Source\PSoC4/BLE.c **** {
 256              		.loc 1 384 0
 257              		.cfi_startproc
 258 0000 B0B5     		push	{r4, r5, r7, lr}
 259              		.cfi_def_cfa_offset 16
 260              		.cfi_offset 4, -16
 261              		.cfi_offset 5, -12
 262              		.cfi_offset 7, -8
 263              		.cfi_offset 14, -4
 264 0002 8EB0     		sub	sp, sp, #56
 265              		.cfi_def_cfa_offset 72
 266 0004 04AF     		add	r7, sp, #16
 267              		.cfi_def_cfa 7, 56
 268 0006 7860     		str	r0, [r7, #4]
 385:.\Generated_Source\PSoC4/BLE.c ****     CYBLE_API_RESULT_T apiResult = CYBLE_ERROR_OK;
 269              		.loc 1 385 0
 270 0008 2623     		mov	r3, #38
 271 000a FB18     		add	r3, r7, r3
 272 000c 0022     		mov	r2, #0
 273 000e 1A80     		strh	r2, [r3]
 386:.\Generated_Source\PSoC4/BLE.c ****     
 387:.\Generated_Source\PSoC4/BLE.c ****     #if(CYBLE_MODE_PROFILE)
 388:.\Generated_Source\PSoC4/BLE.c ****     
 389:.\Generated_Source\PSoC4/BLE.c ****     CYBLE_STK_APP_DATA_BUFF_T cyBle_stackDataBuff[CYBLE_STACK_BUF_COUNT] = 
 274              		.loc 1 389 0
 275 0010 0C23     		mov	r3, #12
 276 0012 FA18     		add	r2, r7, r3
 277 0014 274B     		ldr	r3, .L11
 278 0016 111C     		mov	r1, r2
 279 0018 1A1C     		mov	r2, r3
 280 001a 1823     		mov	r3, #24
 281 001c 081C     		mov	r0, r1
 282 001e 111C     		mov	r1, r2
 283 0020 1A1C     		mov	r2, r3
 284 0022 FFF7FEFF 		bl	memcpy
 390:.\Generated_Source\PSoC4/BLE.c ****     {
 391:.\Generated_Source\PSoC4/BLE.c ****         {CYBLE_GATT_MTU_PLUS_L2CAP_MEM_EXT, CYBLE_GATT_MTU_BUF_COUNT},
 392:.\Generated_Source\PSoC4/BLE.c ****         {CYBLE_GATT_MAX_ATTR_LEN_PLUS_L2CAP_MEM_EXT, 1u},
ARM GAS  C:\Users\Petro\AppData\Local\Temp\cc6Lo8fB.s 			page 13


 393:.\Generated_Source\PSoC4/BLE.c ****         {CYBLE_L2CAP_PSM_PLUS_L2CAP_MEM_EXT, CYBLE_L2CAP_PSM_COUNT},
 394:.\Generated_Source\PSoC4/BLE.c ****         {CYBLE_L2CAP_CBFC_PLUS_L2CAP_MEM_EXT, CYBLE_L2CAP_LOGICAL_CHANNEL_COUNT},
 395:.\Generated_Source\PSoC4/BLE.c ****         {CYBLE_L2CAP_MTU_PLUS_L2CAP_MEM_EXT, CYBLE_L2CAP_LOGICAL_CHANNEL_COUNT},
 396:.\Generated_Source\PSoC4/BLE.c ****         {CYBLE_L2CAP_MPS_PLUS_L2CAP_MEM_EXT, CYBLE_L2CAP_LOGICAL_CHANNEL_COUNT * (CYBLE_L2CAP_MTU/C
 397:.\Generated_Source\PSoC4/BLE.c ****     }; 
 398:.\Generated_Source\PSoC4/BLE.c **** 
 399:.\Generated_Source\PSoC4/BLE.c ****     #endif /* CYBLE_MODE_PROFILE */
 400:.\Generated_Source\PSoC4/BLE.c ****     
 401:.\Generated_Source\PSoC4/BLE.c ****     /* If not initialized then initialize all the required hardware and software */
 402:.\Generated_Source\PSoC4/BLE.c ****     if(cyBle_initVar == 0u)
 285              		.loc 1 402 0
 286 0026 244B     		ldr	r3, .L11+4
 287 0028 1B78     		ldrb	r3, [r3]
 288 002a 002B     		cmp	r3, #0
 289 002c 04D1     		bne	.L6
 403:.\Generated_Source\PSoC4/BLE.c ****     {
 404:.\Generated_Source\PSoC4/BLE.c ****         CyBle_Init();
 290              		.loc 1 404 0
 291 002e FFF7FEFF 		bl	CyBle_Init
 405:.\Generated_Source\PSoC4/BLE.c ****         cyBle_initVar = 1u;
 292              		.loc 1 405 0
 293 0032 214B     		ldr	r3, .L11+4
 294 0034 0122     		mov	r2, #1
 295 0036 1A70     		strb	r2, [r3]
 296              	.L6:
 406:.\Generated_Source\PSoC4/BLE.c ****     }
 407:.\Generated_Source\PSoC4/BLE.c ****     
 408:.\Generated_Source\PSoC4/BLE.c ****     if(callbackFunc != NULL)
 297              		.loc 1 408 0
 298 0038 7B68     		ldr	r3, [r7, #4]
 299 003a 002B     		cmp	r3, #0
 300 003c 2ED0     		beq	.L7
 409:.\Generated_Source\PSoC4/BLE.c ****     {
 410:.\Generated_Source\PSoC4/BLE.c ****     #if(CYBLE_SHARING_MODE_EXPORT)
 411:.\Generated_Source\PSoC4/BLE.c ****         if(cyBle_stackMemoryRam == NULL)
 412:.\Generated_Source\PSoC4/BLE.c ****         {
 413:.\Generated_Source\PSoC4/BLE.c ****             cyBle_stackMemoryRam = (uint8 *)malloc(CYBLE_STACK_RAM_SIZE);
 414:.\Generated_Source\PSoC4/BLE.c ****             if(cyBle_stackMemoryRam == NULL)
 415:.\Generated_Source\PSoC4/BLE.c ****             {
 416:.\Generated_Source\PSoC4/BLE.c ****                 apiResult = CYBLE_ERROR_MEMORY_ALLOCATION_FAILED;
 417:.\Generated_Source\PSoC4/BLE.c ****             } 
 418:.\Generated_Source\PSoC4/BLE.c ****         }
 419:.\Generated_Source\PSoC4/BLE.c ****     #endif /* CYBLE_SHARING_MODE_EXPORT */
 420:.\Generated_Source\PSoC4/BLE.c ****         if(apiResult == CYBLE_ERROR_OK)
 301              		.loc 1 420 0
 302 003e 2623     		mov	r3, #38
 303 0040 FB18     		add	r3, r7, r3
 304 0042 1B88     		ldrh	r3, [r3]
 305 0044 002B     		cmp	r3, #0
 306 0046 2DD1     		bne	.L9
 421:.\Generated_Source\PSoC4/BLE.c ****         {
 422:.\Generated_Source\PSoC4/BLE.c ****             CyBle_ApplCallback = callbackFunc;
 307              		.loc 1 422 0
 308 0048 1C4B     		ldr	r3, .L11+8
 309 004a 7A68     		ldr	r2, [r7, #4]
 310 004c 1A60     		str	r2, [r3]
 423:.\Generated_Source\PSoC4/BLE.c ****             
ARM GAS  C:\Users\Petro\AppData\Local\Temp\cc6Lo8fB.s 			page 14


 424:.\Generated_Source\PSoC4/BLE.c ****         #if(CYBLE_MODE_PROFILE)
 425:.\Generated_Source\PSoC4/BLE.c ****             apiResult = CyBle_StackInit(&CyBle_EventHandler, cyBle_stackMemoryRam, CYBLE_STACK_RAM_
 311              		.loc 1 425 0
 312 004e 2623     		mov	r3, #38
 313 0050 FC18     		add	r4, r7, r3
 314 0052 1B48     		ldr	r0, .L11+12
 315 0054 1B49     		ldr	r1, .L11+16
 316 0056 AD23     		mov	r3, #173
 317 0058 1A01     		lsl	r2, r3, #4
 318 005a 0C23     		mov	r3, #12
 319 005c FD18     		add	r5, r7, r3
 320 005e 0623     		mov	r3, #6
 321 0060 0093     		str	r3, [sp]
 322 0062 194B     		ldr	r3, .L11+20
 323 0064 0193     		str	r3, [sp, #4]
 324 0066 6E23     		mov	r3, #110
 325 0068 FF33     		add	r3, r3, #255
 326 006a 0293     		str	r3, [sp, #8]
 327 006c 2B1C     		mov	r3, r5
 328 006e FFF7FEFF 		bl	CyBle_StackInit
 329 0072 031C     		mov	r3, r0
 330 0074 2380     		strh	r3, [r4]
 426:.\Generated_Source\PSoC4/BLE.c ****                 cyBle_stackDataBuff, CYBLE_STACK_BUF_COUNT, cyBle_flashStorage.stackFlashptr, CYBLE
 427:.\Generated_Source\PSoC4/BLE.c ****         #else
 428:.\Generated_Source\PSoC4/BLE.c ****             apiResult = CyBle_StackInit(&CyBle_EventHandler, cyBle_stackMemoryRam, CYBLE_STACK_RAM_
 429:.\Generated_Source\PSoC4/BLE.c ****                 NULL, 0u, NULL, 0u);
 430:.\Generated_Source\PSoC4/BLE.c ****         #endif /* CYBLE_MODE_PROFILE */
 431:.\Generated_Source\PSoC4/BLE.c **** 
 432:.\Generated_Source\PSoC4/BLE.c ****             if(apiResult == CYBLE_ERROR_OK)
 331              		.loc 1 432 0
 332 0076 2623     		mov	r3, #38
 333 0078 FB18     		add	r3, r7, r3
 334 007a 1B88     		ldrh	r3, [r3]
 335 007c 002B     		cmp	r3, #0
 336 007e 11D1     		bne	.L9
 433:.\Generated_Source\PSoC4/BLE.c ****             {
 434:.\Generated_Source\PSoC4/BLE.c ****                 CyBle_SetState(CYBLE_STATE_INITIALIZING);
 337              		.loc 1 434 0
 338 0080 124B     		ldr	r3, .L11+24
 339 0082 0122     		mov	r2, #1
 340 0084 1A70     		strb	r2, [r3]
 435:.\Generated_Source\PSoC4/BLE.c ****                 
 436:.\Generated_Source\PSoC4/BLE.c ****             #if (CYBLE_GATT_ROLE_CLIENT)
 437:.\Generated_Source\PSoC4/BLE.c ****                 CyBle_SetClientState(CYBLE_CLIENT_STATE_DISCONNECTED);
 438:.\Generated_Source\PSoC4/BLE.c ****             #endif /* CYBLE_GATT_ROLE_CLIENT */
 439:.\Generated_Source\PSoC4/BLE.c ****                 
 440:.\Generated_Source\PSoC4/BLE.c ****             #if(CYBLE_GATT_ROLE_SERVER)
 441:.\Generated_Source\PSoC4/BLE.c ****                 apiResult = CyBle_GattsDbRegister(cyBle_gattDB, CYBLE_GATT_DB_INDEX_COUNT, CYBLE_GA
 341              		.loc 1 441 0
 342 0086 2623     		mov	r3, #38
 343 0088 FC18     		add	r4, r7, r3
 344 008a 114B     		ldr	r3, .L11+28
 345 008c 181C     		mov	r0, r3
 346 008e 1C21     		mov	r1, #28
 347 0090 1522     		mov	r2, #21
 348 0092 FFF7FEFF 		bl	CyBle_GattsDbRegister
 349 0096 031C     		mov	r3, r0
ARM GAS  C:\Users\Petro\AppData\Local\Temp\cc6Lo8fB.s 			page 15


 350 0098 2380     		strh	r3, [r4]
 351 009a 03E0     		b	.L9
 352              	.L7:
 442:.\Generated_Source\PSoC4/BLE.c ****             #endif /* CYBLE_GATT_ROLE_SERVER */
 443:.\Generated_Source\PSoC4/BLE.c ****             }
 444:.\Generated_Source\PSoC4/BLE.c ****         }
 445:.\Generated_Source\PSoC4/BLE.c ****     }
 446:.\Generated_Source\PSoC4/BLE.c ****     else
 447:.\Generated_Source\PSoC4/BLE.c ****     {
 448:.\Generated_Source\PSoC4/BLE.c ****         apiResult = CYBLE_ERROR_INVALID_PARAMETER;
 353              		.loc 1 448 0
 354 009c 2623     		mov	r3, #38
 355 009e FB18     		add	r3, r7, r3
 356 00a0 0122     		mov	r2, #1
 357 00a2 1A80     		strh	r2, [r3]
 358              	.L9:
 449:.\Generated_Source\PSoC4/BLE.c ****     }
 450:.\Generated_Source\PSoC4/BLE.c **** 
 451:.\Generated_Source\PSoC4/BLE.c ****     return (apiResult);
 359              		.loc 1 451 0
 360 00a4 2623     		mov	r3, #38
 361 00a6 FB18     		add	r3, r7, r3
 362 00a8 1B88     		ldrh	r3, [r3]
 452:.\Generated_Source\PSoC4/BLE.c **** }
 363              		.loc 1 452 0
 364 00aa 181C     		mov	r0, r3
 365 00ac BD46     		mov	sp, r7
 366 00ae 0AB0     		add	sp, sp, #40
 367              		@ sp needed
 368 00b0 B0BD     		pop	{r4, r5, r7, pc}
 369              	.L12:
 370 00b2 C046     		.align	2
 371              	.L11:
 372 00b4 70010000 		.word	.LC0
 373 00b8 00000000 		.word	cyBle_initVar
 374 00bc 00000000 		.word	CyBle_ApplCallback
 375 00c0 00000000 		.word	CyBle_EventHandler
 376 00c4 00000000 		.word	cyBle_stackMemoryRam
 377 00c8 00000000 		.word	cyBle_flashStorage
 378 00cc 00000000 		.word	cyBle_state
 379 00d0 00000000 		.word	cyBle_gattDB
 380              		.cfi_endproc
 381              	.LFE4:
 382              		.size	CyBle_Start, .-CyBle_Start
 383              		.section	.text.CyBle_Stop,"ax",%progbits
 384              		.align	2
 385              		.global	CyBle_Stop
 386              		.code	16
 387              		.thumb_func
 388              		.type	CyBle_Stop, %function
 389              	CyBle_Stop:
 390              	.LFB5:
 453:.\Generated_Source\PSoC4/BLE.c **** 
 454:.\Generated_Source\PSoC4/BLE.c **** 
 455:.\Generated_Source\PSoC4/BLE.c **** /******************************************************************************
 456:.\Generated_Source\PSoC4/BLE.c **** * Function Name: CyBle_Stop
 457:.\Generated_Source\PSoC4/BLE.c **** ***************************************************************************//**
ARM GAS  C:\Users\Petro\AppData\Local\Temp\cc6Lo8fB.s 			page 16


 458:.\Generated_Source\PSoC4/BLE.c **** * 
 459:.\Generated_Source\PSoC4/BLE.c **** *  This function stops any ongoing operation in the BLE Stack and forces the 
 460:.\Generated_Source\PSoC4/BLE.c **** *  BLE Stack to shut down. The only function that can be called after calling
 461:.\Generated_Source\PSoC4/BLE.c **** *  this function is CyBle_Start(). 
 462:.\Generated_Source\PSoC4/BLE.c **** * 
 463:.\Generated_Source\PSoC4/BLE.c **** * \return
 464:.\Generated_Source\PSoC4/BLE.c **** *  None
 465:.\Generated_Source\PSoC4/BLE.c **** * 
 466:.\Generated_Source\PSoC4/BLE.c **** ******************************************************************************/
 467:.\Generated_Source\PSoC4/BLE.c **** void CyBle_Stop(void)
 468:.\Generated_Source\PSoC4/BLE.c **** {
 391              		.loc 1 468 0
 392              		.cfi_startproc
 393 0000 80B5     		push	{r7, lr}
 394              		.cfi_def_cfa_offset 8
 395              		.cfi_offset 7, -8
 396              		.cfi_offset 14, -4
 397 0002 00AF     		add	r7, sp, #0
 398              		.cfi_def_cfa_register 7
 469:.\Generated_Source\PSoC4/BLE.c ****     CyBle_Shutdown();                         /* Stop all ongoing activities */
 399              		.loc 1 469 0
 400 0004 FFF7FEFF 		bl	CyBle_Shutdown
 470:.\Generated_Source\PSoC4/BLE.c ****     CyBle_SetState(CYBLE_STATE_STOPPED);
 401              		.loc 1 470 0
 402 0008 024B     		ldr	r3, .L14
 403 000a 0022     		mov	r2, #0
 404 000c 1A70     		strb	r2, [r3]
 471:.\Generated_Source\PSoC4/BLE.c ****     #if(CYBLE_SHARING_MODE_EXPORT)
 472:.\Generated_Source\PSoC4/BLE.c ****         if(cyBle_stackMemoryRam != NULL)
 473:.\Generated_Source\PSoC4/BLE.c ****         {
 474:.\Generated_Source\PSoC4/BLE.c ****             free(cyBle_stackMemoryRam);
 475:.\Generated_Source\PSoC4/BLE.c ****         }
 476:.\Generated_Source\PSoC4/BLE.c ****     #endif /* CYBLE_SHARING_MODE_EXPORT */
 477:.\Generated_Source\PSoC4/BLE.c **** }
 405              		.loc 1 477 0
 406 000e BD46     		mov	sp, r7
 407              		@ sp needed
 408 0010 80BD     		pop	{r7, pc}
 409              	.L15:
 410 0012 C046     		.align	2
 411              	.L14:
 412 0014 00000000 		.word	cyBle_state
 413              		.cfi_endproc
 414              	.LFE5:
 415              		.size	CyBle_Stop, .-CyBle_Stop
 416              		.section	.text.CyBle_GappStartAdvertisement,"ax",%progbits
 417              		.align	2
 418              		.global	CyBle_GappStartAdvertisement
 419              		.code	16
 420              		.thumb_func
 421              		.type	CyBle_GappStartAdvertisement, %function
 422              	CyBle_GappStartAdvertisement:
 423              	.LFB6:
 478:.\Generated_Source\PSoC4/BLE.c **** 
 479:.\Generated_Source\PSoC4/BLE.c **** 
 480:.\Generated_Source\PSoC4/BLE.c **** #if((CYBLE_GAP_ROLE_PERIPHERAL || CYBLE_GAP_ROLE_CENTRAL) && (CYBLE_BONDING_REQUIREMENT == CYBLE_BO
 481:.\Generated_Source\PSoC4/BLE.c **** 
ARM GAS  C:\Users\Petro\AppData\Local\Temp\cc6Lo8fB.s 			page 17


 482:.\Generated_Source\PSoC4/BLE.c ****     
 483:.\Generated_Source\PSoC4/BLE.c **** /******************************************************************************
 484:.\Generated_Source\PSoC4/BLE.c **** * Function Name: CyBle_StoreBondingData
 485:.\Generated_Source\PSoC4/BLE.c **** ***************************************************************************//**
 486:.\Generated_Source\PSoC4/BLE.c **** * 
 487:.\Generated_Source\PSoC4/BLE.c **** *  This function writes the new bonding data from RAM to the dedicated Flash 
 488:.\Generated_Source\PSoC4/BLE.c **** *  location as defined by the component. It performs data comparing between RAM
 489:.\Generated_Source\PSoC4/BLE.c **** *  and Flash before writing to Flash. If there is no change between RAM and Flash
 490:.\Generated_Source\PSoC4/BLE.c **** *  data, then no write is performed. It writes only one flash row in one call.
 491:.\Generated_Source\PSoC4/BLE.c **** *  Application should keep calling this function till API return CYBLE_ERROR_OK. 
 492:.\Generated_Source\PSoC4/BLE.c **** *  This function is available only when Bonding requirement is selected in
 493:.\Generated_Source\PSoC4/BLE.c **** *  Security settings.    
 494:.\Generated_Source\PSoC4/BLE.c **** * 
 495:.\Generated_Source\PSoC4/BLE.c **** *  \param isForceWrite:  If value is set to 0, then stack will check if flash write 
 496:.\Generated_Source\PSoC4/BLE.c **** *                 is permissible. 
 497:.\Generated_Source\PSoC4/BLE.c **** *  
 498:.\Generated_Source\PSoC4/BLE.c **** * \return
 499:.\Generated_Source\PSoC4/BLE.c **** *  Return value is of type CYBLE_API_RESULT_T.
 500:.\Generated_Source\PSoC4/BLE.c **** *
 501:.\Generated_Source\PSoC4/BLE.c **** *   Errors codes                         | Description
 502:.\Generated_Source\PSoC4/BLE.c **** *   ----------------------------------   | ------------------------------------
 503:.\Generated_Source\PSoC4/BLE.c **** *   CYBLE_ERROR_OK                       | On successful operation
 504:.\Generated_Source\PSoC4/BLE.c **** *   CYBLE_ERROR_FLASH_WRITE_NOT_PERMITED | Flash Write is not complete
 505:.\Generated_Source\PSoC4/BLE.c **** *    
 506:.\Generated_Source\PSoC4/BLE.c **** *  \sideeffect
 507:.\Generated_Source\PSoC4/BLE.c **** *   For BLE devices with 128K of Flash memory this API will automatically 
 508:.\Generated_Source\PSoC4/BLE.c **** *   modify the clock settings for the device.
 509:.\Generated_Source\PSoC4/BLE.c **** *   Writing to flash requires changes to be done to the IMO (set to 48 MHz)
 510:.\Generated_Source\PSoC4/BLE.c **** *   and HFCLK (source set to IMO) settings. The configuration is restored before
 511:.\Generated_Source\PSoC4/BLE.c **** *   returning. This will impact the operation of most of the hardware in the
 512:.\Generated_Source\PSoC4/BLE.c **** *   device.
 513:.\Generated_Source\PSoC4/BLE.c **** * 
 514:.\Generated_Source\PSoC4/BLE.c **** *  \globalvars
 515:.\Generated_Source\PSoC4/BLE.c **** *   The BLE_pendingFlashWrite variable is used to detect status
 516:.\Generated_Source\PSoC4/BLE.c **** *   of pending write to flash operation for stack data and CCCD.
 517:.\Generated_Source\PSoC4/BLE.c **** *   This API automatically clears pending bits after write operation complete.
 518:.\Generated_Source\PSoC4/BLE.c **** *     
 519:.\Generated_Source\PSoC4/BLE.c **** ******************************************************************************/
 520:.\Generated_Source\PSoC4/BLE.c **** CYBLE_API_RESULT_T CyBle_StoreBondingData(uint8 isForceWrite)
 521:.\Generated_Source\PSoC4/BLE.c **** {
 522:.\Generated_Source\PSoC4/BLE.c ****     CYBLE_API_RESULT_T apiResult = CYBLE_ERROR_OK;
 523:.\Generated_Source\PSoC4/BLE.c ****     
 524:.\Generated_Source\PSoC4/BLE.c ****     /* Store Stack data */
 525:.\Generated_Source\PSoC4/BLE.c ****     if((cyBle_pendingFlashWrite & CYBLE_PENDING_STACK_FLASH_WRITE_BIT) != 0u)
 526:.\Generated_Source\PSoC4/BLE.c ****     {
 527:.\Generated_Source\PSoC4/BLE.c ****         apiResult = CyBle_StoreStackData(isForceWrite);
 528:.\Generated_Source\PSoC4/BLE.c ****         if(apiResult == CYBLE_ERROR_OK)
 529:.\Generated_Source\PSoC4/BLE.c ****         {
 530:.\Generated_Source\PSoC4/BLE.c ****             cyBle_pendingFlashWrite &= (uint8)~CYBLE_PENDING_STACK_FLASH_WRITE_BIT;
 531:.\Generated_Source\PSoC4/BLE.c ****             /* Change apiResult if there are more pending data to store */
 532:.\Generated_Source\PSoC4/BLE.c ****             if((cyBle_pendingFlashWrite & CYBLE_PENDING_CCCD_FLASH_WRITE_BIT) != 0u)
 533:.\Generated_Source\PSoC4/BLE.c ****             {
 534:.\Generated_Source\PSoC4/BLE.c ****                 apiResult = CYBLE_ERROR_FLASH_WRITE_NOT_PERMITED;
 535:.\Generated_Source\PSoC4/BLE.c ****             }
 536:.\Generated_Source\PSoC4/BLE.c ****         }
 537:.\Generated_Source\PSoC4/BLE.c ****     }
 538:.\Generated_Source\PSoC4/BLE.c **** #if(CYBLE_GATT_DB_CCCD_COUNT != 0u)
ARM GAS  C:\Users\Petro\AppData\Local\Temp\cc6Lo8fB.s 			page 18


 539:.\Generated_Source\PSoC4/BLE.c ****     /* Store CCCD values */
 540:.\Generated_Source\PSoC4/BLE.c ****     if( ((apiResult == CYBLE_ERROR_OK) || (isForceWrite != 0u)) && 
 541:.\Generated_Source\PSoC4/BLE.c ****         ((cyBle_pendingFlashWrite & CYBLE_PENDING_CCCD_FLASH_WRITE_BIT) != 0u) &&
 542:.\Generated_Source\PSoC4/BLE.c ****         (cyBle_connHandle.bdHandle <= CYBLE_GAP_MAX_BONDED_DEVICE))
 543:.\Generated_Source\PSoC4/BLE.c ****     {
 544:.\Generated_Source\PSoC4/BLE.c ****         apiResult = CyBle_StoreAppData(cyBle_attValuesCCCD, cyBle_flashStorage.attValuesCCCDFlashMe
 545:.\Generated_Source\PSoC4/BLE.c ****                                        CYBLE_GATT_DB_CCCD_COUNT, isForceWrite);
 546:.\Generated_Source\PSoC4/BLE.c ****         if(apiResult == CYBLE_ERROR_OK)
 547:.\Generated_Source\PSoC4/BLE.c ****         {
 548:.\Generated_Source\PSoC4/BLE.c ****             cyBle_pendingFlashWrite &= (uint8)~CYBLE_PENDING_CCCD_FLASH_WRITE_BIT;
 549:.\Generated_Source\PSoC4/BLE.c ****         }
 550:.\Generated_Source\PSoC4/BLE.c ****     }
 551:.\Generated_Source\PSoC4/BLE.c **** #endif /* CYBLE_GATT_DB_CCCD_COUNT != 0u */
 552:.\Generated_Source\PSoC4/BLE.c ****     return(apiResult);
 553:.\Generated_Source\PSoC4/BLE.c **** }
 554:.\Generated_Source\PSoC4/BLE.c **** 
 555:.\Generated_Source\PSoC4/BLE.c **** 
 556:.\Generated_Source\PSoC4/BLE.c **** #endif /* (CYBLE_GAP_ROLE_PERIPHERAL || CYBLE_GAP_ROLE_CENTRAL) && (CYBLE_BONDING_REQUIREMENT == CY
 557:.\Generated_Source\PSoC4/BLE.c **** 
 558:.\Generated_Source\PSoC4/BLE.c **** 
 559:.\Generated_Source\PSoC4/BLE.c **** #if(CYBLE_GAP_ROLE_PERIPHERAL || CYBLE_GAP_ROLE_BROADCASTER)
 560:.\Generated_Source\PSoC4/BLE.c **** 
 561:.\Generated_Source\PSoC4/BLE.c ****     /******************************************************************************
 562:.\Generated_Source\PSoC4/BLE.c ****     *  Function Name: CyBle_GappStartAdvertisement
 563:.\Generated_Source\PSoC4/BLE.c ****     ***************************************************************************//**
 564:.\Generated_Source\PSoC4/BLE.c ****     *     
 565:.\Generated_Source\PSoC4/BLE.c ****     *  This function is used to start the advertisement using the advertisement data 
 566:.\Generated_Source\PSoC4/BLE.c ****     *  set in the component customizer's GUI. After invoking this API, the device 
 567:.\Generated_Source\PSoC4/BLE.c ****     *  will be available for connection by the devices configured for GAP central 
 568:.\Generated_Source\PSoC4/BLE.c ****     *  role. It is only included if the device is configured for GAP Peripheral or 
 569:.\Generated_Source\PSoC4/BLE.c ****     *  GAP Peripheral + Central role.
 570:.\Generated_Source\PSoC4/BLE.c ****     *  
 571:.\Generated_Source\PSoC4/BLE.c ****     *  On start of advertisement, GAP Peripheral receives the
 572:.\Generated_Source\PSoC4/BLE.c ****     *  CYBLE_EVT_GAPP_ADVERTISEMENT_START_STOP event. The following events are 
 573:.\Generated_Source\PSoC4/BLE.c ****     *  possible on invoking this function:
 574:.\Generated_Source\PSoC4/BLE.c ****     *  
 575:.\Generated_Source\PSoC4/BLE.c ****     *  * CYBLE_EVT_GAP_DEVICE_CONNECTED: If the device connects to remote GAP 
 576:.\Generated_Source\PSoC4/BLE.c ****     *                                      Central device
 577:.\Generated_Source\PSoC4/BLE.c ****     *  * CYBLE_EVT_TIMEOUT: If no device in GAP Central mode connects to this 
 578:.\Generated_Source\PSoC4/BLE.c ****     *                       device within the specified timeout limit. Stack 
 579:.\Generated_Source\PSoC4/BLE.c ****     *                       automatically initiate stop advertising when Slow 
 580:.\Generated_Source\PSoC4/BLE.c ****     *                       advertising was initiated, or starts Slow advertising
 581:.\Generated_Source\PSoC4/BLE.c ****     *                       after Fast advertising timeout occur.
 582:.\Generated_Source\PSoC4/BLE.c ****     *  * CYBLE_EVT_GAPP_ADVERTISEMENT_START_STOP: If device started or stopped
 583:.\Generated_Source\PSoC4/BLE.c ****     *                                               advertising. Use CyBle_GetState()
 584:.\Generated_Source\PSoC4/BLE.c ****     *                                               to determine the state. Sequential 
 585:.\Generated_Source\PSoC4/BLE.c ****     *                                               advertising could be started when
 586:.\Generated_Source\PSoC4/BLE.c ****     *                                               CYBLE_STATE_DISCONNECTED state is
 587:.\Generated_Source\PSoC4/BLE.c ****     *                                               returned.
 588:.\Generated_Source\PSoC4/BLE.c ****     * 
 589:.\Generated_Source\PSoC4/BLE.c ****     *  \param advertisingIntervalType: Fast or slow advertising interval with timings
 590:.\Generated_Source\PSoC4/BLE.c ****     *                                 entered in Advertising settings section of the
 591:.\Generated_Source\PSoC4/BLE.c ****     *                                 customizer.
 592:.\Generated_Source\PSoC4/BLE.c ****     *  * CYBLE_ADVERTISING_FAST   0x00u
 593:.\Generated_Source\PSoC4/BLE.c ****     *  * CYBLE_ADVERTISING_SLOW   0x01u
 594:.\Generated_Source\PSoC4/BLE.c ****     *  * CYBLE_ADVERTISING_CUSTOM 0x02u
 595:.\Generated_Source\PSoC4/BLE.c ****     * 
ARM GAS  C:\Users\Petro\AppData\Local\Temp\cc6Lo8fB.s 			page 19


 596:.\Generated_Source\PSoC4/BLE.c ****     * \return
 597:.\Generated_Source\PSoC4/BLE.c ****     *  CYBLE_API_RESULT_T : Return value indicates if the function succeeded or
 598:.\Generated_Source\PSoC4/BLE.c ****     *  failed. Following are the possible error codes.
 599:.\Generated_Source\PSoC4/BLE.c ****     * 
 600:.\Generated_Source\PSoC4/BLE.c ****     *   Errors codes                      |  Description
 601:.\Generated_Source\PSoC4/BLE.c ****     *   --------------------------------- |  --------------------------------
 602:.\Generated_Source\PSoC4/BLE.c ****     *   CYBLE_ERROR_OK                    |  On successful operation.
 603:.\Generated_Source\PSoC4/BLE.c ****     *   CYBLE_ERROR_INVALID_PARAMETER     |  On passing an invalid parameter.
 604:.\Generated_Source\PSoC4/BLE.c ****     *   CYBLE_ERROR_INVALID_STATE         |  On calling this API not in Disconnected state.
 605:.\Generated_Source\PSoC4/BLE.c ****     *
 606:.\Generated_Source\PSoC4/BLE.c ****     * 
 607:.\Generated_Source\PSoC4/BLE.c ****     *******************************************************************************/
 608:.\Generated_Source\PSoC4/BLE.c ****     CYBLE_API_RESULT_T CyBle_GappStartAdvertisement(uint8 advertisingIntervalType)
 609:.\Generated_Source\PSoC4/BLE.c ****     {
 424              		.loc 1 609 0
 425              		.cfi_startproc
 426 0000 90B5     		push	{r4, r7, lr}
 427              		.cfi_def_cfa_offset 12
 428              		.cfi_offset 4, -12
 429              		.cfi_offset 7, -8
 430              		.cfi_offset 14, -4
 431 0002 85B0     		sub	sp, sp, #20
 432              		.cfi_def_cfa_offset 32
 433 0004 00AF     		add	r7, sp, #0
 434              		.cfi_def_cfa_register 7
 435 0006 021C     		mov	r2, r0
 436 0008 FB1D     		add	r3, r7, #7
 437 000a 1A70     		strb	r2, [r3]
 610:.\Generated_Source\PSoC4/BLE.c ****         CYBLE_API_RESULT_T apiResult;
 611:.\Generated_Source\PSoC4/BLE.c ****         
 612:.\Generated_Source\PSoC4/BLE.c ****         if(advertisingIntervalType > CYBLE_ADVERTISING_CUSTOM)
 438              		.loc 1 612 0
 439 000c FB1D     		add	r3, r7, #7
 440 000e 1B78     		ldrb	r3, [r3]
 441 0010 022B     		cmp	r3, #2
 442 0012 04D9     		bls	.L17
 613:.\Generated_Source\PSoC4/BLE.c ****         {
 614:.\Generated_Source\PSoC4/BLE.c ****             apiResult = CYBLE_ERROR_INVALID_PARAMETER;
 443              		.loc 1 614 0
 444 0014 0E23     		mov	r3, #14
 445 0016 FB18     		add	r3, r7, r3
 446 0018 0122     		mov	r2, #1
 447 001a 1A80     		strh	r2, [r3]
 448 001c 4BE0     		b	.L18
 449              	.L17:
 615:.\Generated_Source\PSoC4/BLE.c ****         }
 616:.\Generated_Source\PSoC4/BLE.c ****         else if((CYBLE_STATE_DISCONNECTED == CyBle_GetState()) && ((cyBle_eventHandlerFlag & CYBLE_
 450              		.loc 1 616 0
 451 001e 294B     		ldr	r3, .L24
 452 0020 1B78     		ldrb	r3, [r3]
 453 0022 042B     		cmp	r3, #4
 454 0024 42D1     		bne	.L19
 455              		.loc 1 616 0 is_stmt 0 discriminator 1
 456 0026 284B     		ldr	r3, .L24+4
 457 0028 1B78     		ldrb	r3, [r3]
 458 002a DBB2     		uxtb	r3, r3
 459 002c 1A1C     		mov	r2, r3
ARM GAS  C:\Users\Petro\AppData\Local\Temp\cc6Lo8fB.s 			page 20


 460 002e 0423     		mov	r3, #4
 461 0030 1340     		and	r3, r2
 462 0032 3BD1     		bne	.L19
 617:.\Generated_Source\PSoC4/BLE.c ****         {   
 618:.\Generated_Source\PSoC4/BLE.c ****             if(advertisingIntervalType == CYBLE_ADVERTISING_FAST)
 463              		.loc 1 618 0 is_stmt 1
 464 0034 FB1D     		add	r3, r7, #7
 465 0036 1B78     		ldrb	r3, [r3]
 466 0038 002B     		cmp	r3, #0
 467 003a 0BD1     		bne	.L20
 619:.\Generated_Source\PSoC4/BLE.c ****             {
 620:.\Generated_Source\PSoC4/BLE.c ****                 cyBle_discoveryModeInfo.advTo = CYBLE_FAST_ADV_TIMEOUT;
 468              		.loc 1 620 0
 469 003c 234B     		ldr	r3, .L24+8
 470 003e 1E22     		mov	r2, #30
 471 0040 1A82     		strh	r2, [r3, #16]
 621:.\Generated_Source\PSoC4/BLE.c ****                 cyBle_discoveryModeInfo.advParam->advIntvMin = CYBLE_FAST_ADV_INT_MIN;
 472              		.loc 1 621 0
 473 0042 224B     		ldr	r3, .L24+8
 474 0044 5B68     		ldr	r3, [r3, #4]
 475 0046 2022     		mov	r2, #32
 476 0048 1A80     		strh	r2, [r3]
 622:.\Generated_Source\PSoC4/BLE.c ****                 cyBle_discoveryModeInfo.advParam->advIntvMax = CYBLE_FAST_ADV_INT_MAX;
 477              		.loc 1 622 0
 478 004a 204B     		ldr	r3, .L24+8
 479 004c 5B68     		ldr	r3, [r3, #4]
 480 004e 3022     		mov	r2, #48
 481 0050 5A80     		strh	r2, [r3, #2]
 482 0052 10E0     		b	.L21
 483              	.L20:
 623:.\Generated_Source\PSoC4/BLE.c ****             }
 624:.\Generated_Source\PSoC4/BLE.c ****             else if(advertisingIntervalType == CYBLE_ADVERTISING_SLOW)
 484              		.loc 1 624 0
 485 0054 FB1D     		add	r3, r7, #7
 486 0056 1B78     		ldrb	r3, [r3]
 487 0058 012B     		cmp	r3, #1
 488 005a 0CD1     		bne	.L21
 625:.\Generated_Source\PSoC4/BLE.c ****             {
 626:.\Generated_Source\PSoC4/BLE.c ****                 cyBle_discoveryModeInfo.advTo = CYBLE_SLOW_ADV_TIMEOUT;
 489              		.loc 1 626 0
 490 005c 1B4B     		ldr	r3, .L24+8
 491 005e 9622     		mov	r2, #150
 492 0060 1A82     		strh	r2, [r3, #16]
 627:.\Generated_Source\PSoC4/BLE.c ****                 cyBle_discoveryModeInfo.advParam->advIntvMin = CYBLE_SLOW_ADV_INT_MIN;
 493              		.loc 1 627 0
 494 0062 1A4B     		ldr	r3, .L24+8
 495 0064 5B68     		ldr	r3, [r3, #4]
 496 0066 C822     		mov	r2, #200
 497 0068 D200     		lsl	r2, r2, #3
 498 006a 1A80     		strh	r2, [r3]
 628:.\Generated_Source\PSoC4/BLE.c ****                 cyBle_discoveryModeInfo.advParam->advIntvMax = CYBLE_SLOW_ADV_INT_MAX;
 499              		.loc 1 628 0
 500 006c 174B     		ldr	r3, .L24+8
 501 006e 5B68     		ldr	r3, [r3, #4]
 502 0070 FA22     		mov	r2, #250
 503 0072 1201     		lsl	r2, r2, #4
 504 0074 5A80     		strh	r2, [r3, #2]
ARM GAS  C:\Users\Petro\AppData\Local\Temp\cc6Lo8fB.s 			page 21


 505              	.L21:
 629:.\Generated_Source\PSoC4/BLE.c ****             }       
 630:.\Generated_Source\PSoC4/BLE.c ****             else /* Do not update advertising intervals */
 631:.\Generated_Source\PSoC4/BLE.c ****             {
 632:.\Generated_Source\PSoC4/BLE.c ****             }
 633:.\Generated_Source\PSoC4/BLE.c ****             cyBle_advertisingIntervalType = advertisingIntervalType;
 506              		.loc 1 633 0
 507 0076 164B     		ldr	r3, .L24+12
 508 0078 FA1D     		add	r2, r7, #7
 509 007a 1278     		ldrb	r2, [r2]
 510 007c 1A70     		strb	r2, [r3]
 634:.\Generated_Source\PSoC4/BLE.c ****             apiResult = CyBle_GappEnterDiscoveryMode(&cyBle_discoveryModeInfo);
 511              		.loc 1 634 0
 512 007e 0E23     		mov	r3, #14
 513 0080 FC18     		add	r4, r7, r3
 514 0082 124B     		ldr	r3, .L24+8
 515 0084 181C     		mov	r0, r3
 516 0086 FFF7FEFF 		bl	CyBle_GappEnterDiscoveryMode
 517 008a 031C     		mov	r3, r0
 518 008c 2380     		strh	r3, [r4]
 635:.\Generated_Source\PSoC4/BLE.c ****         
 636:.\Generated_Source\PSoC4/BLE.c ****             if(CYBLE_ERROR_OK == apiResult)
 519              		.loc 1 636 0
 520 008e 0E23     		mov	r3, #14
 521 0090 FB18     		add	r3, r7, r3
 522 0092 1B88     		ldrh	r3, [r3]
 523 0094 002B     		cmp	r3, #0
 524 0096 08D1     		bne	.L22
 637:.\Generated_Source\PSoC4/BLE.c ****             {
 638:.\Generated_Source\PSoC4/BLE.c ****                 cyBle_eventHandlerFlag |= CYBLE_START_FLAG;
 525              		.loc 1 638 0
 526 0098 0B4B     		ldr	r3, .L24+4
 527 009a 1B78     		ldrb	r3, [r3]
 528 009c DBB2     		uxtb	r3, r3
 529 009e 0422     		mov	r2, #4
 530 00a0 1343     		orr	r3, r2
 531 00a2 DAB2     		uxtb	r2, r3
 532 00a4 084B     		ldr	r3, .L24+4
 533 00a6 1A70     		strb	r2, [r3]
 636:.\Generated_Source\PSoC4/BLE.c ****             {
 534              		.loc 1 636 0
 535 00a8 05E0     		b	.L18
 536              	.L22:
 537 00aa 04E0     		b	.L18
 538              	.L19:
 639:.\Generated_Source\PSoC4/BLE.c ****             }
 640:.\Generated_Source\PSoC4/BLE.c ****         }
 641:.\Generated_Source\PSoC4/BLE.c ****         else
 642:.\Generated_Source\PSoC4/BLE.c ****         {
 643:.\Generated_Source\PSoC4/BLE.c ****             apiResult = CYBLE_ERROR_INVALID_STATE;
 539              		.loc 1 643 0
 540 00ac 0E23     		mov	r3, #14
 541 00ae FB18     		add	r3, r7, r3
 542 00b0 0422     		mov	r2, #4
 543 00b2 FF32     		add	r2, r2, #255
 544 00b4 1A80     		strh	r2, [r3]
 545              	.L18:
ARM GAS  C:\Users\Petro\AppData\Local\Temp\cc6Lo8fB.s 			page 22


 644:.\Generated_Source\PSoC4/BLE.c ****         }
 645:.\Generated_Source\PSoC4/BLE.c **** 
 646:.\Generated_Source\PSoC4/BLE.c ****         return (apiResult);
 546              		.loc 1 646 0
 547 00b6 0E23     		mov	r3, #14
 548 00b8 FB18     		add	r3, r7, r3
 549 00ba 1B88     		ldrh	r3, [r3]
 647:.\Generated_Source\PSoC4/BLE.c ****     }
 550              		.loc 1 647 0
 551 00bc 181C     		mov	r0, r3
 552 00be BD46     		mov	sp, r7
 553 00c0 05B0     		add	sp, sp, #20
 554              		@ sp needed
 555 00c2 90BD     		pop	{r4, r7, pc}
 556              	.L25:
 557              		.align	2
 558              	.L24:
 559 00c4 00000000 		.word	cyBle_state
 560 00c8 00000000 		.word	cyBle_eventHandlerFlag
 561 00cc 00000000 		.word	cyBle_discoveryModeInfo
 562 00d0 00000000 		.word	cyBle_advertisingIntervalType
 563              		.cfi_endproc
 564              	.LFE6:
 565              		.size	CyBle_GappStartAdvertisement, .-CyBle_GappStartAdvertisement
 566              		.section	.text.CyBle_GappStopAdvertisement,"ax",%progbits
 567              		.align	2
 568              		.global	CyBle_GappStopAdvertisement
 569              		.code	16
 570              		.thumb_func
 571              		.type	CyBle_GappStopAdvertisement, %function
 572              	CyBle_GappStopAdvertisement:
 573              	.LFB7:
 648:.\Generated_Source\PSoC4/BLE.c **** 
 649:.\Generated_Source\PSoC4/BLE.c ****     
 650:.\Generated_Source\PSoC4/BLE.c ****     /******************************************************************************
 651:.\Generated_Source\PSoC4/BLE.c ****     * Function Name: CyBle_GappStopAdvertisement
 652:.\Generated_Source\PSoC4/BLE.c ****     ***************************************************************************//**
 653:.\Generated_Source\PSoC4/BLE.c ****     * 
 654:.\Generated_Source\PSoC4/BLE.c ****     *   This function can be used to exit from discovery mode. After the execution 
 655:.\Generated_Source\PSoC4/BLE.c ****     *   of this function, there will no longer be any advertisements. On stopping 
 656:.\Generated_Source\PSoC4/BLE.c ****     *   advertising, GAP Peripheral receives CYBLE_EVT_GAPP_ADVERTISEMENT_START_STOP
 657:.\Generated_Source\PSoC4/BLE.c ****     *   event. It is expected that the application layer tracks the function call 
 658:.\Generated_Source\PSoC4/BLE.c ****     *   performed before occurrence of this event as this event can occur on making 
 659:.\Generated_Source\PSoC4/BLE.c ****     *   a call to Cy_BleGappStartAdvertisement(), CyBle_GappEnterDiscoveryMode(), 
 660:.\Generated_Source\PSoC4/BLE.c ****     *   or CyBle_GappStartAdvertisement() functions as well.
 661:.\Generated_Source\PSoC4/BLE.c ****     *   
 662:.\Generated_Source\PSoC4/BLE.c ****     *   The following event occurs on invoking this function:
 663:.\Generated_Source\PSoC4/BLE.c ****     *   * CYBLE_EVT_GAPP_ADVERTISEMENT_START_STOP
 664:.\Generated_Source\PSoC4/BLE.c ****     * 
 665:.\Generated_Source\PSoC4/BLE.c ****     *  \return
 666:.\Generated_Source\PSoC4/BLE.c ****     *   None
 667:.\Generated_Source\PSoC4/BLE.c ****     * 
 668:.\Generated_Source\PSoC4/BLE.c ****     *******************************************************************************/
 669:.\Generated_Source\PSoC4/BLE.c ****     void CyBle_GappStopAdvertisement(void)
 670:.\Generated_Source\PSoC4/BLE.c ****     {
 574              		.loc 1 670 0
 575              		.cfi_startproc
ARM GAS  C:\Users\Petro\AppData\Local\Temp\cc6Lo8fB.s 			page 23


 576 0000 80B5     		push	{r7, lr}
 577              		.cfi_def_cfa_offset 8
 578              		.cfi_offset 7, -8
 579              		.cfi_offset 14, -4
 580 0002 00AF     		add	r7, sp, #0
 581              		.cfi_def_cfa_register 7
 671:.\Generated_Source\PSoC4/BLE.c ****         CyBle_GappExitDiscoveryMode();
 582              		.loc 1 671 0
 583 0004 FFF7FEFF 		bl	CyBle_GappExitDiscoveryMode
 672:.\Generated_Source\PSoC4/BLE.c ****         cyBle_eventHandlerFlag |= CYBLE_STOP_FLAG;
 584              		.loc 1 672 0
 585 0008 044B     		ldr	r3, .L27
 586 000a 1B78     		ldrb	r3, [r3]
 587 000c DBB2     		uxtb	r3, r3
 588 000e 0822     		mov	r2, #8
 589 0010 1343     		orr	r3, r2
 590 0012 DAB2     		uxtb	r2, r3
 591 0014 014B     		ldr	r3, .L27
 592 0016 1A70     		strb	r2, [r3]
 673:.\Generated_Source\PSoC4/BLE.c ****     }
 593              		.loc 1 673 0
 594 0018 BD46     		mov	sp, r7
 595              		@ sp needed
 596 001a 80BD     		pop	{r7, pc}
 597              	.L28:
 598              		.align	2
 599              	.L27:
 600 001c 00000000 		.word	cyBle_eventHandlerFlag
 601              		.cfi_endproc
 602              	.LFE7:
 603              		.size	CyBle_GappStopAdvertisement, .-CyBle_GappStopAdvertisement
 604              		.section	.text.CyBle_ChangeAdDeviceAddress,"ax",%progbits
 605              		.align	2
 606              		.global	CyBle_ChangeAdDeviceAddress
 607              		.code	16
 608              		.thumb_func
 609              		.type	CyBle_ChangeAdDeviceAddress, %function
 610              	CyBle_ChangeAdDeviceAddress:
 611              	.LFB8:
 674:.\Generated_Source\PSoC4/BLE.c ****     
 675:.\Generated_Source\PSoC4/BLE.c ****     
 676:.\Generated_Source\PSoC4/BLE.c ****     /******************************************************************************
 677:.\Generated_Source\PSoC4/BLE.c ****     * Function Name: CyBle_ChangeAdDeviceAddress
 678:.\Generated_Source\PSoC4/BLE.c ****     ***************************************************************************//**
 679:.\Generated_Source\PSoC4/BLE.c ****     * 
 680:.\Generated_Source\PSoC4/BLE.c ****     *  This API is used to set the Bluetooth device address into the advertisement 
 681:.\Generated_Source\PSoC4/BLE.c ****     *  or scan response data structure.
 682:.\Generated_Source\PSoC4/BLE.c ****     * 
 683:.\Generated_Source\PSoC4/BLE.c ****     *  \param bdAddr: Bluetooth Device address. The variable is of type CYBLE_GAP_BD_ADDR_T
 684:.\Generated_Source\PSoC4/BLE.c ****     *  \param dest: 0 - selects advertisement structure, not zero value selects scan 
 685:.\Generated_Source\PSoC4/BLE.c ****     *               response structure.
 686:.\Generated_Source\PSoC4/BLE.c ****     * 
 687:.\Generated_Source\PSoC4/BLE.c ****     * \return
 688:.\Generated_Source\PSoC4/BLE.c ****     *  None
 689:.\Generated_Source\PSoC4/BLE.c ****     *  
 690:.\Generated_Source\PSoC4/BLE.c ****     *******************************************************************************/
 691:.\Generated_Source\PSoC4/BLE.c ****     void CyBle_ChangeAdDeviceAddress(const CYBLE_GAP_BD_ADDR_T* bdAddr, uint8 dest)
ARM GAS  C:\Users\Petro\AppData\Local\Temp\cc6Lo8fB.s 			page 24


 692:.\Generated_Source\PSoC4/BLE.c ****     {
 612              		.loc 1 692 0
 613              		.cfi_startproc
 614 0000 80B5     		push	{r7, lr}
 615              		.cfi_def_cfa_offset 8
 616              		.cfi_offset 7, -8
 617              		.cfi_offset 14, -4
 618 0002 84B0     		sub	sp, sp, #16
 619              		.cfi_def_cfa_offset 24
 620 0004 00AF     		add	r7, sp, #0
 621              		.cfi_def_cfa_register 7
 622 0006 7860     		str	r0, [r7, #4]
 623 0008 0A1C     		mov	r2, r1
 624 000a FB1C     		add	r3, r7, #3
 625 000c 1A70     		strb	r2, [r3]
 693:.\Generated_Source\PSoC4/BLE.c ****         uint8 i;
 694:.\Generated_Source\PSoC4/BLE.c ****         uint8 *destBuffer = NULL;
 626              		.loc 1 694 0
 627 000e 0023     		mov	r3, #0
 628 0010 BB60     		str	r3, [r7, #8]
 695:.\Generated_Source\PSoC4/BLE.c ****         
 696:.\Generated_Source\PSoC4/BLE.c ****         if(dest == 0u)      /* Destination - advertising structure */
 697:.\Generated_Source\PSoC4/BLE.c ****         {
 698:.\Generated_Source\PSoC4/BLE.c ****             #ifdef CYBLE_ADV_PKT_INDEX_BLUETOOTH_DEVICE_ADDRESS
 699:.\Generated_Source\PSoC4/BLE.c ****                 destBuffer = &cyBle_discoveryData.advData[CYBLE_ADV_PKT_INDEX_BLUETOOTH_DEVICE_ADDR
 700:.\Generated_Source\PSoC4/BLE.c ****             #endif /* CYBLE_ADV_PKT_INDEX_BLUETOOTH_DEVICE_ADDRESS */
 701:.\Generated_Source\PSoC4/BLE.c ****         }
 702:.\Generated_Source\PSoC4/BLE.c ****         else                /* Destination - scan response structure */
 703:.\Generated_Source\PSoC4/BLE.c ****         {
 704:.\Generated_Source\PSoC4/BLE.c ****             #ifdef CYBLE_SCN_PKT_INDEX_BLUETOOTH_DEVICE_ADDRESS
 705:.\Generated_Source\PSoC4/BLE.c ****                 destBuffer = &cyBle_scanRspData.scanRspData[CYBLE_SCN_PKT_INDEX_BLUETOOTH_DEVICE_AD
 706:.\Generated_Source\PSoC4/BLE.c ****             #endif /* CYBLE_SCN_PKT_INDEX_BLUETOOTH_DEVICE_ADDRESS */    
 707:.\Generated_Source\PSoC4/BLE.c ****         }
 708:.\Generated_Source\PSoC4/BLE.c ****         
 709:.\Generated_Source\PSoC4/BLE.c ****         if(destBuffer != NULL)
 629              		.loc 1 709 0
 630 0012 BB68     		ldr	r3, [r7, #8]
 631 0014 002B     		cmp	r3, #0
 632 0016 20D0     		beq	.L29
 710:.\Generated_Source\PSoC4/BLE.c ****         {
 711:.\Generated_Source\PSoC4/BLE.c ****             /* Update Device Address type */
 712:.\Generated_Source\PSoC4/BLE.c ****             destBuffer[0u] = bdAddr->type;
 633              		.loc 1 712 0
 634 0018 7B68     		ldr	r3, [r7, #4]
 635 001a 9A79     		ldrb	r2, [r3, #6]
 636 001c BB68     		ldr	r3, [r7, #8]
 637 001e 1A70     		strb	r2, [r3]
 713:.\Generated_Source\PSoC4/BLE.c ****             
 714:.\Generated_Source\PSoC4/BLE.c ****             for(i = 0u; i < CYBLE_GAP_BD_ADDR_SIZE; i++)
 638              		.loc 1 714 0
 639 0020 0F23     		mov	r3, #15
 640 0022 FB18     		add	r3, r7, r3
 641 0024 0022     		mov	r2, #0
 642 0026 1A70     		strb	r2, [r3]
 643 0028 12E0     		b	.L31
 644              	.L32:
 715:.\Generated_Source\PSoC4/BLE.c ****             {
ARM GAS  C:\Users\Petro\AppData\Local\Temp\cc6Lo8fB.s 			page 25


 716:.\Generated_Source\PSoC4/BLE.c ****                 destBuffer[i + 1u] = bdAddr->bdAddr[i];
 645              		.loc 1 716 0 discriminator 3
 646 002a 0F23     		mov	r3, #15
 647 002c FB18     		add	r3, r7, r3
 648 002e 1B78     		ldrb	r3, [r3]
 649 0030 0133     		add	r3, r3, #1
 650 0032 BA68     		ldr	r2, [r7, #8]
 651 0034 D318     		add	r3, r2, r3
 652 0036 0F22     		mov	r2, #15
 653 0038 BA18     		add	r2, r7, r2
 654 003a 1278     		ldrb	r2, [r2]
 655 003c 7968     		ldr	r1, [r7, #4]
 656 003e 8A5C     		ldrb	r2, [r1, r2]
 657 0040 1A70     		strb	r2, [r3]
 714:.\Generated_Source\PSoC4/BLE.c ****             {
 658              		.loc 1 714 0 discriminator 3
 659 0042 0F23     		mov	r3, #15
 660 0044 FB18     		add	r3, r7, r3
 661 0046 1A78     		ldrb	r2, [r3]
 662 0048 0F23     		mov	r3, #15
 663 004a FB18     		add	r3, r7, r3
 664 004c 0132     		add	r2, r2, #1
 665 004e 1A70     		strb	r2, [r3]
 666              	.L31:
 714:.\Generated_Source\PSoC4/BLE.c ****             {
 667              		.loc 1 714 0 is_stmt 0 discriminator 1
 668 0050 0F23     		mov	r3, #15
 669 0052 FB18     		add	r3, r7, r3
 670 0054 1B78     		ldrb	r3, [r3]
 671 0056 052B     		cmp	r3, #5
 672 0058 E7D9     		bls	.L32
 673              	.L29:
 717:.\Generated_Source\PSoC4/BLE.c ****             }
 718:.\Generated_Source\PSoC4/BLE.c ****         }
 719:.\Generated_Source\PSoC4/BLE.c ****     }
 674              		.loc 1 719 0 is_stmt 1
 675 005a BD46     		mov	sp, r7
 676 005c 04B0     		add	sp, sp, #16
 677              		@ sp needed
 678 005e 80BD     		pop	{r7, pc}
 679              		.cfi_endproc
 680              	.LFE8:
 681              		.size	CyBle_ChangeAdDeviceAddress, .-CyBle_ChangeAdDeviceAddress
 682              		.section	.text.CyBle_ChangeAdLocalName,"ax",%progbits
 683              		.align	2
 684              		.code	16
 685              		.thumb_func
 686              		.type	CyBle_ChangeAdLocalName, %function
 687              	CyBle_ChangeAdLocalName:
 688              	.LFB9:
 720:.\Generated_Source\PSoC4/BLE.c ****   
 721:.\Generated_Source\PSoC4/BLE.c **** #endif /* CYBLE_GAP_ROLE_PERIPHERAL || CYBLE_GAP_ROLE_BROADCASTER */
 722:.\Generated_Source\PSoC4/BLE.c **** 
 723:.\Generated_Source\PSoC4/BLE.c **** 
 724:.\Generated_Source\PSoC4/BLE.c **** #if(CYBLE_GAP_ROLE_CENTRAL || CYBLE_GAP_ROLE_OBSERVER)
 725:.\Generated_Source\PSoC4/BLE.c **** 
 726:.\Generated_Source\PSoC4/BLE.c ****     /******************************************************************************
ARM GAS  C:\Users\Petro\AppData\Local\Temp\cc6Lo8fB.s 			page 26


 727:.\Generated_Source\PSoC4/BLE.c ****     * Function Name: CyBle_GapcStartScan
 728:.\Generated_Source\PSoC4/BLE.c ****     ***************************************************************************//**
 729:.\Generated_Source\PSoC4/BLE.c ****     * 
 730:.\Generated_Source\PSoC4/BLE.c ****     *   This function is used for discovering GAP peripheral devices that are 
 731:.\Generated_Source\PSoC4/BLE.c ****     *   available for connection. It performs the scanning routine using the 
 732:.\Generated_Source\PSoC4/BLE.c ****     *   parameters entered in the component's customizer.
 733:.\Generated_Source\PSoC4/BLE.c ****     *   
 734:.\Generated_Source\PSoC4/BLE.c ****     *   As soon as the discovery operation starts, CYBLE_EVT_GAPC_SCAN_START_STOP 
 735:.\Generated_Source\PSoC4/BLE.c ****     *   event is generated. The CYBLE_EVT_GAPC_SCAN_PROGRESS_RESULT event is 
 736:.\Generated_Source\PSoC4/BLE.c ****     *   generated when a GAP peripheral device is located. There are three discovery
 737:.\Generated_Source\PSoC4/BLE.c ****     *   procedures can be selected in the customizer's GUI:
 738:.\Generated_Source\PSoC4/BLE.c ****     *   
 739:.\Generated_Source\PSoC4/BLE.c ****     *   * Observation procedure: A device performing the observer role receives only
 740:.\Generated_Source\PSoC4/BLE.c ****     *                            advertisement data from devices irrespective of 
 741:.\Generated_Source\PSoC4/BLE.c ****     *                            their discoverable mode settings. Advertisement 
 742:.\Generated_Source\PSoC4/BLE.c ****     *                            data received is provided by the event,      
 743:.\Generated_Source\PSoC4/BLE.c ****     *                            CYBLE_EVT_GAPC_SCAN_PROGRESS_RESULT. This procedure
 744:.\Generated_Source\PSoC4/BLE.c ****     *                            requires the scanType sub parameter to be passive
 745:.\Generated_Source\PSoC4/BLE.c ****     *                            scanning. 
 746:.\Generated_Source\PSoC4/BLE.c ****     *   
 747:.\Generated_Source\PSoC4/BLE.c ****     *   * Limited Discovery procedure: A device performing the limited discovery
 748:.\Generated_Source\PSoC4/BLE.c ****     *                                  procedure receives advertisement data and 
 749:.\Generated_Source\PSoC4/BLE.c ****     *                                  scan# response data from devices in the 
 750:.\Generated_Source\PSoC4/BLE.c ****     *                                  limited discoverable mode only. Received data
 751:.\Generated_Source\PSoC4/BLE.c ****     *                                  is provided by the event, 
 752:.\Generated_Source\PSoC4/BLE.c ****     *                                  CYBLE_EVT_GAPC_SCAN_PROGRESS_RESULT. This 
 753:.\Generated_Source\PSoC4/BLE.c ****     *                                  procedure requires the scanType sub-parameter 
 754:.\Generated_Source\PSoC4/BLE.c ****     *                                  to be active scanning.
 755:.\Generated_Source\PSoC4/BLE.c ****     *   
 756:.\Generated_Source\PSoC4/BLE.c ****     *   * General Discovery procedure: A device performing the general discovery 
 757:.\Generated_Source\PSoC4/BLE.c ****     *                                  procedure receives the advertisement data and
 758:.\Generated_Source\PSoC4/BLE.c ****     *                                  scan response data from devices in both 
 759:.\Generated_Source\PSoC4/BLE.c ****     *                                  limited discoverable mode and the general 
 760:.\Generated_Source\PSoC4/BLE.c ****     *                                  discoverable mode. Received data is provided
 761:.\Generated_Source\PSoC4/BLE.c ****     *                                  by the event,
 762:.\Generated_Source\PSoC4/BLE.c ****     *                                  CYBLE_EVT_GAPC_SCAN_PROGRESS_RESULT. This 
 763:.\Generated_Source\PSoC4/BLE.c ****     *                                  procedure requires the scanType sub-parameter
 764:.\Generated_Source\PSoC4/BLE.c ****     *                                  to be active scanning.
 765:.\Generated_Source\PSoC4/BLE.c ****     *   
 766:.\Generated_Source\PSoC4/BLE.c ****     *   Every Advertisement / Scan response packet received results in a new event, 
 767:.\Generated_Source\PSoC4/BLE.c ****     *   CYBLE_EVT_GAPC_SCAN_PROGRESS_RESULT.
 768:.\Generated_Source\PSoC4/BLE.c ****     *   If 'scanTo' sub-parameter is a non-zero value, then upon commencement of 
 769:.\Generated_Source\PSoC4/BLE.c ****     *   discovery procedure and elapsed time = 'scanTo', CYBLE_EVT_TIMEOUT event
 770:.\Generated_Source\PSoC4/BLE.c ****     *   is generated with the event parameter indicating CYBLE_GAP_SCAN_TO.
 771:.\Generated_Source\PSoC4/BLE.c ****     *   Possible generated events are:
 772:.\Generated_Source\PSoC4/BLE.c ****     *   * CYBLE_EVT_GAPC_SCAN_START_STOP: If a device started or stopped scanning. 
 773:.\Generated_Source\PSoC4/BLE.c ****     *                                     Use CyBle_GetState() to determine the 
 774:.\Generated_Source\PSoC4/BLE.c ****     *                                     state. Sequential scanning could be 
 775:.\Generated_Source\PSoC4/BLE.c ****     *                                     started when CYBLE_STATE_DISCONNECTED 
 776:.\Generated_Source\PSoC4/BLE.c ****     *                                     state is returned. 
 777:.\Generated_Source\PSoC4/BLE.c ****     *   * CYBLE_EVT_GAPC_SCAN_PROGRESS_RESULT 
 778:.\Generated_Source\PSoC4/BLE.c ****     *   * CYBLE_EVT_TIMEOUT (CYBLE_GAP_SCAN_TO)
 779:.\Generated_Source\PSoC4/BLE.c ****     * 
 780:.\Generated_Source\PSoC4/BLE.c ****     *   \param scanningIntervalType:  Fast or slow scanning interval with
 781:.\Generated_Source\PSoC4/BLE.c ****     *       timings entered in Scan settings section of the customizer.
 782:.\Generated_Source\PSoC4/BLE.c ****     * 	  * CYBLE_SCANNING_FAST   0x00u
 783:.\Generated_Source\PSoC4/BLE.c ****     * 	  * CYBLE_SCANNING_SLOW   0x01u
ARM GAS  C:\Users\Petro\AppData\Local\Temp\cc6Lo8fB.s 			page 27


 784:.\Generated_Source\PSoC4/BLE.c ****     * 	  * CYBLE_SCANNING_CUSTOM 0x02u
 785:.\Generated_Source\PSoC4/BLE.c ****     * 
 786:.\Generated_Source\PSoC4/BLE.c ****     * \return
 787:.\Generated_Source\PSoC4/BLE.c ****     *  CYBLE_API_RESULT_T : Return value indicates if the function succeeded or
 788:.\Generated_Source\PSoC4/BLE.c ****     *  failed. Following are the possible error codes.
 789:.\Generated_Source\PSoC4/BLE.c ****     *
 790:.\Generated_Source\PSoC4/BLE.c ****     *   Errors codes                       | Description
 791:.\Generated_Source\PSoC4/BLE.c ****     *   ---------------------------------- | -----------------------------------
 792:.\Generated_Source\PSoC4/BLE.c ****     *   CYBLE_ERROR_OK                     | On successful operation.
 793:.\Generated_Source\PSoC4/BLE.c ****     *   CYBLE_ERROR_STACK_INTERNAL         | An error occurred in the BLE stack.
 794:.\Generated_Source\PSoC4/BLE.c ****     *   CYBLE_ERROR_INVALID_PARAMETER      | On passing an invalid parameter.
 795:.\Generated_Source\PSoC4/BLE.c ****     *  
 796:.\Generated_Source\PSoC4/BLE.c ****     *******************************************************************************/
 797:.\Generated_Source\PSoC4/BLE.c ****     CYBLE_API_RESULT_T CyBle_GapcStartScan(uint8 scanningIntervalType)
 798:.\Generated_Source\PSoC4/BLE.c ****     {
 799:.\Generated_Source\PSoC4/BLE.c ****         CYBLE_API_RESULT_T apiResult;
 800:.\Generated_Source\PSoC4/BLE.c **** 
 801:.\Generated_Source\PSoC4/BLE.c ****         if(scanningIntervalType > CYBLE_SCANNING_CUSTOM)
 802:.\Generated_Source\PSoC4/BLE.c ****         {
 803:.\Generated_Source\PSoC4/BLE.c ****             apiResult = CYBLE_ERROR_INVALID_PARAMETER;
 804:.\Generated_Source\PSoC4/BLE.c ****         }
 805:.\Generated_Source\PSoC4/BLE.c ****         else
 806:.\Generated_Source\PSoC4/BLE.c ****         {
 807:.\Generated_Source\PSoC4/BLE.c ****             if(scanningIntervalType == CYBLE_SCANNING_FAST)
 808:.\Generated_Source\PSoC4/BLE.c ****             {
 809:.\Generated_Source\PSoC4/BLE.c ****                 cyBle_discoveryInfo.scanTo = CYBLE_FAST_SCAN_TIMEOUT;
 810:.\Generated_Source\PSoC4/BLE.c ****                 cyBle_discoveryInfo.scanIntv = CYBLE_FAST_SCAN_INTERVAL;
 811:.\Generated_Source\PSoC4/BLE.c ****                 cyBle_discoveryInfo.scanWindow = CYBLE_FAST_SCAN_WINDOW;
 812:.\Generated_Source\PSoC4/BLE.c ****             }
 813:.\Generated_Source\PSoC4/BLE.c ****             else if(scanningIntervalType == CYBLE_SCANNING_SLOW)
 814:.\Generated_Source\PSoC4/BLE.c ****             {
 815:.\Generated_Source\PSoC4/BLE.c ****                 cyBle_discoveryInfo.scanTo = CYBLE_SLOW_SCAN_TIMEOUT;
 816:.\Generated_Source\PSoC4/BLE.c ****                 cyBle_discoveryInfo.scanIntv = CYBLE_SLOW_SCAN_INTERVAL;
 817:.\Generated_Source\PSoC4/BLE.c ****                 cyBle_discoveryInfo.scanWindow = CYBLE_SLOW_SCAN_WINDOW;
 818:.\Generated_Source\PSoC4/BLE.c ****             }       
 819:.\Generated_Source\PSoC4/BLE.c ****             else /* Do not update scanning intervals */
 820:.\Generated_Source\PSoC4/BLE.c ****             {
 821:.\Generated_Source\PSoC4/BLE.c ****             }
 822:.\Generated_Source\PSoC4/BLE.c ****             
 823:.\Generated_Source\PSoC4/BLE.c ****             cyBle_scanningIntervalType = scanningIntervalType;
 824:.\Generated_Source\PSoC4/BLE.c ****             apiResult = CyBle_GapcStartDiscovery(&cyBle_discoveryInfo);
 825:.\Generated_Source\PSoC4/BLE.c ****         
 826:.\Generated_Source\PSoC4/BLE.c ****             if(CYBLE_ERROR_OK == apiResult)
 827:.\Generated_Source\PSoC4/BLE.c ****             {
 828:.\Generated_Source\PSoC4/BLE.c ****                 cyBle_eventHandlerFlag |= CYBLE_START_FLAG;
 829:.\Generated_Source\PSoC4/BLE.c ****             }
 830:.\Generated_Source\PSoC4/BLE.c ****         }
 831:.\Generated_Source\PSoC4/BLE.c ****        
 832:.\Generated_Source\PSoC4/BLE.c ****         return (apiResult);
 833:.\Generated_Source\PSoC4/BLE.c ****     }
 834:.\Generated_Source\PSoC4/BLE.c ****     
 835:.\Generated_Source\PSoC4/BLE.c ****     
 836:.\Generated_Source\PSoC4/BLE.c ****     /******************************************************************************
 837:.\Generated_Source\PSoC4/BLE.c ****     * Function Name: CyBle_GapcStopScan
 838:.\Generated_Source\PSoC4/BLE.c ****     ***************************************************************************//**
 839:.\Generated_Source\PSoC4/BLE.c ****     * 
 840:.\Generated_Source\PSoC4/BLE.c ****     *   This function used to stop the discovery of devices. On stopping discovery
ARM GAS  C:\Users\Petro\AppData\Local\Temp\cc6Lo8fB.s 			page 28


 841:.\Generated_Source\PSoC4/BLE.c ****     *   operation, CYBLE_EVT_GAPC_SCAN_START_STOP event is generated. Application
 842:.\Generated_Source\PSoC4/BLE.c ****     *   layer needs to keep track of the function call made before receiving this
 843:.\Generated_Source\PSoC4/BLE.c ****     *   event to associate this event with either the start or stop discovery
 844:.\Generated_Source\PSoC4/BLE.c ****     *   function.
 845:.\Generated_Source\PSoC4/BLE.c ****     * 
 846:.\Generated_Source\PSoC4/BLE.c ****     *   Possible events generated are:
 847:.\Generated_Source\PSoC4/BLE.c ****     *    * CYBLE_EVT_GAPC_SCAN_START_STOP
 848:.\Generated_Source\PSoC4/BLE.c ****     * 
 849:.\Generated_Source\PSoC4/BLE.c ****     *  \return
 850:.\Generated_Source\PSoC4/BLE.c ****     *   None
 851:.\Generated_Source\PSoC4/BLE.c ****     * 
 852:.\Generated_Source\PSoC4/BLE.c ****     *******************************************************************************/
 853:.\Generated_Source\PSoC4/BLE.c ****     void CyBle_GapcStopScan(void)
 854:.\Generated_Source\PSoC4/BLE.c ****     {
 855:.\Generated_Source\PSoC4/BLE.c ****         CyBle_GapcStopDiscovery();
 856:.\Generated_Source\PSoC4/BLE.c ****         
 857:.\Generated_Source\PSoC4/BLE.c ****         cyBle_eventHandlerFlag |= CYBLE_STOP_FLAG;
 858:.\Generated_Source\PSoC4/BLE.c ****     }
 859:.\Generated_Source\PSoC4/BLE.c **** 
 860:.\Generated_Source\PSoC4/BLE.c ****     
 861:.\Generated_Source\PSoC4/BLE.c **** #endif /* CYBLE_GAP_ROLE_CENTRAL || CYBLE_GAP_ROLE_OBSERVER */
 862:.\Generated_Source\PSoC4/BLE.c **** 
 863:.\Generated_Source\PSoC4/BLE.c **** 
 864:.\Generated_Source\PSoC4/BLE.c **** #if(CYBLE_GAP_ROLE_CENTRAL)
 865:.\Generated_Source\PSoC4/BLE.c **** 
 866:.\Generated_Source\PSoC4/BLE.c ****     /******************************************************************************
 867:.\Generated_Source\PSoC4/BLE.c ****     * Function Name: CyBle_GapcConnectDevice
 868:.\Generated_Source\PSoC4/BLE.c ****     ***************************************************************************//**
 869:.\Generated_Source\PSoC4/BLE.c ****     * 
 870:.\Generated_Source\PSoC4/BLE.c ****     *  This function is used to send a connection request to the remote device with
 871:.\Generated_Source\PSoC4/BLE.c ****     *  the connection parameters set in the component customizer. This function needs
 872:.\Generated_Source\PSoC4/BLE.c ****     *  to be called only once after the target device is discovered by 
 873:.\Generated_Source\PSoC4/BLE.c ****     *  CyBle_GapcStartScan() and further scanning has stopped. Scanning is 
 874:.\Generated_Source\PSoC4/BLE.c ****     *  successfully stopped on invoking CyBle_GapcStopScan() and then receiving the
 875:.\Generated_Source\PSoC4/BLE.c ****     *  event CYBLE_EVT_GAPC_SCAN_START_STOP with sub-parameter 'success' = 0x01u.
 876:.\Generated_Source\PSoC4/BLE.c ****     *  
 877:.\Generated_Source\PSoC4/BLE.c ****     *  On successful connection, the following events are generated at the GAP 
 878:.\Generated_Source\PSoC4/BLE.c ****     *  Central device (as well as the GAP Peripheral device), in the following order.
 879:.\Generated_Source\PSoC4/BLE.c ****     *  * CYBLE_EVT_GATT_CONNECT_IND
 880:.\Generated_Source\PSoC4/BLE.c ****     *  * CYBLE_EVT_GAP_DEVICE_CONNECTED
 881:.\Generated_Source\PSoC4/BLE.c ****     *  
 882:.\Generated_Source\PSoC4/BLE.c ****     *  A procedure is considered to have timed out if a connection response packet is 
 883:.\Generated_Source\PSoC4/BLE.c ****     *  not received within time set by cyBle_connectingTimeout global variable
 884:.\Generated_Source\PSoC4/BLE.c ****     *  (30 seconds by default). CYBLE_EVT_TIMEOUT event with CYBLE_GENERIC_TO parameter
 885:.\Generated_Source\PSoC4/BLE.c ****     *  will indicate about connection procedure timeout. Connection will automatically
 886:.\Generated_Source\PSoC4/BLE.c ****     *  be canceled and state will be changed to CYBLE_STATE_DISCONNECTED.
 887:.\Generated_Source\PSoC4/BLE.c ****     * 
 888:.\Generated_Source\PSoC4/BLE.c ****     *  \param address: The device address of the remote device to connect to. 
 889:.\Generated_Source\PSoC4/BLE.c ****     *  \param timeout: Timeout for which timer to be started in seconds.
 890:.\Generated_Source\PSoC4/BLE.c ****     *  
 891:.\Generated_Source\PSoC4/BLE.c ****     * \return
 892:.\Generated_Source\PSoC4/BLE.c ****     *  CYBLE_API_RESULT_T : Return value indicates if the function succeeded or 
 893:.\Generated_Source\PSoC4/BLE.c ****     *  failed. Following are the possible error codes.
 894:.\Generated_Source\PSoC4/BLE.c ****     *
 895:.\Generated_Source\PSoC4/BLE.c ****     *   Errors codes                       | Description
 896:.\Generated_Source\PSoC4/BLE.c ****     *   ------------                       | -----------
 897:.\Generated_Source\PSoC4/BLE.c ****     *   CYBLE_ERROR_OK                     | On successful operation.
ARM GAS  C:\Users\Petro\AppData\Local\Temp\cc6Lo8fB.s 			page 29


 898:.\Generated_Source\PSoC4/BLE.c ****     *   CYBLE_ERROR_STACK_INTERNAL         | On error occurred in the BLE stack.
 899:.\Generated_Source\PSoC4/BLE.c ****     *   CYBLE_ERROR_INVALID_PARAMETER      | On passing an invalid parameter.
 900:.\Generated_Source\PSoC4/BLE.c ****     *   CYBLE_ERROR_INVALID_STATE          | On calling this API not in Disconnected state.
 901:.\Generated_Source\PSoC4/BLE.c ****     *  
 902:.\Generated_Source\PSoC4/BLE.c ****     ******************************************************************************/
 903:.\Generated_Source\PSoC4/BLE.c ****     CYBLE_API_RESULT_T CyBle_GapcConnectDevice(const CYBLE_GAP_BD_ADDR_T * address)
 904:.\Generated_Source\PSoC4/BLE.c ****     {
 905:.\Generated_Source\PSoC4/BLE.c ****         CYBLE_API_RESULT_T apiResult;
 906:.\Generated_Source\PSoC4/BLE.c ****         uint8 i;
 907:.\Generated_Source\PSoC4/BLE.c **** 
 908:.\Generated_Source\PSoC4/BLE.c ****         if(CYBLE_STATE_DISCONNECTED != CyBle_GetState())
 909:.\Generated_Source\PSoC4/BLE.c ****         {
 910:.\Generated_Source\PSoC4/BLE.c ****             apiResult = CYBLE_ERROR_INVALID_STATE;
 911:.\Generated_Source\PSoC4/BLE.c ****         }
 912:.\Generated_Source\PSoC4/BLE.c ****         else if(address == NULL)
 913:.\Generated_Source\PSoC4/BLE.c ****         {
 914:.\Generated_Source\PSoC4/BLE.c ****             apiResult = CYBLE_ERROR_INVALID_PARAMETER;
 915:.\Generated_Source\PSoC4/BLE.c ****         }
 916:.\Generated_Source\PSoC4/BLE.c ****         else
 917:.\Generated_Source\PSoC4/BLE.c ****         {
 918:.\Generated_Source\PSoC4/BLE.c ****             for(i = 0u; i < CYBLE_GAP_BD_ADDR_SIZE; i++)
 919:.\Generated_Source\PSoC4/BLE.c ****             {
 920:.\Generated_Source\PSoC4/BLE.c ****                 cyBle_connectionParameters.peerBdAddr[i] = address->bdAddr[i];
 921:.\Generated_Source\PSoC4/BLE.c ****             }
 922:.\Generated_Source\PSoC4/BLE.c ****             cyBle_connectionParameters.peerAddrType = address -> type;
 923:.\Generated_Source\PSoC4/BLE.c ****             apiResult = CyBle_GapcInitConnection(&cyBle_connectionParameters);
 924:.\Generated_Source\PSoC4/BLE.c ****             
 925:.\Generated_Source\PSoC4/BLE.c ****             if(CYBLE_ERROR_OK == apiResult)
 926:.\Generated_Source\PSoC4/BLE.c ****             {
 927:.\Generated_Source\PSoC4/BLE.c ****                 CyBle_SetState(CYBLE_STATE_CONNECTING);
 928:.\Generated_Source\PSoC4/BLE.c ****                 if(cyBle_connectingTimeout != 0u)
 929:.\Generated_Source\PSoC4/BLE.c ****                 {
 930:.\Generated_Source\PSoC4/BLE.c ****                     (void)CyBle_StartTimer(cyBle_connectingTimeout);
 931:.\Generated_Source\PSoC4/BLE.c ****                 }
 932:.\Generated_Source\PSoC4/BLE.c ****             }
 933:.\Generated_Source\PSoC4/BLE.c ****         }
 934:.\Generated_Source\PSoC4/BLE.c ****         return (apiResult);
 935:.\Generated_Source\PSoC4/BLE.c ****     }
 936:.\Generated_Source\PSoC4/BLE.c ****     
 937:.\Generated_Source\PSoC4/BLE.c **** 
 938:.\Generated_Source\PSoC4/BLE.c ****     /******************************************************************************
 939:.\Generated_Source\PSoC4/BLE.c ****     * Function Name: CyBle_GapcCancelDeviceConnection
 940:.\Generated_Source\PSoC4/BLE.c ****     ***************************************************************************//**
 941:.\Generated_Source\PSoC4/BLE.c ****     * 
 942:.\Generated_Source\PSoC4/BLE.c ****     *  This function cancels a previously initiated connection with the remote 
 943:.\Generated_Source\PSoC4/BLE.c ****     *  device. It is a blocking function. No event is generated on calling this 
 944:.\Generated_Source\PSoC4/BLE.c ****     *  function. If the devices are already connected then this function should not
 945:.\Generated_Source\PSoC4/BLE.c ****     *  be used. If you intend to disconnect from an existing connection, the function
 946:.\Generated_Source\PSoC4/BLE.c ****     *  CyBle_GapDisconnect() should be used.
 947:.\Generated_Source\PSoC4/BLE.c ****     * 
 948:.\Generated_Source\PSoC4/BLE.c ****     * \return
 949:.\Generated_Source\PSoC4/BLE.c ****     *  CYBLE_API_RESULT_T : Return value indicates if the function succeeded or 
 950:.\Generated_Source\PSoC4/BLE.c ****     *  failed. Following are the possible error codes.
 951:.\Generated_Source\PSoC4/BLE.c ****     *
 952:.\Generated_Source\PSoC4/BLE.c ****     *   Errors codes                       | Description
 953:.\Generated_Source\PSoC4/BLE.c ****     *   ---------------------------------- | --------------------------------------
 954:.\Generated_Source\PSoC4/BLE.c ****     *   CYBLE_ERROR_OK                     | On successful operation.
ARM GAS  C:\Users\Petro\AppData\Local\Temp\cc6Lo8fB.s 			page 30


 955:.\Generated_Source\PSoC4/BLE.c ****     *   CYBLE_ERROR_STACK_INTERNAL         | An error occurred in the BLE stack.
 956:.\Generated_Source\PSoC4/BLE.c ****     *   CYBLE_ERROR_INVALID_OPERATION      | Device is already connected.
 957:.\Generated_Source\PSoC4/BLE.c ****     *  
 958:.\Generated_Source\PSoC4/BLE.c ****     *******************************************************************************/
 959:.\Generated_Source\PSoC4/BLE.c ****     CYBLE_API_RESULT_T CyBle_GapcCancelDeviceConnection(void)
 960:.\Generated_Source\PSoC4/BLE.c ****     {
 961:.\Generated_Source\PSoC4/BLE.c ****         CYBLE_API_RESULT_T apiResult;
 962:.\Generated_Source\PSoC4/BLE.c ****         
 963:.\Generated_Source\PSoC4/BLE.c ****         apiResult = CyBle_GapcCancelConnection();
 964:.\Generated_Source\PSoC4/BLE.c ****             
 965:.\Generated_Source\PSoC4/BLE.c ****         if(cyBle_connectingTimeout != 0u)
 966:.\Generated_Source\PSoC4/BLE.c ****         {
 967:.\Generated_Source\PSoC4/BLE.c ****             (void)CyBle_StopTimer();
 968:.\Generated_Source\PSoC4/BLE.c ****         }
 969:.\Generated_Source\PSoC4/BLE.c **** 
 970:.\Generated_Source\PSoC4/BLE.c ****         if(CYBLE_ERROR_OK == apiResult)
 971:.\Generated_Source\PSoC4/BLE.c ****         {
 972:.\Generated_Source\PSoC4/BLE.c ****             CyBle_SetState(CYBLE_STATE_DISCONNECTED);
 973:.\Generated_Source\PSoC4/BLE.c ****         }
 974:.\Generated_Source\PSoC4/BLE.c ****         return (apiResult);
 975:.\Generated_Source\PSoC4/BLE.c ****     }    
 976:.\Generated_Source\PSoC4/BLE.c **** 
 977:.\Generated_Source\PSoC4/BLE.c ****     
 978:.\Generated_Source\PSoC4/BLE.c **** #endif /* CYBLE_GAP_ROLE_CENTRAL */
 979:.\Generated_Source\PSoC4/BLE.c **** 
 980:.\Generated_Source\PSoC4/BLE.c **** 
 981:.\Generated_Source\PSoC4/BLE.c **** #if(CYBLE_GATT_ROLE_SERVER)
 982:.\Generated_Source\PSoC4/BLE.c **** 
 983:.\Generated_Source\PSoC4/BLE.c **** #if(CYBLE_GAP_ROLE_PERIPHERAL)
 984:.\Generated_Source\PSoC4/BLE.c **** 
 985:.\Generated_Source\PSoC4/BLE.c ****         /******************************************************************************
 986:.\Generated_Source\PSoC4/BLE.c ****         * Function Name: CyBle_ChangeAdLocalName
 987:.\Generated_Source\PSoC4/BLE.c ****         ***************************************************************************//**
 988:.\Generated_Source\PSoC4/BLE.c ****         *  This API is used to set the local device name in the advertisement or scan 
 989:.\Generated_Source\PSoC4/BLE.c ****         *  response data structure.
 990:.\Generated_Source\PSoC4/BLE.c ****         * 
 991:.\Generated_Source\PSoC4/BLE.c ****         *  \param name: The local device name string to be set in advertisement data 
 992:.\Generated_Source\PSoC4/BLE.c ****         *            structure.
 993:.\Generated_Source\PSoC4/BLE.c ****         *  \param dest: 0 - advertisement structure, not zero value selects scan response
 994:.\Generated_Source\PSoC4/BLE.c ****         *              structure.
 995:.\Generated_Source\PSoC4/BLE.c ****         * 
 996:.\Generated_Source\PSoC4/BLE.c ****         * \return
 997:.\Generated_Source\PSoC4/BLE.c ****         *  None
 998:.\Generated_Source\PSoC4/BLE.c ****         *  
 999:.\Generated_Source\PSoC4/BLE.c ****         *******************************************************************************/
1000:.\Generated_Source\PSoC4/BLE.c ****         static void CyBle_ChangeAdLocalName(const char8 name[], uint8 dest)
1001:.\Generated_Source\PSoC4/BLE.c ****         {
 689              		.loc 1 1001 0
 690              		.cfi_startproc
 691 0000 80B5     		push	{r7, lr}
 692              		.cfi_def_cfa_offset 8
 693              		.cfi_offset 7, -8
 694              		.cfi_offset 14, -4
 695 0002 86B0     		sub	sp, sp, #24
 696              		.cfi_def_cfa_offset 32
 697 0004 00AF     		add	r7, sp, #0
 698              		.cfi_def_cfa_register 7
ARM GAS  C:\Users\Petro\AppData\Local\Temp\cc6Lo8fB.s 			page 31


 699 0006 7860     		str	r0, [r7, #4]
 700 0008 0A1C     		mov	r2, r1
 701 000a FB1C     		add	r3, r7, #3
 702 000c 1A70     		strb	r2, [r3]
1002:.\Generated_Source\PSoC4/BLE.c ****             uint8 i;
1003:.\Generated_Source\PSoC4/BLE.c ****             uint8 flag = 0u;
 703              		.loc 1 1003 0
 704 000e 1623     		mov	r3, #22
 705 0010 FB18     		add	r3, r7, r3
 706 0012 0022     		mov	r2, #0
 707 0014 1A70     		strb	r2, [r3]
1004:.\Generated_Source\PSoC4/BLE.c ****             uint8 adLength = 0u;
 708              		.loc 1 1004 0
 709 0016 1523     		mov	r3, #21
 710 0018 FB18     		add	r3, r7, r3
 711 001a 0022     		mov	r2, #0
 712 001c 1A70     		strb	r2, [r3]
1005:.\Generated_Source\PSoC4/BLE.c ****             uint8 byteCounter = 0u;
 713              		.loc 1 1005 0
 714 001e 1423     		mov	r3, #20
 715 0020 FB18     		add	r3, r7, r3
 716 0022 0022     		mov	r2, #0
 717 0024 1A70     		strb	r2, [r3]
1006:.\Generated_Source\PSoC4/BLE.c ****             uint8 *destBuffer;
1007:.\Generated_Source\PSoC4/BLE.c ****             uint8 maxLength;
1008:.\Generated_Source\PSoC4/BLE.c ****             
1009:.\Generated_Source\PSoC4/BLE.c ****             if(dest == 0u)      /* Destination - advertising structure */
 718              		.loc 1 1009 0
 719 0026 FB1C     		add	r3, r7, #3
 720 0028 1B78     		ldrb	r3, [r3]
 721 002a 002B     		cmp	r3, #0
 722 002c 07D1     		bne	.L34
1010:.\Generated_Source\PSoC4/BLE.c ****             {
1011:.\Generated_Source\PSoC4/BLE.c ****                 destBuffer = cyBle_discoveryData.advData;
 723              		.loc 1 1011 0
 724 002e 5B4B     		ldr	r3, .L49
 725 0030 3B61     		str	r3, [r7, #16]
1012:.\Generated_Source\PSoC4/BLE.c ****                 maxLength = cyBle_discoveryData.advDataLen;
 726              		.loc 1 1012 0
 727 0032 0F23     		mov	r3, #15
 728 0034 FB18     		add	r3, r7, r3
 729 0036 594A     		ldr	r2, .L49
 730 0038 D27F     		ldrb	r2, [r2, #31]
 731 003a 1A70     		strb	r2, [r3]
 732 003c 06E0     		b	.L35
 733              	.L34:
1013:.\Generated_Source\PSoC4/BLE.c ****             }
1014:.\Generated_Source\PSoC4/BLE.c ****             else                /* Destination - scan response structure */
1015:.\Generated_Source\PSoC4/BLE.c ****             {
1016:.\Generated_Source\PSoC4/BLE.c ****                 destBuffer = cyBle_scanRspData.scanRspData;
 734              		.loc 1 1016 0
 735 003e 584B     		ldr	r3, .L49+4
 736 0040 3B61     		str	r3, [r7, #16]
1017:.\Generated_Source\PSoC4/BLE.c ****                 maxLength = cyBle_scanRspData.scanRspDataLen;
 737              		.loc 1 1017 0
 738 0042 0F23     		mov	r3, #15
 739 0044 FB18     		add	r3, r7, r3
ARM GAS  C:\Users\Petro\AppData\Local\Temp\cc6Lo8fB.s 			page 32


 740 0046 564A     		ldr	r2, .L49+4
 741 0048 D27F     		ldrb	r2, [r2, #31]
 742 004a 1A70     		strb	r2, [r3]
 743              	.L35:
1018:.\Generated_Source\PSoC4/BLE.c ****             }
1019:.\Generated_Source\PSoC4/BLE.c ****             
1020:.\Generated_Source\PSoC4/BLE.c ****             while((byteCounter < maxLength) && (0u == flag))
 744              		.loc 1 1020 0
 745 004c 35E0     		b	.L36
 746              	.L42:
1021:.\Generated_Source\PSoC4/BLE.c ****             {
1022:.\Generated_Source\PSoC4/BLE.c ****                 adLength = destBuffer[byteCounter];
 747              		.loc 1 1022 0
 748 004e 1423     		mov	r3, #20
 749 0050 FB18     		add	r3, r7, r3
 750 0052 1B78     		ldrb	r3, [r3]
 751 0054 3A69     		ldr	r2, [r7, #16]
 752 0056 D218     		add	r2, r2, r3
 753 0058 1523     		mov	r3, #21
 754 005a FB18     		add	r3, r7, r3
 755 005c 1278     		ldrb	r2, [r2]
 756 005e 1A70     		strb	r2, [r3]
1023:.\Generated_Source\PSoC4/BLE.c ****                 
1024:.\Generated_Source\PSoC4/BLE.c ****                 if(0u != adLength)
 757              		.loc 1 1024 0
 758 0060 1523     		mov	r3, #21
 759 0062 FB18     		add	r3, r7, r3
 760 0064 1B78     		ldrb	r3, [r3]
 761 0066 002B     		cmp	r3, #0
 762 0068 26D0     		beq	.L37
1025:.\Generated_Source\PSoC4/BLE.c ****                 {
1026:.\Generated_Source\PSoC4/BLE.c ****                     /* Increment byte counter so it can point to AD type */
1027:.\Generated_Source\PSoC4/BLE.c ****                     byteCounter++;
 763              		.loc 1 1027 0
 764 006a 1423     		mov	r3, #20
 765 006c FB18     		add	r3, r7, r3
 766 006e 1A78     		ldrb	r2, [r3]
 767 0070 1423     		mov	r3, #20
 768 0072 FB18     		add	r3, r7, r3
 769 0074 0132     		add	r2, r2, #1
 770 0076 1A70     		strb	r2, [r3]
1028:.\Generated_Source\PSoC4/BLE.c ****                     
1029:.\Generated_Source\PSoC4/BLE.c ****                     if((CYBLE_SHORT_LOCAL_NAME == destBuffer[byteCounter]) || 
 771              		.loc 1 1029 0
 772 0078 1423     		mov	r3, #20
 773 007a FB18     		add	r3, r7, r3
 774 007c 1B78     		ldrb	r3, [r3]
 775 007e 3A69     		ldr	r2, [r7, #16]
 776 0080 D318     		add	r3, r2, r3
 777 0082 1B78     		ldrb	r3, [r3]
 778 0084 082B     		cmp	r3, #8
 779 0086 07D0     		beq	.L38
1030:.\Generated_Source\PSoC4/BLE.c ****                        (CYBLE_COMPLETE_LOCAL_NAME == destBuffer[byteCounter]))
 780              		.loc 1 1030 0 discriminator 1
 781 0088 1423     		mov	r3, #20
 782 008a FB18     		add	r3, r7, r3
 783 008c 1B78     		ldrb	r3, [r3]
ARM GAS  C:\Users\Petro\AppData\Local\Temp\cc6Lo8fB.s 			page 33


 784 008e 3A69     		ldr	r2, [r7, #16]
 785 0090 D318     		add	r3, r2, r3
 786 0092 1B78     		ldrb	r3, [r3]
1029:.\Generated_Source\PSoC4/BLE.c ****                        (CYBLE_COMPLETE_LOCAL_NAME == destBuffer[byteCounter]))
 787              		.loc 1 1029 0 discriminator 1
 788 0094 092B     		cmp	r3, #9
 789 0096 04D1     		bne	.L39
 790              	.L38:
1031:.\Generated_Source\PSoC4/BLE.c ****                     {
1032:.\Generated_Source\PSoC4/BLE.c ****                         /* Start of the Local Name AD type was fount. Set flag and exit the loop. *
1033:.\Generated_Source\PSoC4/BLE.c ****                         flag = 1u;
 791              		.loc 1 1033 0
 792 0098 1623     		mov	r3, #22
 793 009a FB18     		add	r3, r7, r3
 794 009c 0122     		mov	r2, #1
 795 009e 1A70     		strb	r2, [r3]
 796 00a0 09E0     		b	.L40
 797              	.L39:
1034:.\Generated_Source\PSoC4/BLE.c ****                     }
1035:.\Generated_Source\PSoC4/BLE.c ****                     else
1036:.\Generated_Source\PSoC4/BLE.c ****                     {
1037:.\Generated_Source\PSoC4/BLE.c ****                         byteCounter += adLength;
 798              		.loc 1 1037 0
 799 00a2 1423     		mov	r3, #20
 800 00a4 FB18     		add	r3, r7, r3
 801 00a6 1422     		mov	r2, #20
 802 00a8 B918     		add	r1, r7, r2
 803 00aa 1522     		mov	r2, #21
 804 00ac BA18     		add	r2, r7, r2
 805 00ae 0978     		ldrb	r1, [r1]
 806 00b0 1278     		ldrb	r2, [r2]
 807 00b2 8A18     		add	r2, r1, r2
 808 00b4 1A70     		strb	r2, [r3]
 809              	.L40:
 810 00b6 00E0     		b	.L36
 811              	.L37:
1038:.\Generated_Source\PSoC4/BLE.c ****                     }
1039:.\Generated_Source\PSoC4/BLE.c ****                 }
1040:.\Generated_Source\PSoC4/BLE.c ****                 else
1041:.\Generated_Source\PSoC4/BLE.c ****                 {
1042:.\Generated_Source\PSoC4/BLE.c ****                     /* The end of advertisement data structure was encountered though exit the loop
1043:.\Generated_Source\PSoC4/BLE.c ****                     break;
 812              		.loc 1 1043 0
 813 00b8 0CE0     		b	.L41
 814              	.L36:
1020:.\Generated_Source\PSoC4/BLE.c ****             {
 815              		.loc 1 1020 0
 816 00ba 1423     		mov	r3, #20
 817 00bc FA18     		add	r2, r7, r3
 818 00be 0F23     		mov	r3, #15
 819 00c0 FB18     		add	r3, r7, r3
 820 00c2 1278     		ldrb	r2, [r2]
 821 00c4 1B78     		ldrb	r3, [r3]
 822 00c6 9A42     		cmp	r2, r3
 823 00c8 04D2     		bcs	.L41
1020:.\Generated_Source\PSoC4/BLE.c ****             {
 824              		.loc 1 1020 0 is_stmt 0 discriminator 1
ARM GAS  C:\Users\Petro\AppData\Local\Temp\cc6Lo8fB.s 			page 34


 825 00ca 1623     		mov	r3, #22
 826 00cc FB18     		add	r3, r7, r3
 827 00ce 1B78     		ldrb	r3, [r3]
 828 00d0 002B     		cmp	r3, #0
 829 00d2 BCD0     		beq	.L42
 830              	.L41:
1044:.\Generated_Source\PSoC4/BLE.c ****                 }
1045:.\Generated_Source\PSoC4/BLE.c ****             }
1046:.\Generated_Source\PSoC4/BLE.c ****             
1047:.\Generated_Source\PSoC4/BLE.c ****             if(0u != flag)
 831              		.loc 1 1047 0 is_stmt 1
 832 00d4 1623     		mov	r3, #22
 833 00d6 FB18     		add	r3, r7, r3
 834 00d8 1B78     		ldrb	r3, [r3]
 835 00da 002B     		cmp	r3, #0
 836 00dc 5BD0     		beq	.L33
1048:.\Generated_Source\PSoC4/BLE.c ****             {
1049:.\Generated_Source\PSoC4/BLE.c ****                 /* Reuse "adLength" to hold location of the last character of local name in 
1050:.\Generated_Source\PSoC4/BLE.c ****                    AD structure. */
1051:.\Generated_Source\PSoC4/BLE.c ****                 adLength += byteCounter;
 837              		.loc 1 1051 0
 838 00de 1523     		mov	r3, #21
 839 00e0 FB18     		add	r3, r7, r3
 840 00e2 1522     		mov	r2, #21
 841 00e4 B918     		add	r1, r7, r2
 842 00e6 1422     		mov	r2, #20
 843 00e8 BA18     		add	r2, r7, r2
 844 00ea 0978     		ldrb	r1, [r1]
 845 00ec 1278     		ldrb	r2, [r2]
 846 00ee 8A18     		add	r2, r1, r2
 847 00f0 1A70     		strb	r2, [r3]
1052:.\Generated_Source\PSoC4/BLE.c ****                 
1053:.\Generated_Source\PSoC4/BLE.c ****                 /* Increment byte counter to point to start of the local Name string */
1054:.\Generated_Source\PSoC4/BLE.c ****                 byteCounter++;
 848              		.loc 1 1054 0
 849 00f2 1423     		mov	r3, #20
 850 00f4 FB18     		add	r3, r7, r3
 851 00f6 1A78     		ldrb	r2, [r3]
 852 00f8 1423     		mov	r3, #20
 853 00fa FB18     		add	r3, r7, r3
 854 00fc 0132     		add	r2, r2, #1
 855 00fe 1A70     		strb	r2, [r3]
1055:.\Generated_Source\PSoC4/BLE.c ****                 
1056:.\Generated_Source\PSoC4/BLE.c ****                 for(i = byteCounter; ((i < (adLength)) && (CYBLE_NULL_CHARCTER != name[i - byteCoun
 856              		.loc 1 1056 0
 857 0100 1723     		mov	r3, #23
 858 0102 FB18     		add	r3, r7, r3
 859 0104 1422     		mov	r2, #20
 860 0106 BA18     		add	r2, r7, r2
 861 0108 1278     		ldrb	r2, [r2]
 862 010a 1A70     		strb	r2, [r3]
 863 010c 17E0     		b	.L44
 864              	.L46:
1057:.\Generated_Source\PSoC4/BLE.c ****                 {
1058:.\Generated_Source\PSoC4/BLE.c ****                     destBuffer[i] = (uint8)name[i - byteCounter];
 865              		.loc 1 1058 0 discriminator 4
 866 010e 1723     		mov	r3, #23
ARM GAS  C:\Users\Petro\AppData\Local\Temp\cc6Lo8fB.s 			page 35


 867 0110 FB18     		add	r3, r7, r3
 868 0112 1B78     		ldrb	r3, [r3]
 869 0114 3A69     		ldr	r2, [r7, #16]
 870 0116 D318     		add	r3, r2, r3
 871 0118 1722     		mov	r2, #23
 872 011a BA18     		add	r2, r7, r2
 873 011c 1178     		ldrb	r1, [r2]
 874 011e 1422     		mov	r2, #20
 875 0120 BA18     		add	r2, r7, r2
 876 0122 1278     		ldrb	r2, [r2]
 877 0124 8A1A     		sub	r2, r1, r2
 878 0126 111C     		mov	r1, r2
 879 0128 7A68     		ldr	r2, [r7, #4]
 880 012a 5218     		add	r2, r2, r1
 881 012c 1278     		ldrb	r2, [r2]
 882 012e 1A70     		strb	r2, [r3]
1056:.\Generated_Source\PSoC4/BLE.c ****                 {
 883              		.loc 1 1056 0 discriminator 4
 884 0130 1723     		mov	r3, #23
 885 0132 FB18     		add	r3, r7, r3
 886 0134 1A78     		ldrb	r2, [r3]
 887 0136 1723     		mov	r3, #23
 888 0138 FB18     		add	r3, r7, r3
 889 013a 0132     		add	r2, r2, #1
 890 013c 1A70     		strb	r2, [r3]
 891              	.L44:
1056:.\Generated_Source\PSoC4/BLE.c ****                 {
 892              		.loc 1 1056 0 is_stmt 0 discriminator 1
 893 013e 1723     		mov	r3, #23
 894 0140 FA18     		add	r2, r7, r3
 895 0142 1523     		mov	r3, #21
 896 0144 FB18     		add	r3, r7, r3
 897 0146 1278     		ldrb	r2, [r2]
 898 0148 1B78     		ldrb	r3, [r3]
 899 014a 9A42     		cmp	r2, r3
 900 014c 0CD2     		bcs	.L45
1056:.\Generated_Source\PSoC4/BLE.c ****                 {
 901              		.loc 1 1056 0 discriminator 3
 902 014e 1723     		mov	r3, #23
 903 0150 FB18     		add	r3, r7, r3
 904 0152 1A78     		ldrb	r2, [r3]
 905 0154 1423     		mov	r3, #20
 906 0156 FB18     		add	r3, r7, r3
 907 0158 1B78     		ldrb	r3, [r3]
 908 015a D31A     		sub	r3, r2, r3
 909 015c 1A1C     		mov	r2, r3
 910 015e 7B68     		ldr	r3, [r7, #4]
 911 0160 9B18     		add	r3, r3, r2
 912 0162 1B78     		ldrb	r3, [r3]
 913 0164 002B     		cmp	r3, #0
 914 0166 D2D1     		bne	.L46
 915              	.L45:
1059:.\Generated_Source\PSoC4/BLE.c ****                 }
1060:.\Generated_Source\PSoC4/BLE.c ****                 
1061:.\Generated_Source\PSoC4/BLE.c ****                 /* This loop handles the case when new local name is shorted than old one.
1062:.\Generated_Source\PSoC4/BLE.c ****                    In this case all remaining characters should be null characters. */
1063:.\Generated_Source\PSoC4/BLE.c ****                 while(adLength > i)
ARM GAS  C:\Users\Petro\AppData\Local\Temp\cc6Lo8fB.s 			page 36


 916              		.loc 1 1063 0 is_stmt 1
 917 0168 0DE0     		b	.L47
 918              	.L48:
1064:.\Generated_Source\PSoC4/BLE.c ****                 {
1065:.\Generated_Source\PSoC4/BLE.c ****                     /* Terminate string */
1066:.\Generated_Source\PSoC4/BLE.c ****                     destBuffer[i] = (uint8)CYBLE_NULL_CHARCTER;
 919              		.loc 1 1066 0
 920 016a 1723     		mov	r3, #23
 921 016c FB18     		add	r3, r7, r3
 922 016e 1B78     		ldrb	r3, [r3]
 923 0170 3A69     		ldr	r2, [r7, #16]
 924 0172 D318     		add	r3, r2, r3
 925 0174 0022     		mov	r2, #0
 926 0176 1A70     		strb	r2, [r3]
1067:.\Generated_Source\PSoC4/BLE.c ****                     i++;
 927              		.loc 1 1067 0
 928 0178 1723     		mov	r3, #23
 929 017a FB18     		add	r3, r7, r3
 930 017c 1A78     		ldrb	r2, [r3]
 931 017e 1723     		mov	r3, #23
 932 0180 FB18     		add	r3, r7, r3
 933 0182 0132     		add	r2, r2, #1
 934 0184 1A70     		strb	r2, [r3]
 935              	.L47:
1063:.\Generated_Source\PSoC4/BLE.c ****                 {
 936              		.loc 1 1063 0
 937 0186 1523     		mov	r3, #21
 938 0188 FA18     		add	r2, r7, r3
 939 018a 1723     		mov	r3, #23
 940 018c FB18     		add	r3, r7, r3
 941 018e 1278     		ldrb	r2, [r2]
 942 0190 1B78     		ldrb	r3, [r3]
 943 0192 9A42     		cmp	r2, r3
 944 0194 E9D8     		bhi	.L48
 945              	.L33:
1068:.\Generated_Source\PSoC4/BLE.c ****                 }
1069:.\Generated_Source\PSoC4/BLE.c ****             }
1070:.\Generated_Source\PSoC4/BLE.c ****         }
 946              		.loc 1 1070 0
 947 0196 BD46     		mov	sp, r7
 948 0198 06B0     		add	sp, sp, #24
 949              		@ sp needed
 950 019a 80BD     		pop	{r7, pc}
 951              	.L50:
 952              		.align	2
 953              	.L49:
 954 019c 00000000 		.word	cyBle_discoveryData
 955 01a0 00000000 		.word	cyBle_scanRspData
 956              		.cfi_endproc
 957              	.LFE9:
 958              		.size	CyBle_ChangeAdLocalName, .-CyBle_ChangeAdLocalName
 959              		.section	.text.CyBle_GapSetLocalName,"ax",%progbits
 960              		.align	2
 961              		.global	CyBle_GapSetLocalName
 962              		.code	16
 963              		.thumb_func
 964              		.type	CyBle_GapSetLocalName, %function
ARM GAS  C:\Users\Petro\AppData\Local\Temp\cc6Lo8fB.s 			page 37


 965              	CyBle_GapSetLocalName:
 966              	.LFB10:
1071:.\Generated_Source\PSoC4/BLE.c ****         
1072:.\Generated_Source\PSoC4/BLE.c **** #endif /* (CYBLE_GAP_ROLE_PERIPHERAL) */  
1073:.\Generated_Source\PSoC4/BLE.c ****     
1074:.\Generated_Source\PSoC4/BLE.c ****     
1075:.\Generated_Source\PSoC4/BLE.c ****     /******************************************************************************
1076:.\Generated_Source\PSoC4/BLE.c ****     * Function Name: CyBle_GapSetLocalName
1077:.\Generated_Source\PSoC4/BLE.c ****     ***************************************************************************//**
1078:.\Generated_Source\PSoC4/BLE.c ****     *  This API is used to set the local device name - a Characteristic of the 
1079:.\Generated_Source\PSoC4/BLE.c ****     *  GAP Service. If the characteristic length entered in the component customizer
1080:.\Generated_Source\PSoC4/BLE.c ****     *  is shorter than the string specified by the "name" parameter, the local device
1081:.\Generated_Source\PSoC4/BLE.c ****     *  name will be cut to the length specified in the customizer.
1082:.\Generated_Source\PSoC4/BLE.c ****     * 
1083:.\Generated_Source\PSoC4/BLE.c ****     *  \param name: The local device name string. The name string to be written as
1084:.\Generated_Source\PSoC4/BLE.c ****     *              the local device name. It represents a UTF-8 encoded User
1085:.\Generated_Source\PSoC4/BLE.c ****     *              Friendly Descriptive Name for the device. The length of the local
1086:.\Generated_Source\PSoC4/BLE.c ****     *              device string is entered into the component customizer and it can
1087:.\Generated_Source\PSoC4/BLE.c ****     *              be set to a value from 0 to 248 bytes. If the name contained in
1088:.\Generated_Source\PSoC4/BLE.c ****     *              the parameter is shorter than the length from the customizer, the
1089:.\Generated_Source\PSoC4/BLE.c ****     *              end of the name is indicated by a NULL octet (0x00).
1090:.\Generated_Source\PSoC4/BLE.c ****     * 
1091:.\Generated_Source\PSoC4/BLE.c ****     * \return
1092:.\Generated_Source\PSoC4/BLE.c ****     *  CYBLE_API_RESULT_T : Return value indicates if the function succeeded or 
1093:.\Generated_Source\PSoC4/BLE.c ****     *  failed. Following are the possible error codes.
1094:.\Generated_Source\PSoC4/BLE.c ****     *
1095:.\Generated_Source\PSoC4/BLE.c ****     *   Errors codes                       | Description
1096:.\Generated_Source\PSoC4/BLE.c ****     *   ------------                       | -----------
1097:.\Generated_Source\PSoC4/BLE.c ****     *   CYBLE_ERROR_OK                     | Function completed successfully.
1098:.\Generated_Source\PSoC4/BLE.c ****     *   CYBLE_ERROR_INVALID_PARAMETER      | On specifying NULL as input parameter
1099:.\Generated_Source\PSoC4/BLE.c ****     *  
1100:.\Generated_Source\PSoC4/BLE.c ****     *******************************************************************************/
1101:.\Generated_Source\PSoC4/BLE.c ****     CYBLE_API_RESULT_T CyBle_GapSetLocalName(const char8 name[])
1102:.\Generated_Source\PSoC4/BLE.c ****     {
 967              		.loc 1 1102 0
 968              		.cfi_startproc
 969 0000 80B5     		push	{r7, lr}
 970              		.cfi_def_cfa_offset 8
 971              		.cfi_offset 7, -8
 972              		.cfi_offset 14, -4
 973 0002 86B0     		sub	sp, sp, #24
 974              		.cfi_def_cfa_offset 32
 975 0004 00AF     		add	r7, sp, #0
 976              		.cfi_def_cfa_register 7
 977 0006 7860     		str	r0, [r7, #4]
1103:.\Generated_Source\PSoC4/BLE.c ****         CYBLE_API_RESULT_T apiResult = CYBLE_ERROR_OK;
 978              		.loc 1 1103 0
 979 0008 1623     		mov	r3, #22
 980 000a FB18     		add	r3, r7, r3
 981 000c 0022     		mov	r2, #0
 982 000e 1A80     		strh	r2, [r3]
1104:.\Generated_Source\PSoC4/BLE.c ****         uint8 i;
1105:.\Generated_Source\PSoC4/BLE.c ****         char8 *ptr;
1106:.\Generated_Source\PSoC4/BLE.c ****         uint8 charLen;
1107:.\Generated_Source\PSoC4/BLE.c **** 
1108:.\Generated_Source\PSoC4/BLE.c ****         if(NULL != name)
 983              		.loc 1 1108 0
ARM GAS  C:\Users\Petro\AppData\Local\Temp\cc6Lo8fB.s 			page 38


 984 0010 7B68     		ldr	r3, [r7, #4]
 985 0012 002B     		cmp	r3, #0
 986 0014 4AD0     		beq	.L52
1109:.\Generated_Source\PSoC4/BLE.c ****         {
1110:.\Generated_Source\PSoC4/BLE.c ****             /* Get the pointer to the Device Name characteristic  */
1111:.\Generated_Source\PSoC4/BLE.c ****             ptr = (char8 *) CYBLE_GATT_DB_ATTR_GET_ATTR_GEN_PTR(CYBLE_GAP_DEVICE_NAME_INDEX + 1u);
 987              		.loc 1 1111 0
 988 0016 2B4B     		ldr	r3, .L59
 989 0018 9B6B     		ldr	r3, [r3, #56]
 990 001a 5B68     		ldr	r3, [r3, #4]
 991 001c 3B61     		str	r3, [r7, #16]
1112:.\Generated_Source\PSoC4/BLE.c **** 
1113:.\Generated_Source\PSoC4/BLE.c ****             /* First need to get the maximum length of the characteristic data in the GATT
1114:.\Generated_Source\PSoC4/BLE.c ****                 database to make sure there is enough place for the data. The length
1115:.\Generated_Source\PSoC4/BLE.c ****                 can't be longer than 248, so only the LSB of 16 bit of length is to
1116:.\Generated_Source\PSoC4/BLE.c ****                 be used. */
1117:.\Generated_Source\PSoC4/BLE.c ****             charLen = (uint8)CYBLE_GATT_DB_ATTR_GET_ATTR_GEN_MAX_LEN(CYBLE_GAP_DEVICE_NAME_INDEX + 
 992              		.loc 1 1117 0
 993 001e 294B     		ldr	r3, .L59
 994 0020 9A8E     		ldrh	r2, [r3, #52]
 995 0022 0F23     		mov	r3, #15
 996 0024 FB18     		add	r3, r7, r3
 997 0026 1A70     		strb	r2, [r3]
1118:.\Generated_Source\PSoC4/BLE.c **** 
1119:.\Generated_Source\PSoC4/BLE.c ****             /* Copy name into characteristic */
1120:.\Generated_Source\PSoC4/BLE.c ****             for(i = 0u; ((i < charLen) && (CYBLE_NULL_CHARCTER != name[i])); i++)
 998              		.loc 1 1120 0
 999 0028 1523     		mov	r3, #21
 1000 002a FB18     		add	r3, r7, r3
 1001 002c 0022     		mov	r2, #0
 1002 002e 1A70     		strb	r2, [r3]
 1003 0030 12E0     		b	.L53
 1004              	.L55:
1121:.\Generated_Source\PSoC4/BLE.c ****             {
1122:.\Generated_Source\PSoC4/BLE.c ****                 ptr[i] = name[i];
 1005              		.loc 1 1122 0 discriminator 4
 1006 0032 1523     		mov	r3, #21
 1007 0034 FB18     		add	r3, r7, r3
 1008 0036 1B78     		ldrb	r3, [r3]
 1009 0038 3A69     		ldr	r2, [r7, #16]
 1010 003a D318     		add	r3, r2, r3
 1011 003c 1522     		mov	r2, #21
 1012 003e BA18     		add	r2, r7, r2
 1013 0040 1278     		ldrb	r2, [r2]
 1014 0042 7968     		ldr	r1, [r7, #4]
 1015 0044 8A18     		add	r2, r1, r2
 1016 0046 1278     		ldrb	r2, [r2]
 1017 0048 1A70     		strb	r2, [r3]
1120:.\Generated_Source\PSoC4/BLE.c ****             {
 1018              		.loc 1 1120 0 discriminator 4
 1019 004a 1523     		mov	r3, #21
 1020 004c FB18     		add	r3, r7, r3
 1021 004e 1A78     		ldrb	r2, [r3]
 1022 0050 1523     		mov	r3, #21
 1023 0052 FB18     		add	r3, r7, r3
 1024 0054 0132     		add	r2, r2, #1
 1025 0056 1A70     		strb	r2, [r3]
ARM GAS  C:\Users\Petro\AppData\Local\Temp\cc6Lo8fB.s 			page 39


 1026              	.L53:
1120:.\Generated_Source\PSoC4/BLE.c ****             {
 1027              		.loc 1 1120 0 is_stmt 0 discriminator 1
 1028 0058 1523     		mov	r3, #21
 1029 005a FA18     		add	r2, r7, r3
 1030 005c 0F23     		mov	r3, #15
 1031 005e FB18     		add	r3, r7, r3
 1032 0060 1278     		ldrb	r2, [r2]
 1033 0062 1B78     		ldrb	r3, [r3]
 1034 0064 9A42     		cmp	r2, r3
 1035 0066 07D2     		bcs	.L54
1120:.\Generated_Source\PSoC4/BLE.c ****             {
 1036              		.loc 1 1120 0 discriminator 3
 1037 0068 1523     		mov	r3, #21
 1038 006a FB18     		add	r3, r7, r3
 1039 006c 1B78     		ldrb	r3, [r3]
 1040 006e 7A68     		ldr	r2, [r7, #4]
 1041 0070 D318     		add	r3, r2, r3
 1042 0072 1B78     		ldrb	r3, [r3]
 1043 0074 002B     		cmp	r3, #0
 1044 0076 DCD1     		bne	.L55
 1045              	.L54:
1123:.\Generated_Source\PSoC4/BLE.c ****             }
1124:.\Generated_Source\PSoC4/BLE.c **** 
1125:.\Generated_Source\PSoC4/BLE.c ****             if(i < charLen)
 1046              		.loc 1 1125 0 is_stmt 1
 1047 0078 1523     		mov	r3, #21
 1048 007a FA18     		add	r2, r7, r3
 1049 007c 0F23     		mov	r3, #15
 1050 007e FB18     		add	r3, r7, r3
 1051 0080 1278     		ldrb	r2, [r2]
 1052 0082 1B78     		ldrb	r3, [r3]
 1053 0084 9A42     		cmp	r2, r3
 1054 0086 06D2     		bcs	.L56
1126:.\Generated_Source\PSoC4/BLE.c ****             {
1127:.\Generated_Source\PSoC4/BLE.c ****                 /* Terminate string */
1128:.\Generated_Source\PSoC4/BLE.c ****                 ptr[i] = CYBLE_NULL_CHARCTER;
 1055              		.loc 1 1128 0
 1056 0088 1523     		mov	r3, #21
 1057 008a FB18     		add	r3, r7, r3
 1058 008c 1B78     		ldrb	r3, [r3]
 1059 008e 3A69     		ldr	r2, [r7, #16]
 1060 0090 D318     		add	r3, r2, r3
 1061 0092 0022     		mov	r2, #0
 1062 0094 1A70     		strb	r2, [r3]
 1063              	.L56:
1129:.\Generated_Source\PSoC4/BLE.c ****             }
1130:.\Generated_Source\PSoC4/BLE.c ****             
1131:.\Generated_Source\PSoC4/BLE.c ****             /* Set new actual length */
1132:.\Generated_Source\PSoC4/BLE.c ****             
1133:.\Generated_Source\PSoC4/BLE.c ****             /* Update device name in advertising and scan response structure */
1134:.\Generated_Source\PSoC4/BLE.c ****             #if(CYBLE_GAP_ROLE_PERIPHERAL)
1135:.\Generated_Source\PSoC4/BLE.c ****                 CyBle_ChangeAdLocalName(name, 0u);
 1064              		.loc 1 1135 0
 1065 0096 7B68     		ldr	r3, [r7, #4]
 1066 0098 181C     		mov	r0, r3
 1067 009a 0021     		mov	r1, #0
ARM GAS  C:\Users\Petro\AppData\Local\Temp\cc6Lo8fB.s 			page 40


 1068 009c FFF7FEFF 		bl	CyBle_ChangeAdLocalName
1136:.\Generated_Source\PSoC4/BLE.c ****                 CyBle_ChangeAdLocalName(name, 1u);
 1069              		.loc 1 1136 0
 1070 00a0 7B68     		ldr	r3, [r7, #4]
 1071 00a2 181C     		mov	r0, r3
 1072 00a4 0121     		mov	r1, #1
 1073 00a6 FFF7FEFF 		bl	CyBle_ChangeAdLocalName
 1074 00aa 03E0     		b	.L57
 1075              	.L52:
1137:.\Generated_Source\PSoC4/BLE.c ****             #endif /* (CYBLE_GAP_ROLE_PERIPHERAL) */
1138:.\Generated_Source\PSoC4/BLE.c ****         }
1139:.\Generated_Source\PSoC4/BLE.c ****         else
1140:.\Generated_Source\PSoC4/BLE.c ****         {
1141:.\Generated_Source\PSoC4/BLE.c ****             apiResult = CYBLE_ERROR_INVALID_PARAMETER;
 1076              		.loc 1 1141 0
 1077 00ac 1623     		mov	r3, #22
 1078 00ae FB18     		add	r3, r7, r3
 1079 00b0 0122     		mov	r2, #1
 1080 00b2 1A80     		strh	r2, [r3]
 1081              	.L57:
1142:.\Generated_Source\PSoC4/BLE.c ****         }
1143:.\Generated_Source\PSoC4/BLE.c ****         
1144:.\Generated_Source\PSoC4/BLE.c ****         return(apiResult);
 1082              		.loc 1 1144 0
 1083 00b4 1623     		mov	r3, #22
 1084 00b6 FB18     		add	r3, r7, r3
 1085 00b8 1B88     		ldrh	r3, [r3]
1145:.\Generated_Source\PSoC4/BLE.c ****     }
 1086              		.loc 1 1145 0
 1087 00ba 181C     		mov	r0, r3
 1088 00bc BD46     		mov	sp, r7
 1089 00be 06B0     		add	sp, sp, #24
 1090              		@ sp needed
 1091 00c0 80BD     		pop	{r7, pc}
 1092              	.L60:
 1093 00c2 C046     		.align	2
 1094              	.L59:
 1095 00c4 00000000 		.word	cyBle_gattDB
 1096              		.cfi_endproc
 1097              	.LFE10:
 1098              		.size	CyBle_GapSetLocalName, .-CyBle_GapSetLocalName
 1099              		.section	.text.CyBle_GapGetLocalName,"ax",%progbits
 1100              		.align	2
 1101              		.global	CyBle_GapGetLocalName
 1102              		.code	16
 1103              		.thumb_func
 1104              		.type	CyBle_GapGetLocalName, %function
 1105              	CyBle_GapGetLocalName:
 1106              	.LFB11:
1146:.\Generated_Source\PSoC4/BLE.c **** 
1147:.\Generated_Source\PSoC4/BLE.c **** 
1148:.\Generated_Source\PSoC4/BLE.c ****     /******************************************************************************
1149:.\Generated_Source\PSoC4/BLE.c ****     * Function Name: CyBle_GapGetLocalName
1150:.\Generated_Source\PSoC4/BLE.c ****     ***************************************************************************//**
1151:.\Generated_Source\PSoC4/BLE.c ****     *  
1152:.\Generated_Source\PSoC4/BLE.c ****     *  This API is used to read the local device name - a Characteristic of the 
1153:.\Generated_Source\PSoC4/BLE.c ****     *  GAP Service.
ARM GAS  C:\Users\Petro\AppData\Local\Temp\cc6Lo8fB.s 			page 41


1154:.\Generated_Source\PSoC4/BLE.c ****     * 
1155:.\Generated_Source\PSoC4/BLE.c ****     * \param name: The local device name string. Used to read the local name to the
1156:.\Generated_Source\PSoC4/BLE.c ****     *             given string array. It represents a UTF-8 encoded User Friendly 
1157:.\Generated_Source\PSoC4/BLE.c ****     *             Descriptive Name for the device. The length of the local device
1158:.\Generated_Source\PSoC4/BLE.c ****     *             string is entered into the component customizer and it can be set
1159:.\Generated_Source\PSoC4/BLE.c ****     *             to a value from 0 to 248 bytes. If the name contained in the
1160:.\Generated_Source\PSoC4/BLE.c ****     *             parameter is shorter than the length from the customizer, the end
1161:.\Generated_Source\PSoC4/BLE.c ****     *             of the name is indicated by a NULL octet (0x00).
1162:.\Generated_Source\PSoC4/BLE.c ****     * 
1163:.\Generated_Source\PSoC4/BLE.c ****     * \return
1164:.\Generated_Source\PSoC4/BLE.c ****     *  CYBLE_API_RESULT_T : Return value indicates if the function succeeded or 
1165:.\Generated_Source\PSoC4/BLE.c ****     *  failed. Following are the possible error codes.
1166:.\Generated_Source\PSoC4/BLE.c ****     *
1167:.\Generated_Source\PSoC4/BLE.c ****     *   Errors codes                       | Description
1168:.\Generated_Source\PSoC4/BLE.c ****     *   ------------                       | -----------
1169:.\Generated_Source\PSoC4/BLE.c ****     *   CYBLE_ERROR_OK                     | Function completed successfully.
1170:.\Generated_Source\PSoC4/BLE.c ****     *   CYBLE_ERROR_INVALID_PARAMETER      | On specifying NULL as input parameter
1171:.\Generated_Source\PSoC4/BLE.c ****     *
1172:.\Generated_Source\PSoC4/BLE.c ****     *******************************************************************************/
1173:.\Generated_Source\PSoC4/BLE.c ****     CYBLE_API_RESULT_T CyBle_GapGetLocalName(char8 name[])
1174:.\Generated_Source\PSoC4/BLE.c ****     {
 1107              		.loc 1 1174 0
 1108              		.cfi_startproc
 1109 0000 80B5     		push	{r7, lr}
 1110              		.cfi_def_cfa_offset 8
 1111              		.cfi_offset 7, -8
 1112              		.cfi_offset 14, -4
 1113 0002 86B0     		sub	sp, sp, #24
 1114              		.cfi_def_cfa_offset 32
 1115 0004 00AF     		add	r7, sp, #0
 1116              		.cfi_def_cfa_register 7
 1117 0006 7860     		str	r0, [r7, #4]
1175:.\Generated_Source\PSoC4/BLE.c ****         CYBLE_API_RESULT_T apiResult = CYBLE_ERROR_OK;
 1118              		.loc 1 1175 0
 1119 0008 1623     		mov	r3, #22
 1120 000a FB18     		add	r3, r7, r3
 1121 000c 0022     		mov	r2, #0
 1122 000e 1A80     		strh	r2, [r3]
1176:.\Generated_Source\PSoC4/BLE.c ****         uint8 charLen;
1177:.\Generated_Source\PSoC4/BLE.c ****         uint8 i;
1178:.\Generated_Source\PSoC4/BLE.c ****         char8 *ptr;
1179:.\Generated_Source\PSoC4/BLE.c **** 
1180:.\Generated_Source\PSoC4/BLE.c ****         if(NULL != name)
 1123              		.loc 1 1180 0
 1124 0010 7B68     		ldr	r3, [r7, #4]
 1125 0012 002B     		cmp	r3, #0
 1126 0014 39D0     		beq	.L62
1181:.\Generated_Source\PSoC4/BLE.c ****         {
1182:.\Generated_Source\PSoC4/BLE.c ****             /* Get the pointer to the Device Name characteristic  */
1183:.\Generated_Source\PSoC4/BLE.c ****             ptr = (char8 *) CYBLE_GATT_DB_ATTR_GET_ATTR_GEN_PTR(CYBLE_GAP_DEVICE_NAME_INDEX + 1u);
 1127              		.loc 1 1183 0
 1128 0016 224B     		ldr	r3, .L68
 1129 0018 9B6B     		ldr	r3, [r3, #56]
 1130 001a 5B68     		ldr	r3, [r3, #4]
 1131 001c 3B61     		str	r3, [r7, #16]
1184:.\Generated_Source\PSoC4/BLE.c **** 
1185:.\Generated_Source\PSoC4/BLE.c ****             /* First need to get the length of the characteristic data in the GATT
ARM GAS  C:\Users\Petro\AppData\Local\Temp\cc6Lo8fB.s 			page 42


1186:.\Generated_Source\PSoC4/BLE.c ****                 database to make sure there is enough place for the data. The length
1187:.\Generated_Source\PSoC4/BLE.c ****                 can't be longer than 248, so only the LSB of 16 bit of length is to
1188:.\Generated_Source\PSoC4/BLE.c ****                 be used. */
1189:.\Generated_Source\PSoC4/BLE.c ****             charLen = (uint8)CYBLE_GATT_DB_ATTR_GET_ATTR_GEN_LEN(CYBLE_GAP_DEVICE_NAME_INDEX + 1u);
 1132              		.loc 1 1189 0
 1133 001e 204B     		ldr	r3, .L68
 1134 0020 9B6B     		ldr	r3, [r3, #56]
 1135 0022 1A88     		ldrh	r2, [r3]
 1136 0024 0F23     		mov	r3, #15
 1137 0026 FB18     		add	r3, r7, r3
 1138 0028 1A70     		strb	r2, [r3]
1190:.\Generated_Source\PSoC4/BLE.c **** 
1191:.\Generated_Source\PSoC4/BLE.c ****             /* Copy name from characteristic */
1192:.\Generated_Source\PSoC4/BLE.c ****             for(i = 0u; ((i < charLen) && (CYBLE_NULL_CHARCTER != ptr[i])); i++)
 1139              		.loc 1 1192 0
 1140 002a 1523     		mov	r3, #21
 1141 002c FB18     		add	r3, r7, r3
 1142 002e 0022     		mov	r2, #0
 1143 0030 1A70     		strb	r2, [r3]
 1144 0032 12E0     		b	.L63
 1145              	.L65:
1193:.\Generated_Source\PSoC4/BLE.c ****             {
1194:.\Generated_Source\PSoC4/BLE.c ****                 name[i] = ptr[i];
 1146              		.loc 1 1194 0 discriminator 4
 1147 0034 1523     		mov	r3, #21
 1148 0036 FB18     		add	r3, r7, r3
 1149 0038 1B78     		ldrb	r3, [r3]
 1150 003a 7A68     		ldr	r2, [r7, #4]
 1151 003c D318     		add	r3, r2, r3
 1152 003e 1522     		mov	r2, #21
 1153 0040 BA18     		add	r2, r7, r2
 1154 0042 1278     		ldrb	r2, [r2]
 1155 0044 3969     		ldr	r1, [r7, #16]
 1156 0046 8A18     		add	r2, r1, r2
 1157 0048 1278     		ldrb	r2, [r2]
 1158 004a 1A70     		strb	r2, [r3]
1192:.\Generated_Source\PSoC4/BLE.c ****             {
 1159              		.loc 1 1192 0 discriminator 4
 1160 004c 1523     		mov	r3, #21
 1161 004e FB18     		add	r3, r7, r3
 1162 0050 1A78     		ldrb	r2, [r3]
 1163 0052 1523     		mov	r3, #21
 1164 0054 FB18     		add	r3, r7, r3
 1165 0056 0132     		add	r2, r2, #1
 1166 0058 1A70     		strb	r2, [r3]
 1167              	.L63:
1192:.\Generated_Source\PSoC4/BLE.c ****             {
 1168              		.loc 1 1192 0 is_stmt 0 discriminator 1
 1169 005a 1523     		mov	r3, #21
 1170 005c FA18     		add	r2, r7, r3
 1171 005e 0F23     		mov	r3, #15
 1172 0060 FB18     		add	r3, r7, r3
 1173 0062 1278     		ldrb	r2, [r2]
 1174 0064 1B78     		ldrb	r3, [r3]
 1175 0066 9A42     		cmp	r2, r3
 1176 0068 07D2     		bcs	.L64
1192:.\Generated_Source\PSoC4/BLE.c ****             {
ARM GAS  C:\Users\Petro\AppData\Local\Temp\cc6Lo8fB.s 			page 43


 1177              		.loc 1 1192 0 discriminator 3
 1178 006a 1523     		mov	r3, #21
 1179 006c FB18     		add	r3, r7, r3
 1180 006e 1B78     		ldrb	r3, [r3]
 1181 0070 3A69     		ldr	r2, [r7, #16]
 1182 0072 D318     		add	r3, r2, r3
 1183 0074 1B78     		ldrb	r3, [r3]
 1184 0076 002B     		cmp	r3, #0
 1185 0078 DCD1     		bne	.L65
 1186              	.L64:
1195:.\Generated_Source\PSoC4/BLE.c ****             }
1196:.\Generated_Source\PSoC4/BLE.c **** 
1197:.\Generated_Source\PSoC4/BLE.c ****             /* Terminate string */
1198:.\Generated_Source\PSoC4/BLE.c ****             name[i] = CYBLE_NULL_CHARCTER;
 1187              		.loc 1 1198 0 is_stmt 1
 1188 007a 1523     		mov	r3, #21
 1189 007c FB18     		add	r3, r7, r3
 1190 007e 1B78     		ldrb	r3, [r3]
 1191 0080 7A68     		ldr	r2, [r7, #4]
 1192 0082 D318     		add	r3, r2, r3
 1193 0084 0022     		mov	r2, #0
 1194 0086 1A70     		strb	r2, [r3]
 1195 0088 03E0     		b	.L66
 1196              	.L62:
1199:.\Generated_Source\PSoC4/BLE.c ****         }
1200:.\Generated_Source\PSoC4/BLE.c ****         else
1201:.\Generated_Source\PSoC4/BLE.c ****         {
1202:.\Generated_Source\PSoC4/BLE.c ****             apiResult = CYBLE_ERROR_INVALID_PARAMETER;
 1197              		.loc 1 1202 0
 1198 008a 1623     		mov	r3, #22
 1199 008c FB18     		add	r3, r7, r3
 1200 008e 0122     		mov	r2, #1
 1201 0090 1A80     		strh	r2, [r3]
 1202              	.L66:
1203:.\Generated_Source\PSoC4/BLE.c ****         }
1204:.\Generated_Source\PSoC4/BLE.c ****         
1205:.\Generated_Source\PSoC4/BLE.c ****         return(apiResult);
 1203              		.loc 1 1205 0
 1204 0092 1623     		mov	r3, #22
 1205 0094 FB18     		add	r3, r7, r3
 1206 0096 1B88     		ldrh	r3, [r3]
1206:.\Generated_Source\PSoC4/BLE.c ****     }
 1207              		.loc 1 1206 0
 1208 0098 181C     		mov	r0, r3
 1209 009a BD46     		mov	sp, r7
 1210 009c 06B0     		add	sp, sp, #24
 1211              		@ sp needed
 1212 009e 80BD     		pop	{r7, pc}
 1213              	.L69:
 1214              		.align	2
 1215              	.L68:
 1216 00a0 00000000 		.word	cyBle_gattDB
 1217              		.cfi_endproc
 1218              	.LFE11:
 1219              		.size	CyBle_GapGetLocalName, .-CyBle_GapGetLocalName
 1220              		.section	.text.CyBle_Get16ByPtr,"ax",%progbits
 1221              		.align	2
ARM GAS  C:\Users\Petro\AppData\Local\Temp\cc6Lo8fB.s 			page 44


 1222              		.global	CyBle_Get16ByPtr
 1223              		.code	16
 1224              		.thumb_func
 1225              		.type	CyBle_Get16ByPtr, %function
 1226              	CyBle_Get16ByPtr:
 1227              	.LFB12:
1207:.\Generated_Source\PSoC4/BLE.c **** 
1208:.\Generated_Source\PSoC4/BLE.c **** #endif /* (CYBLE_GATT_ROLE_SERVER) */
1209:.\Generated_Source\PSoC4/BLE.c **** 
1210:.\Generated_Source\PSoC4/BLE.c **** 
1211:.\Generated_Source\PSoC4/BLE.c **** /******************************************************************************
1212:.\Generated_Source\PSoC4/BLE.c **** * Function Name: CyBle_Get16ByPtr
1213:.\Generated_Source\PSoC4/BLE.c **** ***************************************************************************//**
1214:.\Generated_Source\PSoC4/BLE.c **** * 
1215:.\Generated_Source\PSoC4/BLE.c **** *  Returns the two-bytes value by using a pointer to the LSB.
1216:.\Generated_Source\PSoC4/BLE.c **** * 
1217:.\Generated_Source\PSoC4/BLE.c **** *  \param ptr: Pointer to the LSB of two-bytes data (little endian).
1218:.\Generated_Source\PSoC4/BLE.c **** * 
1219:.\Generated_Source\PSoC4/BLE.c **** *  \return
1220:.\Generated_Source\PSoC4/BLE.c **** *  uint16: Two-bytes data.
1221:.\Generated_Source\PSoC4/BLE.c **** * 
1222:.\Generated_Source\PSoC4/BLE.c **** ******************************************************************************/
1223:.\Generated_Source\PSoC4/BLE.c **** uint16 CyBle_Get16ByPtr(const uint8 ptr[])
1224:.\Generated_Source\PSoC4/BLE.c **** {
 1228              		.loc 1 1224 0
 1229              		.cfi_startproc
 1230 0000 80B5     		push	{r7, lr}
 1231              		.cfi_def_cfa_offset 8
 1232              		.cfi_offset 7, -8
 1233              		.cfi_offset 14, -4
 1234 0002 82B0     		sub	sp, sp, #8
 1235              		.cfi_def_cfa_offset 16
 1236 0004 00AF     		add	r7, sp, #0
 1237              		.cfi_def_cfa_register 7
 1238 0006 7860     		str	r0, [r7, #4]
1225:.\Generated_Source\PSoC4/BLE.c ****     return ((uint16) ptr[0u] | ((uint16) (((uint16) ptr[1u]) << 8u)));
 1239              		.loc 1 1225 0
 1240 0008 7B68     		ldr	r3, [r7, #4]
 1241 000a 1B78     		ldrb	r3, [r3]
 1242 000c 9AB2     		uxth	r2, r3
 1243 000e 7B68     		ldr	r3, [r7, #4]
 1244 0010 0133     		add	r3, r3, #1
 1245 0012 1B78     		ldrb	r3, [r3]
 1246 0014 9BB2     		uxth	r3, r3
 1247 0016 1B02     		lsl	r3, r3, #8
 1248 0018 9BB2     		uxth	r3, r3
 1249 001a 1343     		orr	r3, r2
 1250 001c 9BB2     		uxth	r3, r3
1226:.\Generated_Source\PSoC4/BLE.c **** }
 1251              		.loc 1 1226 0
 1252 001e 181C     		mov	r0, r3
 1253 0020 BD46     		mov	sp, r7
 1254 0022 02B0     		add	sp, sp, #8
 1255              		@ sp needed
 1256 0024 80BD     		pop	{r7, pc}
 1257              		.cfi_endproc
 1258              	.LFE12:
ARM GAS  C:\Users\Petro\AppData\Local\Temp\cc6Lo8fB.s 			page 45


 1259              		.size	CyBle_Get16ByPtr, .-CyBle_Get16ByPtr
 1260 0026 C046     		.section	.text.CyBle_Set16ByPtr,"ax",%progbits
 1261              		.align	2
 1262              		.global	CyBle_Set16ByPtr
 1263              		.code	16
 1264              		.thumb_func
 1265              		.type	CyBle_Set16ByPtr, %function
 1266              	CyBle_Set16ByPtr:
 1267              	.LFB13:
1227:.\Generated_Source\PSoC4/BLE.c **** 
1228:.\Generated_Source\PSoC4/BLE.c **** 
1229:.\Generated_Source\PSoC4/BLE.c **** /******************************************************************************
1230:.\Generated_Source\PSoC4/BLE.c **** * Function Name: CyBle_Set16ByPtr
1231:.\Generated_Source\PSoC4/BLE.c **** ***************************************************************************//**
1232:.\Generated_Source\PSoC4/BLE.c **** * 
1233:.\Generated_Source\PSoC4/BLE.c **** *  Sets the two-bytes value by using a pointer to the LSB.
1234:.\Generated_Source\PSoC4/BLE.c **** * 
1235:.\Generated_Source\PSoC4/BLE.c **** *  \param ptr:    Pointer to the LSB of two-bytes data (little endian).
1236:.\Generated_Source\PSoC4/BLE.c **** *  \param value:  Two-bytes data to be written.
1237:.\Generated_Source\PSoC4/BLE.c **** * 
1238:.\Generated_Source\PSoC4/BLE.c **** *  \return
1239:.\Generated_Source\PSoC4/BLE.c **** *  None
1240:.\Generated_Source\PSoC4/BLE.c **** * 
1241:.\Generated_Source\PSoC4/BLE.c **** ******************************************************************************/
1242:.\Generated_Source\PSoC4/BLE.c **** void CyBle_Set16ByPtr(uint8 ptr[], uint16 value)
1243:.\Generated_Source\PSoC4/BLE.c **** {
 1268              		.loc 1 1243 0
 1269              		.cfi_startproc
 1270 0000 80B5     		push	{r7, lr}
 1271              		.cfi_def_cfa_offset 8
 1272              		.cfi_offset 7, -8
 1273              		.cfi_offset 14, -4
 1274 0002 82B0     		sub	sp, sp, #8
 1275              		.cfi_def_cfa_offset 16
 1276 0004 00AF     		add	r7, sp, #0
 1277              		.cfi_def_cfa_register 7
 1278 0006 7860     		str	r0, [r7, #4]
 1279 0008 0A1C     		mov	r2, r1
 1280 000a BB1C     		add	r3, r7, #2
 1281 000c 1A80     		strh	r2, [r3]
1244:.\Generated_Source\PSoC4/BLE.c ****     ptr[0u] = (uint8) value;
 1282              		.loc 1 1244 0
 1283 000e BB1C     		add	r3, r7, #2
 1284 0010 1B88     		ldrh	r3, [r3]
 1285 0012 DAB2     		uxtb	r2, r3
 1286 0014 7B68     		ldr	r3, [r7, #4]
 1287 0016 1A70     		strb	r2, [r3]
1245:.\Generated_Source\PSoC4/BLE.c ****     ptr[1u] = (uint8) (value >> 8u);
 1288              		.loc 1 1245 0
 1289 0018 7B68     		ldr	r3, [r7, #4]
 1290 001a 0133     		add	r3, r3, #1
 1291 001c BA1C     		add	r2, r7, #2
 1292 001e 1288     		ldrh	r2, [r2]
 1293 0020 120A     		lsr	r2, r2, #8
 1294 0022 92B2     		uxth	r2, r2
 1295 0024 D2B2     		uxtb	r2, r2
 1296 0026 1A70     		strb	r2, [r3]
ARM GAS  C:\Users\Petro\AppData\Local\Temp\cc6Lo8fB.s 			page 46


1246:.\Generated_Source\PSoC4/BLE.c **** }
 1297              		.loc 1 1246 0
 1298 0028 BD46     		mov	sp, r7
 1299 002a 02B0     		add	sp, sp, #8
 1300              		@ sp needed
 1301 002c 80BD     		pop	{r7, pc}
 1302              		.cfi_endproc
 1303              	.LFE13:
 1304              		.size	CyBle_Set16ByPtr, .-CyBle_Set16ByPtr
 1305 002e C046     		.text
 1306              	.Letext0:
 1307              		.file 2 ".\\Generated_Source\\PSoC4\\cytypes.h"
 1308              		.file 3 ".\\Generated_Source\\PSoC4\\BLE_Stack.h"
 1309              		.file 4 ".\\Generated_Source\\PSoC4\\BLE_StackGap.h"
 1310              		.file 5 ".\\Generated_Source\\PSoC4\\BLE_StackGattDb.h"
 1311              		.file 6 ".\\Generated_Source\\PSoC4\\BLE.h"
 1312              		.file 7 ".\\Generated_Source\\PSoC4\\BLE_gatt.h"
 1313              		.file 8 ".\\Generated_Source\\PSoC4\\BLE_dis.h"
 1314              		.file 9 ".\\Generated_Source\\PSoC4\\BLE_eventHandler.h"
 1315              		.section	.debug_info,"",%progbits
 1316              	.Ldebug_info0:
 1317 0000 100B0000 		.4byte	0xb10
 1318 0004 0400     		.2byte	0x4
 1319 0006 00000000 		.4byte	.Ldebug_abbrev0
 1320 000a 04       		.byte	0x4
 1321 000b 01       		.uleb128 0x1
 1322 000c E5110000 		.4byte	.LASF211
 1323 0010 01       		.byte	0x1
 1324 0011 C3000000 		.4byte	.LASF212
 1325 0015 7B090000 		.4byte	.LASF213
 1326 0019 00000000 		.4byte	.Ldebug_ranges0+0
 1327 001d 00000000 		.4byte	0
 1328 0021 00000000 		.4byte	.Ldebug_line0
 1329 0025 02       		.uleb128 0x2
 1330 0026 01       		.byte	0x1
 1331 0027 06       		.byte	0x6
 1332 0028 C8030000 		.4byte	.LASF0
 1333 002c 02       		.uleb128 0x2
 1334 002d 01       		.byte	0x1
 1335 002e 08       		.byte	0x8
 1336 002f E70C0000 		.4byte	.LASF1
 1337 0033 02       		.uleb128 0x2
 1338 0034 02       		.byte	0x2
 1339 0035 05       		.byte	0x5
 1340 0036 340D0000 		.4byte	.LASF2
 1341 003a 02       		.uleb128 0x2
 1342 003b 02       		.byte	0x2
 1343 003c 07       		.byte	0x7
 1344 003d 15100000 		.4byte	.LASF3
 1345 0041 02       		.uleb128 0x2
 1346 0042 04       		.byte	0x4
 1347 0043 05       		.byte	0x5
 1348 0044 05020000 		.4byte	.LASF4
 1349 0048 02       		.uleb128 0x2
 1350 0049 04       		.byte	0x4
 1351 004a 07       		.byte	0x7
 1352 004b 81070000 		.4byte	.LASF5
ARM GAS  C:\Users\Petro\AppData\Local\Temp\cc6Lo8fB.s 			page 47


 1353 004f 02       		.uleb128 0x2
 1354 0050 08       		.byte	0x8
 1355 0051 05       		.byte	0x5
 1356 0052 BA030000 		.4byte	.LASF6
 1357 0056 02       		.uleb128 0x2
 1358 0057 08       		.byte	0x8
 1359 0058 07       		.byte	0x7
 1360 0059 CA060000 		.4byte	.LASF7
 1361 005d 03       		.uleb128 0x3
 1362 005e 04       		.byte	0x4
 1363 005f 05       		.byte	0x5
 1364 0060 696E7400 		.ascii	"int\000"
 1365 0064 02       		.uleb128 0x2
 1366 0065 04       		.byte	0x4
 1367 0066 07       		.byte	0x7
 1368 0067 3D0F0000 		.4byte	.LASF8
 1369 006b 04       		.uleb128 0x4
 1370 006c 41050000 		.4byte	.LASF9
 1371 0070 02       		.byte	0x2
 1372 0071 3801     		.2byte	0x138
 1373 0073 2C000000 		.4byte	0x2c
 1374 0077 04       		.uleb128 0x4
 1375 0078 F50C0000 		.4byte	.LASF10
 1376 007c 02       		.byte	0x2
 1377 007d 3901     		.2byte	0x139
 1378 007f 3A000000 		.4byte	0x3a
 1379 0083 04       		.uleb128 0x4
 1380 0084 0D060000 		.4byte	.LASF11
 1381 0088 02       		.byte	0x2
 1382 0089 3A01     		.2byte	0x13a
 1383 008b 48000000 		.4byte	0x48
 1384 008f 02       		.uleb128 0x2
 1385 0090 04       		.byte	0x4
 1386 0091 04       		.byte	0x4
 1387 0092 4F0C0000 		.4byte	.LASF12
 1388 0096 02       		.uleb128 0x2
 1389 0097 08       		.byte	0x8
 1390 0098 04       		.byte	0x4
 1391 0099 98050000 		.4byte	.LASF13
 1392 009d 04       		.uleb128 0x4
 1393 009e A30F0000 		.4byte	.LASF14
 1394 00a2 02       		.byte	0x2
 1395 00a3 4901     		.2byte	0x149
 1396 00a5 A9000000 		.4byte	0xa9
 1397 00a9 02       		.uleb128 0x2
 1398 00aa 01       		.byte	0x1
 1399 00ab 08       		.byte	0x8
 1400 00ac BE0E0000 		.4byte	.LASF15
 1401 00b0 05       		.uleb128 0x5
 1402 00b1 6B000000 		.4byte	0x6b
 1403 00b5 02       		.uleb128 0x2
 1404 00b6 04       		.byte	0x4
 1405 00b7 07       		.byte	0x7
 1406 00b8 B90A0000 		.4byte	.LASF16
 1407 00bc 06       		.uleb128 0x6
 1408 00bd 04       		.byte	0x4
 1409 00be 07       		.uleb128 0x7
ARM GAS  C:\Users\Petro\AppData\Local\Temp\cc6Lo8fB.s 			page 48


 1410 00bf 01       		.byte	0x1
 1411 00c0 03       		.byte	0x3
 1412 00c1 A4       		.byte	0xa4
 1413 00c2 43020000 		.4byte	0x243
 1414 00c6 08       		.uleb128 0x8
 1415 00c7 43080000 		.4byte	.LASF17
 1416 00cb 00       		.sleb128 0
 1417 00cc 08       		.uleb128 0x8
 1418 00cd D4030000 		.4byte	.LASF18
 1419 00d1 01       		.sleb128 1
 1420 00d2 08       		.uleb128 0x8
 1421 00d3 F3010000 		.4byte	.LASF19
 1422 00d7 02       		.sleb128 2
 1423 00d8 08       		.uleb128 0x8
 1424 00d9 FC0F0000 		.4byte	.LASF20
 1425 00dd 03       		.sleb128 3
 1426 00de 08       		.uleb128 0x8
 1427 00df 86020000 		.4byte	.LASF21
 1428 00e3 04       		.sleb128 4
 1429 00e4 08       		.uleb128 0x8
 1430 00e5 23000000 		.4byte	.LASF22
 1431 00e9 05       		.sleb128 5
 1432 00ea 08       		.uleb128 0x8
 1433 00eb 1A0A0000 		.4byte	.LASF23
 1434 00ef 20       		.sleb128 32
 1435 00f0 08       		.uleb128 0x8
 1436 00f1 31040000 		.4byte	.LASF24
 1437 00f5 21       		.sleb128 33
 1438 00f6 08       		.uleb128 0x8
 1439 00f7 86080000 		.4byte	.LASF25
 1440 00fb 22       		.sleb128 34
 1441 00fc 08       		.uleb128 0x8
 1442 00fd 55090000 		.4byte	.LASF26
 1443 0101 23       		.sleb128 35
 1444 0102 08       		.uleb128 0x8
 1445 0103 410B0000 		.4byte	.LASF27
 1446 0107 24       		.sleb128 36
 1447 0108 08       		.uleb128 0x8
 1448 0109 E70A0000 		.4byte	.LASF28
 1449 010d 25       		.sleb128 37
 1450 010e 08       		.uleb128 0x8
 1451 010f D8040000 		.4byte	.LASF29
 1452 0113 26       		.sleb128 38
 1453 0114 08       		.uleb128 0x8
 1454 0115 AA080000 		.4byte	.LASF30
 1455 0119 27       		.sleb128 39
 1456 011a 08       		.uleb128 0x8
 1457 011b 030F0000 		.4byte	.LASF31
 1458 011f 28       		.sleb128 40
 1459 0120 08       		.uleb128 0x8
 1460 0121 48030000 		.4byte	.LASF32
 1461 0125 29       		.sleb128 41
 1462 0126 08       		.uleb128 0x8
 1463 0127 E2000000 		.4byte	.LASF33
 1464 012b 2A       		.sleb128 42
 1465 012c 08       		.uleb128 0x8
 1466 012d A3020000 		.4byte	.LASF34
ARM GAS  C:\Users\Petro\AppData\Local\Temp\cc6Lo8fB.s 			page 49


 1467 0131 2B       		.sleb128 43
 1468 0132 08       		.uleb128 0x8
 1469 0133 AF120000 		.4byte	.LASF35
 1470 0137 2C       		.sleb128 44
 1471 0138 08       		.uleb128 0x8
 1472 0139 53060000 		.4byte	.LASF36
 1473 013d C000     		.sleb128 64
 1474 013f 08       		.uleb128 0x8
 1475 0140 DB090000 		.4byte	.LASF37
 1476 0144 C100     		.sleb128 65
 1477 0146 08       		.uleb128 0x8
 1478 0147 7C130000 		.4byte	.LASF38
 1479 014b C200     		.sleb128 66
 1480 014d 08       		.uleb128 0x8
 1481 014e 23050000 		.4byte	.LASF39
 1482 0152 C300     		.sleb128 67
 1483 0154 08       		.uleb128 0x8
 1484 0155 AD070000 		.4byte	.LASF40
 1485 0159 C400     		.sleb128 68
 1486 015b 08       		.uleb128 0x8
 1487 015c 280C0000 		.4byte	.LASF41
 1488 0160 C500     		.sleb128 69
 1489 0162 08       		.uleb128 0x8
 1490 0163 800A0000 		.4byte	.LASF42
 1491 0167 C600     		.sleb128 70
 1492 0169 08       		.uleb128 0x8
 1493 016a 5A080000 		.4byte	.LASF43
 1494 016e C700     		.sleb128 71
 1495 0170 08       		.uleb128 0x8
 1496 0171 73120000 		.4byte	.LASF44
 1497 0175 C800     		.sleb128 72
 1498 0177 08       		.uleb128 0x8
 1499 0178 53040000 		.4byte	.LASF45
 1500 017c C900     		.sleb128 73
 1501 017e 08       		.uleb128 0x8
 1502 017f 15110000 		.4byte	.LASF46
 1503 0183 CA00     		.sleb128 74
 1504 0185 08       		.uleb128 0x8
 1505 0186 66010000 		.4byte	.LASF47
 1506 018a CB00     		.sleb128 75
 1507 018c 08       		.uleb128 0x8
 1508 018d 93070000 		.4byte	.LASF48
 1509 0191 CC00     		.sleb128 76
 1510 0193 08       		.uleb128 0x8
 1511 0194 170B0000 		.4byte	.LASF49
 1512 0198 CD00     		.sleb128 77
 1513 019a 08       		.uleb128 0x8
 1514 019b 96040000 		.4byte	.LASF50
 1515 019f CE00     		.sleb128 78
 1516 01a1 08       		.uleb128 0x8
 1517 01a2 C20D0000 		.4byte	.LASF51
 1518 01a6 CF00     		.sleb128 79
 1519 01a8 08       		.uleb128 0x8
 1520 01a9 85010000 		.4byte	.LASF52
 1521 01ad D000     		.sleb128 80
 1522 01af 08       		.uleb128 0x8
 1523 01b0 5A050000 		.4byte	.LASF53
ARM GAS  C:\Users\Petro\AppData\Local\Temp\cc6Lo8fB.s 			page 50


 1524 01b4 D100     		.sleb128 81
 1525 01b6 08       		.uleb128 0x8
 1526 01b7 850B0000 		.4byte	.LASF54
 1527 01bb D200     		.sleb128 82
 1528 01bd 08       		.uleb128 0x8
 1529 01be 3E0D0000 		.4byte	.LASF55
 1530 01c2 D300     		.sleb128 83
 1531 01c4 08       		.uleb128 0x8
 1532 01c5 5E0E0000 		.4byte	.LASF56
 1533 01c9 D400     		.sleb128 84
 1534 01cb 08       		.uleb128 0x8
 1535 01cc CB070000 		.4byte	.LASF57
 1536 01d0 D500     		.sleb128 85
 1537 01d2 08       		.uleb128 0x8
 1538 01d3 E7060000 		.4byte	.LASF58
 1539 01d7 D600     		.sleb128 86
 1540 01d9 08       		.uleb128 0x8
 1541 01da 570F0000 		.4byte	.LASF59
 1542 01de D700     		.sleb128 87
 1543 01e0 08       		.uleb128 0x8
 1544 01e1 6D060000 		.4byte	.LASF60
 1545 01e5 F000     		.sleb128 112
 1546 01e7 08       		.uleb128 0x8
 1547 01e8 1D130000 		.4byte	.LASF61
 1548 01ec F100     		.sleb128 113
 1549 01ee 08       		.uleb128 0x8
 1550 01ef FE090000 		.4byte	.LASF62
 1551 01f3 F200     		.sleb128 114
 1552 01f5 08       		.uleb128 0x8
 1553 01f6 620A0000 		.4byte	.LASF63
 1554 01fa F300     		.sleb128 115
 1555 01fc 08       		.uleb128 0x8
 1556 01fd F70B0000 		.4byte	.LASF64
 1557 0201 F400     		.sleb128 116
 1558 0203 08       		.uleb128 0x8
 1559 0204 D3120000 		.4byte	.LASF65
 1560 0208 F500     		.sleb128 117
 1561 020a 08       		.uleb128 0x8
 1562 020b 19010000 		.4byte	.LASF66
 1563 020f F600     		.sleb128 118
 1564 0211 08       		.uleb128 0x8
 1565 0212 53000000 		.4byte	.LASF67
 1566 0216 F700     		.sleb128 119
 1567 0218 08       		.uleb128 0x8
 1568 0219 00000000 		.4byte	.LASF68
 1569 021d F800     		.sleb128 120
 1570 021f 08       		.uleb128 0x8
 1571 0220 7F030000 		.4byte	.LASF69
 1572 0224 F900     		.sleb128 121
 1573 0226 08       		.uleb128 0x8
 1574 0227 93060000 		.4byte	.LASF70
 1575 022b FA00     		.sleb128 122
 1576 022d 08       		.uleb128 0x8
 1577 022e F4120000 		.4byte	.LASF71
 1578 0232 FA01     		.sleb128 250
 1579 0234 08       		.uleb128 0x8
 1580 0235 27070000 		.4byte	.LASF72
ARM GAS  C:\Users\Petro\AppData\Local\Temp\cc6Lo8fB.s 			page 51


 1581 0239 FB01     		.sleb128 251
 1582 023b 08       		.uleb128 0x8
 1583 023c 36060000 		.4byte	.LASF73
 1584 0240 FF01     		.sleb128 255
 1585 0242 00       		.byte	0
 1586 0243 09       		.uleb128 0x9
 1587 0244 02       		.byte	0x2
 1588 0245 03       		.byte	0x3
 1589 0246 0C02     		.2byte	0x20c
 1590 0248 FA020000 		.4byte	0x2fa
 1591 024c 08       		.uleb128 0x8
 1592 024d 44060000 		.4byte	.LASF74
 1593 0251 00       		.sleb128 0
 1594 0252 08       		.uleb128 0x8
 1595 0253 A8050000 		.4byte	.LASF75
 1596 0257 01       		.sleb128 1
 1597 0258 08       		.uleb128 0x8
 1598 0259 39100000 		.4byte	.LASF76
 1599 025d 02       		.sleb128 2
 1600 025e 08       		.uleb128 0x8
 1601 025f 87000000 		.4byte	.LASF77
 1602 0263 03       		.sleb128 3
 1603 0264 08       		.uleb128 0x8
 1604 0265 63020000 		.4byte	.LASF78
 1605 0269 04       		.sleb128 4
 1606 026a 08       		.uleb128 0x8
 1607 026b 09070000 		.4byte	.LASF79
 1608 026f 05       		.sleb128 5
 1609 0270 08       		.uleb128 0x8
 1610 0271 7B0D0000 		.4byte	.LASF80
 1611 0275 06       		.sleb128 6
 1612 0276 08       		.uleb128 0x8
 1613 0277 09040000 		.4byte	.LASF81
 1614 027b 07       		.sleb128 7
 1615 027c 08       		.uleb128 0x8
 1616 027d 7F0E0000 		.4byte	.LASF82
 1617 0281 08       		.sleb128 8
 1618 0282 08       		.uleb128 0x8
 1619 0283 9A120000 		.4byte	.LASF83
 1620 0287 09       		.sleb128 9
 1621 0288 08       		.uleb128 0x8
 1622 0289 B70C0000 		.4byte	.LASF84
 1623 028d 0A       		.sleb128 10
 1624 028e 08       		.uleb128 0x8
 1625 028f DA0E0000 		.4byte	.LASF85
 1626 0293 0B       		.sleb128 11
 1627 0294 08       		.uleb128 0x8
 1628 0295 0D030000 		.4byte	.LASF86
 1629 0299 0C       		.sleb128 12
 1630 029a 08       		.uleb128 0x8
 1631 029b 3E020000 		.4byte	.LASF87
 1632 029f 0D       		.sleb128 13
 1633 02a0 08       		.uleb128 0x8
 1634 02a1 58070000 		.4byte	.LASF88
 1635 02a5 0E       		.sleb128 14
 1636 02a6 08       		.uleb128 0x8
 1637 02a7 90110000 		.4byte	.LASF89
ARM GAS  C:\Users\Petro\AppData\Local\Temp\cc6Lo8fB.s 			page 52


 1638 02ab 0F       		.sleb128 15
 1639 02ac 08       		.uleb128 0x8
 1640 02ad CE0F0000 		.4byte	.LASF90
 1641 02b1 10       		.sleb128 16
 1642 02b2 08       		.uleb128 0x8
 1643 02b3 24030000 		.4byte	.LASF91
 1644 02b7 11       		.sleb128 17
 1645 02b8 08       		.uleb128 0x8
 1646 02b9 00050000 		.4byte	.LASF92
 1647 02bd 12       		.sleb128 18
 1648 02be 08       		.uleb128 0x8
 1649 02bf 9A130000 		.4byte	.LASF93
 1650 02c3 13       		.sleb128 19
 1651 02c4 08       		.uleb128 0x8
 1652 02c5 E7030000 		.4byte	.LASF94
 1653 02c9 27       		.sleb128 39
 1654 02ca 08       		.uleb128 0x8
 1655 02cb A90F0000 		.4byte	.LASF95
 1656 02cf 28       		.sleb128 40
 1657 02d0 08       		.uleb128 0x8
 1658 02d1 74110000 		.4byte	.LASF96
 1659 02d5 29       		.sleb128 41
 1660 02d6 08       		.uleb128 0x8
 1661 02d7 520A0000 		.4byte	.LASF97
 1662 02db FF01     		.sleb128 255
 1663 02dd 08       		.uleb128 0x8
 1664 02de 2A080000 		.4byte	.LASF98
 1665 02e2 8002     		.sleb128 256
 1666 02e4 08       		.uleb128 0x8
 1667 02e5 A60B0000 		.4byte	.LASF99
 1668 02e9 8102     		.sleb128 257
 1669 02eb 08       		.uleb128 0x8
 1670 02ec 110D0000 		.4byte	.LASF100
 1671 02f0 8202     		.sleb128 258
 1672 02f2 08       		.uleb128 0x8
 1673 02f3 6C040000 		.4byte	.LASF101
 1674 02f7 8302     		.sleb128 259
 1675 02f9 00       		.byte	0
 1676 02fa 04       		.uleb128 0x4
 1677 02fb 670B0000 		.4byte	.LASF102
 1678 02ff 03       		.byte	0x3
 1679 0300 6902     		.2byte	0x269
 1680 0302 43020000 		.4byte	0x243
 1681 0306 0A       		.uleb128 0xa
 1682 0307 07       		.byte	0x7
 1683 0308 03       		.byte	0x3
 1684 0309 0503     		.2byte	0x305
 1685 030b 2A030000 		.4byte	0x32a
 1686 030f 0B       		.uleb128 0xb
 1687 0310 53050000 		.4byte	.LASF103
 1688 0314 03       		.byte	0x3
 1689 0315 0803     		.2byte	0x308
 1690 0317 2A030000 		.4byte	0x32a
 1691 031b 00       		.byte	0
 1692 031c 0B       		.uleb128 0xb
 1693 031d EE010000 		.4byte	.LASF104
 1694 0321 03       		.byte	0x3
ARM GAS  C:\Users\Petro\AppData\Local\Temp\cc6Lo8fB.s 			page 53


 1695 0322 0A03     		.2byte	0x30a
 1696 0324 6B000000 		.4byte	0x6b
 1697 0328 06       		.byte	0x6
 1698 0329 00       		.byte	0
 1699 032a 0C       		.uleb128 0xc
 1700 032b 6B000000 		.4byte	0x6b
 1701 032f 3A030000 		.4byte	0x33a
 1702 0333 0D       		.uleb128 0xd
 1703 0334 B5000000 		.4byte	0xb5
 1704 0338 05       		.byte	0x5
 1705 0339 00       		.byte	0
 1706 033a 04       		.uleb128 0x4
 1707 033b F9020000 		.4byte	.LASF105
 1708 033f 03       		.byte	0x3
 1709 0340 0B03     		.2byte	0x30b
 1710 0342 06030000 		.4byte	0x306
 1711 0346 0A       		.uleb128 0xa
 1712 0347 04       		.byte	0x4
 1713 0348 03       		.byte	0x3
 1714 0349 1503     		.2byte	0x315
 1715 034b 6A030000 		.4byte	0x36a
 1716 034f 0B       		.uleb128 0xb
 1717 0350 800F0000 		.4byte	.LASF106
 1718 0354 03       		.byte	0x3
 1719 0355 1803     		.2byte	0x318
 1720 0357 77000000 		.4byte	0x77
 1721 035b 00       		.byte	0
 1722 035c 0B       		.uleb128 0xb
 1723 035d 1E080000 		.4byte	.LASF107
 1724 0361 03       		.byte	0x3
 1725 0362 1A03     		.2byte	0x31a
 1726 0364 6B000000 		.4byte	0x6b
 1727 0368 02       		.byte	0x2
 1728 0369 00       		.byte	0
 1729 036a 04       		.uleb128 0x4
 1730 036b 65030000 		.4byte	.LASF108
 1731 036f 03       		.byte	0x3
 1732 0370 1B03     		.2byte	0x31b
 1733 0372 46030000 		.4byte	0x346
 1734 0376 07       		.uleb128 0x7
 1735 0377 01       		.byte	0x1
 1736 0378 04       		.byte	0x4
 1737 0379 90       		.byte	0x90
 1738 037a 9D030000 		.4byte	0x39d
 1739 037e 08       		.uleb128 0x8
 1740 037f D3020000 		.4byte	.LASF109
 1741 0383 00       		.sleb128 0
 1742 0384 08       		.uleb128 0x8
 1743 0385 3A010000 		.4byte	.LASF110
 1744 0389 01       		.sleb128 1
 1745 038a 08       		.uleb128 0x8
 1746 038b B9010000 		.4byte	.LASF111
 1747 038f 02       		.sleb128 2
 1748 0390 08       		.uleb128 0x8
 1749 0391 EB100000 		.4byte	.LASF112
 1750 0395 03       		.sleb128 3
 1751 0396 08       		.uleb128 0x8
ARM GAS  C:\Users\Petro\AppData\Local\Temp\cc6Lo8fB.s 			page 54


 1752 0397 EC0D0000 		.4byte	.LASF113
 1753 039b 04       		.sleb128 4
 1754 039c 00       		.byte	0
 1755 039d 0E       		.uleb128 0xe
 1756 039e B7100000 		.4byte	.LASF114
 1757 03a2 04       		.byte	0x4
 1758 03a3 A0       		.byte	0xa0
 1759 03a4 76030000 		.4byte	0x376
 1760 03a8 0A       		.uleb128 0xa
 1761 03a9 10       		.byte	0x10
 1762 03aa 04       		.byte	0x4
 1763 03ab 6E01     		.2byte	0x16e
 1764 03ad 1A040000 		.4byte	0x41a
 1765 03b1 0B       		.uleb128 0xb
 1766 03b2 E10D0000 		.4byte	.LASF115
 1767 03b6 04       		.byte	0x4
 1768 03b7 7401     		.2byte	0x174
 1769 03b9 77000000 		.4byte	0x77
 1770 03bd 00       		.byte	0
 1771 03be 0B       		.uleb128 0xb
 1772 03bf B4040000 		.4byte	.LASF116
 1773 03c3 04       		.byte	0x4
 1774 03c4 7A01     		.2byte	0x17a
 1775 03c6 77000000 		.4byte	0x77
 1776 03ca 02       		.byte	0x2
 1777 03cb 0B       		.uleb128 0xb
 1778 03cc 9B020000 		.4byte	.LASF117
 1779 03d0 04       		.byte	0x4
 1780 03d1 8301     		.2byte	0x183
 1781 03d3 9D030000 		.4byte	0x39d
 1782 03d7 04       		.byte	0x4
 1783 03d8 0B       		.uleb128 0xb
 1784 03d9 DB0A0000 		.4byte	.LASF118
 1785 03dd 04       		.byte	0x4
 1786 03de 8901     		.2byte	0x189
 1787 03e0 6B000000 		.4byte	0x6b
 1788 03e4 05       		.byte	0x5
 1789 03e5 0B       		.uleb128 0xb
 1790 03e6 A80C0000 		.4byte	.LASF119
 1791 03ea 04       		.byte	0x4
 1792 03eb 9001     		.2byte	0x190
 1793 03ed 6B000000 		.4byte	0x6b
 1794 03f1 06       		.byte	0x6
 1795 03f2 0B       		.uleb128 0xb
 1796 03f3 26040000 		.4byte	.LASF120
 1797 03f7 04       		.byte	0x4
 1798 03f8 9601     		.2byte	0x196
 1799 03fa 2A030000 		.4byte	0x32a
 1800 03fe 07       		.byte	0x7
 1801 03ff 0B       		.uleb128 0xb
 1802 0400 0B010000 		.4byte	.LASF121
 1803 0404 04       		.byte	0x4
 1804 0405 9E01     		.2byte	0x19e
 1805 0407 6B000000 		.4byte	0x6b
 1806 040b 0D       		.byte	0xd
 1807 040c 0B       		.uleb128 0xb
 1808 040d 86040000 		.4byte	.LASF122
ARM GAS  C:\Users\Petro\AppData\Local\Temp\cc6Lo8fB.s 			page 55


 1809 0411 04       		.byte	0x4
 1810 0412 AA01     		.2byte	0x1aa
 1811 0414 6B000000 		.4byte	0x6b
 1812 0418 0E       		.byte	0xe
 1813 0419 00       		.byte	0
 1814 041a 04       		.uleb128 0x4
 1815 041b 8B0F0000 		.4byte	.LASF123
 1816 041f 04       		.byte	0x4
 1817 0420 AC01     		.2byte	0x1ac
 1818 0422 A8030000 		.4byte	0x3a8
 1819 0426 0A       		.uleb128 0xa
 1820 0427 20       		.byte	0x20
 1821 0428 04       		.byte	0x4
 1822 0429 AF01     		.2byte	0x1af
 1823 042b 4A040000 		.4byte	0x44a
 1824 042f 0B       		.uleb128 0xb
 1825 0430 170E0000 		.4byte	.LASF124
 1826 0434 04       		.byte	0x4
 1827 0435 B201     		.2byte	0x1b2
 1828 0437 4A040000 		.4byte	0x44a
 1829 043b 00       		.byte	0
 1830 043c 0B       		.uleb128 0xb
 1831 043d BF060000 		.4byte	.LASF125
 1832 0441 04       		.byte	0x4
 1833 0442 B501     		.2byte	0x1b5
 1834 0444 6B000000 		.4byte	0x6b
 1835 0448 1F       		.byte	0x1f
 1836 0449 00       		.byte	0
 1837 044a 0C       		.uleb128 0xc
 1838 044b 6B000000 		.4byte	0x6b
 1839 044f 5A040000 		.4byte	0x45a
 1840 0453 0D       		.uleb128 0xd
 1841 0454 B5000000 		.4byte	0xb5
 1842 0458 1E       		.byte	0x1e
 1843 0459 00       		.byte	0
 1844 045a 04       		.uleb128 0x4
 1845 045b AC000000 		.4byte	.LASF126
 1846 045f 04       		.byte	0x4
 1847 0460 B701     		.2byte	0x1b7
 1848 0462 26040000 		.4byte	0x426
 1849 0466 0A       		.uleb128 0xa
 1850 0467 20       		.byte	0x20
 1851 0468 04       		.byte	0x4
 1852 0469 BA01     		.2byte	0x1ba
 1853 046b 8A040000 		.4byte	0x48a
 1854 046f 0B       		.uleb128 0xb
 1855 0470 47050000 		.4byte	.LASF127
 1856 0474 04       		.byte	0x4
 1857 0475 BE01     		.2byte	0x1be
 1858 0477 4A040000 		.4byte	0x44a
 1859 047b 00       		.byte	0
 1860 047c 0B       		.uleb128 0xb
 1861 047d F2080000 		.4byte	.LASF128
 1862 0481 04       		.byte	0x4
 1863 0482 C101     		.2byte	0x1c1
 1864 0484 6B000000 		.4byte	0x6b
 1865 0488 1F       		.byte	0x1f
ARM GAS  C:\Users\Petro\AppData\Local\Temp\cc6Lo8fB.s 			page 56


 1866 0489 00       		.byte	0
 1867 048a 04       		.uleb128 0x4
 1868 048b 03080000 		.4byte	.LASF129
 1869 048f 04       		.byte	0x4
 1870 0490 C301     		.2byte	0x1c3
 1871 0492 66040000 		.4byte	0x466
 1872 0496 0A       		.uleb128 0xa
 1873 0497 14       		.byte	0x14
 1874 0498 04       		.byte	0x4
 1875 0499 C601     		.2byte	0x1c6
 1876 049b E1040000 		.4byte	0x4e1
 1877 049f 0B       		.uleb128 0xb
 1878 04a0 9F050000 		.4byte	.LASF130
 1879 04a4 04       		.byte	0x4
 1880 04a5 CE01     		.2byte	0x1ce
 1881 04a7 6B000000 		.4byte	0x6b
 1882 04ab 00       		.byte	0
 1883 04ac 0B       		.uleb128 0xb
 1884 04ad AE100000 		.4byte	.LASF131
 1885 04b1 04       		.byte	0x4
 1886 04b2 D101     		.2byte	0x1d1
 1887 04b4 E1040000 		.4byte	0x4e1
 1888 04b8 04       		.byte	0x4
 1889 04b9 0B       		.uleb128 0xb
 1890 04ba 170E0000 		.4byte	.LASF124
 1891 04be 04       		.byte	0x4
 1892 04bf D301     		.2byte	0x1d3
 1893 04c1 E7040000 		.4byte	0x4e7
 1894 04c5 08       		.byte	0x8
 1895 04c6 0B       		.uleb128 0xb
 1896 04c7 47050000 		.4byte	.LASF127
 1897 04cb 04       		.byte	0x4
 1898 04cc D501     		.2byte	0x1d5
 1899 04ce ED040000 		.4byte	0x4ed
 1900 04d2 0C       		.byte	0xc
 1901 04d3 0B       		.uleb128 0xb
 1902 04d4 76130000 		.4byte	.LASF132
 1903 04d8 04       		.byte	0x4
 1904 04d9 DF01     		.2byte	0x1df
 1905 04db 77000000 		.4byte	0x77
 1906 04df 10       		.byte	0x10
 1907 04e0 00       		.byte	0
 1908 04e1 0F       		.uleb128 0xf
 1909 04e2 04       		.byte	0x4
 1910 04e3 1A040000 		.4byte	0x41a
 1911 04e7 0F       		.uleb128 0xf
 1912 04e8 04       		.byte	0x4
 1913 04e9 5A040000 		.4byte	0x45a
 1914 04ed 0F       		.uleb128 0xf
 1915 04ee 04       		.byte	0x4
 1916 04ef 8A040000 		.4byte	0x48a
 1917 04f3 04       		.uleb128 0x4
 1918 04f4 92100000 		.4byte	.LASF133
 1919 04f8 04       		.byte	0x4
 1920 04f9 E101     		.2byte	0x1e1
 1921 04fb 96040000 		.4byte	0x496
 1922 04ff 0F       		.uleb128 0xf
ARM GAS  C:\Users\Petro\AppData\Local\Temp\cc6Lo8fB.s 			page 57


 1923 0500 04       		.byte	0x4
 1924 0501 6B000000 		.4byte	0x6b
 1925 0505 10       		.uleb128 0x10
 1926 0506 08       		.byte	0x8
 1927 0507 05       		.byte	0x5
 1928 0508 C1       		.byte	0xc1
 1929 0509 26050000 		.4byte	0x526
 1930 050d 11       		.uleb128 0x11
 1931 050e 3C090000 		.4byte	.LASF134
 1932 0512 05       		.byte	0x5
 1933 0513 C4       		.byte	0xc4
 1934 0514 77000000 		.4byte	0x77
 1935 0518 00       		.byte	0
 1936 0519 11       		.uleb128 0x11
 1937 051a E90B0000 		.4byte	.LASF135
 1938 051e 05       		.byte	0x5
 1939 051f C9       		.byte	0xc9
 1940 0520 BC000000 		.4byte	0xbc
 1941 0524 04       		.byte	0x4
 1942 0525 00       		.byte	0
 1943 0526 0E       		.uleb128 0xe
 1944 0527 68100000 		.4byte	.LASF136
 1945 052b 05       		.byte	0x5
 1946 052c CB       		.byte	0xcb
 1947 052d 05050000 		.4byte	0x505
 1948 0531 10       		.uleb128 0x10
 1949 0532 08       		.byte	0x8
 1950 0533 05       		.byte	0x5
 1951 0534 CE       		.byte	0xce
 1952 0535 52050000 		.4byte	0x552
 1953 0539 11       		.uleb128 0x11
 1954 053a C9080000 		.4byte	.LASF137
 1955 053e 05       		.byte	0x5
 1956 053f D1       		.byte	0xd1
 1957 0540 77000000 		.4byte	0x77
 1958 0544 00       		.byte	0
 1959 0545 11       		.uleb128 0x11
 1960 0546 33110000 		.4byte	.LASF138
 1961 054a 05       		.byte	0x5
 1962 054b D6       		.byte	0xd6
 1963 054c 52050000 		.4byte	0x552
 1964 0550 04       		.byte	0x4
 1965 0551 00       		.byte	0
 1966 0552 0F       		.uleb128 0xf
 1967 0553 04       		.byte	0x4
 1968 0554 26050000 		.4byte	0x526
 1969 0558 0E       		.uleb128 0xe
 1970 0559 79050000 		.4byte	.LASF139
 1971 055d 05       		.byte	0x5
 1972 055e D8       		.byte	0xd8
 1973 055f 31050000 		.4byte	0x531
 1974 0563 12       		.uleb128 0x12
 1975 0564 08       		.byte	0x8
 1976 0565 05       		.byte	0x5
 1977 0566 DB       		.byte	0xdb
 1978 0567 82050000 		.4byte	0x582
 1979 056b 13       		.uleb128 0x13
ARM GAS  C:\Users\Petro\AppData\Local\Temp\cc6Lo8fB.s 			page 58


 1980 056c F4070000 		.4byte	.LASF140
 1981 0570 05       		.byte	0x5
 1982 0571 E2       		.byte	0xe2
 1983 0572 58050000 		.4byte	0x558
 1984 0576 13       		.uleb128 0x13
 1985 0577 C40B0000 		.4byte	.LASF141
 1986 057b 05       		.byte	0x5
 1987 057c E5       		.byte	0xe5
 1988 057d 77000000 		.4byte	0x77
 1989 0581 00       		.byte	0
 1990 0582 0E       		.uleb128 0xe
 1991 0583 D4050000 		.4byte	.LASF142
 1992 0587 05       		.byte	0x5
 1993 0588 E7       		.byte	0xe7
 1994 0589 63050000 		.4byte	0x563
 1995 058d 10       		.uleb128 0x10
 1996 058e 14       		.byte	0x14
 1997 058f 05       		.byte	0x5
 1998 0590 EA       		.byte	0xea
 1999 0591 D4050000 		.4byte	0x5d4
 2000 0595 11       		.uleb128 0x11
 2001 0596 03060000 		.4byte	.LASF143
 2002 059a 05       		.byte	0x5
 2003 059b ED       		.byte	0xed
 2004 059c 77000000 		.4byte	0x77
 2005 05a0 00       		.byte	0
 2006 05a1 11       		.uleb128 0x11
 2007 05a2 B7060000 		.4byte	.LASF144
 2008 05a6 05       		.byte	0x5
 2009 05a7 F3       		.byte	0xf3
 2010 05a8 77000000 		.4byte	0x77
 2011 05ac 02       		.byte	0x2
 2012 05ad 11       		.uleb128 0x11
 2013 05ae 48040000 		.4byte	.LASF145
 2014 05b2 05       		.byte	0x5
 2015 05b3 FD       		.byte	0xfd
 2016 05b4 83000000 		.4byte	0x83
 2017 05b8 04       		.byte	0x4
 2018 05b9 0B       		.uleb128 0xb
 2019 05ba 4A0F0000 		.4byte	.LASF146
 2020 05be 05       		.byte	0x5
 2021 05bf 0001     		.2byte	0x100
 2022 05c1 77000000 		.4byte	0x77
 2023 05c5 08       		.byte	0x8
 2024 05c6 0B       		.uleb128 0xb
 2025 05c7 DE0C0000 		.4byte	.LASF147
 2026 05cb 05       		.byte	0x5
 2027 05cc 0901     		.2byte	0x109
 2028 05ce 82050000 		.4byte	0x582
 2029 05d2 0C       		.byte	0xc
 2030 05d3 00       		.byte	0
 2031 05d4 04       		.uleb128 0x4
 2032 05d5 28100000 		.4byte	.LASF148
 2033 05d9 05       		.byte	0x5
 2034 05da 0A01     		.2byte	0x10a
 2035 05dc 8D050000 		.4byte	0x58d
 2036 05e0 04       		.uleb128 0x4
ARM GAS  C:\Users\Petro\AppData\Local\Temp\cc6Lo8fB.s 			page 59


 2037 05e1 57100000 		.4byte	.LASF149
 2038 05e5 06       		.byte	0x6
 2039 05e6 4201     		.2byte	0x142
 2040 05e8 EC050000 		.4byte	0x5ec
 2041 05ec 0F       		.uleb128 0xf
 2042 05ed 04       		.byte	0x4
 2043 05ee F2050000 		.4byte	0x5f2
 2044 05f2 14       		.uleb128 0x14
 2045 05f3 02060000 		.4byte	0x602
 2046 05f7 15       		.uleb128 0x15
 2047 05f8 83000000 		.4byte	0x83
 2048 05fc 15       		.uleb128 0x15
 2049 05fd BC000000 		.4byte	0xbc
 2050 0601 00       		.byte	0
 2051 0602 16       		.uleb128 0x16
 2052 0603 8D01     		.2byte	0x18d
 2053 0605 07       		.byte	0x7
 2054 0606 9D       		.byte	0x9d
 2055 0607 3F060000 		.4byte	0x63f
 2056 060b 11       		.uleb128 0x11
 2057 060c C6050000 		.4byte	.LASF150
 2058 0610 07       		.byte	0x7
 2059 0611 9F       		.byte	0x9f
 2060 0612 3F060000 		.4byte	0x63f
 2061 0616 00       		.byte	0
 2062 0617 17       		.uleb128 0x17
 2063 0618 23090000 		.4byte	.LASF151
 2064 061c 07       		.byte	0x7
 2065 061d A0       		.byte	0xa0
 2066 061e 50060000 		.4byte	0x650
 2067 0622 6D01     		.2byte	0x16d
 2068 0624 17       		.uleb128 0x17
 2069 0625 E8080000 		.4byte	.LASF152
 2070 0629 07       		.byte	0x7
 2071 062a A1       		.byte	0xa1
 2072 062b 6B000000 		.4byte	0x6b
 2073 062f 8B01     		.2byte	0x18b
 2074 0631 17       		.uleb128 0x17
 2075 0632 310B0000 		.4byte	.LASF153
 2076 0636 07       		.byte	0x7
 2077 0637 A2       		.byte	0xa2
 2078 0638 6B000000 		.4byte	0x6b
 2079 063c 8C01     		.2byte	0x18c
 2080 063e 00       		.byte	0
 2081 063f 0C       		.uleb128 0xc
 2082 0640 6B000000 		.4byte	0x6b
 2083 0644 50060000 		.4byte	0x650
 2084 0648 18       		.uleb128 0x18
 2085 0649 B5000000 		.4byte	0xb5
 2086 064d 6C01     		.2byte	0x16c
 2087 064f 00       		.byte	0
 2088 0650 0C       		.uleb128 0xc
 2089 0651 6B000000 		.4byte	0x6b
 2090 0655 66060000 		.4byte	0x666
 2091 0659 0D       		.uleb128 0xd
 2092 065a B5000000 		.4byte	0xb5
 2093 065e 04       		.byte	0x4
ARM GAS  C:\Users\Petro\AppData\Local\Temp\cc6Lo8fB.s 			page 60


 2094 065f 0D       		.uleb128 0xd
 2095 0660 B5000000 		.4byte	0xb5
 2096 0664 05       		.byte	0x5
 2097 0665 00       		.byte	0
 2098 0666 0E       		.uleb128 0xe
 2099 0667 C8100000 		.4byte	.LASF154
 2100 066b 07       		.byte	0x7
 2101 066c A3       		.byte	0xa3
 2102 066d 02060000 		.4byte	0x602
 2103 0671 07       		.uleb128 0x7
 2104 0672 01       		.byte	0x1
 2105 0673 08       		.byte	0x8
 2106 0674 23       		.byte	0x23
 2107 0675 B6060000 		.4byte	0x6b6
 2108 0679 08       		.uleb128 0x8
 2109 067a 5A130000 		.4byte	.LASF155
 2110 067e 00       		.sleb128 0
 2111 067f 08       		.uleb128 0x8
 2112 0680 C30E0000 		.4byte	.LASF156
 2113 0684 01       		.sleb128 1
 2114 0685 08       		.uleb128 0x8
 2115 0686 900C0000 		.4byte	.LASF157
 2116 068a 02       		.sleb128 2
 2117 068b 08       		.uleb128 0x8
 2118 068c 1F060000 		.4byte	.LASF158
 2119 0690 03       		.sleb128 3
 2120 0691 08       		.uleb128 0x8
 2121 0692 EC050000 		.4byte	.LASF159
 2122 0696 04       		.sleb128 4
 2123 0697 08       		.uleb128 0x8
 2124 0698 9A0D0000 		.4byte	.LASF160
 2125 069c 05       		.sleb128 5
 2126 069d 08       		.uleb128 0x8
 2127 069e 3E0A0000 		.4byte	.LASF161
 2128 06a2 06       		.sleb128 6
 2129 06a3 08       		.uleb128 0x8
 2130 06a4 D10B0000 		.4byte	.LASF162
 2131 06a8 07       		.sleb128 7
 2132 06a9 08       		.uleb128 0x8
 2133 06aa B10D0000 		.4byte	.LASF163
 2134 06ae 08       		.sleb128 8
 2135 06af 08       		.uleb128 0x8
 2136 06b0 FC0C0000 		.4byte	.LASF164
 2137 06b4 09       		.sleb128 9
 2138 06b5 00       		.byte	0
 2139 06b6 09       		.uleb128 0x9
 2140 06b7 01       		.byte	0x1
 2141 06b8 09       		.byte	0x9
 2142 06b9 3707     		.2byte	0x737
 2143 06bb DE060000 		.4byte	0x6de
 2144 06bf 08       		.uleb128 0x8
 2145 06c0 3F000000 		.4byte	.LASF165
 2146 06c4 00       		.sleb128 0
 2147 06c5 08       		.uleb128 0x8
 2148 06c6 C20A0000 		.4byte	.LASF166
 2149 06ca 01       		.sleb128 1
 2150 06cb 08       		.uleb128 0x8
ARM GAS  C:\Users\Petro\AppData\Local\Temp\cc6Lo8fB.s 			page 61


 2151 06cc CF110000 		.4byte	.LASF167
 2152 06d0 02       		.sleb128 2
 2153 06d1 08       		.uleb128 0x8
 2154 06d2 A2030000 		.4byte	.LASF168
 2155 06d6 03       		.sleb128 3
 2156 06d7 08       		.uleb128 0x8
 2157 06d8 BF040000 		.4byte	.LASF169
 2158 06dc 04       		.sleb128 4
 2159 06dd 00       		.byte	0
 2160 06de 04       		.uleb128 0x4
 2161 06df DD100000 		.4byte	.LASF170
 2162 06e3 09       		.byte	0x9
 2163 06e4 4507     		.2byte	0x745
 2164 06e6 B6060000 		.4byte	0x6b6
 2165 06ea 19       		.uleb128 0x19
 2166 06eb 12130000 		.4byte	.LASF171
 2167 06ef 01       		.byte	0x1
 2168 06f0 9F       		.byte	0x9f
 2169 06f1 00000000 		.4byte	.LFB2
 2170 06f5 2C000000 		.4byte	.LFE2-.LFB2
 2171 06f9 01       		.uleb128 0x1
 2172 06fa 9C       		.byte	0x9c
 2173 06fb 19       		.uleb128 0x19
 2174 06fc 46070000 		.4byte	.LASF172
 2175 0700 01       		.byte	0x1
 2176 0701 D0       		.byte	0xd0
 2177 0702 00000000 		.4byte	.LFB3
 2178 0706 10000000 		.4byte	.LFE3-.LFB3
 2179 070a 01       		.uleb128 0x1
 2180 070b 9C       		.byte	0x9c
 2181 070c 1A       		.uleb128 0x1a
 2182 070d 01090000 		.4byte	.LASF176
 2183 0711 01       		.byte	0x1
 2184 0712 7F01     		.2byte	0x17f
 2185 0714 FA020000 		.4byte	0x2fa
 2186 0718 00000000 		.4byte	.LFB4
 2187 071c D4000000 		.4byte	.LFE4-.LFB4
 2188 0720 01       		.uleb128 0x1
 2189 0721 9C       		.byte	0x9c
 2190 0722 54070000 		.4byte	0x754
 2191 0726 1B       		.uleb128 0x1b
 2192 0727 D10C0000 		.4byte	.LASF178
 2193 072b 01       		.byte	0x1
 2194 072c 7F01     		.2byte	0x17f
 2195 072e E0050000 		.4byte	0x5e0
 2196 0732 02       		.uleb128 0x2
 2197 0733 91       		.byte	0x91
 2198 0734 4C       		.sleb128 -52
 2199 0735 1C       		.uleb128 0x1c
 2200 0736 5D0B0000 		.4byte	.LASF173
 2201 073a 01       		.byte	0x1
 2202 073b 8101     		.2byte	0x181
 2203 073d FA020000 		.4byte	0x2fa
 2204 0741 02       		.uleb128 0x2
 2205 0742 91       		.byte	0x91
 2206 0743 6E       		.sleb128 -18
 2207 0744 1C       		.uleb128 0x1c
ARM GAS  C:\Users\Petro\AppData\Local\Temp\cc6Lo8fB.s 			page 62


 2208 0745 9D0E0000 		.4byte	.LASF174
 2209 0749 01       		.byte	0x1
 2210 074a 8501     		.2byte	0x185
 2211 074c 54070000 		.4byte	0x754
 2212 0750 02       		.uleb128 0x2
 2213 0751 91       		.byte	0x91
 2214 0752 54       		.sleb128 -44
 2215 0753 00       		.byte	0
 2216 0754 0C       		.uleb128 0xc
 2217 0755 6A030000 		.4byte	0x36a
 2218 0759 64070000 		.4byte	0x764
 2219 075d 0D       		.uleb128 0xd
 2220 075e B5000000 		.4byte	0xb5
 2221 0762 05       		.byte	0x5
 2222 0763 00       		.byte	0
 2223 0764 1D       		.uleb128 0x1d
 2224 0765 7A0B0000 		.4byte	.LASF175
 2225 0769 01       		.byte	0x1
 2226 076a D301     		.2byte	0x1d3
 2227 076c 00000000 		.4byte	.LFB5
 2228 0770 18000000 		.4byte	.LFE5-.LFB5
 2229 0774 01       		.uleb128 0x1
 2230 0775 9C       		.byte	0x9c
 2231 0776 1A       		.uleb128 0x1a
 2232 0777 730C0000 		.4byte	.LASF177
 2233 077b 01       		.byte	0x1
 2234 077c 6002     		.2byte	0x260
 2235 077e FA020000 		.4byte	0x2fa
 2236 0782 00000000 		.4byte	.LFB6
 2237 0786 D4000000 		.4byte	.LFE6-.LFB6
 2238 078a 01       		.uleb128 0x1
 2239 078b 9C       		.byte	0x9c
 2240 078c AF070000 		.4byte	0x7af
 2241 0790 1B       		.uleb128 0x1b
 2242 0791 250F0000 		.4byte	.LASF179
 2243 0795 01       		.byte	0x1
 2244 0796 6002     		.2byte	0x260
 2245 0798 6B000000 		.4byte	0x6b
 2246 079c 02       		.uleb128 0x2
 2247 079d 91       		.byte	0x91
 2248 079e 67       		.sleb128 -25
 2249 079f 1C       		.uleb128 0x1c
 2250 07a0 5D0B0000 		.4byte	.LASF173
 2251 07a4 01       		.byte	0x1
 2252 07a5 6202     		.2byte	0x262
 2253 07a7 FA020000 		.4byte	0x2fa
 2254 07ab 02       		.uleb128 0x2
 2255 07ac 91       		.byte	0x91
 2256 07ad 6E       		.sleb128 -18
 2257 07ae 00       		.byte	0
 2258 07af 1D       		.uleb128 0x1d
 2259 07b0 0E020000 		.4byte	.LASF180
 2260 07b4 01       		.byte	0x1
 2261 07b5 9D02     		.2byte	0x29d
 2262 07b7 00000000 		.4byte	.LFB7
 2263 07bb 20000000 		.4byte	.LFE7-.LFB7
 2264 07bf 01       		.uleb128 0x1
ARM GAS  C:\Users\Petro\AppData\Local\Temp\cc6Lo8fB.s 			page 63


 2265 07c0 9C       		.byte	0x9c
 2266 07c1 1E       		.uleb128 0x1e
 2267 07c2 5F0D0000 		.4byte	.LASF192
 2268 07c6 01       		.byte	0x1
 2269 07c7 B302     		.2byte	0x2b3
 2270 07c9 00000000 		.4byte	.LFB8
 2271 07cd 60000000 		.4byte	.LFE8-.LFB8
 2272 07d1 01       		.uleb128 0x1
 2273 07d2 9C       		.byte	0x9c
 2274 07d3 12080000 		.4byte	0x812
 2275 07d7 1B       		.uleb128 0x1b
 2276 07d8 53050000 		.4byte	.LASF103
 2277 07dc 01       		.byte	0x1
 2278 07dd B302     		.2byte	0x2b3
 2279 07df 12080000 		.4byte	0x812
 2280 07e3 02       		.uleb128 0x2
 2281 07e4 91       		.byte	0x91
 2282 07e5 6C       		.sleb128 -20
 2283 07e6 1B       		.uleb128 0x1b
 2284 07e7 BF0B0000 		.4byte	.LASF181
 2285 07eb 01       		.byte	0x1
 2286 07ec B302     		.2byte	0x2b3
 2287 07ee 6B000000 		.4byte	0x6b
 2288 07f2 02       		.uleb128 0x2
 2289 07f3 91       		.byte	0x91
 2290 07f4 6B       		.sleb128 -21
 2291 07f5 1F       		.uleb128 0x1f
 2292 07f6 6900     		.ascii	"i\000"
 2293 07f8 01       		.byte	0x1
 2294 07f9 B502     		.2byte	0x2b5
 2295 07fb 6B000000 		.4byte	0x6b
 2296 07ff 02       		.uleb128 0x2
 2297 0800 91       		.byte	0x91
 2298 0801 77       		.sleb128 -9
 2299 0802 1C       		.uleb128 0x1c
 2300 0803 14060000 		.4byte	.LASF182
 2301 0807 01       		.byte	0x1
 2302 0808 B602     		.2byte	0x2b6
 2303 080a FF040000 		.4byte	0x4ff
 2304 080e 02       		.uleb128 0x2
 2305 080f 91       		.byte	0x91
 2306 0810 70       		.sleb128 -16
 2307 0811 00       		.byte	0
 2308 0812 0F       		.uleb128 0xf
 2309 0813 04       		.byte	0x4
 2310 0814 18080000 		.4byte	0x818
 2311 0818 20       		.uleb128 0x20
 2312 0819 3A030000 		.4byte	0x33a
 2313 081d 21       		.uleb128 0x21
 2314 081e 320E0000 		.4byte	.LASF214
 2315 0822 01       		.byte	0x1
 2316 0823 E803     		.2byte	0x3e8
 2317 0825 00000000 		.4byte	.LFB9
 2318 0829 A4010000 		.4byte	.LFE9-.LFB9
 2319 082d 01       		.uleb128 0x1
 2320 082e 9C       		.byte	0x9c
 2321 082f AA080000 		.4byte	0x8aa
ARM GAS  C:\Users\Petro\AppData\Local\Temp\cc6Lo8fB.s 			page 64


 2322 0833 1B       		.uleb128 0x1b
 2323 0834 EF070000 		.4byte	.LASF183
 2324 0838 01       		.byte	0x1
 2325 0839 E803     		.2byte	0x3e8
 2326 083b AA080000 		.4byte	0x8aa
 2327 083f 02       		.uleb128 0x2
 2328 0840 91       		.byte	0x91
 2329 0841 64       		.sleb128 -28
 2330 0842 1B       		.uleb128 0x1b
 2331 0843 BF0B0000 		.4byte	.LASF181
 2332 0847 01       		.byte	0x1
 2333 0848 E803     		.2byte	0x3e8
 2334 084a 6B000000 		.4byte	0x6b
 2335 084e 02       		.uleb128 0x2
 2336 084f 91       		.byte	0x91
 2337 0850 63       		.sleb128 -29
 2338 0851 1F       		.uleb128 0x1f
 2339 0852 6900     		.ascii	"i\000"
 2340 0854 01       		.byte	0x1
 2341 0855 EA03     		.2byte	0x3ea
 2342 0857 6B000000 		.4byte	0x6b
 2343 085b 02       		.uleb128 0x2
 2344 085c 91       		.byte	0x91
 2345 085d 77       		.sleb128 -9
 2346 085e 1C       		.uleb128 0x1c
 2347 085f 950D0000 		.4byte	.LASF184
 2348 0863 01       		.byte	0x1
 2349 0864 EB03     		.2byte	0x3eb
 2350 0866 6B000000 		.4byte	0x6b
 2351 086a 02       		.uleb128 0x2
 2352 086b 91       		.byte	0x91
 2353 086c 76       		.sleb128 -10
 2354 086d 1C       		.uleb128 0x1c
 2355 086e FA0E0000 		.4byte	.LASF185
 2356 0872 01       		.byte	0x1
 2357 0873 EC03     		.2byte	0x3ec
 2358 0875 6B000000 		.4byte	0x6b
 2359 0879 02       		.uleb128 0x2
 2360 087a 91       		.byte	0x91
 2361 087b 75       		.sleb128 -11
 2362 087c 1C       		.uleb128 0x1c
 2363 087d 86100000 		.4byte	.LASF186
 2364 0881 01       		.byte	0x1
 2365 0882 ED03     		.2byte	0x3ed
 2366 0884 6B000000 		.4byte	0x6b
 2367 0888 02       		.uleb128 0x2
 2368 0889 91       		.byte	0x91
 2369 088a 74       		.sleb128 -12
 2370 088b 1C       		.uleb128 0x1c
 2371 088c 14060000 		.4byte	.LASF182
 2372 0890 01       		.byte	0x1
 2373 0891 EE03     		.2byte	0x3ee
 2374 0893 FF040000 		.4byte	0x4ff
 2375 0897 02       		.uleb128 0x2
 2376 0898 91       		.byte	0x91
 2377 0899 70       		.sleb128 -16
 2378 089a 1C       		.uleb128 0x1c
ARM GAS  C:\Users\Petro\AppData\Local\Temp\cc6Lo8fB.s 			page 65


 2379 089b 44110000 		.4byte	.LASF187
 2380 089f 01       		.byte	0x1
 2381 08a0 EF03     		.2byte	0x3ef
 2382 08a2 6B000000 		.4byte	0x6b
 2383 08a6 02       		.uleb128 0x2
 2384 08a7 91       		.byte	0x91
 2385 08a8 6F       		.sleb128 -17
 2386 08a9 00       		.byte	0
 2387 08aa 0F       		.uleb128 0xf
 2388 08ab 04       		.byte	0x4
 2389 08ac B0080000 		.4byte	0x8b0
 2390 08b0 20       		.uleb128 0x20
 2391 08b1 9D000000 		.4byte	0x9d
 2392 08b5 1A       		.uleb128 0x1a
 2393 08b6 010B0000 		.4byte	.LASF188
 2394 08ba 01       		.byte	0x1
 2395 08bb 4D04     		.2byte	0x44d
 2396 08bd FA020000 		.4byte	0x2fa
 2397 08c1 00000000 		.4byte	.LFB10
 2398 08c5 C8000000 		.4byte	.LFE10-.LFB10
 2399 08c9 01       		.uleb128 0x1
 2400 08ca 9C       		.byte	0x9c
 2401 08cb 19090000 		.4byte	0x919
 2402 08cf 1B       		.uleb128 0x1b
 2403 08d0 EF070000 		.4byte	.LASF183
 2404 08d4 01       		.byte	0x1
 2405 08d5 4D04     		.2byte	0x44d
 2406 08d7 AA080000 		.4byte	0x8aa
 2407 08db 02       		.uleb128 0x2
 2408 08dc 91       		.byte	0x91
 2409 08dd 64       		.sleb128 -28
 2410 08de 1C       		.uleb128 0x1c
 2411 08df 5D0B0000 		.4byte	.LASF173
 2412 08e3 01       		.byte	0x1
 2413 08e4 4F04     		.2byte	0x44f
 2414 08e6 FA020000 		.4byte	0x2fa
 2415 08ea 02       		.uleb128 0x2
 2416 08eb 91       		.byte	0x91
 2417 08ec 76       		.sleb128 -10
 2418 08ed 1F       		.uleb128 0x1f
 2419 08ee 6900     		.ascii	"i\000"
 2420 08f0 01       		.byte	0x1
 2421 08f1 5004     		.2byte	0x450
 2422 08f3 6B000000 		.4byte	0x6b
 2423 08f7 02       		.uleb128 0x2
 2424 08f8 91       		.byte	0x91
 2425 08f9 75       		.sleb128 -11
 2426 08fa 1F       		.uleb128 0x1f
 2427 08fb 70747200 		.ascii	"ptr\000"
 2428 08ff 01       		.byte	0x1
 2429 0900 5104     		.2byte	0x451
 2430 0902 19090000 		.4byte	0x919
 2431 0906 02       		.uleb128 0x2
 2432 0907 91       		.byte	0x91
 2433 0908 70       		.sleb128 -16
 2434 0909 1C       		.uleb128 0x1c
 2435 090a F6090000 		.4byte	.LASF189
ARM GAS  C:\Users\Petro\AppData\Local\Temp\cc6Lo8fB.s 			page 66


 2436 090e 01       		.byte	0x1
 2437 090f 5204     		.2byte	0x452
 2438 0911 6B000000 		.4byte	0x6b
 2439 0915 02       		.uleb128 0x2
 2440 0916 91       		.byte	0x91
 2441 0917 6F       		.sleb128 -17
 2442 0918 00       		.byte	0
 2443 0919 0F       		.uleb128 0xf
 2444 091a 04       		.byte	0x4
 2445 091b 9D000000 		.4byte	0x9d
 2446 091f 22       		.uleb128 0x22
 2447 0920 0D090000 		.4byte	.LASF190
 2448 0924 01       		.byte	0x1
 2449 0925 9504     		.2byte	0x495
 2450 0927 FA020000 		.4byte	0x2fa
 2451 092b 00000000 		.4byte	.LFB11
 2452 092f A4000000 		.4byte	.LFE11-.LFB11
 2453 0933 01       		.uleb128 0x1
 2454 0934 9C       		.byte	0x9c
 2455 0935 83090000 		.4byte	0x983
 2456 0939 1B       		.uleb128 0x1b
 2457 093a EF070000 		.4byte	.LASF183
 2458 093e 01       		.byte	0x1
 2459 093f 9504     		.2byte	0x495
 2460 0941 19090000 		.4byte	0x919
 2461 0945 02       		.uleb128 0x2
 2462 0946 91       		.byte	0x91
 2463 0947 64       		.sleb128 -28
 2464 0948 1C       		.uleb128 0x1c
 2465 0949 5D0B0000 		.4byte	.LASF173
 2466 094d 01       		.byte	0x1
 2467 094e 9704     		.2byte	0x497
 2468 0950 FA020000 		.4byte	0x2fa
 2469 0954 02       		.uleb128 0x2
 2470 0955 91       		.byte	0x91
 2471 0956 76       		.sleb128 -10
 2472 0957 1C       		.uleb128 0x1c
 2473 0958 F6090000 		.4byte	.LASF189
 2474 095c 01       		.byte	0x1
 2475 095d 9804     		.2byte	0x498
 2476 095f 6B000000 		.4byte	0x6b
 2477 0963 02       		.uleb128 0x2
 2478 0964 91       		.byte	0x91
 2479 0965 6F       		.sleb128 -17
 2480 0966 1F       		.uleb128 0x1f
 2481 0967 6900     		.ascii	"i\000"
 2482 0969 01       		.byte	0x1
 2483 096a 9904     		.2byte	0x499
 2484 096c 6B000000 		.4byte	0x6b
 2485 0970 02       		.uleb128 0x2
 2486 0971 91       		.byte	0x91
 2487 0972 75       		.sleb128 -11
 2488 0973 1F       		.uleb128 0x1f
 2489 0974 70747200 		.ascii	"ptr\000"
 2490 0978 01       		.byte	0x1
 2491 0979 9A04     		.2byte	0x49a
 2492 097b 19090000 		.4byte	0x919
ARM GAS  C:\Users\Petro\AppData\Local\Temp\cc6Lo8fB.s 			page 67


 2493 097f 02       		.uleb128 0x2
 2494 0980 91       		.byte	0x91
 2495 0981 70       		.sleb128 -16
 2496 0982 00       		.byte	0
 2497 0983 22       		.uleb128 0x22
 2498 0984 DD010000 		.4byte	.LASF191
 2499 0988 01       		.byte	0x1
 2500 0989 C704     		.2byte	0x4c7
 2501 098b 77000000 		.4byte	0x77
 2502 098f 00000000 		.4byte	.LFB12
 2503 0993 26000000 		.4byte	.LFE12-.LFB12
 2504 0997 01       		.uleb128 0x1
 2505 0998 9C       		.byte	0x9c
 2506 0999 AD090000 		.4byte	0x9ad
 2507 099d 23       		.uleb128 0x23
 2508 099e 70747200 		.ascii	"ptr\000"
 2509 09a2 01       		.byte	0x1
 2510 09a3 C704     		.2byte	0x4c7
 2511 09a5 AD090000 		.4byte	0x9ad
 2512 09a9 02       		.uleb128 0x2
 2513 09aa 91       		.byte	0x91
 2514 09ab 74       		.sleb128 -12
 2515 09ac 00       		.byte	0
 2516 09ad 0F       		.uleb128 0xf
 2517 09ae 04       		.byte	0x4
 2518 09af B3090000 		.4byte	0x9b3
 2519 09b3 20       		.uleb128 0x20
 2520 09b4 6B000000 		.4byte	0x6b
 2521 09b8 1E       		.uleb128 0x1e
 2522 09b9 D7080000 		.4byte	.LASF193
 2523 09bd 01       		.byte	0x1
 2524 09be DA04     		.2byte	0x4da
 2525 09c0 00000000 		.4byte	.LFB13
 2526 09c4 2E000000 		.4byte	.LFE13-.LFB13
 2527 09c8 01       		.uleb128 0x1
 2528 09c9 9C       		.byte	0x9c
 2529 09ca ED090000 		.4byte	0x9ed
 2530 09ce 23       		.uleb128 0x23
 2531 09cf 70747200 		.ascii	"ptr\000"
 2532 09d3 01       		.byte	0x1
 2533 09d4 DA04     		.2byte	0x4da
 2534 09d6 FF040000 		.4byte	0x4ff
 2535 09da 02       		.uleb128 0x2
 2536 09db 91       		.byte	0x91
 2537 09dc 74       		.sleb128 -12
 2538 09dd 1B       		.uleb128 0x1b
 2539 09de E1060000 		.4byte	.LASF194
 2540 09e2 01       		.byte	0x1
 2541 09e3 DA04     		.2byte	0x4da
 2542 09e5 77000000 		.4byte	0x77
 2543 09e9 02       		.uleb128 0x2
 2544 09ea 91       		.byte	0x91
 2545 09eb 72       		.sleb128 -14
 2546 09ec 00       		.byte	0
 2547 09ed 24       		.uleb128 0x24
 2548 09ee 1F0E0000 		.4byte	.LASF195
 2549 09f2 01       		.byte	0x1
ARM GAS  C:\Users\Petro\AppData\Local\Temp\cc6Lo8fB.s 			page 68


 2550 09f3 85       		.byte	0x85
 2551 09f4 E0050000 		.4byte	0x5e0
 2552 09f8 05       		.uleb128 0x5
 2553 09f9 03       		.byte	0x3
 2554 09fa 00000000 		.4byte	CyBle_ApplCallback
 2555 09fe 24       		.uleb128 0x24
 2556 09ff 78080000 		.4byte	.LASF196
 2557 0a03 01       		.byte	0x1
 2558 0a04 2B       		.byte	0x2b
 2559 0a05 6B000000 		.4byte	0x6b
 2560 0a09 05       		.uleb128 0x5
 2561 0a0a 03       		.byte	0x3
 2562 0a0b 00000000 		.4byte	cyBle_initVar
 2563 0a0f 0C       		.uleb128 0xc
 2564 0a10 6B000000 		.4byte	0x6b
 2565 0a14 200A0000 		.4byte	0xa20
 2566 0a18 18       		.uleb128 0x18
 2567 0a19 B5000000 		.4byte	0xb5
 2568 0a1d CF0A     		.2byte	0xacf
 2569 0a1f 00       		.byte	0
 2570 0a20 24       		.uleb128 0x24
 2571 0a21 A4010000 		.4byte	.LASF197
 2572 0a25 01       		.byte	0x1
 2573 0a26 36       		.byte	0x36
 2574 0a27 0F0A0000 		.4byte	0xa0f
 2575 0a2b 05       		.uleb128 0x5
 2576 0a2c 03       		.byte	0x3
 2577 0a2d 00000000 		.4byte	cyBle_stackMemoryRam
 2578 0a31 25       		.uleb128 0x25
 2579 0a32 43130000 		.4byte	.LASF198
 2580 0a36 06       		.byte	0x6
 2581 0a37 D401     		.2byte	0x1d4
 2582 0a39 B0000000 		.4byte	0xb0
 2583 0a3d 24       		.uleb128 0x24
 2584 0a3e 4E110000 		.4byte	.LASF199
 2585 0a42 01       		.byte	0x1
 2586 0a43 86       		.byte	0x86
 2587 0a44 3A030000 		.4byte	0x33a
 2588 0a48 05       		.uleb128 0x5
 2589 0a49 03       		.byte	0x3
 2590 0a4a 00000000 		.4byte	cyBle_deviceAddress
 2591 0a4e 24       		.uleb128 0x24
 2592 0a4f B5110000 		.4byte	.LASF200
 2593 0a53 01       		.byte	0x1
 2594 0a54 87       		.byte	0x87
 2595 0a55 5F0A0000 		.4byte	0xa5f
 2596 0a59 05       		.uleb128 0x5
 2597 0a5a 03       		.byte	0x3
 2598 0a5b 00000000 		.4byte	cyBle_sflashDeviceAddress
 2599 0a5f 0F       		.uleb128 0xf
 2600 0a60 04       		.byte	0x4
 2601 0a61 3A030000 		.4byte	0x33a
 2602 0a65 24       		.uleb128 0x24
 2603 0a66 4A0E0000 		.4byte	.LASF201
 2604 0a6a 01       		.byte	0x1
 2605 0a6b 8D       		.byte	0x8d
 2606 0a6c 760A0000 		.4byte	0xa76
ARM GAS  C:\Users\Petro\AppData\Local\Temp\cc6Lo8fB.s 			page 69


 2607 0a70 05       		.uleb128 0x5
 2608 0a71 03       		.byte	0x3
 2609 0a72 00000000 		.4byte	cyBle_StackFlashptr
 2610 0a76 20       		.uleb128 0x20
 2611 0a77 3F060000 		.4byte	0x63f
 2612 0a7b 24       		.uleb128 0x24
 2613 0a7c 72000000 		.4byte	.LASF202
 2614 0a80 01       		.byte	0x1
 2615 0a81 3C       		.byte	0x3c
 2616 0a82 1A040000 		.4byte	0x41a
 2617 0a86 05       		.uleb128 0x5
 2618 0a87 03       		.byte	0x3
 2619 0a88 00000000 		.4byte	cyBle_discoveryParam
 2620 0a8c 24       		.uleb128 0x24
 2621 0a8d 2A020000 		.4byte	.LASF203
 2622 0a91 01       		.byte	0x1
 2623 0a92 48       		.byte	0x48
 2624 0a93 5A040000 		.4byte	0x45a
 2625 0a97 05       		.uleb128 0x5
 2626 0a98 03       		.byte	0x3
 2627 0a99 00000000 		.4byte	cyBle_discoveryData
 2628 0a9d 24       		.uleb128 0x24
 2629 0a9e 62110000 		.4byte	.LASF204
 2630 0aa2 01       		.byte	0x1
 2631 0aa3 51       		.byte	0x51
 2632 0aa4 8A040000 		.4byte	0x48a
 2633 0aa8 05       		.uleb128 0x5
 2634 0aa9 03       		.byte	0x3
 2635 0aaa 00000000 		.4byte	cyBle_scanRspData
 2636 0aae 24       		.uleb128 0x24
 2637 0aaf A10A0000 		.4byte	.LASF205
 2638 0ab3 01       		.byte	0x1
 2639 0ab4 61       		.byte	0x61
 2640 0ab5 F3040000 		.4byte	0x4f3
 2641 0ab9 05       		.uleb128 0x5
 2642 0aba 03       		.byte	0x3
 2643 0abb 00000000 		.4byte	cyBle_discoveryModeInfo
 2644 0abf 0C       		.uleb128 0xc
 2645 0ac0 D4050000 		.4byte	0x5d4
 2646 0ac4 CF0A0000 		.4byte	0xacf
 2647 0ac8 0D       		.uleb128 0xd
 2648 0ac9 B5000000 		.4byte	0xb5
 2649 0acd 1B       		.byte	0x1b
 2650 0ace 00       		.byte	0
 2651 0acf 26       		.uleb128 0x26
 2652 0ad0 B10E0000 		.4byte	.LASF206
 2653 0ad4 07       		.byte	0x7
 2654 0ad5 E0       		.byte	0xe0
 2655 0ad6 DA0A0000 		.4byte	0xada
 2656 0ada 20       		.uleb128 0x20
 2657 0adb BF0A0000 		.4byte	0xabf
 2658 0adf 26       		.uleb128 0x26
 2659 0ae0 150C0000 		.4byte	.LASF207
 2660 0ae4 07       		.byte	0x7
 2661 0ae5 EB       		.byte	0xeb
 2662 0ae6 EA0A0000 		.4byte	0xaea
 2663 0aea 20       		.uleb128 0x20
ARM GAS  C:\Users\Petro\AppData\Local\Temp\cc6Lo8fB.s 			page 70


 2664 0aeb 66060000 		.4byte	0x666
 2665 0aef 25       		.uleb128 0x25
 2666 0af0 49090000 		.4byte	.LASF208
 2667 0af4 09       		.byte	0x9
 2668 0af5 2C09     		.2byte	0x92c
 2669 0af7 DE060000 		.4byte	0x6de
 2670 0afb 25       		.uleb128 0x25
 2671 0afc C2020000 		.4byte	.LASF209
 2672 0b00 09       		.byte	0x9
 2673 0b01 2E09     		.2byte	0x92e
 2674 0b03 B0000000 		.4byte	0xb0
 2675 0b07 25       		.uleb128 0x25
 2676 0b08 550C0000 		.4byte	.LASF210
 2677 0b0c 09       		.byte	0x9
 2678 0b0d 3109     		.2byte	0x931
 2679 0b0f 6B000000 		.4byte	0x6b
 2680 0b13 00       		.byte	0
 2681              		.section	.debug_abbrev,"",%progbits
 2682              	.Ldebug_abbrev0:
 2683 0000 01       		.uleb128 0x1
 2684 0001 11       		.uleb128 0x11
 2685 0002 01       		.byte	0x1
 2686 0003 25       		.uleb128 0x25
 2687 0004 0E       		.uleb128 0xe
 2688 0005 13       		.uleb128 0x13
 2689 0006 0B       		.uleb128 0xb
 2690 0007 03       		.uleb128 0x3
 2691 0008 0E       		.uleb128 0xe
 2692 0009 1B       		.uleb128 0x1b
 2693 000a 0E       		.uleb128 0xe
 2694 000b 55       		.uleb128 0x55
 2695 000c 17       		.uleb128 0x17
 2696 000d 11       		.uleb128 0x11
 2697 000e 01       		.uleb128 0x1
 2698 000f 10       		.uleb128 0x10
 2699 0010 17       		.uleb128 0x17
 2700 0011 00       		.byte	0
 2701 0012 00       		.byte	0
 2702 0013 02       		.uleb128 0x2
 2703 0014 24       		.uleb128 0x24
 2704 0015 00       		.byte	0
 2705 0016 0B       		.uleb128 0xb
 2706 0017 0B       		.uleb128 0xb
 2707 0018 3E       		.uleb128 0x3e
 2708 0019 0B       		.uleb128 0xb
 2709 001a 03       		.uleb128 0x3
 2710 001b 0E       		.uleb128 0xe
 2711 001c 00       		.byte	0
 2712 001d 00       		.byte	0
 2713 001e 03       		.uleb128 0x3
 2714 001f 24       		.uleb128 0x24
 2715 0020 00       		.byte	0
 2716 0021 0B       		.uleb128 0xb
 2717 0022 0B       		.uleb128 0xb
 2718 0023 3E       		.uleb128 0x3e
 2719 0024 0B       		.uleb128 0xb
 2720 0025 03       		.uleb128 0x3
ARM GAS  C:\Users\Petro\AppData\Local\Temp\cc6Lo8fB.s 			page 71


 2721 0026 08       		.uleb128 0x8
 2722 0027 00       		.byte	0
 2723 0028 00       		.byte	0
 2724 0029 04       		.uleb128 0x4
 2725 002a 16       		.uleb128 0x16
 2726 002b 00       		.byte	0
 2727 002c 03       		.uleb128 0x3
 2728 002d 0E       		.uleb128 0xe
 2729 002e 3A       		.uleb128 0x3a
 2730 002f 0B       		.uleb128 0xb
 2731 0030 3B       		.uleb128 0x3b
 2732 0031 05       		.uleb128 0x5
 2733 0032 49       		.uleb128 0x49
 2734 0033 13       		.uleb128 0x13
 2735 0034 00       		.byte	0
 2736 0035 00       		.byte	0
 2737 0036 05       		.uleb128 0x5
 2738 0037 35       		.uleb128 0x35
 2739 0038 00       		.byte	0
 2740 0039 49       		.uleb128 0x49
 2741 003a 13       		.uleb128 0x13
 2742 003b 00       		.byte	0
 2743 003c 00       		.byte	0
 2744 003d 06       		.uleb128 0x6
 2745 003e 0F       		.uleb128 0xf
 2746 003f 00       		.byte	0
 2747 0040 0B       		.uleb128 0xb
 2748 0041 0B       		.uleb128 0xb
 2749 0042 00       		.byte	0
 2750 0043 00       		.byte	0
 2751 0044 07       		.uleb128 0x7
 2752 0045 04       		.uleb128 0x4
 2753 0046 01       		.byte	0x1
 2754 0047 0B       		.uleb128 0xb
 2755 0048 0B       		.uleb128 0xb
 2756 0049 3A       		.uleb128 0x3a
 2757 004a 0B       		.uleb128 0xb
 2758 004b 3B       		.uleb128 0x3b
 2759 004c 0B       		.uleb128 0xb
 2760 004d 01       		.uleb128 0x1
 2761 004e 13       		.uleb128 0x13
 2762 004f 00       		.byte	0
 2763 0050 00       		.byte	0
 2764 0051 08       		.uleb128 0x8
 2765 0052 28       		.uleb128 0x28
 2766 0053 00       		.byte	0
 2767 0054 03       		.uleb128 0x3
 2768 0055 0E       		.uleb128 0xe
 2769 0056 1C       		.uleb128 0x1c
 2770 0057 0D       		.uleb128 0xd
 2771 0058 00       		.byte	0
 2772 0059 00       		.byte	0
 2773 005a 09       		.uleb128 0x9
 2774 005b 04       		.uleb128 0x4
 2775 005c 01       		.byte	0x1
 2776 005d 0B       		.uleb128 0xb
 2777 005e 0B       		.uleb128 0xb
ARM GAS  C:\Users\Petro\AppData\Local\Temp\cc6Lo8fB.s 			page 72


 2778 005f 3A       		.uleb128 0x3a
 2779 0060 0B       		.uleb128 0xb
 2780 0061 3B       		.uleb128 0x3b
 2781 0062 05       		.uleb128 0x5
 2782 0063 01       		.uleb128 0x1
 2783 0064 13       		.uleb128 0x13
 2784 0065 00       		.byte	0
 2785 0066 00       		.byte	0
 2786 0067 0A       		.uleb128 0xa
 2787 0068 13       		.uleb128 0x13
 2788 0069 01       		.byte	0x1
 2789 006a 0B       		.uleb128 0xb
 2790 006b 0B       		.uleb128 0xb
 2791 006c 3A       		.uleb128 0x3a
 2792 006d 0B       		.uleb128 0xb
 2793 006e 3B       		.uleb128 0x3b
 2794 006f 05       		.uleb128 0x5
 2795 0070 01       		.uleb128 0x1
 2796 0071 13       		.uleb128 0x13
 2797 0072 00       		.byte	0
 2798 0073 00       		.byte	0
 2799 0074 0B       		.uleb128 0xb
 2800 0075 0D       		.uleb128 0xd
 2801 0076 00       		.byte	0
 2802 0077 03       		.uleb128 0x3
 2803 0078 0E       		.uleb128 0xe
 2804 0079 3A       		.uleb128 0x3a
 2805 007a 0B       		.uleb128 0xb
 2806 007b 3B       		.uleb128 0x3b
 2807 007c 05       		.uleb128 0x5
 2808 007d 49       		.uleb128 0x49
 2809 007e 13       		.uleb128 0x13
 2810 007f 38       		.uleb128 0x38
 2811 0080 0B       		.uleb128 0xb
 2812 0081 00       		.byte	0
 2813 0082 00       		.byte	0
 2814 0083 0C       		.uleb128 0xc
 2815 0084 01       		.uleb128 0x1
 2816 0085 01       		.byte	0x1
 2817 0086 49       		.uleb128 0x49
 2818 0087 13       		.uleb128 0x13
 2819 0088 01       		.uleb128 0x1
 2820 0089 13       		.uleb128 0x13
 2821 008a 00       		.byte	0
 2822 008b 00       		.byte	0
 2823 008c 0D       		.uleb128 0xd
 2824 008d 21       		.uleb128 0x21
 2825 008e 00       		.byte	0
 2826 008f 49       		.uleb128 0x49
 2827 0090 13       		.uleb128 0x13
 2828 0091 2F       		.uleb128 0x2f
 2829 0092 0B       		.uleb128 0xb
 2830 0093 00       		.byte	0
 2831 0094 00       		.byte	0
 2832 0095 0E       		.uleb128 0xe
 2833 0096 16       		.uleb128 0x16
 2834 0097 00       		.byte	0
ARM GAS  C:\Users\Petro\AppData\Local\Temp\cc6Lo8fB.s 			page 73


 2835 0098 03       		.uleb128 0x3
 2836 0099 0E       		.uleb128 0xe
 2837 009a 3A       		.uleb128 0x3a
 2838 009b 0B       		.uleb128 0xb
 2839 009c 3B       		.uleb128 0x3b
 2840 009d 0B       		.uleb128 0xb
 2841 009e 49       		.uleb128 0x49
 2842 009f 13       		.uleb128 0x13
 2843 00a0 00       		.byte	0
 2844 00a1 00       		.byte	0
 2845 00a2 0F       		.uleb128 0xf
 2846 00a3 0F       		.uleb128 0xf
 2847 00a4 00       		.byte	0
 2848 00a5 0B       		.uleb128 0xb
 2849 00a6 0B       		.uleb128 0xb
 2850 00a7 49       		.uleb128 0x49
 2851 00a8 13       		.uleb128 0x13
 2852 00a9 00       		.byte	0
 2853 00aa 00       		.byte	0
 2854 00ab 10       		.uleb128 0x10
 2855 00ac 13       		.uleb128 0x13
 2856 00ad 01       		.byte	0x1
 2857 00ae 0B       		.uleb128 0xb
 2858 00af 0B       		.uleb128 0xb
 2859 00b0 3A       		.uleb128 0x3a
 2860 00b1 0B       		.uleb128 0xb
 2861 00b2 3B       		.uleb128 0x3b
 2862 00b3 0B       		.uleb128 0xb
 2863 00b4 01       		.uleb128 0x1
 2864 00b5 13       		.uleb128 0x13
 2865 00b6 00       		.byte	0
 2866 00b7 00       		.byte	0
 2867 00b8 11       		.uleb128 0x11
 2868 00b9 0D       		.uleb128 0xd
 2869 00ba 00       		.byte	0
 2870 00bb 03       		.uleb128 0x3
 2871 00bc 0E       		.uleb128 0xe
 2872 00bd 3A       		.uleb128 0x3a
 2873 00be 0B       		.uleb128 0xb
 2874 00bf 3B       		.uleb128 0x3b
 2875 00c0 0B       		.uleb128 0xb
 2876 00c1 49       		.uleb128 0x49
 2877 00c2 13       		.uleb128 0x13
 2878 00c3 38       		.uleb128 0x38
 2879 00c4 0B       		.uleb128 0xb
 2880 00c5 00       		.byte	0
 2881 00c6 00       		.byte	0
 2882 00c7 12       		.uleb128 0x12
 2883 00c8 17       		.uleb128 0x17
 2884 00c9 01       		.byte	0x1
 2885 00ca 0B       		.uleb128 0xb
 2886 00cb 0B       		.uleb128 0xb
 2887 00cc 3A       		.uleb128 0x3a
 2888 00cd 0B       		.uleb128 0xb
 2889 00ce 3B       		.uleb128 0x3b
 2890 00cf 0B       		.uleb128 0xb
 2891 00d0 01       		.uleb128 0x1
ARM GAS  C:\Users\Petro\AppData\Local\Temp\cc6Lo8fB.s 			page 74


 2892 00d1 13       		.uleb128 0x13
 2893 00d2 00       		.byte	0
 2894 00d3 00       		.byte	0
 2895 00d4 13       		.uleb128 0x13
 2896 00d5 0D       		.uleb128 0xd
 2897 00d6 00       		.byte	0
 2898 00d7 03       		.uleb128 0x3
 2899 00d8 0E       		.uleb128 0xe
 2900 00d9 3A       		.uleb128 0x3a
 2901 00da 0B       		.uleb128 0xb
 2902 00db 3B       		.uleb128 0x3b
 2903 00dc 0B       		.uleb128 0xb
 2904 00dd 49       		.uleb128 0x49
 2905 00de 13       		.uleb128 0x13
 2906 00df 00       		.byte	0
 2907 00e0 00       		.byte	0
 2908 00e1 14       		.uleb128 0x14
 2909 00e2 15       		.uleb128 0x15
 2910 00e3 01       		.byte	0x1
 2911 00e4 27       		.uleb128 0x27
 2912 00e5 19       		.uleb128 0x19
 2913 00e6 01       		.uleb128 0x1
 2914 00e7 13       		.uleb128 0x13
 2915 00e8 00       		.byte	0
 2916 00e9 00       		.byte	0
 2917 00ea 15       		.uleb128 0x15
 2918 00eb 05       		.uleb128 0x5
 2919 00ec 00       		.byte	0
 2920 00ed 49       		.uleb128 0x49
 2921 00ee 13       		.uleb128 0x13
 2922 00ef 00       		.byte	0
 2923 00f0 00       		.byte	0
 2924 00f1 16       		.uleb128 0x16
 2925 00f2 13       		.uleb128 0x13
 2926 00f3 01       		.byte	0x1
 2927 00f4 0B       		.uleb128 0xb
 2928 00f5 05       		.uleb128 0x5
 2929 00f6 3A       		.uleb128 0x3a
 2930 00f7 0B       		.uleb128 0xb
 2931 00f8 3B       		.uleb128 0x3b
 2932 00f9 0B       		.uleb128 0xb
 2933 00fa 01       		.uleb128 0x1
 2934 00fb 13       		.uleb128 0x13
 2935 00fc 00       		.byte	0
 2936 00fd 00       		.byte	0
 2937 00fe 17       		.uleb128 0x17
 2938 00ff 0D       		.uleb128 0xd
 2939 0100 00       		.byte	0
 2940 0101 03       		.uleb128 0x3
 2941 0102 0E       		.uleb128 0xe
 2942 0103 3A       		.uleb128 0x3a
 2943 0104 0B       		.uleb128 0xb
 2944 0105 3B       		.uleb128 0x3b
 2945 0106 0B       		.uleb128 0xb
 2946 0107 49       		.uleb128 0x49
 2947 0108 13       		.uleb128 0x13
 2948 0109 38       		.uleb128 0x38
ARM GAS  C:\Users\Petro\AppData\Local\Temp\cc6Lo8fB.s 			page 75


 2949 010a 05       		.uleb128 0x5
 2950 010b 00       		.byte	0
 2951 010c 00       		.byte	0
 2952 010d 18       		.uleb128 0x18
 2953 010e 21       		.uleb128 0x21
 2954 010f 00       		.byte	0
 2955 0110 49       		.uleb128 0x49
 2956 0111 13       		.uleb128 0x13
 2957 0112 2F       		.uleb128 0x2f
 2958 0113 05       		.uleb128 0x5
 2959 0114 00       		.byte	0
 2960 0115 00       		.byte	0
 2961 0116 19       		.uleb128 0x19
 2962 0117 2E       		.uleb128 0x2e
 2963 0118 00       		.byte	0
 2964 0119 3F       		.uleb128 0x3f
 2965 011a 19       		.uleb128 0x19
 2966 011b 03       		.uleb128 0x3
 2967 011c 0E       		.uleb128 0xe
 2968 011d 3A       		.uleb128 0x3a
 2969 011e 0B       		.uleb128 0xb
 2970 011f 3B       		.uleb128 0x3b
 2971 0120 0B       		.uleb128 0xb
 2972 0121 27       		.uleb128 0x27
 2973 0122 19       		.uleb128 0x19
 2974 0123 11       		.uleb128 0x11
 2975 0124 01       		.uleb128 0x1
 2976 0125 12       		.uleb128 0x12
 2977 0126 06       		.uleb128 0x6
 2978 0127 40       		.uleb128 0x40
 2979 0128 18       		.uleb128 0x18
 2980 0129 9642     		.uleb128 0x2116
 2981 012b 19       		.uleb128 0x19
 2982 012c 00       		.byte	0
 2983 012d 00       		.byte	0
 2984 012e 1A       		.uleb128 0x1a
 2985 012f 2E       		.uleb128 0x2e
 2986 0130 01       		.byte	0x1
 2987 0131 3F       		.uleb128 0x3f
 2988 0132 19       		.uleb128 0x19
 2989 0133 03       		.uleb128 0x3
 2990 0134 0E       		.uleb128 0xe
 2991 0135 3A       		.uleb128 0x3a
 2992 0136 0B       		.uleb128 0xb
 2993 0137 3B       		.uleb128 0x3b
 2994 0138 05       		.uleb128 0x5
 2995 0139 27       		.uleb128 0x27
 2996 013a 19       		.uleb128 0x19
 2997 013b 49       		.uleb128 0x49
 2998 013c 13       		.uleb128 0x13
 2999 013d 11       		.uleb128 0x11
 3000 013e 01       		.uleb128 0x1
 3001 013f 12       		.uleb128 0x12
 3002 0140 06       		.uleb128 0x6
 3003 0141 40       		.uleb128 0x40
 3004 0142 18       		.uleb128 0x18
 3005 0143 9642     		.uleb128 0x2116
ARM GAS  C:\Users\Petro\AppData\Local\Temp\cc6Lo8fB.s 			page 76


 3006 0145 19       		.uleb128 0x19
 3007 0146 01       		.uleb128 0x1
 3008 0147 13       		.uleb128 0x13
 3009 0148 00       		.byte	0
 3010 0149 00       		.byte	0
 3011 014a 1B       		.uleb128 0x1b
 3012 014b 05       		.uleb128 0x5
 3013 014c 00       		.byte	0
 3014 014d 03       		.uleb128 0x3
 3015 014e 0E       		.uleb128 0xe
 3016 014f 3A       		.uleb128 0x3a
 3017 0150 0B       		.uleb128 0xb
 3018 0151 3B       		.uleb128 0x3b
 3019 0152 05       		.uleb128 0x5
 3020 0153 49       		.uleb128 0x49
 3021 0154 13       		.uleb128 0x13
 3022 0155 02       		.uleb128 0x2
 3023 0156 18       		.uleb128 0x18
 3024 0157 00       		.byte	0
 3025 0158 00       		.byte	0
 3026 0159 1C       		.uleb128 0x1c
 3027 015a 34       		.uleb128 0x34
 3028 015b 00       		.byte	0
 3029 015c 03       		.uleb128 0x3
 3030 015d 0E       		.uleb128 0xe
 3031 015e 3A       		.uleb128 0x3a
 3032 015f 0B       		.uleb128 0xb
 3033 0160 3B       		.uleb128 0x3b
 3034 0161 05       		.uleb128 0x5
 3035 0162 49       		.uleb128 0x49
 3036 0163 13       		.uleb128 0x13
 3037 0164 02       		.uleb128 0x2
 3038 0165 18       		.uleb128 0x18
 3039 0166 00       		.byte	0
 3040 0167 00       		.byte	0
 3041 0168 1D       		.uleb128 0x1d
 3042 0169 2E       		.uleb128 0x2e
 3043 016a 00       		.byte	0
 3044 016b 3F       		.uleb128 0x3f
 3045 016c 19       		.uleb128 0x19
 3046 016d 03       		.uleb128 0x3
 3047 016e 0E       		.uleb128 0xe
 3048 016f 3A       		.uleb128 0x3a
 3049 0170 0B       		.uleb128 0xb
 3050 0171 3B       		.uleb128 0x3b
 3051 0172 05       		.uleb128 0x5
 3052 0173 27       		.uleb128 0x27
 3053 0174 19       		.uleb128 0x19
 3054 0175 11       		.uleb128 0x11
 3055 0176 01       		.uleb128 0x1
 3056 0177 12       		.uleb128 0x12
 3057 0178 06       		.uleb128 0x6
 3058 0179 40       		.uleb128 0x40
 3059 017a 18       		.uleb128 0x18
 3060 017b 9642     		.uleb128 0x2116
 3061 017d 19       		.uleb128 0x19
 3062 017e 00       		.byte	0
ARM GAS  C:\Users\Petro\AppData\Local\Temp\cc6Lo8fB.s 			page 77


 3063 017f 00       		.byte	0
 3064 0180 1E       		.uleb128 0x1e
 3065 0181 2E       		.uleb128 0x2e
 3066 0182 01       		.byte	0x1
 3067 0183 3F       		.uleb128 0x3f
 3068 0184 19       		.uleb128 0x19
 3069 0185 03       		.uleb128 0x3
 3070 0186 0E       		.uleb128 0xe
 3071 0187 3A       		.uleb128 0x3a
 3072 0188 0B       		.uleb128 0xb
 3073 0189 3B       		.uleb128 0x3b
 3074 018a 05       		.uleb128 0x5
 3075 018b 27       		.uleb128 0x27
 3076 018c 19       		.uleb128 0x19
 3077 018d 11       		.uleb128 0x11
 3078 018e 01       		.uleb128 0x1
 3079 018f 12       		.uleb128 0x12
 3080 0190 06       		.uleb128 0x6
 3081 0191 40       		.uleb128 0x40
 3082 0192 18       		.uleb128 0x18
 3083 0193 9742     		.uleb128 0x2117
 3084 0195 19       		.uleb128 0x19
 3085 0196 01       		.uleb128 0x1
 3086 0197 13       		.uleb128 0x13
 3087 0198 00       		.byte	0
 3088 0199 00       		.byte	0
 3089 019a 1F       		.uleb128 0x1f
 3090 019b 34       		.uleb128 0x34
 3091 019c 00       		.byte	0
 3092 019d 03       		.uleb128 0x3
 3093 019e 08       		.uleb128 0x8
 3094 019f 3A       		.uleb128 0x3a
 3095 01a0 0B       		.uleb128 0xb
 3096 01a1 3B       		.uleb128 0x3b
 3097 01a2 05       		.uleb128 0x5
 3098 01a3 49       		.uleb128 0x49
 3099 01a4 13       		.uleb128 0x13
 3100 01a5 02       		.uleb128 0x2
 3101 01a6 18       		.uleb128 0x18
 3102 01a7 00       		.byte	0
 3103 01a8 00       		.byte	0
 3104 01a9 20       		.uleb128 0x20
 3105 01aa 26       		.uleb128 0x26
 3106 01ab 00       		.byte	0
 3107 01ac 49       		.uleb128 0x49
 3108 01ad 13       		.uleb128 0x13
 3109 01ae 00       		.byte	0
 3110 01af 00       		.byte	0
 3111 01b0 21       		.uleb128 0x21
 3112 01b1 2E       		.uleb128 0x2e
 3113 01b2 01       		.byte	0x1
 3114 01b3 03       		.uleb128 0x3
 3115 01b4 0E       		.uleb128 0xe
 3116 01b5 3A       		.uleb128 0x3a
 3117 01b6 0B       		.uleb128 0xb
 3118 01b7 3B       		.uleb128 0x3b
 3119 01b8 05       		.uleb128 0x5
ARM GAS  C:\Users\Petro\AppData\Local\Temp\cc6Lo8fB.s 			page 78


 3120 01b9 27       		.uleb128 0x27
 3121 01ba 19       		.uleb128 0x19
 3122 01bb 11       		.uleb128 0x11
 3123 01bc 01       		.uleb128 0x1
 3124 01bd 12       		.uleb128 0x12
 3125 01be 06       		.uleb128 0x6
 3126 01bf 40       		.uleb128 0x40
 3127 01c0 18       		.uleb128 0x18
 3128 01c1 9742     		.uleb128 0x2117
 3129 01c3 19       		.uleb128 0x19
 3130 01c4 01       		.uleb128 0x1
 3131 01c5 13       		.uleb128 0x13
 3132 01c6 00       		.byte	0
 3133 01c7 00       		.byte	0
 3134 01c8 22       		.uleb128 0x22
 3135 01c9 2E       		.uleb128 0x2e
 3136 01ca 01       		.byte	0x1
 3137 01cb 3F       		.uleb128 0x3f
 3138 01cc 19       		.uleb128 0x19
 3139 01cd 03       		.uleb128 0x3
 3140 01ce 0E       		.uleb128 0xe
 3141 01cf 3A       		.uleb128 0x3a
 3142 01d0 0B       		.uleb128 0xb
 3143 01d1 3B       		.uleb128 0x3b
 3144 01d2 05       		.uleb128 0x5
 3145 01d3 27       		.uleb128 0x27
 3146 01d4 19       		.uleb128 0x19
 3147 01d5 49       		.uleb128 0x49
 3148 01d6 13       		.uleb128 0x13
 3149 01d7 11       		.uleb128 0x11
 3150 01d8 01       		.uleb128 0x1
 3151 01d9 12       		.uleb128 0x12
 3152 01da 06       		.uleb128 0x6
 3153 01db 40       		.uleb128 0x40
 3154 01dc 18       		.uleb128 0x18
 3155 01dd 9742     		.uleb128 0x2117
 3156 01df 19       		.uleb128 0x19
 3157 01e0 01       		.uleb128 0x1
 3158 01e1 13       		.uleb128 0x13
 3159 01e2 00       		.byte	0
 3160 01e3 00       		.byte	0
 3161 01e4 23       		.uleb128 0x23
 3162 01e5 05       		.uleb128 0x5
 3163 01e6 00       		.byte	0
 3164 01e7 03       		.uleb128 0x3
 3165 01e8 08       		.uleb128 0x8
 3166 01e9 3A       		.uleb128 0x3a
 3167 01ea 0B       		.uleb128 0xb
 3168 01eb 3B       		.uleb128 0x3b
 3169 01ec 05       		.uleb128 0x5
 3170 01ed 49       		.uleb128 0x49
 3171 01ee 13       		.uleb128 0x13
 3172 01ef 02       		.uleb128 0x2
 3173 01f0 18       		.uleb128 0x18
 3174 01f1 00       		.byte	0
 3175 01f2 00       		.byte	0
 3176 01f3 24       		.uleb128 0x24
ARM GAS  C:\Users\Petro\AppData\Local\Temp\cc6Lo8fB.s 			page 79


 3177 01f4 34       		.uleb128 0x34
 3178 01f5 00       		.byte	0
 3179 01f6 03       		.uleb128 0x3
 3180 01f7 0E       		.uleb128 0xe
 3181 01f8 3A       		.uleb128 0x3a
 3182 01f9 0B       		.uleb128 0xb
 3183 01fa 3B       		.uleb128 0x3b
 3184 01fb 0B       		.uleb128 0xb
 3185 01fc 49       		.uleb128 0x49
 3186 01fd 13       		.uleb128 0x13
 3187 01fe 3F       		.uleb128 0x3f
 3188 01ff 19       		.uleb128 0x19
 3189 0200 02       		.uleb128 0x2
 3190 0201 18       		.uleb128 0x18
 3191 0202 00       		.byte	0
 3192 0203 00       		.byte	0
 3193 0204 25       		.uleb128 0x25
 3194 0205 34       		.uleb128 0x34
 3195 0206 00       		.byte	0
 3196 0207 03       		.uleb128 0x3
 3197 0208 0E       		.uleb128 0xe
 3198 0209 3A       		.uleb128 0x3a
 3199 020a 0B       		.uleb128 0xb
 3200 020b 3B       		.uleb128 0x3b
 3201 020c 05       		.uleb128 0x5
 3202 020d 49       		.uleb128 0x49
 3203 020e 13       		.uleb128 0x13
 3204 020f 3F       		.uleb128 0x3f
 3205 0210 19       		.uleb128 0x19
 3206 0211 3C       		.uleb128 0x3c
 3207 0212 19       		.uleb128 0x19
 3208 0213 00       		.byte	0
 3209 0214 00       		.byte	0
 3210 0215 26       		.uleb128 0x26
 3211 0216 34       		.uleb128 0x34
 3212 0217 00       		.byte	0
 3213 0218 03       		.uleb128 0x3
 3214 0219 0E       		.uleb128 0xe
 3215 021a 3A       		.uleb128 0x3a
 3216 021b 0B       		.uleb128 0xb
 3217 021c 3B       		.uleb128 0x3b
 3218 021d 0B       		.uleb128 0xb
 3219 021e 49       		.uleb128 0x49
 3220 021f 13       		.uleb128 0x13
 3221 0220 3F       		.uleb128 0x3f
 3222 0221 19       		.uleb128 0x19
 3223 0222 3C       		.uleb128 0x3c
 3224 0223 19       		.uleb128 0x19
 3225 0224 00       		.byte	0
 3226 0225 00       		.byte	0
 3227 0226 00       		.byte	0
 3228              		.section	.debug_aranges,"",%progbits
 3229 0000 74000000 		.4byte	0x74
 3230 0004 0200     		.2byte	0x2
 3231 0006 00000000 		.4byte	.Ldebug_info0
 3232 000a 04       		.byte	0x4
 3233 000b 00       		.byte	0
ARM GAS  C:\Users\Petro\AppData\Local\Temp\cc6Lo8fB.s 			page 80


 3234 000c 0000     		.2byte	0
 3235 000e 0000     		.2byte	0
 3236 0010 00000000 		.4byte	.LFB2
 3237 0014 2C000000 		.4byte	.LFE2-.LFB2
 3238 0018 00000000 		.4byte	.LFB3
 3239 001c 10000000 		.4byte	.LFE3-.LFB3
 3240 0020 00000000 		.4byte	.LFB4
 3241 0024 D4000000 		.4byte	.LFE4-.LFB4
 3242 0028 00000000 		.4byte	.LFB5
 3243 002c 18000000 		.4byte	.LFE5-.LFB5
 3244 0030 00000000 		.4byte	.LFB6
 3245 0034 D4000000 		.4byte	.LFE6-.LFB6
 3246 0038 00000000 		.4byte	.LFB7
 3247 003c 20000000 		.4byte	.LFE7-.LFB7
 3248 0040 00000000 		.4byte	.LFB8
 3249 0044 60000000 		.4byte	.LFE8-.LFB8
 3250 0048 00000000 		.4byte	.LFB9
 3251 004c A4010000 		.4byte	.LFE9-.LFB9
 3252 0050 00000000 		.4byte	.LFB10
 3253 0054 C8000000 		.4byte	.LFE10-.LFB10
 3254 0058 00000000 		.4byte	.LFB11
 3255 005c A4000000 		.4byte	.LFE11-.LFB11
 3256 0060 00000000 		.4byte	.LFB12
 3257 0064 26000000 		.4byte	.LFE12-.LFB12
 3258 0068 00000000 		.4byte	.LFB13
 3259 006c 2E000000 		.4byte	.LFE13-.LFB13
 3260 0070 00000000 		.4byte	0
 3261 0074 00000000 		.4byte	0
 3262              		.section	.debug_ranges,"",%progbits
 3263              	.Ldebug_ranges0:
 3264 0000 00000000 		.4byte	.LFB2
 3265 0004 2C000000 		.4byte	.LFE2
 3266 0008 00000000 		.4byte	.LFB3
 3267 000c 10000000 		.4byte	.LFE3
 3268 0010 00000000 		.4byte	.LFB4
 3269 0014 D4000000 		.4byte	.LFE4
 3270 0018 00000000 		.4byte	.LFB5
 3271 001c 18000000 		.4byte	.LFE5
 3272 0020 00000000 		.4byte	.LFB6
 3273 0024 D4000000 		.4byte	.LFE6
 3274 0028 00000000 		.4byte	.LFB7
 3275 002c 20000000 		.4byte	.LFE7
 3276 0030 00000000 		.4byte	.LFB8
 3277 0034 60000000 		.4byte	.LFE8
 3278 0038 00000000 		.4byte	.LFB9
 3279 003c A4010000 		.4byte	.LFE9
 3280 0040 00000000 		.4byte	.LFB10
 3281 0044 C8000000 		.4byte	.LFE10
 3282 0048 00000000 		.4byte	.LFB11
 3283 004c A4000000 		.4byte	.LFE11
 3284 0050 00000000 		.4byte	.LFB12
 3285 0054 26000000 		.4byte	.LFE12
 3286 0058 00000000 		.4byte	.LFB13
 3287 005c 2E000000 		.4byte	.LFE13
 3288 0060 00000000 		.4byte	0
 3289 0064 00000000 		.4byte	0
 3290              		.section	.debug_line,"",%progbits
ARM GAS  C:\Users\Petro\AppData\Local\Temp\cc6Lo8fB.s 			page 81


 3291              	.Ldebug_line0:
 3292 0000 60020000 		.section	.debug_str,"MS",%progbits,1
 3292      0200B200 
 3292      00000201 
 3292      FB0E0D00 
 3292      01010101 
 3293              	.LASF68:
 3294 0000 4359424C 		.ascii	"CYBLE_EVT_L2CAP_CBFC_RX_CREDIT_IND\000"
 3294      455F4556 
 3294      545F4C32 
 3294      4341505F 
 3294      43424643 
 3295              	.LASF22:
 3296 0023 4359424C 		.ascii	"CYBLE_EVT_STACK_BUSY_STATUS\000"
 3296      455F4556 
 3296      545F5354 
 3296      41434B5F 
 3296      42555359 
 3297              	.LASF165:
 3298 003f 4359424C 		.ascii	"CYBLE_STATE_STOPPED\000"
 3298      455F5354 
 3298      4154455F 
 3298      53544F50 
 3298      50454400 
 3299              	.LASF67:
 3300 0053 4359424C 		.ascii	"CYBLE_EVT_L2CAP_CBFC_DATA_READ\000"
 3300      455F4556 
 3300      545F4C32 
 3300      4341505F 
 3300      43424643 
 3301              	.LASF202:
 3302 0072 6379426C 		.ascii	"cyBle_discoveryParam\000"
 3302      655F6469 
 3302      73636F76 
 3302      65727950 
 3302      6172616D 
 3303              	.LASF77:
 3304 0087 4359424C 		.ascii	"CYBLE_ERROR_MEMORY_ALLOCATION_FAILED\000"
 3304      455F4552 
 3304      524F525F 
 3304      4D454D4F 
 3304      52595F41 
 3305              	.LASF126:
 3306 00ac 4359424C 		.ascii	"CYBLE_GAPP_DISC_DATA_T\000"
 3306      455F4741 
 3306      50505F44 
 3306      4953435F 
 3306      44415441 
 3307              	.LASF212:
 3308 00c3 2E5C4765 		.ascii	".\\Generated_Source\\PSoC4\\BLE.c\000"
 3308      6E657261 
 3308      7465645F 
 3308      536F7572 
 3308      63655C50 
 3309              	.LASF33:
 3310 00e2 4359424C 		.ascii	"CYBLE_EVT_GAP_CONNECTION_UPDATE_COMPLETE\000"
 3310      455F4556 
ARM GAS  C:\Users\Petro\AppData\Local\Temp\cc6Lo8fB.s 			page 82


 3310      545F4741 
 3310      505F434F 
 3310      4E4E4543 
 3311              	.LASF121:
 3312 010b 61647643 		.ascii	"advChannelMap\000"
 3312      68616E6E 
 3312      656C4D61 
 3312      7000
 3313              	.LASF66:
 3314 0119 4359424C 		.ascii	"CYBLE_EVT_L2CAP_CBFC_DISCONN_CNF\000"
 3314      455F4556 
 3314      545F4C32 
 3314      4341505F 
 3314      43424643 
 3315              	.LASF110:
 3316 013a 4359424C 		.ascii	"CYBLE_GAPP_CONNECTABLE_HIGH_DC_DIRECTED_ADV\000"
 3316      455F4741 
 3316      50505F43 
 3316      4F4E4E45 
 3316      43544142 
 3317              	.LASF47:
 3318 0166 4359424C 		.ascii	"CYBLE_EVT_GATTC_READ_MULTI_RSP\000"
 3318      455F4556 
 3318      545F4741 
 3318      5454435F 
 3318      52454144 
 3319              	.LASF52:
 3320 0185 4359424C 		.ascii	"CYBLE_EVT_GATTS_EXEC_WRITE_REQ\000"
 3320      455F4556 
 3320      545F4741 
 3320      5454535F 
 3320      45584543 
 3321              	.LASF197:
 3322 01a4 6379426C 		.ascii	"cyBle_stackMemoryRam\000"
 3322      655F7374 
 3322      61636B4D 
 3322      656D6F72 
 3322      7952616D 
 3323              	.LASF111:
 3324 01b9 4359424C 		.ascii	"CYBLE_GAPP_SCANNABLE_UNDIRECTED_ADV\000"
 3324      455F4741 
 3324      50505F53 
 3324      43414E4E 
 3324      41424C45 
 3325              	.LASF191:
 3326 01dd 4379426C 		.ascii	"CyBle_Get16ByPtr\000"
 3326      655F4765 
 3326      74313642 
 3326      79507472 
 3326      00
 3327              	.LASF104:
 3328 01ee 74797065 		.ascii	"type\000"
 3328      00
 3329              	.LASF19:
 3330 01f3 4359424C 		.ascii	"CYBLE_EVT_TIMEOUT\000"
 3330      455F4556 
 3330      545F5449 
ARM GAS  C:\Users\Petro\AppData\Local\Temp\cc6Lo8fB.s 			page 83


 3330      4D454F55 
 3330      5400
 3331              	.LASF4:
 3332 0205 6C6F6E67 		.ascii	"long int\000"
 3332      20696E74 
 3332      00
 3333              	.LASF180:
 3334 020e 4379426C 		.ascii	"CyBle_GappStopAdvertisement\000"
 3334      655F4761 
 3334      70705374 
 3334      6F704164 
 3334      76657274 
 3335              	.LASF203:
 3336 022a 6379426C 		.ascii	"cyBle_discoveryData\000"
 3336      655F6469 
 3336      73636F76 
 3336      65727944 
 3336      61746100 
 3337              	.LASF87:
 3338 023e 4359424C 		.ascii	"CYBLE_ERROR_L2CAP_PSM_WRONG_ENCODING\000"
 3338      455F4552 
 3338      524F525F 
 3338      4C324341 
 3338      505F5053 
 3339              	.LASF78:
 3340 0263 4359424C 		.ascii	"CYBLE_ERROR_INSUFFICIENT_RESOURCES\000"
 3340      455F4552 
 3340      524F525F 
 3340      494E5355 
 3340      46464943 
 3341              	.LASF21:
 3342 0286 4359424C 		.ascii	"CYBLE_EVT_HCI_STATUS\000"
 3342      455F4556 
 3342      545F4843 
 3342      495F5354 
 3342      41545553 
 3343              	.LASF117:
 3344 029b 61647654 		.ascii	"advType\000"
 3344      79706500 
 3345              	.LASF34:
 3346 02a3 4359424C 		.ascii	"CYBLE_EVT_GAPC_SCAN_START_STOP\000"
 3346      455F4556 
 3346      545F4741 
 3346      50435F53 
 3346      43414E5F 
 3347              	.LASF209:
 3348 02c2 6379426C 		.ascii	"cyBle_busyStatus\000"
 3348      655F6275 
 3348      73795374 
 3348      61747573 
 3348      00
 3349              	.LASF109:
 3350 02d3 4359424C 		.ascii	"CYBLE_GAPP_CONNECTABLE_UNDIRECTED_ADV\000"
 3350      455F4741 
 3350      50505F43 
 3350      4F4E4E45 
 3350      43544142 
ARM GAS  C:\Users\Petro\AppData\Local\Temp\cc6Lo8fB.s 			page 84


 3351              	.LASF105:
 3352 02f9 4359424C 		.ascii	"CYBLE_GAP_BD_ADDR_T\000"
 3352      455F4741 
 3352      505F4244 
 3352      5F414444 
 3352      525F5400 
 3353              	.LASF86:
 3354 030d 4359424C 		.ascii	"CYBLE_ERROR_SEC_FAILED\000"
 3354      455F4552 
 3354      524F525F 
 3354      5345435F 
 3354      4641494C 
 3355              	.LASF91:
 3356 0324 4359424C 		.ascii	"CYBLE_ERROR_L2CAP_CHANNEL_NOT_FOUND\000"
 3356      455F4552 
 3356      524F525F 
 3356      4C324341 
 3356      505F4348 
 3357              	.LASF32:
 3358 0348 4359424C 		.ascii	"CYBLE_EVT_GAP_ENCRYPT_CHANGE\000"
 3358      455F4556 
 3358      545F4741 
 3358      505F454E 
 3358      43525950 
 3359              	.LASF108:
 3360 0365 4359424C 		.ascii	"CYBLE_STK_APP_DATA_BUFF_T\000"
 3360      455F5354 
 3360      4B5F4150 
 3360      505F4441 
 3360      54415F42 
 3361              	.LASF69:
 3362 037f 4359424C 		.ascii	"CYBLE_EVT_L2CAP_CBFC_TX_CREDIT_IND\000"
 3362      455F4556 
 3362      545F4C32 
 3362      4341505F 
 3362      43424643 
 3363              	.LASF168:
 3364 03a2 4359424C 		.ascii	"CYBLE_STATE_ADVERTISING\000"
 3364      455F5354 
 3364      4154455F 
 3364      41445645 
 3364      52544953 
 3365              	.LASF6:
 3366 03ba 6C6F6E67 		.ascii	"long long int\000"
 3366      206C6F6E 
 3366      6720696E 
 3366      7400
 3367              	.LASF0:
 3368 03c8 7369676E 		.ascii	"signed char\000"
 3368      65642063 
 3368      68617200 
 3369              	.LASF18:
 3370 03d4 4359424C 		.ascii	"CYBLE_EVT_STACK_ON\000"
 3370      455F4556 
 3370      545F5354 
 3370      41434B5F 
 3370      4F4E00
ARM GAS  C:\Users\Petro\AppData\Local\Temp\cc6Lo8fB.s 			page 85


 3371              	.LASF94:
 3372 03e7 4359424C 		.ascii	"CYBLE_ERROR_DEVICE_ALREADY_EXISTS\000"
 3372      455F4552 
 3372      524F525F 
 3372      44455649 
 3372      43455F41 
 3373              	.LASF81:
 3374 0409 4359424C 		.ascii	"CYBLE_ERROR_NO_DEVICE_ENTITY\000"
 3374      455F4552 
 3374      524F525F 
 3374      4E4F5F44 
 3374      45564943 
 3375              	.LASF120:
 3376 0426 64697265 		.ascii	"directAddr\000"
 3376      63744164 
 3376      647200
 3377              	.LASF24:
 3378 0431 4359424C 		.ascii	"CYBLE_EVT_GAP_AUTH_REQ\000"
 3378      455F4556 
 3378      545F4741 
 3378      505F4155 
 3378      54485F52 
 3379              	.LASF145:
 3380 0448 7065726D 		.ascii	"permission\000"
 3380      69737369 
 3380      6F6E00
 3381              	.LASF45:
 3382 0453 4359424C 		.ascii	"CYBLE_EVT_GATTC_READ_RSP\000"
 3382      455F4556 
 3382      545F4741 
 3382      5454435F 
 3382      52454144 
 3383              	.LASF101:
 3384 046c 4359424C 		.ascii	"CYBLE_ERROR_INVALID_STATE\000"
 3384      455F4552 
 3384      524F525F 
 3384      494E5641 
 3384      4C49445F 
 3385              	.LASF122:
 3386 0486 61647646 		.ascii	"advFilterPolicy\000"
 3386      696C7465 
 3386      72506F6C 
 3386      69637900 
 3387              	.LASF50:
 3388 0496 4359424C 		.ascii	"CYBLE_EVT_GATTS_WRITE_CMD_REQ\000"
 3388      455F4556 
 3388      545F4741 
 3388      5454535F 
 3388      57524954 
 3389              	.LASF116:
 3390 04b4 61647649 		.ascii	"advIntvMax\000"
 3390      6E74764D 
 3390      617800
 3391              	.LASF169:
 3392 04bf 4359424C 		.ascii	"CYBLE_STATE_DISCONNECTED\000"
 3392      455F5354 
 3392      4154455F 
ARM GAS  C:\Users\Petro\AppData\Local\Temp\cc6Lo8fB.s 			page 86


 3392      44495343 
 3392      4F4E4E45 
 3393              	.LASF29:
 3394 04d8 4359424C 		.ascii	"CYBLE_EVT_GAPP_ADVERTISEMENT_START_STOP\000"
 3394      455F4556 
 3394      545F4741 
 3394      50505F41 
 3394      44564552 
 3395              	.LASF92:
 3396 0500 4359424C 		.ascii	"CYBLE_ERROR_L2CAP_PSM_NOT_IN_RANGE\000"
 3396      455F4552 
 3396      524F525F 
 3396      4C324341 
 3396      505F5053 
 3397              	.LASF39:
 3398 0523 4359424C 		.ascii	"CYBLE_EVT_GATTS_XCNHG_MTU_REQ\000"
 3398      455F4556 
 3398      545F4741 
 3398      5454535F 
 3398      58434E48 
 3399              	.LASF9:
 3400 0541 75696E74 		.ascii	"uint8\000"
 3400      3800
 3401              	.LASF127:
 3402 0547 7363616E 		.ascii	"scanRspData\000"
 3402      52737044 
 3402      61746100 
 3403              	.LASF103:
 3404 0553 62644164 		.ascii	"bdAddr\000"
 3404      647200
 3405              	.LASF53:
 3406 055a 4359424C 		.ascii	"CYBLE_EVT_GATTC_EXEC_WRITE_RSP\000"
 3406      455F4556 
 3406      545F4741 
 3406      5454435F 
 3406      45584543 
 3407              	.LASF139:
 3408 0579 4359424C 		.ascii	"CYBLE_GATTS_ATT_PACK_VAL_LEN_T\000"
 3408      455F4741 
 3408      5454535F 
 3408      4154545F 
 3408      5041434B 
 3409              	.LASF13:
 3410 0598 646F7562 		.ascii	"double\000"
 3410      6C6500
 3411              	.LASF130:
 3412 059f 64697363 		.ascii	"discMode\000"
 3412      4D6F6465 
 3412      00
 3413              	.LASF75:
 3414 05a8 4359424C 		.ascii	"CYBLE_ERROR_INVALID_PARAMETER\000"
 3414      455F4552 
 3414      524F525F 
 3414      494E5641 
 3414      4C49445F 
 3415              	.LASF150:
 3416 05c6 73746163 		.ascii	"stackFlashptr\000"
ARM GAS  C:\Users\Petro\AppData\Local\Temp\cc6Lo8fB.s 			page 87


 3416      6B466C61 
 3416      73687074 
 3416      7200
 3417              	.LASF142:
 3418 05d4 4359424C 		.ascii	"CYBLE_GATTS_ATT_VALUE_T\000"
 3418      455F4741 
 3418      5454535F 
 3418      4154545F 
 3418      56414C55 
 3419              	.LASF159:
 3420 05ec 4359424C 		.ascii	"CYBLE_DIS_FIRMWARE_REV\000"
 3420      455F4449 
 3420      535F4649 
 3420      524D5741 
 3420      52455F52 
 3421              	.LASF143:
 3422 0603 61747448 		.ascii	"attHandle\000"
 3422      616E646C 
 3422      6500
 3423              	.LASF11:
 3424 060d 75696E74 		.ascii	"uint32\000"
 3424      333200
 3425              	.LASF182:
 3426 0614 64657374 		.ascii	"destBuffer\000"
 3426      42756666 
 3426      657200
 3427              	.LASF158:
 3428 061f 4359424C 		.ascii	"CYBLE_DIS_HARDWARE_REV\000"
 3428      455F4449 
 3428      535F4841 
 3428      52445741 
 3428      52455F52 
 3429              	.LASF73:
 3430 0636 4359424C 		.ascii	"CYBLE_EVT_MAX\000"
 3430      455F4556 
 3430      545F4D41 
 3430      5800
 3431              	.LASF74:
 3432 0644 4359424C 		.ascii	"CYBLE_ERROR_OK\000"
 3432      455F4552 
 3432      524F525F 
 3432      4F4B00
 3433              	.LASF36:
 3434 0653 4359424C 		.ascii	"CYBLE_EVT_GATTC_ERROR_RSP\000"
 3434      455F4556 
 3434      545F4741 
 3434      5454435F 
 3434      4552524F 
 3435              	.LASF60:
 3436 066d 4359424C 		.ascii	"CYBLE_EVT_L2CAP_CONN_PARAM_UPDATE_REQ\000"
 3436      455F4556 
 3436      545F4C32 
 3436      4341505F 
 3436      434F4E4E 
 3437              	.LASF70:
 3438 0693 4359424C 		.ascii	"CYBLE_EVT_L2CAP_CBFC_DATA_WRITE_IND\000"
 3438      455F4556 
ARM GAS  C:\Users\Petro\AppData\Local\Temp\cc6Lo8fB.s 			page 88


 3438      545F4C32 
 3438      4341505F 
 3438      43424643 
 3439              	.LASF144:
 3440 06b7 61747454 		.ascii	"attType\000"
 3440      79706500 
 3441              	.LASF125:
 3442 06bf 61647644 		.ascii	"advDataLen\000"
 3442      6174614C 
 3442      656E00
 3443              	.LASF7:
 3444 06ca 6C6F6E67 		.ascii	"long long unsigned int\000"
 3444      206C6F6E 
 3444      6720756E 
 3444      7369676E 
 3444      65642069 
 3445              	.LASF194:
 3446 06e1 76616C75 		.ascii	"value\000"
 3446      6500
 3447              	.LASF58:
 3448 06e7 4359424C 		.ascii	"CYBLE_EVT_GATTC_STOP_CMD_COMPLETE\000"
 3448      455F4556 
 3448      545F4741 
 3448      5454435F 
 3448      53544F50 
 3449              	.LASF79:
 3450 0709 4359424C 		.ascii	"CYBLE_ERROR_OOB_NOT_AVAILABLE\000"
 3450      455F4552 
 3450      524F525F 
 3450      4F4F425F 
 3450      4E4F545F 
 3451              	.LASF72:
 3452 0727 4359424C 		.ascii	"CYBLE_EVT_LE_PING_AUTH_TIMEOUT\000"
 3452      455F4556 
 3452      545F4C45 
 3452      5F50494E 
 3452      475F4155 
 3453              	.LASF172:
 3454 0746 4379426C 		.ascii	"CyBle_ServiceInit\000"
 3454      655F5365 
 3454      72766963 
 3454      65496E69 
 3454      7400
 3455              	.LASF88:
 3456 0758 4359424C 		.ascii	"CYBLE_ERROR_L2CAP_PSM_ALREADY_REGISTERED\000"
 3456      455F4552 
 3456      524F525F 
 3456      4C324341 
 3456      505F5053 
 3457              	.LASF5:
 3458 0781 6C6F6E67 		.ascii	"long unsigned int\000"
 3458      20756E73 
 3458      69676E65 
 3458      6420696E 
 3458      7400
 3459              	.LASF48:
 3460 0793 4359424C 		.ascii	"CYBLE_EVT_GATTS_WRITE_REQ\000"
ARM GAS  C:\Users\Petro\AppData\Local\Temp\cc6Lo8fB.s 			page 89


 3460      455F4556 
 3460      545F4741 
 3460      5454535F 
 3460      57524954 
 3461              	.LASF40:
 3462 07ad 4359424C 		.ascii	"CYBLE_EVT_GATTC_XCHNG_MTU_RSP\000"
 3462      455F4556 
 3462      545F4741 
 3462      5454435F 
 3462      5843484E 
 3463              	.LASF57:
 3464 07cb 4359424C 		.ascii	"CYBLE_EVT_GATTS_DATA_SIGNED_CMD_REQ\000"
 3464      455F4556 
 3464      545F4741 
 3464      5454535F 
 3464      44415441 
 3465              	.LASF183:
 3466 07ef 6E616D65 		.ascii	"name\000"
 3466      00
 3467              	.LASF140:
 3468 07f4 61747446 		.ascii	"attFormatValue\000"
 3468      6F726D61 
 3468      7456616C 
 3468      756500
 3469              	.LASF129:
 3470 0803 4359424C 		.ascii	"CYBLE_GAPP_SCAN_RSP_DATA_T\000"
 3470      455F4741 
 3470      50505F53 
 3470      43414E5F 
 3470      5253505F 
 3471              	.LASF107:
 3472 081e 62756666 		.ascii	"bufferUnits\000"
 3472      6572556E 
 3472      69747300 
 3473              	.LASF98:
 3474 082a 4359424C 		.ascii	"CYBLE_ERROR_NTF_DISABLED\000"
 3474      455F4552 
 3474      524F525F 
 3474      4E54465F 
 3474      44495341 
 3475              	.LASF17:
 3476 0843 4359424C 		.ascii	"CYBLE_EVT_HOST_INVALID\000"
 3476      455F4556 
 3476      545F484F 
 3476      53545F49 
 3476      4E56414C 
 3477              	.LASF43:
 3478 085a 4359424C 		.ascii	"CYBLE_EVT_GATTC_FIND_INFO_RSP\000"
 3478      455F4556 
 3478      545F4741 
 3478      5454435F 
 3478      46494E44 
 3479              	.LASF196:
 3480 0878 6379426C 		.ascii	"cyBle_initVar\000"
 3480      655F696E 
 3480      69745661 
 3480      7200
ARM GAS  C:\Users\Petro\AppData\Local\Temp\cc6Lo8fB.s 			page 90


 3481              	.LASF25:
 3482 0886 4359424C 		.ascii	"CYBLE_EVT_GAP_PASSKEY_ENTRY_REQUEST\000"
 3482      455F4556 
 3482      545F4741 
 3482      505F5041 
 3482      53534B45 
 3483              	.LASF30:
 3484 08aa 4359424C 		.ascii	"CYBLE_EVT_GAP_DEVICE_CONNECTED\000"
 3484      455F4556 
 3484      545F4741 
 3484      505F4445 
 3484      56494345 
 3485              	.LASF137:
 3486 08c9 6D617841 		.ascii	"maxAttrLength\000"
 3486      7474724C 
 3486      656E6774 
 3486      6800
 3487              	.LASF193:
 3488 08d7 4379426C 		.ascii	"CyBle_Set16ByPtr\000"
 3488      655F5365 
 3488      74313642 
 3488      79507472 
 3488      00
 3489              	.LASF152:
 3490 08e8 63636364 		.ascii	"cccdCount\000"
 3490      436F756E 
 3490      7400
 3491              	.LASF128:
 3492 08f2 7363616E 		.ascii	"scanRspDataLen\000"
 3492      52737044 
 3492      6174614C 
 3492      656E00
 3493              	.LASF176:
 3494 0901 4379426C 		.ascii	"CyBle_Start\000"
 3494      655F5374 
 3494      61727400 
 3495              	.LASF190:
 3496 090d 4379426C 		.ascii	"CyBle_GapGetLocalName\000"
 3496      655F4761 
 3496      70476574 
 3496      4C6F6361 
 3496      6C4E616D 
 3497              	.LASF151:
 3498 0923 61747456 		.ascii	"attValuesCCCDFlashMemory\000"
 3498      616C7565 
 3498      73434343 
 3498      44466C61 
 3498      73684D65 
 3499              	.LASF134:
 3500 093c 61637475 		.ascii	"actualLength\000"
 3500      616C4C65 
 3500      6E677468 
 3500      00
 3501              	.LASF208:
 3502 0949 6379426C 		.ascii	"cyBle_state\000"
 3502      655F7374 
 3502      61746500 
ARM GAS  C:\Users\Petro\AppData\Local\Temp\cc6Lo8fB.s 			page 91


 3503              	.LASF26:
 3504 0955 4359424C 		.ascii	"CYBLE_EVT_GAP_PASSKEY_DISPLAY_REQUEST\000"
 3504      455F4556 
 3504      545F4741 
 3504      505F5041 
 3504      53534B45 
 3505              	.LASF213:
 3506 097b 443A5C43 		.ascii	"D:\\Cypress\\system-start-finish\\fw\\finish\\sandb"
 3506      79707265 
 3506      73735C73 
 3506      79737465 
 3506      6D2D7374 
 3507 09a9 6F785C42 		.ascii	"ox\\BLE_Cycling_Sensor01\\BLE_Battery_Level01.cydsn"
 3507      4C455F43 
 3507      79636C69 
 3507      6E675F53 
 3507      656E736F 
 3508 09da 00       		.ascii	"\000"
 3509              	.LASF37:
 3510 09db 4359424C 		.ascii	"CYBLE_EVT_GATT_CONNECT_IND\000"
 3510      455F4556 
 3510      545F4741 
 3510      54545F43 
 3510      4F4E4E45 
 3511              	.LASF189:
 3512 09f6 63686172 		.ascii	"charLen\000"
 3512      4C656E00 
 3513              	.LASF62:
 3514 09fe 4359424C 		.ascii	"CYBLE_EVT_L2CAP_COMMAND_REJ\000"
 3514      455F4556 
 3514      545F4C32 
 3514      4341505F 
 3514      434F4D4D 
 3515              	.LASF23:
 3516 0a1a 4359424C 		.ascii	"CYBLE_EVT_GAPC_SCAN_PROGRESS_RESULT\000"
 3516      455F4556 
 3516      545F4741 
 3516      50435F53 
 3516      43414E5F 
 3517              	.LASF161:
 3518 0a3e 4359424C 		.ascii	"CYBLE_DIS_SYSTEM_ID\000"
 3518      455F4449 
 3518      535F5359 
 3518      5354454D 
 3518      5F494400 
 3519              	.LASF97:
 3520 0a52 4359424C 		.ascii	"CYBLE_ERROR_MAX\000"
 3520      455F4552 
 3520      524F525F 
 3520      4D415800 
 3521              	.LASF63:
 3522 0a62 4359424C 		.ascii	"CYBLE_EVT_L2CAP_CBFC_CONN_IND\000"
 3522      455F4556 
 3522      545F4C32 
 3522      4341505F 
 3522      43424643 
 3523              	.LASF42:
ARM GAS  C:\Users\Petro\AppData\Local\Temp\cc6Lo8fB.s 			page 92


 3524 0a80 4359424C 		.ascii	"CYBLE_EVT_GATTC_READ_BY_TYPE_RSP\000"
 3524      455F4556 
 3524      545F4741 
 3524      5454435F 
 3524      52454144 
 3525              	.LASF205:
 3526 0aa1 6379426C 		.ascii	"cyBle_discoveryModeInfo\000"
 3526      655F6469 
 3526      73636F76 
 3526      6572794D 
 3526      6F646549 
 3527              	.LASF16:
 3528 0ab9 73697A65 		.ascii	"sizetype\000"
 3528      74797065 
 3528      00
 3529              	.LASF166:
 3530 0ac2 4359424C 		.ascii	"CYBLE_STATE_INITIALIZING\000"
 3530      455F5354 
 3530      4154455F 
 3530      494E4954 
 3530      49414C49 
 3531              	.LASF118:
 3532 0adb 6F776E41 		.ascii	"ownAddrType\000"
 3532      64647254 
 3532      79706500 
 3533              	.LASF28:
 3534 0ae7 4359424C 		.ascii	"CYBLE_EVT_GAP_AUTH_FAILED\000"
 3534      455F4556 
 3534      545F4741 
 3534      505F4155 
 3534      54485F46 
 3535              	.LASF188:
 3536 0b01 4379426C 		.ascii	"CyBle_GapSetLocalName\000"
 3536      655F4761 
 3536      70536574 
 3536      4C6F6361 
 3536      6C4E616D 
 3537              	.LASF49:
 3538 0b17 4359424C 		.ascii	"CYBLE_EVT_GATTC_WRITE_RSP\000"
 3538      455F4556 
 3538      545F4741 
 3538      5454435F 
 3538      57524954 
 3539              	.LASF153:
 3540 0b31 626F756E 		.ascii	"boundedDevCount\000"
 3540      64656444 
 3540      6576436F 
 3540      756E7400 
 3541              	.LASF27:
 3542 0b41 4359424C 		.ascii	"CYBLE_EVT_GAP_AUTH_COMPLETE\000"
 3542      455F4556 
 3542      545F4741 
 3542      505F4155 
 3542      54485F43 
 3543              	.LASF173:
 3544 0b5d 61706952 		.ascii	"apiResult\000"
 3544      6573756C 
ARM GAS  C:\Users\Petro\AppData\Local\Temp\cc6Lo8fB.s 			page 93


 3544      7400
 3545              	.LASF102:
 3546 0b67 4359424C 		.ascii	"CYBLE_API_RESULT_T\000"
 3546      455F4150 
 3546      495F5245 
 3546      53554C54 
 3546      5F5400
 3547              	.LASF175:
 3548 0b7a 4379426C 		.ascii	"CyBle_Stop\000"
 3548      655F5374 
 3548      6F7000
 3549              	.LASF54:
 3550 0b85 4359424C 		.ascii	"CYBLE_EVT_GATTC_HANDLE_VALUE_NTF\000"
 3550      455F4556 
 3550      545F4741 
 3550      5454435F 
 3550      48414E44 
 3551              	.LASF99:
 3552 0ba6 4359424C 		.ascii	"CYBLE_ERROR_IND_DISABLED\000"
 3552      455F4552 
 3552      524F525F 
 3552      494E445F 
 3552      44495341 
 3553              	.LASF181:
 3554 0bbf 64657374 		.ascii	"dest\000"
 3554      00
 3555              	.LASF141:
 3556 0bc4 61747456 		.ascii	"attValueUuid\000"
 3556      616C7565 
 3556      55756964 
 3556      00
 3557              	.LASF162:
 3558 0bd1 4359424C 		.ascii	"CYBLE_DIS_REG_CERT_DATA\000"
 3558      455F4449 
 3558      535F5245 
 3558      475F4345 
 3558      52545F44 
 3559              	.LASF135:
 3560 0be9 61747447 		.ascii	"attGenericVal\000"
 3560      656E6572 
 3560      69635661 
 3560      6C00
 3561              	.LASF64:
 3562 0bf7 4359424C 		.ascii	"CYBLE_EVT_L2CAP_CBFC_CONN_CNF\000"
 3562      455F4556 
 3562      545F4C32 
 3562      4341505F 
 3562      43424643 
 3563              	.LASF207:
 3564 0c15 6379426C 		.ascii	"cyBle_flashStorage\000"
 3564      655F666C 
 3564      61736853 
 3564      746F7261 
 3564      676500
 3565              	.LASF41:
 3566 0c28 4359424C 		.ascii	"CYBLE_EVT_GATTC_READ_BY_GROUP_TYPE_RSP\000"
 3566      455F4556 
ARM GAS  C:\Users\Petro\AppData\Local\Temp\cc6Lo8fB.s 			page 94


 3566      545F4741 
 3566      5454435F 
 3566      52454144 
 3567              	.LASF12:
 3568 0c4f 666C6F61 		.ascii	"float\000"
 3568      7400
 3569              	.LASF210:
 3570 0c55 6379426C 		.ascii	"cyBle_advertisingIntervalType\000"
 3570      655F6164 
 3570      76657274 
 3570      6973696E 
 3570      67496E74 
 3571              	.LASF177:
 3572 0c73 4379426C 		.ascii	"CyBle_GappStartAdvertisement\000"
 3572      655F4761 
 3572      70705374 
 3572      61727441 
 3572      64766572 
 3573              	.LASF157:
 3574 0c90 4359424C 		.ascii	"CYBLE_DIS_SERIAL_NUMBER\000"
 3574      455F4449 
 3574      535F5345 
 3574      5249414C 
 3574      5F4E554D 
 3575              	.LASF119:
 3576 0ca8 64697265 		.ascii	"directAddrType\000"
 3576      63744164 
 3576      64725479 
 3576      706500
 3577              	.LASF84:
 3578 0cb7 4359424C 		.ascii	"CYBLE_ERROR_TX_POWER_READ\000"
 3578      455F4552 
 3578      524F525F 
 3578      54585F50 
 3578      4F574552 
 3579              	.LASF178:
 3580 0cd1 63616C6C 		.ascii	"callbackFunc\000"
 3580      6261636B 
 3580      46756E63 
 3580      00
 3581              	.LASF147:
 3582 0cde 61747456 		.ascii	"attValue\000"
 3582      616C7565 
 3582      00
 3583              	.LASF1:
 3584 0ce7 756E7369 		.ascii	"unsigned char\000"
 3584      676E6564 
 3584      20636861 
 3584      7200
 3585              	.LASF10:
 3586 0cf5 75696E74 		.ascii	"uint16\000"
 3586      313600
 3587              	.LASF164:
 3588 0cfc 4359424C 		.ascii	"CYBLE_DIS_CHAR_COUNT\000"
 3588      455F4449 
 3588      535F4348 
 3588      41525F43 
ARM GAS  C:\Users\Petro\AppData\Local\Temp\cc6Lo8fB.s 			page 95


 3588      4F554E54 
 3589              	.LASF100:
 3590 0d11 4359424C 		.ascii	"CYBLE_ERROR_CHAR_IS_NOT_DISCOVERED\000"
 3590      455F4552 
 3590      524F525F 
 3590      43484152 
 3590      5F49535F 
 3591              	.LASF2:
 3592 0d34 73686F72 		.ascii	"short int\000"
 3592      7420696E 
 3592      7400
 3593              	.LASF55:
 3594 0d3e 4359424C 		.ascii	"CYBLE_EVT_GATTC_HANDLE_VALUE_IND\000"
 3594      455F4556 
 3594      545F4741 
 3594      5454435F 
 3594      48414E44 
 3595              	.LASF192:
 3596 0d5f 4379426C 		.ascii	"CyBle_ChangeAdDeviceAddress\000"
 3596      655F4368 
 3596      616E6765 
 3596      41644465 
 3596      76696365 
 3597              	.LASF80:
 3598 0d7b 4359424C 		.ascii	"CYBLE_ERROR_NO_CONNECTION\000"
 3598      455F4552 
 3598      524F525F 
 3598      4E4F5F43 
 3598      4F4E4E45 
 3599              	.LASF184:
 3600 0d95 666C6167 		.ascii	"flag\000"
 3600      00
 3601              	.LASF160:
 3602 0d9a 4359424C 		.ascii	"CYBLE_DIS_SOFTWARE_REV\000"
 3602      455F4449 
 3602      535F534F 
 3602      46545741 
 3602      52455F52 
 3603              	.LASF163:
 3604 0db1 4359424C 		.ascii	"CYBLE_DIS_PNP_ID\000"
 3604      455F4449 
 3604      535F504E 
 3604      505F4944 
 3604      00
 3605              	.LASF51:
 3606 0dc2 4359424C 		.ascii	"CYBLE_EVT_GATTS_PREP_WRITE_REQ\000"
 3606      455F4556 
 3606      545F4741 
 3606      5454535F 
 3606      50524550 
 3607              	.LASF115:
 3608 0de1 61647649 		.ascii	"advIntvMin\000"
 3608      6E74764D 
 3608      696E00
 3609              	.LASF113:
 3610 0dec 4359424C 		.ascii	"CYBLE_GAPP_CONNECTABLE_LOW_DC_DIRECTED_ADV\000"
 3610      455F4741 
ARM GAS  C:\Users\Petro\AppData\Local\Temp\cc6Lo8fB.s 			page 96


 3610      50505F43 
 3610      4F4E4E45 
 3610      43544142 
 3611              	.LASF124:
 3612 0e17 61647644 		.ascii	"advData\000"
 3612      61746100 
 3613              	.LASF195:
 3614 0e1f 4379426C 		.ascii	"CyBle_ApplCallback\000"
 3614      655F4170 
 3614      706C4361 
 3614      6C6C6261 
 3614      636B00
 3615              	.LASF214:
 3616 0e32 4379426C 		.ascii	"CyBle_ChangeAdLocalName\000"
 3616      655F4368 
 3616      616E6765 
 3616      41644C6F 
 3616      63616C4E 
 3617              	.LASF201:
 3618 0e4a 6379426C 		.ascii	"cyBle_StackFlashptr\000"
 3618      655F5374 
 3618      61636B46 
 3618      6C617368 
 3618      70747200 
 3619              	.LASF56:
 3620 0e5e 4359424C 		.ascii	"CYBLE_EVT_GATTS_HANDLE_VALUE_CNF\000"
 3620      455F4556 
 3620      545F4741 
 3620      5454535F 
 3620      48414E44 
 3621              	.LASF82:
 3622 0e7f 4359424C 		.ascii	"CYBLE_ERROR_REPEATED_ATTEMPTS\000"
 3622      455F4552 
 3622      524F525F 
 3622      52455045 
 3622      41544544 
 3623              	.LASF174:
 3624 0e9d 6379426C 		.ascii	"cyBle_stackDataBuff\000"
 3624      655F7374 
 3624      61636B44 
 3624      61746142 
 3624      75666600 
 3625              	.LASF206:
 3626 0eb1 6379426C 		.ascii	"cyBle_gattDB\000"
 3626      655F6761 
 3626      74744442 
 3626      00
 3627              	.LASF15:
 3628 0ebe 63686172 		.ascii	"char\000"
 3628      00
 3629              	.LASF156:
 3630 0ec3 4359424C 		.ascii	"CYBLE_DIS_MODEL_NUMBER\000"
 3630      455F4449 
 3630      535F4D4F 
 3630      44454C5F 
 3630      4E554D42 
 3631              	.LASF85:
ARM GAS  C:\Users\Petro\AppData\Local\Temp\cc6Lo8fB.s 			page 97


 3632 0eda 4359424C 		.ascii	"CYBLE_ERROR_BT_ON_NOT_COMPLETED\000"
 3632      455F4552 
 3632      524F525F 
 3632      42545F4F 
 3632      4E5F4E4F 
 3633              	.LASF185:
 3634 0efa 61644C65 		.ascii	"adLength\000"
 3634      6E677468 
 3634      00
 3635              	.LASF31:
 3636 0f03 4359424C 		.ascii	"CYBLE_EVT_GAP_DEVICE_DISCONNECTED\000"
 3636      455F4556 
 3636      545F4741 
 3636      505F4445 
 3636      56494345 
 3637              	.LASF179:
 3638 0f25 61647665 		.ascii	"advertisingIntervalType\000"
 3638      72746973 
 3638      696E6749 
 3638      6E746572 
 3638      76616C54 
 3639              	.LASF8:
 3640 0f3d 756E7369 		.ascii	"unsigned int\000"
 3640      676E6564 
 3640      20696E74 
 3640      00
 3641              	.LASF146:
 3642 0f4a 61747445 		.ascii	"attEndHandle\000"
 3642      6E644861 
 3642      6E646C65 
 3642      00
 3643              	.LASF59:
 3644 0f57 4359424C 		.ascii	"CYBLE_EVT_GATTS_READ_CHAR_VAL_ACCESS_REQ\000"
 3644      455F4556 
 3644      545F4741 
 3644      5454535F 
 3644      52454144 
 3645              	.LASF106:
 3646 0f80 62756666 		.ascii	"bufferSize\000"
 3646      65725369 
 3646      7A6500
 3647              	.LASF123:
 3648 0f8b 4359424C 		.ascii	"CYBLE_GAPP_DISC_PARAM_T\000"
 3648      455F4741 
 3648      50505F44 
 3648      4953435F 
 3648      50415241 
 3649              	.LASF14:
 3650 0fa3 63686172 		.ascii	"char8\000"
 3650      3800
 3651              	.LASF95:
 3652 0fa9 4359424C 		.ascii	"CYBLE_ERROR_FLASH_WRITE_NOT_PERMITED\000"
 3652      455F4552 
 3652      524F525F 
 3652      464C4153 
 3652      485F5752 
 3653              	.LASF90:
ARM GAS  C:\Users\Petro\AppData\Local\Temp\cc6Lo8fB.s 			page 98


 3654 0fce 4359424C 		.ascii	"CYBLE_ERROR_L2CAP_CONNECTION_ENTITY_NOT_FOUND\000"
 3654      455F4552 
 3654      524F525F 
 3654      4C324341 
 3654      505F434F 
 3655              	.LASF20:
 3656 0ffc 4359424C 		.ascii	"CYBLE_EVT_HARDWARE_ERROR\000"
 3656      455F4556 
 3656      545F4841 
 3656      52445741 
 3656      52455F45 
 3657              	.LASF3:
 3658 1015 73686F72 		.ascii	"short unsigned int\000"
 3658      7420756E 
 3658      7369676E 
 3658      65642069 
 3658      6E7400
 3659              	.LASF148:
 3660 1028 4359424C 		.ascii	"CYBLE_GATTS_DB_T\000"
 3660      455F4741 
 3660      5454535F 
 3660      44425F54 
 3660      00
 3661              	.LASF76:
 3662 1039 4359424C 		.ascii	"CYBLE_ERROR_INVALID_OPERATION\000"
 3662      455F4552 
 3662      524F525F 
 3662      494E5641 
 3662      4C49445F 
 3663              	.LASF149:
 3664 1057 4359424C 		.ascii	"CYBLE_CALLBACK_T\000"
 3664      455F4341 
 3664      4C4C4241 
 3664      434B5F54 
 3664      00
 3665              	.LASF136:
 3666 1068 4359424C 		.ascii	"CYBLE_GATTS_ATT_GEN_VAL_LEN_T\000"
 3666      455F4741 
 3666      5454535F 
 3666      4154545F 
 3666      47454E5F 
 3667              	.LASF186:
 3668 1086 62797465 		.ascii	"byteCounter\000"
 3668      436F756E 
 3668      74657200 
 3669              	.LASF133:
 3670 1092 4359424C 		.ascii	"CYBLE_GAPP_DISC_MODE_INFO_T\000"
 3670      455F4741 
 3670      50505F44 
 3670      4953435F 
 3670      4D4F4445 
 3671              	.LASF131:
 3672 10ae 61647650 		.ascii	"advParam\000"
 3672      6172616D 
 3672      00
 3673              	.LASF114:
 3674 10b7 4359424C 		.ascii	"CYBLE_GAPP_ADV_T\000"
ARM GAS  C:\Users\Petro\AppData\Local\Temp\cc6Lo8fB.s 			page 99


 3674      455F4741 
 3674      50505F41 
 3674      44565F54 
 3674      00
 3675              	.LASF154:
 3676 10c8 43595F42 		.ascii	"CY_BLE_FLASH_STORAGE\000"
 3676      4C455F46 
 3676      4C415348 
 3676      5F53544F 
 3676      52414745 
 3677              	.LASF170:
 3678 10dd 4359424C 		.ascii	"CYBLE_STATE_T\000"
 3678      455F5354 
 3678      4154455F 
 3678      5400
 3679              	.LASF112:
 3680 10eb 4359424C 		.ascii	"CYBLE_GAPP_NON_CONNECTABLE_UNDIRECTED_ADV\000"
 3680      455F4741 
 3680      50505F4E 
 3680      4F4E5F43 
 3680      4F4E4E45 
 3681              	.LASF46:
 3682 1115 4359424C 		.ascii	"CYBLE_EVT_GATTC_READ_BLOB_RSP\000"
 3682      455F4556 
 3682      545F4741 
 3682      5454435F 
 3682      52454144 
 3683              	.LASF138:
 3684 1133 61747447 		.ascii	"attGenericValLen\000"
 3684      656E6572 
 3684      69635661 
 3684      6C4C656E 
 3684      00
 3685              	.LASF187:
 3686 1144 6D61784C 		.ascii	"maxLength\000"
 3686      656E6774 
 3686      6800
 3687              	.LASF199:
 3688 114e 6379426C 		.ascii	"cyBle_deviceAddress\000"
 3688      655F6465 
 3688      76696365 
 3688      41646472 
 3688      65737300 
 3689              	.LASF204:
 3690 1162 6379426C 		.ascii	"cyBle_scanRspData\000"
 3690      655F7363 
 3690      616E5273 
 3690      70446174 
 3690      6100
 3691              	.LASF96:
 3692 1174 4359424C 		.ascii	"CYBLE_ERROR_MIC_AUTH_FAILED\000"
 3692      455F4552 
 3692      524F525F 
 3692      4D49435F 
 3692      41555448 
 3693              	.LASF89:
 3694 1190 4359424C 		.ascii	"CYBLE_ERROR_L2CAP_PSM_NOT_REGISTERED\000"
ARM GAS  C:\Users\Petro\AppData\Local\Temp\cc6Lo8fB.s 			page 100


 3694      455F4552 
 3694      524F525F 
 3694      4C324341 
 3694      505F5053 
 3695              	.LASF200:
 3696 11b5 6379426C 		.ascii	"cyBle_sflashDeviceAddress\000"
 3696      655F7366 
 3696      6C617368 
 3696      44657669 
 3696      63654164 
 3697              	.LASF167:
 3698 11cf 4359424C 		.ascii	"CYBLE_STATE_CONNECTED\000"
 3698      455F5354 
 3698      4154455F 
 3698      434F4E4E 
 3698      45435445 
 3699              	.LASF211:
 3700 11e5 474E5520 		.ascii	"GNU C 4.9.3 20150303 (release) [ARM/embedded-4_9-br"
 3700      4320342E 
 3700      392E3320 
 3700      32303135 
 3700      30333033 
 3701 1218 616E6368 		.ascii	"anch revision 221220] -mcpu=cortex-m0 -mthumb -g -O"
 3701      20726576 
 3701      6973696F 
 3701      6E203232 
 3701      31323230 
 3702 124b 30202D66 		.ascii	"0 -ffunction-sections -ffat-lto-objects\000"
 3702      66756E63 
 3702      74696F6E 
 3702      2D736563 
 3702      74696F6E 
 3703              	.LASF44:
 3704 1273 4359424C 		.ascii	"CYBLE_EVT_GATTC_FIND_BY_TYPE_VALUE_RSP\000"
 3704      455F4556 
 3704      545F4741 
 3704      5454435F 
 3704      46494E44 
 3705              	.LASF83:
 3706 129a 4359424C 		.ascii	"CYBLE_ERROR_GAP_ROLE\000"
 3706      455F4552 
 3706      524F525F 
 3706      4741505F 
 3706      524F4C45 
 3707              	.LASF35:
 3708 12af 4359424C 		.ascii	"CYBLE_EVT_GAP_KEYINFO_EXCHNGE_CMPLT\000"
 3708      455F4556 
 3708      545F4741 
 3708      505F4B45 
 3708      59494E46 
 3709              	.LASF65:
 3710 12d3 4359424C 		.ascii	"CYBLE_EVT_L2CAP_CBFC_DISCONN_IND\000"
 3710      455F4556 
 3710      545F4C32 
 3710      4341505F 
 3710      43424643 
 3711              	.LASF71:
ARM GAS  C:\Users\Petro\AppData\Local\Temp\cc6Lo8fB.s 			page 101


 3712 12f4 4359424C 		.ascii	"CYBLE_EVT_PENDING_FLASH_WRITE\000"
 3712      455F4556 
 3712      545F5045 
 3712      4E44494E 
 3712      475F464C 
 3713              	.LASF171:
 3714 1312 4379426C 		.ascii	"CyBle_Init\000"
 3714      655F496E 
 3714      697400
 3715              	.LASF61:
 3716 131d 4359424C 		.ascii	"CYBLE_EVT_L2CAP_CONN_PARAM_UPDATE_RSP\000"
 3716      455F4556 
 3716      545F4C32 
 3716      4341505F 
 3716      434F4E4E 
 3717              	.LASF198:
 3718 1343 6379426C 		.ascii	"cyBle_eventHandlerFlag\000"
 3718      655F6576 
 3718      656E7448 
 3718      616E646C 
 3718      6572466C 
 3719              	.LASF155:
 3720 135a 4359424C 		.ascii	"CYBLE_DIS_MANUFACTURER_NAME\000"
 3720      455F4449 
 3720      535F4D41 
 3720      4E554641 
 3720      43545552 
 3721              	.LASF132:
 3722 1376 61647654 		.ascii	"advTo\000"
 3722      6F00
 3723              	.LASF38:
 3724 137c 4359424C 		.ascii	"CYBLE_EVT_GATT_DISCONNECT_IND\000"
 3724      455F4556 
 3724      545F4741 
 3724      54545F44 
 3724      4953434F 
 3725              	.LASF93:
 3726 139a 4359424C 		.ascii	"CYBLE_ERROR_GATT_DB_INVALID_ATTR_HANDLE\000"
 3726      455F4552 
 3726      524F525F 
 3726      47415454 
 3726      5F44425F 
 3727              		.ident	"GCC: (GNU Tools for ARM Embedded Processors) 4.9.3 20150303 (release) [ARM/embedded-4_9-br
