ARM GAS  C:\Users\Petro\AppData\Local\Temp\cc0qxchC.s 			page 1


   1              		.cpu cortex-m0
   2              		.fpu softvfp
   3              		.eabi_attribute 20, 1
   4              		.eabi_attribute 21, 1
   5              		.eabi_attribute 23, 3
   6              		.eabi_attribute 24, 1
   7              		.eabi_attribute 25, 1
   8              		.eabi_attribute 26, 1
   9              		.eabi_attribute 30, 6
  10              		.eabi_attribute 34, 0
  11              		.eabi_attribute 18, 4
  12              		.code	16
  13              		.file	"cyfitter_cfg.c"
  14              		.text
  15              	.Ltext0:
  16              		.cfi_sections	.debug_frame
  17              		.section	.text.CYMEMZERO,"ax",%progbits
  18              		.align	2
  19              		.code	16
  20              		.thumb_func
  21              		.type	CYMEMZERO, %function
  22              	CYMEMZERO:
  23              	.LFB2:
  24              		.file 1 "Generated_Source\\PSoC4\\cyfitter_cfg.c"
   1:Generated_Source\PSoC4/cyfitter_cfg.c **** /*******************************************************************************
   2:Generated_Source\PSoC4/cyfitter_cfg.c **** * File Name: cyfitter_cfg.c
   3:Generated_Source\PSoC4/cyfitter_cfg.c **** * 
   4:Generated_Source\PSoC4/cyfitter_cfg.c **** * PSoC Creator  4.0
   5:Generated_Source\PSoC4/cyfitter_cfg.c **** *
   6:Generated_Source\PSoC4/cyfitter_cfg.c **** * Description:
   7:Generated_Source\PSoC4/cyfitter_cfg.c **** * This file contains device initialization code.
   8:Generated_Source\PSoC4/cyfitter_cfg.c **** * Except for the user defined sections in CyClockStartupError(), this file should not be modified.
   9:Generated_Source\PSoC4/cyfitter_cfg.c **** * This file is automatically generated by PSoC Creator.
  10:Generated_Source\PSoC4/cyfitter_cfg.c **** *
  11:Generated_Source\PSoC4/cyfitter_cfg.c **** ********************************************************************************
  12:Generated_Source\PSoC4/cyfitter_cfg.c **** * Copyright (c) 2007-2016 Cypress Semiconductor.  All rights reserved.
  13:Generated_Source\PSoC4/cyfitter_cfg.c **** * You may use this file only in accordance with the license, terms, conditions, 
  14:Generated_Source\PSoC4/cyfitter_cfg.c **** * disclaimers, and limitations in the end user license agreement accompanying 
  15:Generated_Source\PSoC4/cyfitter_cfg.c **** * the software package with which this file was provided.
  16:Generated_Source\PSoC4/cyfitter_cfg.c **** ********************************************************************************/
  17:Generated_Source\PSoC4/cyfitter_cfg.c **** 
  18:Generated_Source\PSoC4/cyfitter_cfg.c **** #include <string.h>
  19:Generated_Source\PSoC4/cyfitter_cfg.c **** #include "cytypes.h"
  20:Generated_Source\PSoC4/cyfitter_cfg.c **** #include "cydevice_trm.h"
  21:Generated_Source\PSoC4/cyfitter_cfg.c **** #include "cyfitter.h"
  22:Generated_Source\PSoC4/cyfitter_cfg.c **** #include "CyLib.h"
  23:Generated_Source\PSoC4/cyfitter_cfg.c **** #include "CyLFClk.h"
  24:Generated_Source\PSoC4/cyfitter_cfg.c **** #include "cyfitter_cfg.h"
  25:Generated_Source\PSoC4/cyfitter_cfg.c **** #include "cyapicallbacks.h"
  26:Generated_Source\PSoC4/cyfitter_cfg.c **** 
  27:Generated_Source\PSoC4/cyfitter_cfg.c **** 
  28:Generated_Source\PSoC4/cyfitter_cfg.c **** #if defined(__GNUC__) || defined(__ARMCC_VERSION)
  29:Generated_Source\PSoC4/cyfitter_cfg.c ****     #define CYPACKED 
  30:Generated_Source\PSoC4/cyfitter_cfg.c ****     #define CYPACKED_ATTR __attribute__ ((packed))
  31:Generated_Source\PSoC4/cyfitter_cfg.c ****     #define CYALIGNED __attribute__ ((aligned))
  32:Generated_Source\PSoC4/cyfitter_cfg.c ****     #define CY_CFG_UNUSED __attribute__ ((unused))
  33:Generated_Source\PSoC4/cyfitter_cfg.c ****     #ifndef CY_CFG_SECTION
ARM GAS  C:\Users\Petro\AppData\Local\Temp\cc0qxchC.s 			page 2


  34:Generated_Source\PSoC4/cyfitter_cfg.c ****         #define CY_CFG_SECTION __attribute__ ((section(".psocinit")))
  35:Generated_Source\PSoC4/cyfitter_cfg.c ****     #endif
  36:Generated_Source\PSoC4/cyfitter_cfg.c ****     
  37:Generated_Source\PSoC4/cyfitter_cfg.c ****     #if defined(__ARMCC_VERSION)
  38:Generated_Source\PSoC4/cyfitter_cfg.c ****         #define CY_CFG_MEMORY_BARRIER() __memory_changed()
  39:Generated_Source\PSoC4/cyfitter_cfg.c ****     #else
  40:Generated_Source\PSoC4/cyfitter_cfg.c ****         #define CY_CFG_MEMORY_BARRIER() __sync_synchronize()
  41:Generated_Source\PSoC4/cyfitter_cfg.c ****     #endif
  42:Generated_Source\PSoC4/cyfitter_cfg.c ****     
  43:Generated_Source\PSoC4/cyfitter_cfg.c **** #elif defined(__ICCARM__)
  44:Generated_Source\PSoC4/cyfitter_cfg.c ****     #include <intrinsics.h>
  45:Generated_Source\PSoC4/cyfitter_cfg.c **** 
  46:Generated_Source\PSoC4/cyfitter_cfg.c ****     #define CYPACKED __packed
  47:Generated_Source\PSoC4/cyfitter_cfg.c ****     #define CYPACKED_ATTR 
  48:Generated_Source\PSoC4/cyfitter_cfg.c ****     #define CYALIGNED _Pragma("data_alignment=4")
  49:Generated_Source\PSoC4/cyfitter_cfg.c ****     #define CY_CFG_UNUSED _Pragma("diag_suppress=Pe177")
  50:Generated_Source\PSoC4/cyfitter_cfg.c ****     #define CY_CFG_SECTION _Pragma("location=\".psocinit\"")
  51:Generated_Source\PSoC4/cyfitter_cfg.c ****     
  52:Generated_Source\PSoC4/cyfitter_cfg.c ****     #define CY_CFG_MEMORY_BARRIER() __DMB()
  53:Generated_Source\PSoC4/cyfitter_cfg.c ****     
  54:Generated_Source\PSoC4/cyfitter_cfg.c **** #else
  55:Generated_Source\PSoC4/cyfitter_cfg.c ****     #error Unsupported toolchain
  56:Generated_Source\PSoC4/cyfitter_cfg.c **** #endif
  57:Generated_Source\PSoC4/cyfitter_cfg.c **** 
  58:Generated_Source\PSoC4/cyfitter_cfg.c **** 
  59:Generated_Source\PSoC4/cyfitter_cfg.c **** CY_CFG_UNUSED
  60:Generated_Source\PSoC4/cyfitter_cfg.c **** static void CYMEMZERO(void *s, size_t n);
  61:Generated_Source\PSoC4/cyfitter_cfg.c **** CY_CFG_UNUSED
  62:Generated_Source\PSoC4/cyfitter_cfg.c **** static void CYMEMZERO(void *s, size_t n)
  63:Generated_Source\PSoC4/cyfitter_cfg.c **** {
  25              		.loc 1 63 0
  26              		.cfi_startproc
  27 0000 80B5     		push	{r7, lr}
  28              		.cfi_def_cfa_offset 8
  29              		.cfi_offset 7, -8
  30              		.cfi_offset 14, -4
  31 0002 82B0     		sub	sp, sp, #8
  32              		.cfi_def_cfa_offset 16
  33 0004 00AF     		add	r7, sp, #0
  34              		.cfi_def_cfa_register 7
  35 0006 7860     		str	r0, [r7, #4]
  36 0008 3960     		str	r1, [r7]
  64:Generated_Source\PSoC4/cyfitter_cfg.c **** 	(void)memset(s, 0, n);
  37              		.loc 1 64 0
  38 000a 7A68     		ldr	r2, [r7, #4]
  39 000c 3B68     		ldr	r3, [r7]
  40 000e 101C     		mov	r0, r2
  41 0010 0021     		mov	r1, #0
  42 0012 1A1C     		mov	r2, r3
  43 0014 FFF7FEFF 		bl	memset
  65:Generated_Source\PSoC4/cyfitter_cfg.c **** }
  44              		.loc 1 65 0
  45 0018 BD46     		mov	sp, r7
  46 001a 02B0     		add	sp, sp, #8
  47              		@ sp needed
  48 001c 80BD     		pop	{r7, pc}
  49              		.cfi_endproc
ARM GAS  C:\Users\Petro\AppData\Local\Temp\cc0qxchC.s 			page 3


  50              	.LFE2:
  51              		.size	CYMEMZERO, .-CYMEMZERO
  52 001e C046     		.section	.text.CYCONFIGCPY,"ax",%progbits
  53              		.align	2
  54              		.code	16
  55              		.thumb_func
  56              		.type	CYCONFIGCPY, %function
  57              	CYCONFIGCPY:
  58              	.LFB3:
  66:Generated_Source\PSoC4/cyfitter_cfg.c **** CY_CFG_UNUSED
  67:Generated_Source\PSoC4/cyfitter_cfg.c **** static void CYCONFIGCPY(void *dest, const void *src, size_t n);
  68:Generated_Source\PSoC4/cyfitter_cfg.c **** CY_CFG_UNUSED
  69:Generated_Source\PSoC4/cyfitter_cfg.c **** static void CYCONFIGCPY(void *dest, const void *src, size_t n)
  70:Generated_Source\PSoC4/cyfitter_cfg.c **** {
  59              		.loc 1 70 0
  60              		.cfi_startproc
  61 0000 80B5     		push	{r7, lr}
  62              		.cfi_def_cfa_offset 8
  63              		.cfi_offset 7, -8
  64              		.cfi_offset 14, -4
  65 0002 84B0     		sub	sp, sp, #16
  66              		.cfi_def_cfa_offset 24
  67 0004 00AF     		add	r7, sp, #0
  68              		.cfi_def_cfa_register 7
  69 0006 F860     		str	r0, [r7, #12]
  70 0008 B960     		str	r1, [r7, #8]
  71 000a 7A60     		str	r2, [r7, #4]
  71:Generated_Source\PSoC4/cyfitter_cfg.c **** 	(void)memcpy(dest, src, n);
  72              		.loc 1 71 0
  73 000c F968     		ldr	r1, [r7, #12]
  74 000e BA68     		ldr	r2, [r7, #8]
  75 0010 7B68     		ldr	r3, [r7, #4]
  76 0012 081C     		mov	r0, r1
  77 0014 111C     		mov	r1, r2
  78 0016 1A1C     		mov	r2, r3
  79 0018 FFF7FEFF 		bl	memcpy
  72:Generated_Source\PSoC4/cyfitter_cfg.c **** }
  80              		.loc 1 72 0
  81 001c BD46     		mov	sp, r7
  82 001e 04B0     		add	sp, sp, #16
  83              		@ sp needed
  84 0020 80BD     		pop	{r7, pc}
  85              		.cfi_endproc
  86              	.LFE3:
  87              		.size	CYCONFIGCPY, .-CYCONFIGCPY
  88 0022 C046     		.section	.text.CYCONFIGCPYCODE,"ax",%progbits
  89              		.align	2
  90              		.code	16
  91              		.thumb_func
  92              		.type	CYCONFIGCPYCODE, %function
  93              	CYCONFIGCPYCODE:
  94              	.LFB4:
  73:Generated_Source\PSoC4/cyfitter_cfg.c **** CY_CFG_UNUSED
  74:Generated_Source\PSoC4/cyfitter_cfg.c **** static void CYCONFIGCPYCODE(void *dest, const void *src, size_t n);
  75:Generated_Source\PSoC4/cyfitter_cfg.c **** CY_CFG_UNUSED
  76:Generated_Source\PSoC4/cyfitter_cfg.c **** static void CYCONFIGCPYCODE(void *dest, const void *src, size_t n)
  77:Generated_Source\PSoC4/cyfitter_cfg.c **** {
ARM GAS  C:\Users\Petro\AppData\Local\Temp\cc0qxchC.s 			page 4


  95              		.loc 1 77 0
  96              		.cfi_startproc
  97 0000 80B5     		push	{r7, lr}
  98              		.cfi_def_cfa_offset 8
  99              		.cfi_offset 7, -8
 100              		.cfi_offset 14, -4
 101 0002 84B0     		sub	sp, sp, #16
 102              		.cfi_def_cfa_offset 24
 103 0004 00AF     		add	r7, sp, #0
 104              		.cfi_def_cfa_register 7
 105 0006 F860     		str	r0, [r7, #12]
 106 0008 B960     		str	r1, [r7, #8]
 107 000a 7A60     		str	r2, [r7, #4]
  78:Generated_Source\PSoC4/cyfitter_cfg.c **** 	(void)memcpy(dest, src, n);
 108              		.loc 1 78 0
 109 000c F968     		ldr	r1, [r7, #12]
 110 000e BA68     		ldr	r2, [r7, #8]
 111 0010 7B68     		ldr	r3, [r7, #4]
 112 0012 081C     		mov	r0, r1
 113 0014 111C     		mov	r1, r2
 114 0016 1A1C     		mov	r2, r3
 115 0018 FFF7FEFF 		bl	memcpy
  79:Generated_Source\PSoC4/cyfitter_cfg.c **** }
 116              		.loc 1 79 0
 117 001c BD46     		mov	sp, r7
 118 001e 04B0     		add	sp, sp, #16
 119              		@ sp needed
 120 0020 80BD     		pop	{r7, pc}
 121              		.cfi_endproc
 122              	.LFE4:
 123              		.size	CYCONFIGCPYCODE, .-CYCONFIGCPYCODE
 124 0022 C046     		.section	.text.cfg_write_bytes32,"ax",%progbits
 125              		.align	2
 126              		.code	16
 127              		.thumb_func
 128              		.type	cfg_write_bytes32, %function
 129              	cfg_write_bytes32:
 130              	.LFB5:
  80:Generated_Source\PSoC4/cyfitter_cfg.c **** 
  81:Generated_Source\PSoC4/cyfitter_cfg.c **** 
  82:Generated_Source\PSoC4/cyfitter_cfg.c **** 
  83:Generated_Source\PSoC4/cyfitter_cfg.c **** 
  84:Generated_Source\PSoC4/cyfitter_cfg.c **** /* Clock startup error codes                                                   */
  85:Generated_Source\PSoC4/cyfitter_cfg.c **** #define CYCLOCKSTART_NO_ERROR    0u
  86:Generated_Source\PSoC4/cyfitter_cfg.c **** #define CYCLOCKSTART_XTAL_ERROR  1u
  87:Generated_Source\PSoC4/cyfitter_cfg.c **** #define CYCLOCKSTART_32KHZ_ERROR 2u
  88:Generated_Source\PSoC4/cyfitter_cfg.c **** #define CYCLOCKSTART_PLL_ERROR   3u
  89:Generated_Source\PSoC4/cyfitter_cfg.c **** 
  90:Generated_Source\PSoC4/cyfitter_cfg.c **** 
  91:Generated_Source\PSoC4/cyfitter_cfg.c **** #ifdef CY_NEED_CYCLOCKSTARTUPERROR
  92:Generated_Source\PSoC4/cyfitter_cfg.c **** /*******************************************************************************
  93:Generated_Source\PSoC4/cyfitter_cfg.c **** * Function Name: CyClockStartupError
  94:Generated_Source\PSoC4/cyfitter_cfg.c **** ********************************************************************************
  95:Generated_Source\PSoC4/cyfitter_cfg.c **** * Summary:
  96:Generated_Source\PSoC4/cyfitter_cfg.c **** *  If an error is encountered during clock configuration (crystal startup error,
  97:Generated_Source\PSoC4/cyfitter_cfg.c **** *  PLL lock error, etc.), the system will end up here.  Unless reimplemented by
  98:Generated_Source\PSoC4/cyfitter_cfg.c **** *  the customer, this function will stop in an infinite loop.
ARM GAS  C:\Users\Petro\AppData\Local\Temp\cc0qxchC.s 			page 5


  99:Generated_Source\PSoC4/cyfitter_cfg.c **** *
 100:Generated_Source\PSoC4/cyfitter_cfg.c **** * Parameters:
 101:Generated_Source\PSoC4/cyfitter_cfg.c **** *   void
 102:Generated_Source\PSoC4/cyfitter_cfg.c **** *
 103:Generated_Source\PSoC4/cyfitter_cfg.c **** * Return:
 104:Generated_Source\PSoC4/cyfitter_cfg.c **** *   void
 105:Generated_Source\PSoC4/cyfitter_cfg.c **** *
 106:Generated_Source\PSoC4/cyfitter_cfg.c **** *******************************************************************************/
 107:Generated_Source\PSoC4/cyfitter_cfg.c **** CY_CFG_UNUSED
 108:Generated_Source\PSoC4/cyfitter_cfg.c **** static void CyClockStartupError(uint8 errorCode);
 109:Generated_Source\PSoC4/cyfitter_cfg.c **** CY_CFG_UNUSED
 110:Generated_Source\PSoC4/cyfitter_cfg.c **** static void CyClockStartupError(uint8 errorCode)
 111:Generated_Source\PSoC4/cyfitter_cfg.c **** {
 112:Generated_Source\PSoC4/cyfitter_cfg.c ****     /* To remove the compiler warning if errorCode not used.                */
 113:Generated_Source\PSoC4/cyfitter_cfg.c ****     errorCode = errorCode;
 114:Generated_Source\PSoC4/cyfitter_cfg.c **** 
 115:Generated_Source\PSoC4/cyfitter_cfg.c ****     /* If we have a clock startup error (bad MHz crystal, PLL lock, etc.),  */
 116:Generated_Source\PSoC4/cyfitter_cfg.c ****     /* we will end up here to allow the customer to implement something to  */
 117:Generated_Source\PSoC4/cyfitter_cfg.c ****     /* deal with the clock condition.                                       */
 118:Generated_Source\PSoC4/cyfitter_cfg.c **** 
 119:Generated_Source\PSoC4/cyfitter_cfg.c **** #ifdef CY_CFG_CLOCK_STARTUP_ERROR_CALLBACK
 120:Generated_Source\PSoC4/cyfitter_cfg.c **** 	CY_CFG_Clock_Startup_ErrorCallback();
 121:Generated_Source\PSoC4/cyfitter_cfg.c **** #else
 122:Generated_Source\PSoC4/cyfitter_cfg.c **** 	/*  If not using CY_CFG_CLOCK_STARTUP_ERROR_CALLBACK, place your clock startup code here. */
 123:Generated_Source\PSoC4/cyfitter_cfg.c ****     /* `#START CyClockStartupError` */
 124:Generated_Source\PSoC4/cyfitter_cfg.c **** 
 125:Generated_Source\PSoC4/cyfitter_cfg.c ****     /* If we have a clock startup error (bad MHz crystal, PLL lock, etc.),  */
 126:Generated_Source\PSoC4/cyfitter_cfg.c ****     /* we will end up here to allow the customer to implement something to  */
 127:Generated_Source\PSoC4/cyfitter_cfg.c ****     /* deal with the clock condition.                                       */
 128:Generated_Source\PSoC4/cyfitter_cfg.c **** 
 129:Generated_Source\PSoC4/cyfitter_cfg.c ****     /* `#END` */
 130:Generated_Source\PSoC4/cyfitter_cfg.c **** 
 131:Generated_Source\PSoC4/cyfitter_cfg.c ****     /* If nothing else, stop here since the clocks have not started         */
 132:Generated_Source\PSoC4/cyfitter_cfg.c ****     /* correctly.                                                           */
 133:Generated_Source\PSoC4/cyfitter_cfg.c ****     while(1) {}
 134:Generated_Source\PSoC4/cyfitter_cfg.c **** #endif /* CY_CFG_CLOCK_STARTUP_ERROR_CALLBACK */ 
 135:Generated_Source\PSoC4/cyfitter_cfg.c **** }
 136:Generated_Source\PSoC4/cyfitter_cfg.c **** #endif
 137:Generated_Source\PSoC4/cyfitter_cfg.c **** 
 138:Generated_Source\PSoC4/cyfitter_cfg.c **** #define CY_CFG_BASE_ADDR_COUNT 9u
 139:Generated_Source\PSoC4/cyfitter_cfg.c **** CYPACKED typedef struct
 140:Generated_Source\PSoC4/cyfitter_cfg.c **** {
 141:Generated_Source\PSoC4/cyfitter_cfg.c **** 	uint8 offset;
 142:Generated_Source\PSoC4/cyfitter_cfg.c **** 	uint8 value;
 143:Generated_Source\PSoC4/cyfitter_cfg.c **** } CYPACKED_ATTR cy_cfg_addrvalue_t;
 144:Generated_Source\PSoC4/cyfitter_cfg.c **** 
 145:Generated_Source\PSoC4/cyfitter_cfg.c **** 
 146:Generated_Source\PSoC4/cyfitter_cfg.c **** 
 147:Generated_Source\PSoC4/cyfitter_cfg.c **** /*******************************************************************************
 148:Generated_Source\PSoC4/cyfitter_cfg.c **** * Function Name: cfg_write_bytes32
 149:Generated_Source\PSoC4/cyfitter_cfg.c **** ********************************************************************************
 150:Generated_Source\PSoC4/cyfitter_cfg.c **** * Summary:
 151:Generated_Source\PSoC4/cyfitter_cfg.c **** *  This function is used for setting up the chip configuration areas that
 152:Generated_Source\PSoC4/cyfitter_cfg.c **** *  contain relatively sparse data.
 153:Generated_Source\PSoC4/cyfitter_cfg.c **** *
 154:Generated_Source\PSoC4/cyfitter_cfg.c **** * Parameters:
 155:Generated_Source\PSoC4/cyfitter_cfg.c **** *   void
ARM GAS  C:\Users\Petro\AppData\Local\Temp\cc0qxchC.s 			page 6


 156:Generated_Source\PSoC4/cyfitter_cfg.c **** *
 157:Generated_Source\PSoC4/cyfitter_cfg.c **** * Return:
 158:Generated_Source\PSoC4/cyfitter_cfg.c **** *   void
 159:Generated_Source\PSoC4/cyfitter_cfg.c **** *
 160:Generated_Source\PSoC4/cyfitter_cfg.c **** *******************************************************************************/
 161:Generated_Source\PSoC4/cyfitter_cfg.c **** static void cfg_write_bytes32(const uint32 addr_table[], const cy_cfg_addrvalue_t data_table[]);
 162:Generated_Source\PSoC4/cyfitter_cfg.c **** static void cfg_write_bytes32(const uint32 addr_table[], const cy_cfg_addrvalue_t data_table[])
 163:Generated_Source\PSoC4/cyfitter_cfg.c **** {
 131              		.loc 1 163 0
 132              		.cfi_startproc
 133 0000 80B5     		push	{r7, lr}
 134              		.cfi_def_cfa_offset 8
 135              		.cfi_offset 7, -8
 136              		.cfi_offset 14, -4
 137 0002 86B0     		sub	sp, sp, #24
 138              		.cfi_def_cfa_offset 32
 139 0004 00AF     		add	r7, sp, #0
 140              		.cfi_def_cfa_register 7
 141 0006 7860     		str	r0, [r7, #4]
 142 0008 3960     		str	r1, [r7]
 164:Generated_Source\PSoC4/cyfitter_cfg.c **** 	/* For 32-bit little-endian architectures */
 165:Generated_Source\PSoC4/cyfitter_cfg.c **** 	uint32 i, j = 0u;
 143              		.loc 1 165 0
 144 000a 0023     		mov	r3, #0
 145 000c 3B61     		str	r3, [r7, #16]
 166:Generated_Source\PSoC4/cyfitter_cfg.c **** 	for (i = 0u; i < CY_CFG_BASE_ADDR_COUNT; i++)
 146              		.loc 1 166 0
 147 000e 0023     		mov	r3, #0
 148 0010 7B61     		str	r3, [r7, #20]
 149 0012 2FE0     		b	.L5
 150              	.L8:
 151              	.LBB2:
 167:Generated_Source\PSoC4/cyfitter_cfg.c **** 	{
 168:Generated_Source\PSoC4/cyfitter_cfg.c **** 		uint32 baseAddr = addr_table[i];
 152              		.loc 1 168 0
 153 0014 7B69     		ldr	r3, [r7, #20]
 154 0016 9B00     		lsl	r3, r3, #2
 155 0018 7A68     		ldr	r2, [r7, #4]
 156 001a D318     		add	r3, r2, r3
 157 001c 1B68     		ldr	r3, [r3]
 158 001e BB60     		str	r3, [r7, #8]
 169:Generated_Source\PSoC4/cyfitter_cfg.c **** 		uint8 count = (uint8)baseAddr;
 159              		.loc 1 169 0
 160 0020 0F23     		mov	r3, #15
 161 0022 FB18     		add	r3, r7, r3
 162 0024 BA68     		ldr	r2, [r7, #8]
 163 0026 1A70     		strb	r2, [r3]
 170:Generated_Source\PSoC4/cyfitter_cfg.c **** 		baseAddr &= 0xFFFFFF00u;
 164              		.loc 1 170 0
 165 0028 BB68     		ldr	r3, [r7, #8]
 166 002a FF22     		mov	r2, #255
 167 002c 9343     		bic	r3, r2
 168 002e BB60     		str	r3, [r7, #8]
 171:Generated_Source\PSoC4/cyfitter_cfg.c **** 		while (count != 0u)
 169              		.loc 1 171 0
 170 0030 18E0     		b	.L6
 171              	.L7:
ARM GAS  C:\Users\Petro\AppData\Local\Temp\cc0qxchC.s 			page 7


 172:Generated_Source\PSoC4/cyfitter_cfg.c **** 		{
 173:Generated_Source\PSoC4/cyfitter_cfg.c **** 			CY_SET_XTND_REG8((void CYFAR *)(baseAddr + data_table[j].offset), data_table[j].value);
 172              		.loc 1 173 0
 173 0032 3B69     		ldr	r3, [r7, #16]
 174 0034 5B00     		lsl	r3, r3, #1
 175 0036 3A68     		ldr	r2, [r7]
 176 0038 D318     		add	r3, r2, r3
 177 003a 1B78     		ldrb	r3, [r3]
 178 003c 1A1C     		mov	r2, r3
 179 003e BB68     		ldr	r3, [r7, #8]
 180 0040 D318     		add	r3, r2, r3
 181 0042 191C     		mov	r1, r3
 182 0044 3B69     		ldr	r3, [r7, #16]
 183 0046 5B00     		lsl	r3, r3, #1
 184 0048 3A68     		ldr	r2, [r7]
 185 004a D318     		add	r3, r2, r3
 186 004c 5B78     		ldrb	r3, [r3, #1]
 187 004e 0B70     		strb	r3, [r1]
 174:Generated_Source\PSoC4/cyfitter_cfg.c **** 			j++;
 188              		.loc 1 174 0
 189 0050 3B69     		ldr	r3, [r7, #16]
 190 0052 0133     		add	r3, r3, #1
 191 0054 3B61     		str	r3, [r7, #16]
 175:Generated_Source\PSoC4/cyfitter_cfg.c **** 			count--;
 192              		.loc 1 175 0
 193 0056 0F23     		mov	r3, #15
 194 0058 FB18     		add	r3, r7, r3
 195 005a 1A78     		ldrb	r2, [r3]
 196 005c 0F23     		mov	r3, #15
 197 005e FB18     		add	r3, r7, r3
 198 0060 013A     		sub	r2, r2, #1
 199 0062 1A70     		strb	r2, [r3]
 200              	.L6:
 171:Generated_Source\PSoC4/cyfitter_cfg.c **** 		{
 201              		.loc 1 171 0
 202 0064 0F23     		mov	r3, #15
 203 0066 FB18     		add	r3, r7, r3
 204 0068 1B78     		ldrb	r3, [r3]
 205 006a 002B     		cmp	r3, #0
 206 006c E1D1     		bne	.L7
 207              	.LBE2:
 166:Generated_Source\PSoC4/cyfitter_cfg.c **** 	{
 208              		.loc 1 166 0 discriminator 2
 209 006e 7B69     		ldr	r3, [r7, #20]
 210 0070 0133     		add	r3, r3, #1
 211 0072 7B61     		str	r3, [r7, #20]
 212              	.L5:
 166:Generated_Source\PSoC4/cyfitter_cfg.c **** 	{
 213              		.loc 1 166 0 is_stmt 0 discriminator 1
 214 0074 7B69     		ldr	r3, [r7, #20]
 215 0076 082B     		cmp	r3, #8
 216 0078 CCD9     		bls	.L8
 176:Generated_Source\PSoC4/cyfitter_cfg.c **** 		}
 177:Generated_Source\PSoC4/cyfitter_cfg.c **** 	}
 178:Generated_Source\PSoC4/cyfitter_cfg.c **** }
 217              		.loc 1 178 0 is_stmt 1
 218 007a BD46     		mov	sp, r7
ARM GAS  C:\Users\Petro\AppData\Local\Temp\cc0qxchC.s 			page 8


 219 007c 06B0     		add	sp, sp, #24
 220              		@ sp needed
 221 007e 80BD     		pop	{r7, pc}
 222              		.cfi_endproc
 223              	.LFE5:
 224              		.size	cfg_write_bytes32, .-cfg_write_bytes32
 225              		.section	.psocinit,"ax",%progbits
 226              		.align	2
 227              		.code	16
 228              		.thumb_func
 229              		.type	ClockSetup, %function
 230              	ClockSetup:
 231              	.LFB6:
 179:Generated_Source\PSoC4/cyfitter_cfg.c **** 
 180:Generated_Source\PSoC4/cyfitter_cfg.c **** 
 181:Generated_Source\PSoC4/cyfitter_cfg.c **** /*******************************************************************************
 182:Generated_Source\PSoC4/cyfitter_cfg.c **** * Function Name: ClockSetup
 183:Generated_Source\PSoC4/cyfitter_cfg.c **** ********************************************************************************
 184:Generated_Source\PSoC4/cyfitter_cfg.c **** *
 185:Generated_Source\PSoC4/cyfitter_cfg.c **** * Summary:
 186:Generated_Source\PSoC4/cyfitter_cfg.c **** *   Performs the initialization of all of the clocks in the device based on the
 187:Generated_Source\PSoC4/cyfitter_cfg.c **** *   settings in the Clock tab of the DWR.  This includes enabling the requested
 188:Generated_Source\PSoC4/cyfitter_cfg.c **** *   clocks and setting the necessary dividers to produce the desired frequency. 
 189:Generated_Source\PSoC4/cyfitter_cfg.c **** *
 190:Generated_Source\PSoC4/cyfitter_cfg.c **** * Parameters:
 191:Generated_Source\PSoC4/cyfitter_cfg.c **** *   void
 192:Generated_Source\PSoC4/cyfitter_cfg.c **** *
 193:Generated_Source\PSoC4/cyfitter_cfg.c **** * Return:
 194:Generated_Source\PSoC4/cyfitter_cfg.c **** *   void
 195:Generated_Source\PSoC4/cyfitter_cfg.c **** *
 196:Generated_Source\PSoC4/cyfitter_cfg.c **** *******************************************************************************/
 197:Generated_Source\PSoC4/cyfitter_cfg.c **** static void ClockSetup(void);
 198:Generated_Source\PSoC4/cyfitter_cfg.c **** CY_CFG_SECTION
 199:Generated_Source\PSoC4/cyfitter_cfg.c **** static void ClockSetup(void)
 200:Generated_Source\PSoC4/cyfitter_cfg.c **** {
 232              		.loc 1 200 0
 233              		.cfi_startproc
 234 0000 80B5     		push	{r7, lr}
 235              		.cfi_def_cfa_offset 8
 236              		.cfi_offset 7, -8
 237              		.cfi_offset 14, -4
 238 0002 00AF     		add	r7, sp, #0
 239              		.cfi_def_cfa_register 7
 201:Generated_Source\PSoC4/cyfitter_cfg.c **** 
 202:Generated_Source\PSoC4/cyfitter_cfg.c **** 	/* Set Flash Cycles based on max possible frequency in case a glitch occurs during ClockSetup(). *
 203:Generated_Source\PSoC4/cyfitter_cfg.c **** 	CY_SET_REG32((void CYXDATA *)(CYREG_CPUSS_FLASH_CTL), (0x0012u));
 240              		.loc 1 203 0
 241 0004 3C4B     		ldr	r3, .L11
 242 0006 1222     		mov	r2, #18
 243 0008 1A60     		str	r2, [r3]
 204:Generated_Source\PSoC4/cyfitter_cfg.c **** 
 205:Generated_Source\PSoC4/cyfitter_cfg.c **** 	/* Start the WCO */
 206:Generated_Source\PSoC4/cyfitter_cfg.c **** 	CySysClkWcoStart();
 244              		.loc 1 206 0
 245 000a FFF7FEFF 		bl	CySysClkWcoStart
 207:Generated_Source\PSoC4/cyfitter_cfg.c **** 	CyDelayCycles(12000000u); /* WCO may take up to 500ms to start */
 246              		.loc 1 207 0
ARM GAS  C:\Users\Petro\AppData\Local\Temp\cc0qxchC.s 			page 9


 247 000e 3B4B     		ldr	r3, .L11+4
 248 0010 181C     		mov	r0, r3
 249 0012 FFF7FEFF 		bl	CyDelayCycles
 208:Generated_Source\PSoC4/cyfitter_cfg.c **** 	(void)CySysClkWcoSetPowerMode(CY_SYS_CLK_WCO_LPM);    /* Switch to the low power mode */
 250              		.loc 1 208 0
 251 0016 0120     		mov	r0, #1
 252 0018 FFF7FEFF 		bl	CySysClkWcoSetPowerMode
 209:Generated_Source\PSoC4/cyfitter_cfg.c **** 
 210:Generated_Source\PSoC4/cyfitter_cfg.c **** 	/* Setup and trim IMO based on desired frequency. */
 211:Generated_Source\PSoC4/cyfitter_cfg.c **** 	CySysClkWriteImoFreq(48u);
 253              		.loc 1 211 0
 254 001c 3020     		mov	r0, #48
 255 001e FFF7FEFF 		bl	CySysClkWriteImoFreq
 212:Generated_Source\PSoC4/cyfitter_cfg.c **** 	/* CYDEV_WDT_CONFIG Starting address: CYDEV_WDT_CONFIG */
 213:Generated_Source\PSoC4/cyfitter_cfg.c **** 	CY_SET_XTND_REG32((void CYFAR *)(CYREG_WDT_CONFIG), 0x40000000u);
 256              		.loc 1 213 0
 257 0022 374B     		ldr	r3, .L11+8
 258 0024 8022     		mov	r2, #128
 259 0026 D205     		lsl	r2, r2, #23
 260 0028 1A60     		str	r2, [r3]
 214:Generated_Source\PSoC4/cyfitter_cfg.c **** 
 215:Generated_Source\PSoC4/cyfitter_cfg.c **** 
 216:Generated_Source\PSoC4/cyfitter_cfg.c **** 	/* Enable fast start mode for XO */
 217:Generated_Source\PSoC4/cyfitter_cfg.c **** 	CY_SET_REG32((void*)CYREG_BLE_BLERD_BB_XO, CY_GET_REG32((void*)CYREG_BLE_BLERD_BB_XO) | (uint32)0x
 261              		.loc 1 217 0
 262 002a 364B     		ldr	r3, .L11+12
 263 002c 354A     		ldr	r2, .L11+12
 264 002e 1268     		ldr	r2, [r2]
 265 0030 0221     		mov	r1, #2
 266 0032 0A43     		orr	r2, r1
 267 0034 1A60     		str	r2, [r3]
 218:Generated_Source\PSoC4/cyfitter_cfg.c **** 	CY_SET_XTND_REG32((void CYFAR *)(CYREG_BLE_BLERD_BB_XO_CAPTRIM), 0x00003E2Du);
 268              		.loc 1 218 0
 269 0036 344B     		ldr	r3, .L11+16
 270 0038 344A     		ldr	r2, .L11+20
 271 003a 1A60     		str	r2, [r3]
 219:Generated_Source\PSoC4/cyfitter_cfg.c **** 	/*Set XTAL(ECO) divider*/
 220:Generated_Source\PSoC4/cyfitter_cfg.c **** 	CY_SET_XTND_REG32((void CYFAR *)(CYREG_BLE_BLESS_XTAL_CLK_DIV_CONFIG), 0x00000000u);
 272              		.loc 1 220 0
 273 003c 344B     		ldr	r3, .L11+24
 274 003e 0022     		mov	r2, #0
 275 0040 1A60     		str	r2, [r3]
 221:Generated_Source\PSoC4/cyfitter_cfg.c **** 	/* Disable Crystal Stable Interrupt before enabling ECO */
 222:Generated_Source\PSoC4/cyfitter_cfg.c **** 	CY_SET_REG32((void*)CYREG_BLE_BLESS_LL_DSM_CTRL, CY_GET_REG32((void*)CYREG_BLE_BLESS_LL_DSM_CTRL) 
 276              		.loc 1 222 0
 277 0042 344B     		ldr	r3, .L11+28
 278 0044 334A     		ldr	r2, .L11+28
 279 0046 1268     		ldr	r2, [r2]
 280 0048 0821     		mov	r1, #8
 281 004a 8A43     		bic	r2, r1
 282 004c 1A60     		str	r2, [r3]
 223:Generated_Source\PSoC4/cyfitter_cfg.c **** 	/* Start the ECO and do not check status since it is not needed for HFCLK */
 224:Generated_Source\PSoC4/cyfitter_cfg.c **** 	(void)CySysClkEcoStart(2000u);
 283              		.loc 1 224 0
 284 004e FA23     		mov	r3, #250
 285 0050 DB00     		lsl	r3, r3, #3
 286 0052 181C     		mov	r0, r3
ARM GAS  C:\Users\Petro\AppData\Local\Temp\cc0qxchC.s 			page 10


 287 0054 FFF7FEFF 		bl	CySysClkEcoStart
 225:Generated_Source\PSoC4/cyfitter_cfg.c **** 	CyDelayUs(1500u); /* Wait to stabalize */
 288              		.loc 1 225 0
 289 0058 2F4B     		ldr	r3, .L11+32
 290 005a 181C     		mov	r0, r3
 291 005c FFF7FEFF 		bl	CyDelayUs
 226:Generated_Source\PSoC4/cyfitter_cfg.c **** 
 227:Generated_Source\PSoC4/cyfitter_cfg.c **** 	/* Setup phase aligned clocks */
 228:Generated_Source\PSoC4/cyfitter_cfg.c **** 	CY_SET_REG32((void *)CYREG_PERI_DIV_16_CTL2, 0x0005B800u);
 292              		.loc 1 228 0
 293 0060 2E4B     		ldr	r3, .L11+36
 294 0062 B722     		mov	r2, #183
 295 0064 D202     		lsl	r2, r2, #11
 296 0066 1A60     		str	r2, [r3]
 229:Generated_Source\PSoC4/cyfitter_cfg.c **** 	CY_SET_REG32((void *)CYREG_PERI_DIV_CMD, 0x8000FF42u);
 297              		.loc 1 229 0
 298 0068 2D4B     		ldr	r3, .L11+40
 299 006a 2E4A     		ldr	r2, .L11+44
 300 006c 1A60     		str	r2, [r3]
 230:Generated_Source\PSoC4/cyfitter_cfg.c **** 	CY_SET_REG32((void *)CYREG_PERI_DIV_16_CTL3, 0x00BB7F00u);
 301              		.loc 1 230 0
 302 006e 2E4B     		ldr	r3, .L11+48
 303 0070 2E4A     		ldr	r2, .L11+52
 304 0072 1A60     		str	r2, [r3]
 231:Generated_Source\PSoC4/cyfitter_cfg.c **** 	CY_SET_REG32((void *)CYREG_PERI_DIV_CMD, 0x8000FF43u);
 305              		.loc 1 231 0
 306 0074 2A4B     		ldr	r3, .L11+40
 307 0076 2E4A     		ldr	r2, .L11+56
 308 0078 1A60     		str	r2, [r3]
 232:Generated_Source\PSoC4/cyfitter_cfg.c **** 	CY_SET_REG32((void *)CYREG_PERI_DIV_16_CTL0, 0x00000F00u);
 309              		.loc 1 232 0
 310 007a 2E4B     		ldr	r3, .L11+60
 311 007c F022     		mov	r2, #240
 312 007e 1201     		lsl	r2, r2, #4
 313 0080 1A60     		str	r2, [r3]
 233:Generated_Source\PSoC4/cyfitter_cfg.c **** 	CY_SET_REG32((void *)CYREG_PERI_DIV_CMD, 0x8000FF40u);
 314              		.loc 1 233 0
 315 0082 274B     		ldr	r3, .L11+40
 316 0084 2C4A     		ldr	r2, .L11+64
 317 0086 1A60     		str	r2, [r3]
 234:Generated_Source\PSoC4/cyfitter_cfg.c **** 	CY_SET_REG32((void *)CYREG_PERI_DIV_16_CTL1, 0x0001A000u);
 318              		.loc 1 234 0
 319 0088 2C4B     		ldr	r3, .L11+68
 320 008a D022     		mov	r2, #208
 321 008c 5202     		lsl	r2, r2, #9
 322 008e 1A60     		str	r2, [r3]
 235:Generated_Source\PSoC4/cyfitter_cfg.c **** 	CY_SET_REG32((void *)CYREG_PERI_DIV_CMD, 0x8000FF41u);
 323              		.loc 1 235 0
 324 0090 234B     		ldr	r3, .L11+40
 325 0092 2B4A     		ldr	r2, .L11+72
 326 0094 1A60     		str	r2, [r3]
 236:Generated_Source\PSoC4/cyfitter_cfg.c **** 
 237:Generated_Source\PSoC4/cyfitter_cfg.c **** 	/* CYDEV_CLK_IMO_CONFIG Starting address: CYDEV_CLK_IMO_CONFIG */
 238:Generated_Source\PSoC4/cyfitter_cfg.c **** 	CY_SET_XTND_REG32((void CYFAR *)(CYREG_CLK_IMO_CONFIG), 0x82000000u);
 327              		.loc 1 238 0
 328 0096 2B4B     		ldr	r3, .L11+76
 329 0098 8222     		mov	r2, #130
ARM GAS  C:\Users\Petro\AppData\Local\Temp\cc0qxchC.s 			page 11


 330 009a 1206     		lsl	r2, r2, #24
 331 009c 1A60     		str	r2, [r3]
 239:Generated_Source\PSoC4/cyfitter_cfg.c **** 
 240:Generated_Source\PSoC4/cyfitter_cfg.c **** 	/* CYDEV_CLK_SELECT Starting address: CYDEV_CLK_SELECT */
 241:Generated_Source\PSoC4/cyfitter_cfg.c **** 	CY_SET_XTND_REG32((void CYFAR *)(CYREG_CLK_SELECT), 0x00040000u);
 332              		.loc 1 241 0
 333 009e 2A4B     		ldr	r3, .L11+80
 334 00a0 8022     		mov	r2, #128
 335 00a2 D202     		lsl	r2, r2, #11
 336 00a4 1A60     		str	r2, [r3]
 242:Generated_Source\PSoC4/cyfitter_cfg.c **** 
 243:Generated_Source\PSoC4/cyfitter_cfg.c **** 	/* CYDEV_PERI_PCLK_CTL8 Starting address: CYDEV_PERI_PCLK_CTL8 */
 244:Generated_Source\PSoC4/cyfitter_cfg.c **** 	CY_SET_XTND_REG32((void CYFAR *)(CYREG_PERI_PCLK_CTL8), 0x00000042u);
 337              		.loc 1 244 0
 338 00a6 294B     		ldr	r3, .L11+84
 339 00a8 4222     		mov	r2, #66
 340 00aa 1A60     		str	r2, [r3]
 245:Generated_Source\PSoC4/cyfitter_cfg.c **** 
 246:Generated_Source\PSoC4/cyfitter_cfg.c **** 	/* CYDEV_PERI_PCLK_CTL7 Starting address: CYDEV_PERI_PCLK_CTL7 */
 247:Generated_Source\PSoC4/cyfitter_cfg.c **** 	CY_SET_XTND_REG32((void CYFAR *)(CYREG_PERI_PCLK_CTL7), 0x00000043u);
 341              		.loc 1 247 0
 342 00ac 284B     		ldr	r3, .L11+88
 343 00ae 4322     		mov	r2, #67
 344 00b0 1A60     		str	r2, [r3]
 248:Generated_Source\PSoC4/cyfitter_cfg.c **** 
 249:Generated_Source\PSoC4/cyfitter_cfg.c **** 	/* CYDEV_PERI_PCLK_CTL6 Starting address: CYDEV_PERI_PCLK_CTL6 */
 250:Generated_Source\PSoC4/cyfitter_cfg.c **** 	CY_SET_XTND_REG32((void CYFAR *)(CYREG_PERI_PCLK_CTL6), 0x00000040u);
 345              		.loc 1 250 0
 346 00b2 284B     		ldr	r3, .L11+92
 347 00b4 4022     		mov	r2, #64
 348 00b6 1A60     		str	r2, [r3]
 251:Generated_Source\PSoC4/cyfitter_cfg.c **** 
 252:Generated_Source\PSoC4/cyfitter_cfg.c **** 	/* CYDEV_PERI_PCLK_CTL2 Starting address: CYDEV_PERI_PCLK_CTL2 */
 253:Generated_Source\PSoC4/cyfitter_cfg.c **** 	CY_SET_XTND_REG32((void CYFAR *)(CYREG_PERI_PCLK_CTL2), 0x00000041u);
 349              		.loc 1 253 0
 350 00b8 274B     		ldr	r3, .L11+96
 351 00ba 4122     		mov	r2, #65
 352 00bc 1A60     		str	r2, [r3]
 254:Generated_Source\PSoC4/cyfitter_cfg.c **** 
 255:Generated_Source\PSoC4/cyfitter_cfg.c **** 	(void)CyIntSetVector(8u, &CySysWdtIsr);
 353              		.loc 1 255 0
 354 00be 274B     		ldr	r3, .L11+100
 355 00c0 0820     		mov	r0, #8
 356 00c2 191C     		mov	r1, r3
 357 00c4 FFF7FEFF 		bl	CyIntSetVector
 256:Generated_Source\PSoC4/cyfitter_cfg.c **** 	CyIntEnable(8u);
 358              		.loc 1 256 0
 359 00c8 0820     		mov	r0, #8
 360 00ca FFF7FEFF 		bl	CyIntEnable
 257:Generated_Source\PSoC4/cyfitter_cfg.c **** 	CY_SET_XTND_REG32((void CYFAR *)(CYREG_WDT_MATCH), 0x00000020u);
 361              		.loc 1 257 0
 362 00ce 244B     		ldr	r3, .L11+104
 363 00d0 2022     		mov	r2, #32
 364 00d2 1A60     		str	r2, [r3]
 258:Generated_Source\PSoC4/cyfitter_cfg.c **** 	CY_SET_XTND_REG32((void CYFAR *)(CYREG_WDT_CONFIG), 0x40000005u);
 365              		.loc 1 258 0
 366 00d4 0A4B     		ldr	r3, .L11+8
ARM GAS  C:\Users\Petro\AppData\Local\Temp\cc0qxchC.s 			page 12


 367 00d6 234A     		ldr	r2, .L11+108
 368 00d8 1A60     		str	r2, [r3]
 259:Generated_Source\PSoC4/cyfitter_cfg.c **** 	CY_SET_XTND_REG32((void CYFAR *)(CYREG_WDT_CONTROL), 0x00000008u);
 369              		.loc 1 259 0
 370 00da 234B     		ldr	r3, .L11+112
 371 00dc 0822     		mov	r2, #8
 372 00de 1A60     		str	r2, [r3]
 260:Generated_Source\PSoC4/cyfitter_cfg.c **** 	while ((CY_GET_XTND_REG32((void CYFAR *)(CYREG_WDT_CONTROL)) & 0x00000008u) != 0u) { }
 373              		.loc 1 260 0
 374 00e0 C046     		mov	r8, r8
 375              	.L10:
 376              		.loc 1 260 0 is_stmt 0 discriminator 1
 377 00e2 214B     		ldr	r3, .L11+112
 378 00e4 1B68     		ldr	r3, [r3]
 379 00e6 0822     		mov	r2, #8
 380 00e8 1340     		and	r3, r2
 381 00ea FAD1     		bne	.L10
 261:Generated_Source\PSoC4/cyfitter_cfg.c **** 	CY_SET_XTND_REG32((void CYFAR *)(CYREG_WDT_CONTROL), 0x00000001u);
 382              		.loc 1 261 0 is_stmt 1
 383 00ec 1E4B     		ldr	r3, .L11+112
 384 00ee 0122     		mov	r2, #1
 385 00f0 1A60     		str	r2, [r3]
 262:Generated_Source\PSoC4/cyfitter_cfg.c **** }
 386              		.loc 1 262 0
 387 00f2 BD46     		mov	sp, r7
 388              		@ sp needed
 389 00f4 80BD     		pop	{r7, pc}
 390              	.L12:
 391 00f6 C046     		.align	2
 392              	.L11:
 393 00f8 30001040 		.word	1074790448
 394 00fc 001BB700 		.word	12000000
 395 0100 0C020B40 		.word	1074463244
 396 0104 78002E40 		.word	1076756600
 397 0108 7C002E40 		.word	1076756604
 398 010c 2D3E0000 		.word	15917
 399 0110 64F02E40 		.word	1076818020
 400 0114 6CF02E40 		.word	1076818028
 401 0118 DC050000 		.word	1500
 402 011c 08030140 		.word	1073808136
 403 0120 00000140 		.word	1073807360
 404 0124 42FF0080 		.word	-2147418302
 405 0128 0C030140 		.word	1073808140
 406 012c 007FBB00 		.word	12287744
 407 0130 43FF0080 		.word	-2147418301
 408 0134 00030140 		.word	1073808128
 409 0138 40FF0080 		.word	-2147418304
 410 013c 04030140 		.word	1073808132
 411 0140 41FF0080 		.word	-2147418303
 412 0144 08010B40 		.word	1074462984
 413 0148 00010B40 		.word	1074462976
 414 014c 20010140 		.word	1073807648
 415 0150 1C010140 		.word	1073807644
 416 0154 18010140 		.word	1073807640
 417 0158 08010140 		.word	1073807624
 418 015c 00000000 		.word	CySysWdtIsr
 419 0160 08020B40 		.word	1074463240
ARM GAS  C:\Users\Petro\AppData\Local\Temp\cc0qxchC.s 			page 13


 420 0164 05000040 		.word	1073741829
 421 0168 10020B40 		.word	1074463248
 422              		.cfi_endproc
 423              	.LFE6:
 424              		.size	ClockSetup, .-ClockSetup
 425              		.section	.text.AnalogSetDefault,"ax",%progbits
 426              		.align	2
 427              		.code	16
 428              		.thumb_func
 429              		.type	AnalogSetDefault, %function
 430              	AnalogSetDefault:
 431              	.LFB7:
 263:Generated_Source\PSoC4/cyfitter_cfg.c **** 
 264:Generated_Source\PSoC4/cyfitter_cfg.c **** 
 265:Generated_Source\PSoC4/cyfitter_cfg.c **** /* Analog API Functions */
 266:Generated_Source\PSoC4/cyfitter_cfg.c **** 
 267:Generated_Source\PSoC4/cyfitter_cfg.c **** 
 268:Generated_Source\PSoC4/cyfitter_cfg.c **** /*******************************************************************************
 269:Generated_Source\PSoC4/cyfitter_cfg.c **** * Function Name: AnalogSetDefault
 270:Generated_Source\PSoC4/cyfitter_cfg.c **** ********************************************************************************
 271:Generated_Source\PSoC4/cyfitter_cfg.c **** *
 272:Generated_Source\PSoC4/cyfitter_cfg.c **** * Summary:
 273:Generated_Source\PSoC4/cyfitter_cfg.c **** *  Sets up the analog portions of the chip to default values based on chip
 274:Generated_Source\PSoC4/cyfitter_cfg.c **** *  configuration options from the project.
 275:Generated_Source\PSoC4/cyfitter_cfg.c **** *
 276:Generated_Source\PSoC4/cyfitter_cfg.c **** * Parameters:
 277:Generated_Source\PSoC4/cyfitter_cfg.c **** *  void
 278:Generated_Source\PSoC4/cyfitter_cfg.c **** *
 279:Generated_Source\PSoC4/cyfitter_cfg.c **** * Return:
 280:Generated_Source\PSoC4/cyfitter_cfg.c **** *  void
 281:Generated_Source\PSoC4/cyfitter_cfg.c **** *
 282:Generated_Source\PSoC4/cyfitter_cfg.c **** *******************************************************************************/
 283:Generated_Source\PSoC4/cyfitter_cfg.c **** static void AnalogSetDefault(void);
 284:Generated_Source\PSoC4/cyfitter_cfg.c **** static void AnalogSetDefault(void)
 285:Generated_Source\PSoC4/cyfitter_cfg.c **** {
 432              		.loc 1 285 0
 433              		.cfi_startproc
 434 0000 80B5     		push	{r7, lr}
 435              		.cfi_def_cfa_offset 8
 436              		.cfi_offset 7, -8
 437              		.cfi_offset 14, -4
 438 0002 00AF     		add	r7, sp, #0
 439              		.cfi_def_cfa_register 7
 286:Generated_Source\PSoC4/cyfitter_cfg.c **** 	CY_SET_XTND_REG32((void CYFAR *)CYREG_CTBM0_DFT_CTRL, 0x00000003u);
 440              		.loc 1 286 0
 441 0004 0A4B     		ldr	r3, .L14
 442 0006 0322     		mov	r2, #3
 443 0008 1A60     		str	r2, [r3]
 287:Generated_Source\PSoC4/cyfitter_cfg.c **** 	CY_SET_XTND_REG32((void CYFAR *)CYREG_CTBM1_DFT_CTRL, 0x00000003u);
 444              		.loc 1 287 0
 445 000a 0A4B     		ldr	r3, .L14+4
 446 000c 0322     		mov	r2, #3
 447 000e 1A60     		str	r2, [r3]
 288:Generated_Source\PSoC4/cyfitter_cfg.c **** 	CY_SET_XTND_REG32((void CYFAR *)CYREG_SAR_CTRL, 0x80000000u);
 448              		.loc 1 288 0
 449 0010 094B     		ldr	r3, .L14+8
 450 0012 8022     		mov	r2, #128
ARM GAS  C:\Users\Petro\AppData\Local\Temp\cc0qxchC.s 			page 14


 451 0014 1206     		lsl	r2, r2, #24
 452 0016 1A60     		str	r2, [r3]
 289:Generated_Source\PSoC4/cyfitter_cfg.c **** 	CY_SET_XTND_REG32((void CYFAR *)CYREG_SAR_MUX_SWITCH0, 0x00000010u);
 453              		.loc 1 289 0
 454 0018 084B     		ldr	r3, .L14+12
 455 001a 1022     		mov	r2, #16
 456 001c 1A60     		str	r2, [r3]
 290:Generated_Source\PSoC4/cyfitter_cfg.c **** 	CY_SET_XTND_REG32((void CYFAR *)CYREG_PASS_DSAB_DSAB_CTRL, 0x00000000u);
 457              		.loc 1 290 0
 458 001e 084B     		ldr	r3, .L14+16
 459 0020 0022     		mov	r2, #0
 460 0022 1A60     		str	r2, [r3]
 291:Generated_Source\PSoC4/cyfitter_cfg.c **** 	SetAnalogRoutingPumps(1);
 461              		.loc 1 291 0
 462 0024 0120     		mov	r0, #1
 463 0026 FFF7FEFF 		bl	SetAnalogRoutingPumps
 292:Generated_Source\PSoC4/cyfitter_cfg.c **** }
 464              		.loc 1 292 0
 465 002a BD46     		mov	sp, r7
 466              		@ sp needed
 467 002c 80BD     		pop	{r7, pc}
 468              	.L15:
 469 002e C046     		.align	2
 470              	.L14:
 471 0030 30003040 		.word	1076887600
 472 0034 30003140 		.word	1076953136
 473 0038 00003A40 		.word	1077542912
 474 003c 00033A40 		.word	1077543680
 475 0040 000E3F40 		.word	1077874176
 476              		.cfi_endproc
 477              	.LFE7:
 478              		.size	AnalogSetDefault, .-AnalogSetDefault
 479              		.section	.text.SetAnalogRoutingPumps,"ax",%progbits
 480              		.align	2
 481              		.global	SetAnalogRoutingPumps
 482              		.code	16
 483              		.thumb_func
 484              		.type	SetAnalogRoutingPumps, %function
 485              	SetAnalogRoutingPumps:
 486              	.LFB8:
 293:Generated_Source\PSoC4/cyfitter_cfg.c **** 
 294:Generated_Source\PSoC4/cyfitter_cfg.c **** 
 295:Generated_Source\PSoC4/cyfitter_cfg.c **** /*******************************************************************************
 296:Generated_Source\PSoC4/cyfitter_cfg.c **** * Function Name: SetAnalogRoutingPumps
 297:Generated_Source\PSoC4/cyfitter_cfg.c **** ********************************************************************************
 298:Generated_Source\PSoC4/cyfitter_cfg.c **** *
 299:Generated_Source\PSoC4/cyfitter_cfg.c **** * Summary:
 300:Generated_Source\PSoC4/cyfitter_cfg.c **** * Enables or disables the analog pumps feeding analog routing switches.
 301:Generated_Source\PSoC4/cyfitter_cfg.c **** * Intended to be called at startup, based on the Vdda system configuration;
 302:Generated_Source\PSoC4/cyfitter_cfg.c **** * may be called during operation when the user informs us that the Vdda voltage crossed the pump th
 303:Generated_Source\PSoC4/cyfitter_cfg.c **** *
 304:Generated_Source\PSoC4/cyfitter_cfg.c **** * Parameters:
 305:Generated_Source\PSoC4/cyfitter_cfg.c **** *  enabled - 1 to enable the pumps, 0 to disable the pumps
 306:Generated_Source\PSoC4/cyfitter_cfg.c **** *
 307:Generated_Source\PSoC4/cyfitter_cfg.c **** * Return:
 308:Generated_Source\PSoC4/cyfitter_cfg.c **** *  void
 309:Generated_Source\PSoC4/cyfitter_cfg.c **** *
ARM GAS  C:\Users\Petro\AppData\Local\Temp\cc0qxchC.s 			page 15


 310:Generated_Source\PSoC4/cyfitter_cfg.c **** *******************************************************************************/
 311:Generated_Source\PSoC4/cyfitter_cfg.c **** void SetAnalogRoutingPumps(uint8 enabled)
 312:Generated_Source\PSoC4/cyfitter_cfg.c **** {
 487              		.loc 1 312 0
 488              		.cfi_startproc
 489 0000 80B5     		push	{r7, lr}
 490              		.cfi_def_cfa_offset 8
 491              		.cfi_offset 7, -8
 492              		.cfi_offset 14, -4
 493 0002 84B0     		sub	sp, sp, #16
 494              		.cfi_def_cfa_offset 24
 495 0004 00AF     		add	r7, sp, #0
 496              		.cfi_def_cfa_register 7
 497 0006 021C     		mov	r2, r0
 498 0008 FB1D     		add	r3, r7, #7
 499 000a 1A70     		strb	r2, [r3]
 313:Generated_Source\PSoC4/cyfitter_cfg.c **** 	uint32 regValue = CY_GET_XTND_REG32((void *)(CYREG_SAR_PUMP_CTRL));
 500              		.loc 1 313 0
 501 000c 0B4B     		ldr	r3, .L19
 502 000e 1B68     		ldr	r3, [r3]
 503 0010 FB60     		str	r3, [r7, #12]
 314:Generated_Source\PSoC4/cyfitter_cfg.c **** 	if (enabled != 0u)
 504              		.loc 1 314 0
 505 0012 FB1D     		add	r3, r7, #7
 506 0014 1B78     		ldrb	r3, [r3]
 507 0016 002B     		cmp	r3, #0
 508 0018 05D0     		beq	.L17
 315:Generated_Source\PSoC4/cyfitter_cfg.c **** 	{
 316:Generated_Source\PSoC4/cyfitter_cfg.c **** 		regValue |= 0x80000000u;
 509              		.loc 1 316 0
 510 001a FB68     		ldr	r3, [r7, #12]
 511 001c 8022     		mov	r2, #128
 512 001e 1206     		lsl	r2, r2, #24
 513 0020 1343     		orr	r3, r2
 514 0022 FB60     		str	r3, [r7, #12]
 515 0024 03E0     		b	.L18
 516              	.L17:
 317:Generated_Source\PSoC4/cyfitter_cfg.c **** 	}
 318:Generated_Source\PSoC4/cyfitter_cfg.c **** 	else
 319:Generated_Source\PSoC4/cyfitter_cfg.c **** 	{
 320:Generated_Source\PSoC4/cyfitter_cfg.c **** 		regValue &= ~0x80000000u;
 517              		.loc 1 320 0
 518 0026 FB68     		ldr	r3, [r7, #12]
 519 0028 5B00     		lsl	r3, r3, #1
 520 002a 5B08     		lsr	r3, r3, #1
 521 002c FB60     		str	r3, [r7, #12]
 522              	.L18:
 321:Generated_Source\PSoC4/cyfitter_cfg.c **** 	}
 322:Generated_Source\PSoC4/cyfitter_cfg.c **** 	CY_SET_XTND_REG32((void *)(CYREG_SAR_PUMP_CTRL), regValue);
 523              		.loc 1 322 0
 524 002e 034B     		ldr	r3, .L19
 525 0030 FA68     		ldr	r2, [r7, #12]
 526 0032 1A60     		str	r2, [r3]
 323:Generated_Source\PSoC4/cyfitter_cfg.c **** }
 527              		.loc 1 323 0
 528 0034 BD46     		mov	sp, r7
 529 0036 04B0     		add	sp, sp, #16
ARM GAS  C:\Users\Petro\AppData\Local\Temp\cc0qxchC.s 			page 16


 530              		@ sp needed
 531 0038 80BD     		pop	{r7, pc}
 532              	.L20:
 533 003a C046     		.align	2
 534              	.L19:
 535 003c 80033A40 		.word	1077543808
 536              		.cfi_endproc
 537              	.LFE8:
 538              		.size	SetAnalogRoutingPumps, .-SetAnalogRoutingPumps
 539              		.section	.psocinit
 540              		.align	2
 541              		.global	cyfitter_cfg
 542              		.code	16
 543              		.thumb_func
 544              		.type	cyfitter_cfg, %function
 545              	cyfitter_cfg:
 546              	.LFB9:
 324:Generated_Source\PSoC4/cyfitter_cfg.c **** 
 325:Generated_Source\PSoC4/cyfitter_cfg.c **** #define CY_AMUX_UNUSED CYREG_CM0_ROM_DWT
 326:Generated_Source\PSoC4/cyfitter_cfg.c **** 
 327:Generated_Source\PSoC4/cyfitter_cfg.c **** 
 328:Generated_Source\PSoC4/cyfitter_cfg.c **** /*******************************************************************************
 329:Generated_Source\PSoC4/cyfitter_cfg.c **** * Function Name: cyfitter_cfg
 330:Generated_Source\PSoC4/cyfitter_cfg.c **** ********************************************************************************
 331:Generated_Source\PSoC4/cyfitter_cfg.c **** * Summary:
 332:Generated_Source\PSoC4/cyfitter_cfg.c **** *  This function is called by the start-up code for the selected device. It
 333:Generated_Source\PSoC4/cyfitter_cfg.c **** *  performs all of the necessary device configuration based on the design
 334:Generated_Source\PSoC4/cyfitter_cfg.c **** *  settings.  This includes settings from the Design Wide Resources (DWR) such
 335:Generated_Source\PSoC4/cyfitter_cfg.c **** *  as Clocks and Pins as well as any component configuration that is necessary.
 336:Generated_Source\PSoC4/cyfitter_cfg.c **** *
 337:Generated_Source\PSoC4/cyfitter_cfg.c **** * Parameters:  
 338:Generated_Source\PSoC4/cyfitter_cfg.c **** *   void
 339:Generated_Source\PSoC4/cyfitter_cfg.c **** *
 340:Generated_Source\PSoC4/cyfitter_cfg.c **** * Return:
 341:Generated_Source\PSoC4/cyfitter_cfg.c **** *   void
 342:Generated_Source\PSoC4/cyfitter_cfg.c **** *
 343:Generated_Source\PSoC4/cyfitter_cfg.c **** *******************************************************************************/
 344:Generated_Source\PSoC4/cyfitter_cfg.c **** CY_CFG_SECTION
 345:Generated_Source\PSoC4/cyfitter_cfg.c **** void cyfitter_cfg(void)
 346:Generated_Source\PSoC4/cyfitter_cfg.c **** {
 547              		.loc 1 346 0
 548              		.cfi_startproc
 549 016c 80B5     		push	{r7, lr}
 550              		.cfi_def_cfa_offset 8
 551              		.cfi_offset 7, -8
 552              		.cfi_offset 14, -4
 553 016e 82B0     		sub	sp, sp, #8
 554              		.cfi_def_cfa_offset 16
 555 0170 00AF     		add	r7, sp, #0
 556              		.cfi_def_cfa_register 7
 347:Generated_Source\PSoC4/cyfitter_cfg.c **** 	/* Disable interrupts by default. Let user enable if/when they want. */
 348:Generated_Source\PSoC4/cyfitter_cfg.c **** 	CyGlobalIntDisable;
 557              		.loc 1 348 0
 558              	@ 348 "Generated_Source\PSoC4\cyfitter_cfg.c" 1
 559 0172 72B6     		CPSID   i
 560              	@ 0 "" 2
 349:Generated_Source\PSoC4/cyfitter_cfg.c **** 
ARM GAS  C:\Users\Petro\AppData\Local\Temp\cc0qxchC.s 			page 17


 350:Generated_Source\PSoC4/cyfitter_cfg.c **** 	CY_SET_XTND_REG32((void CYFAR *)(CYREG_BLE_BLESS_LL_DSM_CTRL), 0x00000000u);
 561              		.loc 1 350 0
 562              		.code	16
 563 0174 474B     		ldr	r3, .L24
 564 0176 0022     		mov	r2, #0
 565 0178 1A60     		str	r2, [r3]
 351:Generated_Source\PSoC4/cyfitter_cfg.c **** 
 352:Generated_Source\PSoC4/cyfitter_cfg.c **** 	/* Enable the clock in the interrupt controller for the routed interrupts */
 353:Generated_Source\PSoC4/cyfitter_cfg.c **** 	CY_SET_REG8((void *)CYREG_UDB_UDBIF_INT_CLK_CTL, 0x01u);
 566              		.loc 1 353 0
 567 017a 474B     		ldr	r3, .L24+4
 568 017c 0122     		mov	r2, #1
 569 017e 1A70     		strb	r2, [r3]
 570              	.LBB3:
 354:Generated_Source\PSoC4/cyfitter_cfg.c **** 	{
 355:Generated_Source\PSoC4/cyfitter_cfg.c **** 		static const uint32 CYCODE cy_cfg_addr_table[] = {
 356:Generated_Source\PSoC4/cyfitter_cfg.c **** 			0x400F0001u, /* Base address: 0x400F0000 Count: 1 */
 357:Generated_Source\PSoC4/cyfitter_cfg.c **** 			0x400F303Eu, /* Base address: 0x400F3000 Count: 62 */
 358:Generated_Source\PSoC4/cyfitter_cfg.c **** 			0x400F311Fu, /* Base address: 0x400F3100 Count: 31 */
 359:Generated_Source\PSoC4/cyfitter_cfg.c **** 			0x400F3219u, /* Base address: 0x400F3200 Count: 25 */
 360:Generated_Source\PSoC4/cyfitter_cfg.c **** 			0x400F330Fu, /* Base address: 0x400F3300 Count: 15 */
 361:Generated_Source\PSoC4/cyfitter_cfg.c **** 			0x400F4002u, /* Base address: 0x400F4000 Count: 2 */
 362:Generated_Source\PSoC4/cyfitter_cfg.c **** 			0x400F4107u, /* Base address: 0x400F4100 Count: 7 */
 363:Generated_Source\PSoC4/cyfitter_cfg.c **** 			0x400F4204u, /* Base address: 0x400F4200 Count: 4 */
 364:Generated_Source\PSoC4/cyfitter_cfg.c **** 			0x400F6002u, /* Base address: 0x400F6000 Count: 2 */
 365:Generated_Source\PSoC4/cyfitter_cfg.c **** 		};
 366:Generated_Source\PSoC4/cyfitter_cfg.c **** 
 367:Generated_Source\PSoC4/cyfitter_cfg.c **** 		static const cy_cfg_addrvalue_t CYCODE cy_cfg_data_table[] = {
 368:Generated_Source\PSoC4/cyfitter_cfg.c **** 			{0x82u, 0x0Du},
 369:Generated_Source\PSoC4/cyfitter_cfg.c **** 			{0x40u, 0x31u},
 370:Generated_Source\PSoC4/cyfitter_cfg.c **** 			{0x49u, 0xFFu},
 371:Generated_Source\PSoC4/cyfitter_cfg.c **** 			{0x4Au, 0xFFu},
 372:Generated_Source\PSoC4/cyfitter_cfg.c **** 			{0x4Bu, 0xFFu},
 373:Generated_Source\PSoC4/cyfitter_cfg.c **** 			{0x4Fu, 0x01u},
 374:Generated_Source\PSoC4/cyfitter_cfg.c **** 			{0x50u, 0x18u},
 375:Generated_Source\PSoC4/cyfitter_cfg.c **** 			{0x56u, 0x08u},
 376:Generated_Source\PSoC4/cyfitter_cfg.c **** 			{0x5Au, 0x0Au},
 377:Generated_Source\PSoC4/cyfitter_cfg.c **** 			{0x5Bu, 0x04u},
 378:Generated_Source\PSoC4/cyfitter_cfg.c **** 			{0x5Du, 0x99u},
 379:Generated_Source\PSoC4/cyfitter_cfg.c **** 			{0x5Fu, 0x01u},
 380:Generated_Source\PSoC4/cyfitter_cfg.c **** 			{0x60u, 0x40u},
 381:Generated_Source\PSoC4/cyfitter_cfg.c **** 			{0x62u, 0x40u},
 382:Generated_Source\PSoC4/cyfitter_cfg.c **** 			{0x64u, 0x40u},
 383:Generated_Source\PSoC4/cyfitter_cfg.c **** 			{0x65u, 0x40u},
 384:Generated_Source\PSoC4/cyfitter_cfg.c **** 			{0x66u, 0x80u},
 385:Generated_Source\PSoC4/cyfitter_cfg.c **** 			{0x68u, 0x80u},
 386:Generated_Source\PSoC4/cyfitter_cfg.c **** 			{0x6Au, 0x80u},
 387:Generated_Source\PSoC4/cyfitter_cfg.c **** 			{0x6Cu, 0x80u},
 388:Generated_Source\PSoC4/cyfitter_cfg.c **** 			{0x6Eu, 0x80u},
 389:Generated_Source\PSoC4/cyfitter_cfg.c **** 			{0x82u, 0x27u},
 390:Generated_Source\PSoC4/cyfitter_cfg.c **** 			{0x8Cu, 0x0Fu},
 391:Generated_Source\PSoC4/cyfitter_cfg.c **** 			{0x94u, 0x01u},
 392:Generated_Source\PSoC4/cyfitter_cfg.c **** 			{0x96u, 0x08u},
 393:Generated_Source\PSoC4/cyfitter_cfg.c **** 			{0x98u, 0x02u},
 394:Generated_Source\PSoC4/cyfitter_cfg.c **** 			{0x9Au, 0x18u},
 395:Generated_Source\PSoC4/cyfitter_cfg.c **** 			{0xA5u, 0x01u},
 396:Generated_Source\PSoC4/cyfitter_cfg.c **** 			{0xACu, 0x04u},
ARM GAS  C:\Users\Petro\AppData\Local\Temp\cc0qxchC.s 			page 18


 397:Generated_Source\PSoC4/cyfitter_cfg.c **** 			{0xAEu, 0x18u},
 398:Generated_Source\PSoC4/cyfitter_cfg.c **** 			{0xB0u, 0x08u},
 399:Generated_Source\PSoC4/cyfitter_cfg.c **** 			{0xB2u, 0x07u},
 400:Generated_Source\PSoC4/cyfitter_cfg.c **** 			{0xB3u, 0x01u},
 401:Generated_Source\PSoC4/cyfitter_cfg.c **** 			{0xB4u, 0x20u},
 402:Generated_Source\PSoC4/cyfitter_cfg.c **** 			{0xB6u, 0x10u},
 403:Generated_Source\PSoC4/cyfitter_cfg.c **** 			{0xBAu, 0x02u},
 404:Generated_Source\PSoC4/cyfitter_cfg.c **** 			{0xBEu, 0x40u},
 405:Generated_Source\PSoC4/cyfitter_cfg.c **** 			{0xBFu, 0x04u},
 406:Generated_Source\PSoC4/cyfitter_cfg.c **** 			{0xC0u, 0x31u},
 407:Generated_Source\PSoC4/cyfitter_cfg.c **** 			{0xC9u, 0xFFu},
 408:Generated_Source\PSoC4/cyfitter_cfg.c **** 			{0xCAu, 0xFFu},
 409:Generated_Source\PSoC4/cyfitter_cfg.c **** 			{0xCBu, 0xFFu},
 410:Generated_Source\PSoC4/cyfitter_cfg.c **** 			{0xCDu, 0x83u},
 411:Generated_Source\PSoC4/cyfitter_cfg.c **** 			{0xCEu, 0x03u},
 412:Generated_Source\PSoC4/cyfitter_cfg.c **** 			{0xCFu, 0x01u},
 413:Generated_Source\PSoC4/cyfitter_cfg.c **** 			{0xD0u, 0x18u},
 414:Generated_Source\PSoC4/cyfitter_cfg.c **** 			{0xD2u, 0x80u},
 415:Generated_Source\PSoC4/cyfitter_cfg.c **** 			{0xD8u, 0x0Au},
 416:Generated_Source\PSoC4/cyfitter_cfg.c **** 			{0xD9u, 0x04u},
 417:Generated_Source\PSoC4/cyfitter_cfg.c **** 			{0xDAu, 0x0Au},
 418:Generated_Source\PSoC4/cyfitter_cfg.c **** 			{0xDBu, 0x0Bu},
 419:Generated_Source\PSoC4/cyfitter_cfg.c **** 			{0xDCu, 0x09u},
 420:Generated_Source\PSoC4/cyfitter_cfg.c **** 			{0xDDu, 0x99u},
 421:Generated_Source\PSoC4/cyfitter_cfg.c **** 			{0xDFu, 0x01u},
 422:Generated_Source\PSoC4/cyfitter_cfg.c **** 			{0xE0u, 0x40u},
 423:Generated_Source\PSoC4/cyfitter_cfg.c **** 			{0xE2u, 0x40u},
 424:Generated_Source\PSoC4/cyfitter_cfg.c **** 			{0xE4u, 0x40u},
 425:Generated_Source\PSoC4/cyfitter_cfg.c **** 			{0xE5u, 0x40u},
 426:Generated_Source\PSoC4/cyfitter_cfg.c **** 			{0xE6u, 0x80u},
 427:Generated_Source\PSoC4/cyfitter_cfg.c **** 			{0xE8u, 0x80u},
 428:Generated_Source\PSoC4/cyfitter_cfg.c **** 			{0xEAu, 0x80u},
 429:Generated_Source\PSoC4/cyfitter_cfg.c **** 			{0xECu, 0x80u},
 430:Generated_Source\PSoC4/cyfitter_cfg.c **** 			{0xEEu, 0x80u},
 431:Generated_Source\PSoC4/cyfitter_cfg.c **** 			{0x04u, 0x40u},
 432:Generated_Source\PSoC4/cyfitter_cfg.c **** 			{0x07u, 0x40u},
 433:Generated_Source\PSoC4/cyfitter_cfg.c **** 			{0x0Bu, 0xC0u},
 434:Generated_Source\PSoC4/cyfitter_cfg.c **** 			{0x0Du, 0x08u},
 435:Generated_Source\PSoC4/cyfitter_cfg.c **** 			{0x0Eu, 0x08u},
 436:Generated_Source\PSoC4/cyfitter_cfg.c **** 			{0x16u, 0x02u},
 437:Generated_Source\PSoC4/cyfitter_cfg.c **** 			{0x1Cu, 0x50u},
 438:Generated_Source\PSoC4/cyfitter_cfg.c **** 			{0x1Du, 0x08u},
 439:Generated_Source\PSoC4/cyfitter_cfg.c **** 			{0x1Eu, 0x08u},
 440:Generated_Source\PSoC4/cyfitter_cfg.c **** 			{0x1Fu, 0x40u},
 441:Generated_Source\PSoC4/cyfitter_cfg.c **** 			{0x27u, 0x20u},
 442:Generated_Source\PSoC4/cyfitter_cfg.c **** 			{0x2Fu, 0x10u},
 443:Generated_Source\PSoC4/cyfitter_cfg.c **** 			{0x40u, 0x10u},
 444:Generated_Source\PSoC4/cyfitter_cfg.c **** 			{0x42u, 0x02u},
 445:Generated_Source\PSoC4/cyfitter_cfg.c **** 			{0x45u, 0x08u},
 446:Generated_Source\PSoC4/cyfitter_cfg.c **** 			{0x46u, 0x02u},
 447:Generated_Source\PSoC4/cyfitter_cfg.c **** 			{0x58u, 0xA0u},
 448:Generated_Source\PSoC4/cyfitter_cfg.c **** 			{0x60u, 0x08u},
 449:Generated_Source\PSoC4/cyfitter_cfg.c **** 			{0x62u, 0xA0u},
 450:Generated_Source\PSoC4/cyfitter_cfg.c **** 			{0x77u, 0x40u},
 451:Generated_Source\PSoC4/cyfitter_cfg.c **** 			{0x78u, 0x08u},
 452:Generated_Source\PSoC4/cyfitter_cfg.c **** 			{0x7Eu, 0xA0u},
 453:Generated_Source\PSoC4/cyfitter_cfg.c **** 			{0x8Cu, 0xA0u},
ARM GAS  C:\Users\Petro\AppData\Local\Temp\cc0qxchC.s 			page 19


 454:Generated_Source\PSoC4/cyfitter_cfg.c **** 			{0xC0u, 0x90u},
 455:Generated_Source\PSoC4/cyfitter_cfg.c **** 			{0xC2u, 0x60u},
 456:Generated_Source\PSoC4/cyfitter_cfg.c **** 			{0xC4u, 0x80u},
 457:Generated_Source\PSoC4/cyfitter_cfg.c **** 			{0xCAu, 0x40u},
 458:Generated_Source\PSoC4/cyfitter_cfg.c **** 			{0xD0u, 0x5Au},
 459:Generated_Source\PSoC4/cyfitter_cfg.c **** 			{0xD6u, 0x0Cu},
 460:Generated_Source\PSoC4/cyfitter_cfg.c **** 			{0xD8u, 0x0Cu},
 461:Generated_Source\PSoC4/cyfitter_cfg.c **** 			{0xDEu, 0xC2u},
 462:Generated_Source\PSoC4/cyfitter_cfg.c **** 			{0x40u, 0x31u},
 463:Generated_Source\PSoC4/cyfitter_cfg.c **** 			{0x45u, 0xECu},
 464:Generated_Source\PSoC4/cyfitter_cfg.c **** 			{0x47u, 0x20u},
 465:Generated_Source\PSoC4/cyfitter_cfg.c **** 			{0x48u, 0x23u},
 466:Generated_Source\PSoC4/cyfitter_cfg.c **** 			{0x49u, 0xFFu},
 467:Generated_Source\PSoC4/cyfitter_cfg.c **** 			{0x4Au, 0xFFu},
 468:Generated_Source\PSoC4/cyfitter_cfg.c **** 			{0x4Bu, 0xFFu},
 469:Generated_Source\PSoC4/cyfitter_cfg.c **** 			{0x4Du, 0x83u},
 470:Generated_Source\PSoC4/cyfitter_cfg.c **** 			{0x4Eu, 0x03u},
 471:Generated_Source\PSoC4/cyfitter_cfg.c **** 			{0x4Fu, 0x01u},
 472:Generated_Source\PSoC4/cyfitter_cfg.c **** 			{0x50u, 0x18u},
 473:Generated_Source\PSoC4/cyfitter_cfg.c **** 			{0x54u, 0x01u},
 474:Generated_Source\PSoC4/cyfitter_cfg.c **** 			{0x5Au, 0x0Au},
 475:Generated_Source\PSoC4/cyfitter_cfg.c **** 			{0x5Bu, 0x0Au},
 476:Generated_Source\PSoC4/cyfitter_cfg.c **** 			{0x5Du, 0x99u},
 477:Generated_Source\PSoC4/cyfitter_cfg.c **** 			{0x5Fu, 0x01u},
 478:Generated_Source\PSoC4/cyfitter_cfg.c **** 			{0x60u, 0x40u},
 479:Generated_Source\PSoC4/cyfitter_cfg.c **** 			{0x62u, 0x40u},
 480:Generated_Source\PSoC4/cyfitter_cfg.c **** 			{0x64u, 0x40u},
 481:Generated_Source\PSoC4/cyfitter_cfg.c **** 			{0x65u, 0x40u},
 482:Generated_Source\PSoC4/cyfitter_cfg.c **** 			{0x66u, 0x80u},
 483:Generated_Source\PSoC4/cyfitter_cfg.c **** 			{0x68u, 0x80u},
 484:Generated_Source\PSoC4/cyfitter_cfg.c **** 			{0x6Au, 0x80u},
 485:Generated_Source\PSoC4/cyfitter_cfg.c **** 			{0x6Cu, 0x80u},
 486:Generated_Source\PSoC4/cyfitter_cfg.c **** 			{0x6Eu, 0x80u},
 487:Generated_Source\PSoC4/cyfitter_cfg.c **** 			{0x45u, 0x08u},
 488:Generated_Source\PSoC4/cyfitter_cfg.c **** 			{0x46u, 0x02u},
 489:Generated_Source\PSoC4/cyfitter_cfg.c **** 			{0x4Fu, 0x05u},
 490:Generated_Source\PSoC4/cyfitter_cfg.c **** 			{0x56u, 0x02u},
 491:Generated_Source\PSoC4/cyfitter_cfg.c **** 			{0x5Fu, 0x45u},
 492:Generated_Source\PSoC4/cyfitter_cfg.c **** 			{0x7Eu, 0x20u},
 493:Generated_Source\PSoC4/cyfitter_cfg.c **** 			{0x93u, 0x40u},
 494:Generated_Source\PSoC4/cyfitter_cfg.c **** 			{0x9Eu, 0x02u},
 495:Generated_Source\PSoC4/cyfitter_cfg.c **** 			{0xA1u, 0x08u},
 496:Generated_Source\PSoC4/cyfitter_cfg.c **** 			{0xA2u, 0x20u},
 497:Generated_Source\PSoC4/cyfitter_cfg.c **** 			{0xABu, 0x20u},
 498:Generated_Source\PSoC4/cyfitter_cfg.c **** 			{0xAFu, 0x10u},
 499:Generated_Source\PSoC4/cyfitter_cfg.c **** 			{0xD0u, 0x50u},
 500:Generated_Source\PSoC4/cyfitter_cfg.c **** 			{0xD6u, 0xD0u},
 501:Generated_Source\PSoC4/cyfitter_cfg.c **** 			{0xDEu, 0x40u},
 502:Generated_Source\PSoC4/cyfitter_cfg.c **** 			{0x0Bu, 0x40u},
 503:Generated_Source\PSoC4/cyfitter_cfg.c **** 			{0xC2u, 0x10u},
 504:Generated_Source\PSoC4/cyfitter_cfg.c **** 			{0x6Fu, 0x04u},
 505:Generated_Source\PSoC4/cyfitter_cfg.c **** 			{0x9Bu, 0x04u},
 506:Generated_Source\PSoC4/cyfitter_cfg.c **** 			{0xABu, 0x04u},
 507:Generated_Source\PSoC4/cyfitter_cfg.c **** 			{0xAFu, 0x40u},
 508:Generated_Source\PSoC4/cyfitter_cfg.c **** 			{0xDAu, 0x80u},
 509:Generated_Source\PSoC4/cyfitter_cfg.c **** 			{0xEAu, 0x80u},
 510:Generated_Source\PSoC4/cyfitter_cfg.c **** 			{0xECu, 0x40u},
ARM GAS  C:\Users\Petro\AppData\Local\Temp\cc0qxchC.s 			page 20


 511:Generated_Source\PSoC4/cyfitter_cfg.c **** 			{0x24u, 0x50u},
 512:Generated_Source\PSoC4/cyfitter_cfg.c **** 			{0x8Cu, 0x50u},
 513:Generated_Source\PSoC4/cyfitter_cfg.c **** 			{0xC8u, 0x01u},
 514:Generated_Source\PSoC4/cyfitter_cfg.c **** 			{0xE2u, 0x0Au},
 515:Generated_Source\PSoC4/cyfitter_cfg.c **** 			{0x02u, 0x01u},
 516:Generated_Source\PSoC4/cyfitter_cfg.c **** 			{0x11u, 0x01u},
 517:Generated_Source\PSoC4/cyfitter_cfg.c **** 		};
 518:Generated_Source\PSoC4/cyfitter_cfg.c **** 
 519:Generated_Source\PSoC4/cyfitter_cfg.c **** 
 520:Generated_Source\PSoC4/cyfitter_cfg.c **** 
 521:Generated_Source\PSoC4/cyfitter_cfg.c **** 		CYPACKED typedef struct {
 522:Generated_Source\PSoC4/cyfitter_cfg.c **** 			void CYFAR *address;
 523:Generated_Source\PSoC4/cyfitter_cfg.c **** 			uint16 size;
 524:Generated_Source\PSoC4/cyfitter_cfg.c **** 		} CYPACKED_ATTR cfg_memset_t;
 525:Generated_Source\PSoC4/cyfitter_cfg.c **** 
 526:Generated_Source\PSoC4/cyfitter_cfg.c **** 		static const cfg_memset_t CYCODE cfg_memset_list [] = {
 527:Generated_Source\PSoC4/cyfitter_cfg.c **** 			/* address, size */
 528:Generated_Source\PSoC4/cyfitter_cfg.c **** 			{(void CYFAR *)(CYDEV_UDB_P0_U0_BASE), 1024u},
 529:Generated_Source\PSoC4/cyfitter_cfg.c **** 			{(void CYFAR *)(CYDEV_UDB_DSI0_BASE), 1024u},
 530:Generated_Source\PSoC4/cyfitter_cfg.c **** 		};
 531:Generated_Source\PSoC4/cyfitter_cfg.c **** 
 532:Generated_Source\PSoC4/cyfitter_cfg.c **** 		uint8 CYDATA i;
 533:Generated_Source\PSoC4/cyfitter_cfg.c **** 
 534:Generated_Source\PSoC4/cyfitter_cfg.c **** 		/* Zero out critical memory blocks before beginning configuration */
 535:Generated_Source\PSoC4/cyfitter_cfg.c **** 		for (i = 0u; i < (sizeof(cfg_memset_list)/sizeof(cfg_memset_list[0])); i++)
 571              		.loc 1 535 0
 572 0180 FB1D     		add	r3, r7, #7
 573 0182 0022     		mov	r2, #0
 574 0184 1A70     		strb	r2, [r3]
 575 0186 23E0     		b	.L22
 576              	.L23:
 577              	.LBB4:
 536:Generated_Source\PSoC4/cyfitter_cfg.c **** 		{
 537:Generated_Source\PSoC4/cyfitter_cfg.c **** 			const cfg_memset_t CYCODE * CYDATA ms = &cfg_memset_list[i];
 578              		.loc 1 537 0 discriminator 3
 579 0188 FB1D     		add	r3, r7, #7
 580 018a 1A78     		ldrb	r2, [r3]
 581 018c 131C     		mov	r3, r2
 582 018e 5B00     		lsl	r3, r3, #1
 583 0190 9B18     		add	r3, r3, r2
 584 0192 5B00     		lsl	r3, r3, #1
 585 0194 414A     		ldr	r2, .L24+8
 586 0196 9B18     		add	r3, r3, r2
 587 0198 3B60     		str	r3, [r7]
 538:Generated_Source\PSoC4/cyfitter_cfg.c **** 			CYMEMZERO(ms->address, (size_t)(uint32)(ms->size));
 588              		.loc 1 538 0 discriminator 3
 589 019a 3B68     		ldr	r3, [r7]
 590 019c 1A78     		ldrb	r2, [r3]
 591 019e 5978     		ldrb	r1, [r3, #1]
 592 01a0 0902     		lsl	r1, r1, #8
 593 01a2 0A43     		orr	r2, r1
 594 01a4 9978     		ldrb	r1, [r3, #2]
 595 01a6 0904     		lsl	r1, r1, #16
 596 01a8 0A43     		orr	r2, r1
 597 01aa DB78     		ldrb	r3, [r3, #3]
 598 01ac 1B06     		lsl	r3, r3, #24
 599 01ae 1343     		orr	r3, r2
ARM GAS  C:\Users\Petro\AppData\Local\Temp\cc0qxchC.s 			page 21


 600 01b0 191C     		mov	r1, r3
 601 01b2 3B68     		ldr	r3, [r7]
 602 01b4 1A79     		ldrb	r2, [r3, #4]
 603 01b6 5B79     		ldrb	r3, [r3, #5]
 604 01b8 1B02     		lsl	r3, r3, #8
 605 01ba 1343     		orr	r3, r2
 606 01bc 9BB2     		uxth	r3, r3
 607 01be 081C     		mov	r0, r1
 608 01c0 191C     		mov	r1, r3
 609 01c2 FFF7FEFF 		bl	CYMEMZERO
 610              	.LBE4:
 535:Generated_Source\PSoC4/cyfitter_cfg.c **** 		{
 611              		.loc 1 535 0 discriminator 3
 612 01c6 FB1D     		add	r3, r7, #7
 613 01c8 1A78     		ldrb	r2, [r3]
 614 01ca FB1D     		add	r3, r7, #7
 615 01cc 0132     		add	r2, r2, #1
 616 01ce 1A70     		strb	r2, [r3]
 617              	.L22:
 535:Generated_Source\PSoC4/cyfitter_cfg.c **** 		{
 618              		.loc 1 535 0 is_stmt 0 discriminator 1
 619 01d0 FB1D     		add	r3, r7, #7
 620 01d2 1B78     		ldrb	r3, [r3]
 621 01d4 012B     		cmp	r3, #1
 622 01d6 D7D9     		bls	.L23
 539:Generated_Source\PSoC4/cyfitter_cfg.c **** 		}
 540:Generated_Source\PSoC4/cyfitter_cfg.c **** 
 541:Generated_Source\PSoC4/cyfitter_cfg.c **** 		cfg_write_bytes32(cy_cfg_addr_table, cy_cfg_data_table);
 623              		.loc 1 541 0 is_stmt 1
 624 01d8 314A     		ldr	r2, .L24+12
 625 01da 324B     		ldr	r3, .L24+16
 626 01dc 101C     		mov	r0, r2
 627 01de 191C     		mov	r1, r3
 628 01e0 FFF7FEFF 		bl	cfg_write_bytes32
 542:Generated_Source\PSoC4/cyfitter_cfg.c **** 
 543:Generated_Source\PSoC4/cyfitter_cfg.c **** 		/* HSIOM Starting address: CYDEV_HSIOM_BASE */
 544:Generated_Source\PSoC4/cyfitter_cfg.c **** 		CY_SET_XTND_REG32((void CYFAR *)(CYDEV_HSIOM_BASE), 0xEE000099u);
 629              		.loc 1 544 0
 630 01e4 304B     		ldr	r3, .L24+20
 631 01e6 314A     		ldr	r2, .L24+24
 632 01e8 1A60     		str	r2, [r3]
 545:Generated_Source\PSoC4/cyfitter_cfg.c **** 
 546:Generated_Source\PSoC4/cyfitter_cfg.c **** 		/* UDB_PA_0 Starting address: CYDEV_UDB_PA0_BASE */
 547:Generated_Source\PSoC4/cyfitter_cfg.c **** 		CY_SET_XTND_REG32((void CYFAR *)(CYDEV_UDB_PA0_BASE), 0x00990000u);
 633              		.loc 1 547 0
 634 01ea 314B     		ldr	r3, .L24+28
 635 01ec 9922     		mov	r2, #153
 636 01ee 1204     		lsl	r2, r2, #16
 637 01f0 1A60     		str	r2, [r3]
 548:Generated_Source\PSoC4/cyfitter_cfg.c **** 
 549:Generated_Source\PSoC4/cyfitter_cfg.c **** 		/* UDB_PA_1 Starting address: CYDEV_UDB_PA1_BASE */
 550:Generated_Source\PSoC4/cyfitter_cfg.c **** 		CY_SET_XTND_REG32((void CYFAR *)(CYDEV_UDB_PA1_BASE), 0x00990000u);
 638              		.loc 1 550 0
 639 01f2 304B     		ldr	r3, .L24+32
 640 01f4 9922     		mov	r2, #153
 641 01f6 1204     		lsl	r2, r2, #16
 642 01f8 1A60     		str	r2, [r3]
ARM GAS  C:\Users\Petro\AppData\Local\Temp\cc0qxchC.s 			page 22


 551:Generated_Source\PSoC4/cyfitter_cfg.c **** 
 552:Generated_Source\PSoC4/cyfitter_cfg.c **** 		/* UDB_PA_2 Starting address: CYDEV_UDB_PA2_BASE */
 553:Generated_Source\PSoC4/cyfitter_cfg.c **** 		CY_SET_XTND_REG32((void CYFAR *)(CYDEV_UDB_PA2_BASE), 0x00990000u);
 643              		.loc 1 553 0
 644 01fa 2F4B     		ldr	r3, .L24+36
 645 01fc 9922     		mov	r2, #153
 646 01fe 1204     		lsl	r2, r2, #16
 647 0200 1A60     		str	r2, [r3]
 554:Generated_Source\PSoC4/cyfitter_cfg.c **** 
 555:Generated_Source\PSoC4/cyfitter_cfg.c **** 		/* UDB_PA_3 Starting address: CYDEV_UDB_PA3_BASE */
 556:Generated_Source\PSoC4/cyfitter_cfg.c **** 		CY_SET_XTND_REG32((void CYFAR *)(CYDEV_UDB_PA3_BASE), 0x00990000u);
 648              		.loc 1 556 0
 649 0202 2E4B     		ldr	r3, .L24+40
 650 0204 9922     		mov	r2, #153
 651 0206 1204     		lsl	r2, r2, #16
 652 0208 1A60     		str	r2, [r3]
 557:Generated_Source\PSoC4/cyfitter_cfg.c **** 
 558:Generated_Source\PSoC4/cyfitter_cfg.c **** 		/* INT_SELECT Starting address: CYDEV_CPUSS_INT_SEL */
 559:Generated_Source\PSoC4/cyfitter_cfg.c **** 		CY_SET_XTND_REG32((void CYFAR *)(CYREG_CPUSS_INT_SEL), 0x00000002u);
 653              		.loc 1 559 0
 654 020a 2D4B     		ldr	r3, .L24+44
 655 020c 0222     		mov	r2, #2
 656 020e 1A60     		str	r2, [r3]
 560:Generated_Source\PSoC4/cyfitter_cfg.c **** 
 561:Generated_Source\PSoC4/cyfitter_cfg.c **** 		/* INT_CONFIG Starting address: CYDEV_UDB_INT_CFG */
 562:Generated_Source\PSoC4/cyfitter_cfg.c **** 		CY_SET_XTND_REG32((void CYFAR *)(CYREG_UDB_INT_CFG), 0x00000002u);
 657              		.loc 1 562 0
 658 0210 2C4B     		ldr	r3, .L24+48
 659 0212 0222     		mov	r2, #2
 660 0214 1A60     		str	r2, [r3]
 563:Generated_Source\PSoC4/cyfitter_cfg.c **** 
 564:Generated_Source\PSoC4/cyfitter_cfg.c **** 		/* Enable digital routing */
 565:Generated_Source\PSoC4/cyfitter_cfg.c **** 		CY_SET_XTND_REG8((void *)CYREG_UDB_UDBIF_BANK_CTL, CY_GET_XTND_REG8((void *)CYREG_UDB_UDBIF_BANK_
 661              		.loc 1 565 0
 662 0216 2C4A     		ldr	r2, .L24+52
 663 0218 2B4B     		ldr	r3, .L24+52
 664 021a 1B78     		ldrb	r3, [r3]
 665 021c DBB2     		uxtb	r3, r3
 666 021e 0221     		mov	r1, #2
 667 0220 0B43     		orr	r3, r1
 668 0222 DBB2     		uxtb	r3, r3
 669 0224 1370     		strb	r3, [r2]
 566:Generated_Source\PSoC4/cyfitter_cfg.c **** 
 567:Generated_Source\PSoC4/cyfitter_cfg.c **** 		/* Enable UDB array */
 568:Generated_Source\PSoC4/cyfitter_cfg.c **** 		CY_SET_XTND_REG8((void *)CYREG_UDB_UDBIF_WAIT_CFG, (uint8)((CY_GET_XTND_REG8((void *)CYREG_UDB_UD
 670              		.loc 1 568 0
 671 0226 294A     		ldr	r2, .L24+56
 672 0228 284B     		ldr	r3, .L24+56
 673 022a 1B78     		ldrb	r3, [r3]
 674 022c DBB2     		uxtb	r3, r3
 675 022e 3C21     		mov	r1, #60
 676 0230 8B43     		bic	r3, r1
 677 0232 DBB2     		uxtb	r3, r3
 678 0234 1421     		mov	r1, #20
 679 0236 0B43     		orr	r3, r1
 680 0238 DBB2     		uxtb	r3, r3
 681 023a 1370     		strb	r3, [r2]
ARM GAS  C:\Users\Petro\AppData\Local\Temp\cc0qxchC.s 			page 23


 569:Generated_Source\PSoC4/cyfitter_cfg.c **** 		CY_SET_XTND_REG8((void *)CYREG_UDB_UDBIF_BANK_CTL, (uint8)(CY_GET_XTND_REG8((void *)CYREG_UDB_UDB
 682              		.loc 1 569 0
 683 023c 224A     		ldr	r2, .L24+52
 684 023e 224B     		ldr	r3, .L24+52
 685 0240 1B78     		ldrb	r3, [r3]
 686 0242 DBB2     		uxtb	r3, r3
 687 0244 1621     		mov	r1, #22
 688 0246 0B43     		orr	r3, r1
 689 0248 DBB2     		uxtb	r3, r3
 690 024a 1370     		strb	r3, [r2]
 691              	.LBE3:
 570:Generated_Source\PSoC4/cyfitter_cfg.c **** 	}
 571:Generated_Source\PSoC4/cyfitter_cfg.c **** 
 572:Generated_Source\PSoC4/cyfitter_cfg.c **** 	/* Perform second pass device configuration. These items must be configured in specific order afte
 573:Generated_Source\PSoC4/cyfitter_cfg.c **** 	/* IOPINS0_0 Starting address: CYDEV_GPIO_PRT0_BASE */
 574:Generated_Source\PSoC4/cyfitter_cfg.c **** 	CY_SET_XTND_REG32((void CYFAR *)(CYDEV_GPIO_PRT0_BASE), 0x00000012u);
 692              		.loc 1 574 0
 693 024c 204B     		ldr	r3, .L24+60
 694 024e 1222     		mov	r2, #18
 695 0250 1A60     		str	r2, [r3]
 575:Generated_Source\PSoC4/cyfitter_cfg.c **** 	CY_SET_XTND_REG32((void CYFAR *)(CYREG_GPIO_PRT0_PC), 0x00D821B1u);
 696              		.loc 1 575 0
 697 0252 204B     		ldr	r3, .L24+64
 698 0254 204A     		ldr	r2, .L24+68
 699 0256 1A60     		str	r2, [r3]
 576:Generated_Source\PSoC4/cyfitter_cfg.c **** 	CY_SET_XTND_REG32((void CYFAR *)(CYREG_GPIO_PRT0_PC2), 0x00000002u);
 700              		.loc 1 576 0
 701 0258 204B     		ldr	r3, .L24+72
 702 025a 0222     		mov	r2, #2
 703 025c 1A60     		str	r2, [r3]
 577:Generated_Source\PSoC4/cyfitter_cfg.c **** 
 578:Generated_Source\PSoC4/cyfitter_cfg.c **** 	/* IOPINS0_1 Starting address: CYDEV_GPIO_PRT1_BASE */
 579:Generated_Source\PSoC4/cyfitter_cfg.c **** 	CY_SET_XTND_REG32((void CYFAR *)(CYREG_GPIO_PRT1_PC), 0x007B6DB6u);
 704              		.loc 1 579 0
 705 025e 204B     		ldr	r3, .L24+76
 706 0260 204A     		ldr	r2, .L24+80
 707 0262 1A60     		str	r2, [r3]
 580:Generated_Source\PSoC4/cyfitter_cfg.c **** 
 581:Generated_Source\PSoC4/cyfitter_cfg.c **** 	/* IOPINS0_2 Starting address: CYDEV_GPIO_PRT2_BASE */
 582:Generated_Source\PSoC4/cyfitter_cfg.c **** 	CY_SET_XTND_REG32((void CYFAR *)(CYDEV_GPIO_PRT2_BASE), 0x00000080u);
 708              		.loc 1 582 0
 709 0264 204B     		ldr	r3, .L24+84
 710 0266 8022     		mov	r2, #128
 711 0268 1A60     		str	r2, [r3]
 583:Generated_Source\PSoC4/cyfitter_cfg.c **** 	CY_SET_XTND_REG32((void CYFAR *)(CYREG_GPIO_PRT2_PC), 0x00400000u);
 712              		.loc 1 583 0
 713 026a 204B     		ldr	r3, .L24+88
 714 026c 8022     		mov	r2, #128
 715 026e D203     		lsl	r2, r2, #15
 716 0270 1A60     		str	r2, [r3]
 584:Generated_Source\PSoC4/cyfitter_cfg.c **** 
 585:Generated_Source\PSoC4/cyfitter_cfg.c **** 	/* IOPINS0_3 Starting address: CYDEV_GPIO_PRT3_BASE */
 586:Generated_Source\PSoC4/cyfitter_cfg.c **** 	CY_SET_XTND_REG32((void CYFAR *)(CYDEV_GPIO_PRT3_BASE), 0x00000030u);
 717              		.loc 1 586 0
 718 0272 1F4B     		ldr	r3, .L24+92
 719 0274 3022     		mov	r2, #48
 720 0276 1A60     		str	r2, [r3]
ARM GAS  C:\Users\Petro\AppData\Local\Temp\cc0qxchC.s 			page 24


 587:Generated_Source\PSoC4/cyfitter_cfg.c **** 	CY_SET_XTND_REG32((void CYFAR *)(CYREG_GPIO_PRT3_PC), 0x00030030u);
 721              		.loc 1 587 0
 722 0278 1E4B     		ldr	r3, .L24+96
 723 027a 1F4A     		ldr	r2, .L24+100
 724 027c 1A60     		str	r2, [r3]
 588:Generated_Source\PSoC4/cyfitter_cfg.c **** 	CY_SET_XTND_REG32((void CYFAR *)(CYREG_GPIO_PRT3_PC2), 0x00000010u);
 725              		.loc 1 588 0
 726 027e 1F4B     		ldr	r3, .L24+104
 727 0280 1022     		mov	r2, #16
 728 0282 1A60     		str	r2, [r3]
 589:Generated_Source\PSoC4/cyfitter_cfg.c **** 
 590:Generated_Source\PSoC4/cyfitter_cfg.c **** 
 591:Generated_Source\PSoC4/cyfitter_cfg.c **** 	/* Setup clocks based on selections from Clock DWR */
 592:Generated_Source\PSoC4/cyfitter_cfg.c **** 	ClockSetup();
 729              		.loc 1 592 0
 730 0284 FFF7BCFE 		bl	ClockSetup
 593:Generated_Source\PSoC4/cyfitter_cfg.c **** 
 594:Generated_Source\PSoC4/cyfitter_cfg.c **** 	/* Perform basic analog initialization to defaults */
 595:Generated_Source\PSoC4/cyfitter_cfg.c **** 	AnalogSetDefault();
 731              		.loc 1 595 0
 732 0288 FFF7FEFF 		bl	AnalogSetDefault
 596:Generated_Source\PSoC4/cyfitter_cfg.c **** 
 597:Generated_Source\PSoC4/cyfitter_cfg.c **** }
 733              		.loc 1 597 0
 734 028c BD46     		mov	sp, r7
 735 028e 02B0     		add	sp, sp, #8
 736              		@ sp needed
 737 0290 80BD     		pop	{r7, pc}
 738              	.L25:
 739 0292 C046     		.align	2
 740              	.L24:
 741 0294 6CF02E40 		.word	1076818028
 742 0298 1C700F40 		.word	1074753564
 743 029c 00000000 		.word	cfg_memset_list.4790
 744 02a0 0C000000 		.word	cy_cfg_addr_table.4784
 745 02a4 30000000 		.word	cy_cfg_data_table.4785
 746 02a8 00000240 		.word	1073872896
 747 02ac 990000EE 		.word	-301989735
 748 02b0 00500F40 		.word	1074745344
 749 02b4 10500F40 		.word	1074745360
 750 02b8 20500F40 		.word	1074745376
 751 02bc 30500F40 		.word	1074745392
 752 02c0 20001040 		.word	1074790432
 753 02c4 00800F40 		.word	1074757632
 754 02c8 00700F40 		.word	1074753536
 755 02cc 01700F40 		.word	1074753537
 756 02d0 00000440 		.word	1074003968
 757 02d4 08000440 		.word	1074003976
 758 02d8 B121D800 		.word	14164401
 759 02dc 18000440 		.word	1074003992
 760 02e0 08010440 		.word	1074004232
 761 02e4 B66D7B00 		.word	8089014
 762 02e8 00020440 		.word	1074004480
 763 02ec 08020440 		.word	1074004488
 764 02f0 00030440 		.word	1074004736
 765 02f4 08030440 		.word	1074004744
 766 02f8 30000300 		.word	196656
ARM GAS  C:\Users\Petro\AppData\Local\Temp\cc0qxchC.s 			page 25


 767 02fc 18030440 		.word	1074004760
 768              		.cfi_endproc
 769              	.LFE9:
 770              		.size	cyfitter_cfg, .-cyfitter_cfg
 771              		.section	.rodata
 772              		.align	2
 773              		.type	cfg_memset_list.4790, %object
 774              		.size	cfg_memset_list.4790, 12
 775              	cfg_memset_list.4790:
 776 0000 00300F40 		.word	1074737152
 777 0004 0004     		.short	1024
 778 0006 00400F40 		.4byte	1074741248
 779 000a 0004     		.short	1024
 780              		.align	2
 781              		.type	cy_cfg_addr_table.4784, %object
 782              		.size	cy_cfg_addr_table.4784, 36
 783              	cy_cfg_addr_table.4784:
 784 000c 01000F40 		.word	1074724865
 785 0010 3E300F40 		.word	1074737214
 786 0014 1F310F40 		.word	1074737439
 787 0018 19320F40 		.word	1074737689
 788 001c 0F330F40 		.word	1074737935
 789 0020 02400F40 		.word	1074741250
 790 0024 07410F40 		.word	1074741511
 791 0028 04420F40 		.word	1074741764
 792 002c 02600F40 		.word	1074749442
 793              		.align	2
 794              		.type	cy_cfg_data_table.4785, %object
 795              		.size	cy_cfg_data_table.4785, 298
 796              	cy_cfg_data_table.4785:
 797 0030 82       		.byte	-126
 798 0031 0D       		.byte	13
 799 0032 40       		.byte	64
 800 0033 31       		.byte	49
 801 0034 49       		.byte	73
 802 0035 FF       		.byte	-1
 803 0036 4A       		.byte	74
 804 0037 FF       		.byte	-1
 805 0038 4B       		.byte	75
 806 0039 FF       		.byte	-1
 807 003a 4F       		.byte	79
 808 003b 01       		.byte	1
 809 003c 50       		.byte	80
 810 003d 18       		.byte	24
 811 003e 56       		.byte	86
 812 003f 08       		.byte	8
 813 0040 5A       		.byte	90
 814 0041 0A       		.byte	10
 815 0042 5B       		.byte	91
 816 0043 04       		.byte	4
 817 0044 5D       		.byte	93
 818 0045 99       		.byte	-103
 819 0046 5F       		.byte	95
 820 0047 01       		.byte	1
 821 0048 60       		.byte	96
 822 0049 40       		.byte	64
 823 004a 62       		.byte	98
ARM GAS  C:\Users\Petro\AppData\Local\Temp\cc0qxchC.s 			page 26


 824 004b 40       		.byte	64
 825 004c 64       		.byte	100
 826 004d 40       		.byte	64
 827 004e 65       		.byte	101
 828 004f 40       		.byte	64
 829 0050 66       		.byte	102
 830 0051 80       		.byte	-128
 831 0052 68       		.byte	104
 832 0053 80       		.byte	-128
 833 0054 6A       		.byte	106
 834 0055 80       		.byte	-128
 835 0056 6C       		.byte	108
 836 0057 80       		.byte	-128
 837 0058 6E       		.byte	110
 838 0059 80       		.byte	-128
 839 005a 82       		.byte	-126
 840 005b 27       		.byte	39
 841 005c 8C       		.byte	-116
 842 005d 0F       		.byte	15
 843 005e 94       		.byte	-108
 844 005f 01       		.byte	1
 845 0060 96       		.byte	-106
 846 0061 08       		.byte	8
 847 0062 98       		.byte	-104
 848 0063 02       		.byte	2
 849 0064 9A       		.byte	-102
 850 0065 18       		.byte	24
 851 0066 A5       		.byte	-91
 852 0067 01       		.byte	1
 853 0068 AC       		.byte	-84
 854 0069 04       		.byte	4
 855 006a AE       		.byte	-82
 856 006b 18       		.byte	24
 857 006c B0       		.byte	-80
 858 006d 08       		.byte	8
 859 006e B2       		.byte	-78
 860 006f 07       		.byte	7
 861 0070 B3       		.byte	-77
 862 0071 01       		.byte	1
 863 0072 B4       		.byte	-76
 864 0073 20       		.byte	32
 865 0074 B6       		.byte	-74
 866 0075 10       		.byte	16
 867 0076 BA       		.byte	-70
 868 0077 02       		.byte	2
 869 0078 BE       		.byte	-66
 870 0079 40       		.byte	64
 871 007a BF       		.byte	-65
 872 007b 04       		.byte	4
 873 007c C0       		.byte	-64
 874 007d 31       		.byte	49
 875 007e C9       		.byte	-55
 876 007f FF       		.byte	-1
 877 0080 CA       		.byte	-54
 878 0081 FF       		.byte	-1
 879 0082 CB       		.byte	-53
 880 0083 FF       		.byte	-1
ARM GAS  C:\Users\Petro\AppData\Local\Temp\cc0qxchC.s 			page 27


 881 0084 CD       		.byte	-51
 882 0085 83       		.byte	-125
 883 0086 CE       		.byte	-50
 884 0087 03       		.byte	3
 885 0088 CF       		.byte	-49
 886 0089 01       		.byte	1
 887 008a D0       		.byte	-48
 888 008b 18       		.byte	24
 889 008c D2       		.byte	-46
 890 008d 80       		.byte	-128
 891 008e D8       		.byte	-40
 892 008f 0A       		.byte	10
 893 0090 D9       		.byte	-39
 894 0091 04       		.byte	4
 895 0092 DA       		.byte	-38
 896 0093 0A       		.byte	10
 897 0094 DB       		.byte	-37
 898 0095 0B       		.byte	11
 899 0096 DC       		.byte	-36
 900 0097 09       		.byte	9
 901 0098 DD       		.byte	-35
 902 0099 99       		.byte	-103
 903 009a DF       		.byte	-33
 904 009b 01       		.byte	1
 905 009c E0       		.byte	-32
 906 009d 40       		.byte	64
 907 009e E2       		.byte	-30
 908 009f 40       		.byte	64
 909 00a0 E4       		.byte	-28
 910 00a1 40       		.byte	64
 911 00a2 E5       		.byte	-27
 912 00a3 40       		.byte	64
 913 00a4 E6       		.byte	-26
 914 00a5 80       		.byte	-128
 915 00a6 E8       		.byte	-24
 916 00a7 80       		.byte	-128
 917 00a8 EA       		.byte	-22
 918 00a9 80       		.byte	-128
 919 00aa EC       		.byte	-20
 920 00ab 80       		.byte	-128
 921 00ac EE       		.byte	-18
 922 00ad 80       		.byte	-128
 923 00ae 04       		.byte	4
 924 00af 40       		.byte	64
 925 00b0 07       		.byte	7
 926 00b1 40       		.byte	64
 927 00b2 0B       		.byte	11
 928 00b3 C0       		.byte	-64
 929 00b4 0D       		.byte	13
 930 00b5 08       		.byte	8
 931 00b6 0E       		.byte	14
 932 00b7 08       		.byte	8
 933 00b8 16       		.byte	22
 934 00b9 02       		.byte	2
 935 00ba 1C       		.byte	28
 936 00bb 50       		.byte	80
 937 00bc 1D       		.byte	29
ARM GAS  C:\Users\Petro\AppData\Local\Temp\cc0qxchC.s 			page 28


 938 00bd 08       		.byte	8
 939 00be 1E       		.byte	30
 940 00bf 08       		.byte	8
 941 00c0 1F       		.byte	31
 942 00c1 40       		.byte	64
 943 00c2 27       		.byte	39
 944 00c3 20       		.byte	32
 945 00c4 2F       		.byte	47
 946 00c5 10       		.byte	16
 947 00c6 40       		.byte	64
 948 00c7 10       		.byte	16
 949 00c8 42       		.byte	66
 950 00c9 02       		.byte	2
 951 00ca 45       		.byte	69
 952 00cb 08       		.byte	8
 953 00cc 46       		.byte	70
 954 00cd 02       		.byte	2
 955 00ce 58       		.byte	88
 956 00cf A0       		.byte	-96
 957 00d0 60       		.byte	96
 958 00d1 08       		.byte	8
 959 00d2 62       		.byte	98
 960 00d3 A0       		.byte	-96
 961 00d4 77       		.byte	119
 962 00d5 40       		.byte	64
 963 00d6 78       		.byte	120
 964 00d7 08       		.byte	8
 965 00d8 7E       		.byte	126
 966 00d9 A0       		.byte	-96
 967 00da 8C       		.byte	-116
 968 00db A0       		.byte	-96
 969 00dc C0       		.byte	-64
 970 00dd 90       		.byte	-112
 971 00de C2       		.byte	-62
 972 00df 60       		.byte	96
 973 00e0 C4       		.byte	-60
 974 00e1 80       		.byte	-128
 975 00e2 CA       		.byte	-54
 976 00e3 40       		.byte	64
 977 00e4 D0       		.byte	-48
 978 00e5 5A       		.byte	90
 979 00e6 D6       		.byte	-42
 980 00e7 0C       		.byte	12
 981 00e8 D8       		.byte	-40
 982 00e9 0C       		.byte	12
 983 00ea DE       		.byte	-34
 984 00eb C2       		.byte	-62
 985 00ec 40       		.byte	64
 986 00ed 31       		.byte	49
 987 00ee 45       		.byte	69
 988 00ef EC       		.byte	-20
 989 00f0 47       		.byte	71
 990 00f1 20       		.byte	32
 991 00f2 48       		.byte	72
 992 00f3 23       		.byte	35
 993 00f4 49       		.byte	73
 994 00f5 FF       		.byte	-1
ARM GAS  C:\Users\Petro\AppData\Local\Temp\cc0qxchC.s 			page 29


 995 00f6 4A       		.byte	74
 996 00f7 FF       		.byte	-1
 997 00f8 4B       		.byte	75
 998 00f9 FF       		.byte	-1
 999 00fa 4D       		.byte	77
 1000 00fb 83       		.byte	-125
 1001 00fc 4E       		.byte	78
 1002 00fd 03       		.byte	3
 1003 00fe 4F       		.byte	79
 1004 00ff 01       		.byte	1
 1005 0100 50       		.byte	80
 1006 0101 18       		.byte	24
 1007 0102 54       		.byte	84
 1008 0103 01       		.byte	1
 1009 0104 5A       		.byte	90
 1010 0105 0A       		.byte	10
 1011 0106 5B       		.byte	91
 1012 0107 0A       		.byte	10
 1013 0108 5D       		.byte	93
 1014 0109 99       		.byte	-103
 1015 010a 5F       		.byte	95
 1016 010b 01       		.byte	1
 1017 010c 60       		.byte	96
 1018 010d 40       		.byte	64
 1019 010e 62       		.byte	98
 1020 010f 40       		.byte	64
 1021 0110 64       		.byte	100
 1022 0111 40       		.byte	64
 1023 0112 65       		.byte	101
 1024 0113 40       		.byte	64
 1025 0114 66       		.byte	102
 1026 0115 80       		.byte	-128
 1027 0116 68       		.byte	104
 1028 0117 80       		.byte	-128
 1029 0118 6A       		.byte	106
 1030 0119 80       		.byte	-128
 1031 011a 6C       		.byte	108
 1032 011b 80       		.byte	-128
 1033 011c 6E       		.byte	110
 1034 011d 80       		.byte	-128
 1035 011e 45       		.byte	69
 1036 011f 08       		.byte	8
 1037 0120 46       		.byte	70
 1038 0121 02       		.byte	2
 1039 0122 4F       		.byte	79
 1040 0123 05       		.byte	5
 1041 0124 56       		.byte	86
 1042 0125 02       		.byte	2
 1043 0126 5F       		.byte	95
 1044 0127 45       		.byte	69
 1045 0128 7E       		.byte	126
 1046 0129 20       		.byte	32
 1047 012a 93       		.byte	-109
 1048 012b 40       		.byte	64
 1049 012c 9E       		.byte	-98
 1050 012d 02       		.byte	2
 1051 012e A1       		.byte	-95
ARM GAS  C:\Users\Petro\AppData\Local\Temp\cc0qxchC.s 			page 30


 1052 012f 08       		.byte	8
 1053 0130 A2       		.byte	-94
 1054 0131 20       		.byte	32
 1055 0132 AB       		.byte	-85
 1056 0133 20       		.byte	32
 1057 0134 AF       		.byte	-81
 1058 0135 10       		.byte	16
 1059 0136 D0       		.byte	-48
 1060 0137 50       		.byte	80
 1061 0138 D6       		.byte	-42
 1062 0139 D0       		.byte	-48
 1063 013a DE       		.byte	-34
 1064 013b 40       		.byte	64
 1065 013c 0B       		.byte	11
 1066 013d 40       		.byte	64
 1067 013e C2       		.byte	-62
 1068 013f 10       		.byte	16
 1069 0140 6F       		.byte	111
 1070 0141 04       		.byte	4
 1071 0142 9B       		.byte	-101
 1072 0143 04       		.byte	4
 1073 0144 AB       		.byte	-85
 1074 0145 04       		.byte	4
 1075 0146 AF       		.byte	-81
 1076 0147 40       		.byte	64
 1077 0148 DA       		.byte	-38
 1078 0149 80       		.byte	-128
 1079 014a EA       		.byte	-22
 1080 014b 80       		.byte	-128
 1081 014c EC       		.byte	-20
 1082 014d 40       		.byte	64
 1083 014e 24       		.byte	36
 1084 014f 50       		.byte	80
 1085 0150 8C       		.byte	-116
 1086 0151 50       		.byte	80
 1087 0152 C8       		.byte	-56
 1088 0153 01       		.byte	1
 1089 0154 E2       		.byte	-30
 1090 0155 0A       		.byte	10
 1091 0156 02       		.byte	2
 1092 0157 01       		.byte	1
 1093 0158 11       		.byte	17
 1094 0159 01       		.byte	1
 1095 015a 0000     		.text
 1096              	.Letext0:
 1097              		.file 2 "c:\\program files (x86)\\cypress\\psoc creator\\4.0\\psoc creator\\import\\gnu\\arm\\4.9.
 1098              		.file 3 "Generated_Source\\PSoC4\\cytypes.h"