ARM GAS  C:\Users\Petro\AppData\Local\Temp\cc8fINho.s 			page 1


   1              		.cpu cortex-m0
   2              		.fpu softvfp
   3              		.eabi_attribute 20, 1
   4              		.eabi_attribute 21, 1
   5              		.eabi_attribute 23, 3
   6              		.eabi_attribute 24, 1
   7              		.eabi_attribute 25, 1
   8              		.eabi_attribute 26, 1
   9              		.eabi_attribute 30, 6
  10              		.eabi_attribute 34, 0
  11              		.eabi_attribute 18, 4
  12              		.code	16
  13              		.file	"main.c"
  14              		.text
  15              	.Ltext0:
  16              		.cfi_sections	.debug_frame
  17              		.comm	currentState,1,1
  18              		.bss
  19              		.align	2
  20              	result:
  21 0000 00000000 		.space	4
  22              		.section	.text.main,"ax",%progbits
  23              		.align	2
  24              		.global	main
  25              		.code	16
  26              		.thumb_func
  27              		.type	main, %function
  28              	main:
  29              	.LFB63:
  30              		.file 1 "main.c"
   1:main.c        **** #include "appGlobal.h"
   2:main.c        **** 
   3:main.c        **** int main()
   4:main.c        **** {
  31              		.loc 1 4 0
  32              		.cfi_startproc
  33 0000 80B5     		push	{r7, lr}
  34              		.cfi_def_cfa_offset 8
  35              		.cfi_offset 7, -8
  36              		.cfi_offset 14, -4
  37 0002 00AF     		add	r7, sp, #0
  38              		.cfi_def_cfa_register 7
   5:main.c        ****     SystemInit();
  39              		.loc 1 5 0
  40 0004 FFF7FEFF 		bl	SystemInit
   6:main.c        ****     currentState = TIME_SYNC;
  41              		.loc 1 6 0
  42 0008 294B     		ldr	r3, .L14
  43 000a 0022     		mov	r2, #0
  44 000c 1A70     		strb	r2, [r3]
  45              	.L13:
   7:main.c        **** 
   8:main.c        ****     for(;;)
   9:main.c        ****     {
  10:main.c        ****         switch (currentState)
  46              		.loc 1 10 0
  47 000e 284B     		ldr	r3, .L14
ARM GAS  C:\Users\Petro\AppData\Local\Temp\cc8fINho.s 			page 2


  48 0010 1B78     		ldrb	r3, [r3]
  49 0012 012B     		cmp	r3, #1
  50 0014 16D0     		beq	.L3
  51 0016 02DC     		bgt	.L4
  52 0018 002B     		cmp	r3, #0
  53 001a 05D0     		beq	.L5
  54 001c 42E0     		b	.L2
  55              	.L4:
  56 001e 022B     		cmp	r3, #2
  57 0020 26D0     		beq	.L6
  58 0022 032B     		cmp	r3, #3
  59 0024 35D0     		beq	.L7
  60 0026 3DE0     		b	.L2
  61              	.L5:
  11:main.c        ****         {
  12:main.c        ****             case TIME_SYNC:
  13:main.c        ****             {
  14:main.c        ****                 result = TimeSynchronize();
  62              		.loc 1 14 0
  63 0028 FFF7FEFF 		bl	TimeSynchronize
  64 002c 021C     		mov	r2, r0
  65 002e 214B     		ldr	r3, .L14+4
  66 0030 1A60     		str	r2, [r3]
  15:main.c        ****                 if(result == TIME_SYNC_OK)
  67              		.loc 1 15 0
  68 0032 204B     		ldr	r3, .L14+4
  69 0034 1B68     		ldr	r3, [r3]
  70 0036 002B     		cmp	r3, #0
  71 0038 03D1     		bne	.L8
  16:main.c        ****                 {
  17:main.c        ****                     currentState = GET_FIN_STATUS;
  72              		.loc 1 17 0
  73 003a 1D4B     		ldr	r3, .L14
  74 003c 0122     		mov	r2, #1
  75 003e 1A70     		strb	r2, [r3]
  18:main.c        ****                 }
  19:main.c        ****                 break;
  76              		.loc 1 19 0
  77 0040 30E0     		b	.L2
  78              	.L8:
  79 0042 2FE0     		b	.L2
  80              	.L3:
  20:main.c        ****             }
  21:main.c        ****             case GET_FIN_STATUS:
  22:main.c        ****             {
  23:main.c        ****                 result = GetFinishStatus();
  81              		.loc 1 23 0
  82 0044 FFF7FEFF 		bl	GetFinishStatus
  83 0048 021C     		mov	r2, r0
  84 004a 1A4B     		ldr	r3, .L14+4
  85 004c 1A60     		str	r2, [r3]
  24:main.c        **** 
  25:main.c        ****                 if(result == NO_ERROR)
  86              		.loc 1 25 0
  87 004e 194B     		ldr	r3, .L14+4
  88 0050 1B68     		ldr	r3, [r3]
  89 0052 012B     		cmp	r3, #1
ARM GAS  C:\Users\Petro\AppData\Local\Temp\cc8fINho.s 			page 3


  90 0054 03D1     		bne	.L9
  26:main.c        ****                 {
  27:main.c        ****                     currentState = CHECK_GATE;                   
  91              		.loc 1 27 0
  92 0056 164B     		ldr	r3, .L14
  93 0058 0222     		mov	r2, #2
  94 005a 1A70     		strb	r2, [r3]
  95 005c 07E0     		b	.L10
  96              	.L9:
  28:main.c        ****                 }
  29:main.c        ****                 else if(result == REBOOT)  
  97              		.loc 1 29 0
  98 005e 154B     		ldr	r3, .L14+4
  99 0060 1B68     		ldr	r3, [r3]
 100 0062 FF2B     		cmp	r3, #255
 101 0064 03D1     		bne	.L10
  30:main.c        ****                 {
  31:main.c        ****                     currentState = TIME_SYNC;
 102              		.loc 1 31 0
 103 0066 124B     		ldr	r3, .L14
 104 0068 0022     		mov	r2, #0
 105 006a 1A70     		strb	r2, [r3]
  32:main.c        ****                 }
  33:main.c        ****                 break;
 106              		.loc 1 33 0
 107 006c 1AE0     		b	.L2
 108              	.L10:
 109 006e 19E0     		b	.L2
 110              	.L6:
  34:main.c        ****             }
  35:main.c        ****             case CHECK_GATE:
  36:main.c        ****             {
  37:main.c        ****                 result = CheckGate();
 111              		.loc 1 37 0
 112 0070 FFF7FEFF 		bl	CheckGate
 113 0074 021C     		mov	r2, r0
 114 0076 0F4B     		ldr	r3, .L14+4
 115 0078 1A60     		str	r2, [r3]
  38:main.c        ****                 if(result == GATE_OPEN)
 116              		.loc 1 38 0
 117 007a 0E4B     		ldr	r3, .L14+4
 118 007c 1B68     		ldr	r3, [r3]
 119 007e 012B     		cmp	r3, #1
 120 0080 03D1     		bne	.L11
  39:main.c        ****                 {
  40:main.c        ****                     currentState = SAVE_RESULT;
 121              		.loc 1 40 0
 122 0082 0B4B     		ldr	r3, .L14
 123 0084 0322     		mov	r2, #3
 124 0086 1A70     		strb	r2, [r3]
  41:main.c        ****                 }
  42:main.c        ****                 else
  43:main.c        ****                 {
  44:main.c        ****                     currentState = GET_FIN_STATUS;
  45:main.c        ****                 }
  46:main.c        ****                 break;
 125              		.loc 1 46 0
ARM GAS  C:\Users\Petro\AppData\Local\Temp\cc8fINho.s 			page 4


 126 0088 0CE0     		b	.L2
 127              	.L11:
  44:main.c        ****                 }
 128              		.loc 1 44 0
 129 008a 094B     		ldr	r3, .L14
 130 008c 0122     		mov	r2, #1
 131 008e 1A70     		strb	r2, [r3]
 132              		.loc 1 46 0
 133 0090 08E0     		b	.L2
 134              	.L7:
  47:main.c        ****             }
  48:main.c        ****             case SAVE_RESULT:
  49:main.c        ****             {
  50:main.c        ****                 result = SaveResult();
 135              		.loc 1 50 0
 136 0092 FFF7FEFF 		bl	SaveResult
 137 0096 021C     		mov	r2, r0
 138 0098 064B     		ldr	r3, .L14+4
 139 009a 1A60     		str	r2, [r3]
  51:main.c        ****                 currentState = GET_FIN_STATUS;
 140              		.loc 1 51 0
 141 009c 044B     		ldr	r3, .L14
 142 009e 0122     		mov	r2, #1
 143 00a0 1A70     		strb	r2, [r3]
  52:main.c        ****     
  53:main.c        ****                 break;
 144              		.loc 1 53 0
 145 00a2 C046     		mov	r8, r8
 146              	.L2:
  54:main.c        ****             }           
  55:main.c        ****         }
  56:main.c        ****         MyDelay(TIMEOUT_STATE);
 147              		.loc 1 56 0
 148 00a4 FA23     		mov	r3, #250
 149 00a6 5B00     		lsl	r3, r3, #1
 150 00a8 181C     		mov	r0, r3
 151 00aa FFF7FEFF 		bl	MyDelay
  57:main.c        ****     }
 152              		.loc 1 57 0
 153 00ae AEE7     		b	.L13
 154              	.L15:
 155              		.align	2
 156              	.L14:
 157 00b0 00000000 		.word	currentState
 158 00b4 00000000 		.word	result
 159              		.cfi_endproc
 160              	.LFE63:
 161              		.size	main, .-main
 162              		.section	.rodata
 163              		.align	2
 164              	.LC2:
 165 0000 53797374 		.ascii	"System init...\000"
 165      656D2069 
 165      6E69742E 
 165      2E2E00
 166              		.section	.text.SystemInit,"ax",%progbits
 167              		.align	2
ARM GAS  C:\Users\Petro\AppData\Local\Temp\cc8fINho.s 			page 5


 168              		.global	SystemInit
 169              		.code	16
 170              		.thumb_func
 171              		.type	SystemInit, %function
 172              	SystemInit:
 173              	.LFB64:
  58:main.c        **** }
  59:main.c        **** 
  60:main.c        **** void  SystemInit(void)
  61:main.c        **** {   
 174              		.loc 1 61 0
 175              		.cfi_startproc
 176 0000 80B5     		push	{r7, lr}
 177              		.cfi_def_cfa_offset 8
 178              		.cfi_offset 7, -8
 179              		.cfi_offset 14, -4
 180 0002 00AF     		add	r7, sp, #0
 181              		.cfi_def_cfa_register 7
  62:main.c        ****     SetRebootFlag();
 182              		.loc 1 62 0
 183 0004 FFF7FEFF 		bl	SetRebootFlag
  63:main.c        ****     LedInit();
 184              		.loc 1 63 0
 185 0008 FFF7FEFF 		bl	LedInit
  64:main.c        ****     LedBlink(FREQ_INIT_BLINK);
 186              		.loc 1 64 0
 187 000c 0A20     		mov	r0, #10
 188 000e FFF7FEFF 		bl	LedBlink
  65:main.c        ****     
  66:main.c        ****     DisplayStart();
 189              		.loc 1 66 0
 190 0012 FFF7FEFF 		bl	DisplayStart
  67:main.c        ****     Display("System init...");
 191              		.loc 1 67 0
 192 0016 074B     		ldr	r3, .L17
 193 0018 181C     		mov	r0, r3
 194 001a FFF7FEFF 		bl	Display
  68:main.c        ****     
  69:main.c        ****     RTC_WDT_Init(); 
 195              		.loc 1 69 0
 196 001e FFF7FEFF 		bl	RTC_WDT_Init
  70:main.c        ****     InitNetwork();
 197              		.loc 1 70 0
 198 0022 FFF7FEFF 		bl	InitNetwork
  71:main.c        ****     GateInit();
 199              		.loc 1 71 0
 200 0026 FFF7FEFF 		bl	GateInit
  72:main.c        ****     BattADC_Init();
 201              		.loc 1 72 0
 202 002a FFF7FEFF 		bl	BattADC_Init
  73:main.c        ****     
  74:main.c        ****     /* Enable global interrupts. */ 
  75:main.c        ****     CyGlobalIntEnable; 
 203              		.loc 1 75 0
 204              	@ 75 "main.c" 1
 205 002e 62B6     		CPSIE   i
 206              	@ 0 "" 2
ARM GAS  C:\Users\Petro\AppData\Local\Temp\cc8fINho.s 			page 6


  76:main.c        ****     
  77:main.c        **** }
 207              		.loc 1 77 0
 208              		.code	16
 209 0030 BD46     		mov	sp, r7
 210              		@ sp needed
 211 0032 80BD     		pop	{r7, pc}
 212              	.L18:
 213              		.align	2
 214              	.L17:
 215 0034 00000000 		.word	.LC2
 216              		.cfi_endproc
 217              	.LFE64:
 218              		.size	SystemInit, .-SystemInit
 219              		.section	.rodata
 220 000f 00       		.align	2
 221              	.LC4:
 222 0010 4E657477 		.ascii	"Network conn...\000"
 222      6F726B20 
 222      636F6E6E 
 222      2E2E2E00 
 223              		.align	2
 224              	.LC6:
 225 0020 53796E63 		.ascii	"Sync time...\000"
 225      2074696D 
 225      652E2E2E 
 225      00
 226 002d 000000   		.align	2
 227              	.LC8:
 228 0030 53796E63 		.ascii	"Sync ok\000"
 228      206F6B00 
 229              		.align	2
 230              	.LC10:
 231 0038 53796E63 		.ascii	"Sync time error\000"
 231      2074696D 
 231      65206572 
 231      726F7200 
 232              		.section	.text.TimeSynchronize,"ax",%progbits
 233              		.align	2
 234              		.global	TimeSynchronize
 235              		.code	16
 236              		.thumb_func
 237              		.type	TimeSynchronize, %function
 238              	TimeSynchronize:
 239              	.LFB65:
  78:main.c        **** 
  79:main.c        **** uint32_t TimeSynchronize(void)
  80:main.c        **** {
 240              		.loc 1 80 0
 241              		.cfi_startproc
 242 0000 80B5     		push	{r7, lr}
 243              		.cfi_def_cfa_offset 8
 244              		.cfi_offset 7, -8
 245              		.cfi_offset 14, -4
 246 0002 82B0     		sub	sp, sp, #8
 247              		.cfi_def_cfa_offset 16
 248 0004 00AF     		add	r7, sp, #0
ARM GAS  C:\Users\Petro\AppData\Local\Temp\cc8fINho.s 			page 7


 249              		.cfi_def_cfa_register 7
  81:main.c        ****     uint32_t result;
  82:main.c        ****     
  83:main.c        ****     LedBlink(FREQ_INIT_BLINK);
 250              		.loc 1 83 0
 251 0006 0A20     		mov	r0, #10
 252 0008 FFF7FEFF 		bl	LedBlink
  84:main.c        ****     
  85:main.c        ****     /*network connect*/
  86:main.c        ****     if(NetworkStatus() == NETWORK_DISCONN)
 253              		.loc 1 86 0
 254 000c FFF7FEFF 		bl	NetworkStatus
 255 0010 031E     		sub	r3, r0, #0
 256 0012 09D1     		bne	.L20
  87:main.c        ****     {
  88:main.c        ****         Display("Network conn...");
 257              		.loc 1 88 0
 258 0014 164B     		ldr	r3, .L24
 259 0016 181C     		mov	r0, r3
 260 0018 FFF7FEFF 		bl	Display
  89:main.c        ****         MyDelay(TIMEOUT_STATE);
 261              		.loc 1 89 0
 262 001c FA23     		mov	r3, #250
 263 001e 5B00     		lsl	r3, r3, #1
 264 0020 181C     		mov	r0, r3
 265 0022 FFF7FEFF 		bl	MyDelay
 266 0026 1DE0     		b	.L21
 267              	.L20:
  90:main.c        ****     }
  91:main.c        ****     else
  92:main.c        ****     {
  93:main.c        ****         /*time sync*/
  94:main.c        ****         Display("Sync time...");
 268              		.loc 1 94 0
 269 0028 124B     		ldr	r3, .L24+4
 270 002a 181C     		mov	r0, r3
 271 002c FFF7FEFF 		bl	Display
  95:main.c        ****         
  96:main.c        ****         if(NTPsync() == TIME_SYNC_OK)
 272              		.loc 1 96 0
 273 0030 FFF7FEFF 		bl	NTPsync
 274 0034 031E     		sub	r3, r0, #0
 275 0036 0DD1     		bne	.L22
  97:main.c        ****         {
  98:main.c        ****             Display("Sync ok");
 276              		.loc 1 98 0
 277 0038 0F4B     		ldr	r3, .L24+8
 278 003a 181C     		mov	r0, r3
 279 003c FFF7FEFF 		bl	Display
  99:main.c        ****             ClearRebootFlag();
 280              		.loc 1 99 0
 281 0040 FFF7FEFF 		bl	ClearRebootFlag
 100:main.c        ****             MyDelay(4*TIMEOUT_USER_READ_INFO);
 282              		.loc 1 100 0
 283 0044 FA23     		mov	r3, #250
 284 0046 DB00     		lsl	r3, r3, #3
 285 0048 181C     		mov	r0, r3
ARM GAS  C:\Users\Petro\AppData\Local\Temp\cc8fINho.s 			page 8


 286 004a FFF7FEFF 		bl	MyDelay
 101:main.c        ****             
 102:main.c        ****             result = TIME_SYNC_OK;
 287              		.loc 1 102 0
 288 004e 0023     		mov	r3, #0
 289 0050 7B60     		str	r3, [r7, #4]
 290 0052 07E0     		b	.L21
 291              	.L22:
 103:main.c        ****         }
 104:main.c        ****         else
 105:main.c        ****         {
 106:main.c        ****             Display("Sync time error");
 292              		.loc 1 106 0
 293 0054 094B     		ldr	r3, .L24+12
 294 0056 181C     		mov	r0, r3
 295 0058 FFF7FEFF 		bl	Display
 107:main.c        ****             SetRebootFlag();
 296              		.loc 1 107 0
 297 005c FFF7FEFF 		bl	SetRebootFlag
 108:main.c        ****             //MyDelay(TIMEOUT_USER_READ_INFO);
 109:main.c        ****       
 110:main.c        ****             result = TIME_SYNC_ERR;
 298              		.loc 1 110 0
 299 0060 0123     		mov	r3, #1
 300 0062 7B60     		str	r3, [r7, #4]
 301              	.L21:
 111:main.c        ****         }
 112:main.c        ****     }
 113:main.c        ****     
 114:main.c        ****     return result;
 302              		.loc 1 114 0
 303 0064 7B68     		ldr	r3, [r7, #4]
 115:main.c        **** }
 304              		.loc 1 115 0
 305 0066 181C     		mov	r0, r3
 306 0068 BD46     		mov	sp, r7
 307 006a 02B0     		add	sp, sp, #8
 308              		@ sp needed
 309 006c 80BD     		pop	{r7, pc}
 310              	.L25:
 311 006e C046     		.align	2
 312              	.L24:
 313 0070 10000000 		.word	.LC4
 314 0074 20000000 		.word	.LC6
 315 0078 30000000 		.word	.LC8
 316 007c 38000000 		.word	.LC10
 317              		.cfi_endproc
 318              	.LFE65:
 319              		.size	TimeSynchronize, .-TimeSynchronize
 320              		.section	.rodata
 321              		.align	2
 322              	.LC12:
 323 0048 46696E20 		.ascii	"Fin no ready\000"
 323      6E6F2072 
 323      65616479 
 323      00
 324              		.section	.text.GetFinishStatus,"ax",%progbits
ARM GAS  C:\Users\Petro\AppData\Local\Temp\cc8fINho.s 			page 9


 325              		.align	2
 326              		.global	GetFinishStatus
 327              		.code	16
 328              		.thumb_func
 329              		.type	GetFinishStatus, %function
 330              	GetFinishStatus:
 331              	.LFB66:
 116:main.c        **** 
 117:main.c        **** uint32_t GetFinishStatus(void)
 118:main.c        **** {
 332              		.loc 1 118 0
 333              		.cfi_startproc
 334 0000 80B5     		push	{r7, lr}
 335              		.cfi_def_cfa_offset 8
 336              		.cfi_offset 7, -8
 337              		.cfi_offset 14, -4
 338 0002 82B0     		sub	sp, sp, #8
 339              		.cfi_def_cfa_offset 16
 340 0004 00AF     		add	r7, sp, #0
 341              		.cfi_def_cfa_register 7
 119:main.c        ****     uint32_t result;
 120:main.c        ****     
 121:main.c        ****     if (NetworkStatus() == NETWORK_DISCONN || FinWriteInDB() == NO_WRITE || FinReady() == NO_READY)
 342              		.loc 1 121 0
 343 0006 FFF7FEFF 		bl	NetworkStatus
 344 000a 031E     		sub	r3, r0, #0
 345 000c 07D0     		beq	.L27
 346              		.loc 1 121 0 is_stmt 0 discriminator 1
 347 000e FFF7FEFF 		bl	FinWriteInDB
 348 0012 031E     		sub	r3, r0, #0
 349 0014 03D0     		beq	.L27
 350              		.loc 1 121 0 discriminator 2
 351 0016 FFF7FEFF 		bl	FinReady
 352 001a 031E     		sub	r3, r0, #0
 353 001c 10D1     		bne	.L28
 354              	.L27:
 122:main.c        ****     {
 123:main.c        ****         LedBlink(FREQ_ERR_BLINK);
 355              		.loc 1 123 0 is_stmt 1
 356 001e 0320     		mov	r0, #3
 357 0020 FFF7FEFF 		bl	LedBlink
 124:main.c        ****         result = ERROR;
 358              		.loc 1 124 0
 359 0024 0023     		mov	r3, #0
 360 0026 7B60     		str	r3, [r7, #4]
 125:main.c        ****         Display("Fin no ready");
 361              		.loc 1 125 0
 362 0028 0D4B     		ldr	r3, .L32
 363 002a 181C     		mov	r0, r3
 364 002c FFF7FEFF 		bl	Display
 126:main.c        ****         DisAllowNextSkier();
 365              		.loc 1 126 0
 366 0030 FFF7FEFF 		bl	DisAllowNextSkier
 127:main.c        ****         MyDelay(TIMEOUT_USER_READ_INFO);
 367              		.loc 1 127 0
 368 0034 FA23     		mov	r3, #250
 369 0036 5B00     		lsl	r3, r3, #1
ARM GAS  C:\Users\Petro\AppData\Local\Temp\cc8fINho.s 			page 10


 370 0038 181C     		mov	r0, r3
 371 003a FFF7FEFF 		bl	MyDelay
 372 003e 01E0     		b	.L29
 373              	.L28:
 128:main.c        ****     }
 129:main.c        ****     else
 130:main.c        ****     {
 131:main.c        ****         result = NO_ERROR;
 374              		.loc 1 131 0
 375 0040 0123     		mov	r3, #1
 376 0042 7B60     		str	r3, [r7, #4]
 377              	.L29:
 132:main.c        ****     }
 133:main.c        ****     
 134:main.c        ****     if(IsRebootFinishFlag() == REBOOT)
 378              		.loc 1 134 0
 379 0044 FFF7FEFF 		bl	IsRebootFinishFlag
 380 0048 031E     		sub	r3, r0, #0
 381 004a FF2B     		cmp	r3, #255
 382 004c 01D1     		bne	.L30
 135:main.c        ****     {
 136:main.c        ****         result = REBOOT;    
 383              		.loc 1 136 0
 384 004e FF23     		mov	r3, #255
 385 0050 7B60     		str	r3, [r7, #4]
 386              	.L30:
 137:main.c        ****     }
 138:main.c        ****     
 139:main.c        ****         /*test mode on/off*/
 140:main.c        ****     newFuncTestMode(); 
 387              		.loc 1 140 0
 388 0052 FFF7FEFF 		bl	newFuncTestMode
 141:main.c        ****              
 142:main.c        ****     return result;
 389              		.loc 1 142 0
 390 0056 7B68     		ldr	r3, [r7, #4]
 143:main.c        ****     
 144:main.c        **** }
 391              		.loc 1 144 0
 392 0058 181C     		mov	r0, r3
 393 005a BD46     		mov	sp, r7
 394 005c 02B0     		add	sp, sp, #8
 395              		@ sp needed
 396 005e 80BD     		pop	{r7, pc}
 397              	.L33:
 398              		.align	2
 399              	.L32:
 400 0060 48000000 		.word	.LC12
 401              		.cfi_endproc
 402              	.LFE66:
 403              		.size	GetFinishStatus, .-GetFinishStatus
 404              		.section	.rodata
 405 0055 000000   		.align	2
 406              	.LC14:
 407 0058 536B6965 		.ascii	"Skier Started\000"
 407      72205374 
 407      61727465 
ARM GAS  C:\Users\Petro\AppData\Local\Temp\cc8fINho.s 			page 11


 407      6400
 408 0066 0000     		.align	2
 409              	.LC16:
 410 0068 53746172 		.ascii	"Start ready\000"
 410      74207265 
 410      61647900 
 411              		.section	.text.CheckGate,"ax",%progbits
 412              		.align	2
 413              		.global	CheckGate
 414              		.code	16
 415              		.thumb_func
 416              		.type	CheckGate, %function
 417              	CheckGate:
 418              	.LFB67:
 145:main.c        **** 
 146:main.c        **** uint32_t CheckGate(void)
 147:main.c        **** {
 419              		.loc 1 147 0
 420              		.cfi_startproc
 421 0000 80B5     		push	{r7, lr}
 422              		.cfi_def_cfa_offset 8
 423              		.cfi_offset 7, -8
 424              		.cfi_offset 14, -4
 425 0002 82B0     		sub	sp, sp, #8
 426              		.cfi_def_cfa_offset 16
 427 0004 00AF     		add	r7, sp, #0
 428              		.cfi_def_cfa_register 7
 148:main.c        ****     uint32_t result;
 149:main.c        ****     
 150:main.c        ****     result = GateIsOpen();
 429              		.loc 1 150 0
 430 0006 FFF7FEFF 		bl	GateIsOpen
 431 000a 031C     		mov	r3, r0
 432 000c 7B60     		str	r3, [r7, #4]
 151:main.c        ****     
 152:main.c        ****     if(result == GATE_OPEN)
 433              		.loc 1 152 0
 434 000e 7B68     		ldr	r3, [r7, #4]
 435 0010 012B     		cmp	r3, #1
 436 0012 0CD1     		bne	.L35
 153:main.c        ****     {
 154:main.c        ****         Display("Skier Started");
 437              		.loc 1 154 0
 438 0014 0D4B     		ldr	r3, .L38
 439 0016 181C     		mov	r0, r3
 440 0018 FFF7FEFF 		bl	Display
 155:main.c        ****         LedBlink(FREQ_INIT_BLINK);
 441              		.loc 1 155 0
 442 001c 0A20     		mov	r0, #10
 443 001e FFF7FEFF 		bl	LedBlink
 156:main.c        ****         MyDelay(TIMEOUT_USER_READ_INFO);
 444              		.loc 1 156 0
 445 0022 FA23     		mov	r3, #250
 446 0024 5B00     		lsl	r3, r3, #1
 447 0026 181C     		mov	r0, r3
 448 0028 FFF7FEFF 		bl	MyDelay
 449 002c 08E0     		b	.L36
ARM GAS  C:\Users\Petro\AppData\Local\Temp\cc8fINho.s 			page 12


 450              	.L35:
 157:main.c        **** 
 158:main.c        ****     }
 159:main.c        ****     else
 160:main.c        ****     {
 161:main.c        ****         Display("Start ready");
 451              		.loc 1 161 0
 452 002e 084B     		ldr	r3, .L38+4
 453 0030 181C     		mov	r0, r3
 454 0032 FFF7FEFF 		bl	Display
 162:main.c        ****         SetLedState(LED_ENABLE);
 455              		.loc 1 162 0
 456 0036 0120     		mov	r0, #1
 457 0038 FFF7FEFF 		bl	SetLedState
 163:main.c        ****         AllowNextSkier();
 458              		.loc 1 163 0
 459 003c FFF7FEFF 		bl	AllowNextSkier
 460              	.L36:
 164:main.c        **** 
 165:main.c        ****     }
 166:main.c        **** 
 167:main.c        ****     return result;
 461              		.loc 1 167 0
 462 0040 7B68     		ldr	r3, [r7, #4]
 168:main.c        ****     
 169:main.c        **** }
 463              		.loc 1 169 0
 464 0042 181C     		mov	r0, r3
 465 0044 BD46     		mov	sp, r7
 466 0046 02B0     		add	sp, sp, #8
 467              		@ sp needed
 468 0048 80BD     		pop	{r7, pc}
 469              	.L39:
 470 004a C046     		.align	2
 471              	.L38:
 472 004c 58000000 		.word	.LC14
 473 0050 68000000 		.word	.LC16
 474              		.cfi_endproc
 475              	.LFE67:
 476              		.size	CheckGate, .-CheckGate
 477              		.section	.rodata
 478              		.align	2
 479              	.LC18:
 480 0074 53617665 		.ascii	"Save result\000"
 480      20726573 
 480      756C7400 
 481              		.align	2
 482              	.LC20:
 483 0080 57616974 		.ascii	"Wait next skier\000"
 483      206E6578 
 483      7420736B 
 483      69657200 
 484              		.section	.text.SaveResult,"ax",%progbits
 485              		.align	2
 486              		.global	SaveResult
 487              		.code	16
 488              		.thumb_func
ARM GAS  C:\Users\Petro\AppData\Local\Temp\cc8fINho.s 			page 13


 489              		.type	SaveResult, %function
 490              	SaveResult:
 491              	.LFB68:
 170:main.c        **** 
 171:main.c        **** uint32_t SaveResult(void)
 172:main.c        **** {
 492              		.loc 1 172 0
 493              		.cfi_startproc
 494 0000 90B5     		push	{r4, r7, lr}
 495              		.cfi_def_cfa_offset 12
 496              		.cfi_offset 4, -12
 497              		.cfi_offset 7, -8
 498              		.cfi_offset 14, -4
 499 0002 87B0     		sub	sp, sp, #28
 500              		.cfi_def_cfa_offset 40
 501 0004 00AF     		add	r7, sp, #0
 502              		.cfi_def_cfa_register 7
 173:main.c        ****     uint32_t result;
 174:main.c        ****     uint64_t startUnixTime;
 175:main.c        ****     uint32_t startRecentMs;
 176:main.c        ****     
 177:main.c        ****     LedBlink(FREQ_INIT_BLINK);
 503              		.loc 1 177 0
 504 0006 0A20     		mov	r0, #10
 505 0008 FFF7FEFF 		bl	LedBlink
 178:main.c        ****     Display("Save result");
 506              		.loc 1 178 0
 507 000c 134B     		ldr	r3, .L42
 508 000e 181C     		mov	r0, r3
 509 0010 FFF7FEFF 		bl	Display
 179:main.c        ****     MyDelay(TIMEOUT_USER_READ_INFO);
 510              		.loc 1 179 0
 511 0014 FA23     		mov	r3, #250
 512 0016 5B00     		lsl	r3, r3, #1
 513 0018 181C     		mov	r0, r3
 514 001a FFF7FEFF 		bl	MyDelay
 180:main.c        ****     
 181:main.c        ****     GetStartTime(&startUnixTime, &startRecentMs);
 515              		.loc 1 181 0
 516 001e 0823     		mov	r3, #8
 517 0020 FA18     		add	r2, r7, r3
 518 0022 3B1D     		add	r3, r7, #4
 519 0024 101C     		mov	r0, r2
 520 0026 191C     		mov	r1, r3
 521 0028 FFF7FEFF 		bl	GetStartTime
 182:main.c        ****     SendSkierStart(startUnixTime, startRecentMs);
 522              		.loc 1 182 0
 523 002c BB68     		ldr	r3, [r7, #8]
 524 002e FC68     		ldr	r4, [r7, #12]
 525 0030 7A68     		ldr	r2, [r7, #4]
 526 0032 181C     		mov	r0, r3
 527 0034 211C     		mov	r1, r4
 528 0036 FFF7FEFF 		bl	SendSkierStart
 183:main.c        ****     
 184:main.c        ****     Display("Wait next skier");
 529              		.loc 1 184 0
 530 003a 094B     		ldr	r3, .L42+4
ARM GAS  C:\Users\Petro\AppData\Local\Temp\cc8fINho.s 			page 14


 531 003c 181C     		mov	r0, r3
 532 003e FFF7FEFF 		bl	Display
 185:main.c        ****     MyDelay(TIMEOUT_NEXT_SKIER);
 533              		.loc 1 185 0
 534 0042 FA23     		mov	r3, #250
 535 0044 DB00     		lsl	r3, r3, #3
 536 0046 181C     		mov	r0, r3
 537 0048 FFF7FEFF 		bl	MyDelay
 186:main.c        ****     
 187:main.c        ****     result = NO_ERROR;
 538              		.loc 1 187 0
 539 004c 0123     		mov	r3, #1
 540 004e 7B61     		str	r3, [r7, #20]
 188:main.c        ****     
 189:main.c        ****     return result;
 541              		.loc 1 189 0
 542 0050 7B69     		ldr	r3, [r7, #20]
 190:main.c        ****     
 191:main.c        **** }
 543              		.loc 1 191 0
 544 0052 181C     		mov	r0, r3
 545 0054 BD46     		mov	sp, r7
 546 0056 07B0     		add	sp, sp, #28
 547              		@ sp needed
 548 0058 90BD     		pop	{r4, r7, pc}
 549              	.L43:
 550 005a C046     		.align	2
 551              	.L42:
 552 005c 74000000 		.word	.LC18
 553 0060 80000000 		.word	.LC20
 554              		.cfi_endproc
 555              	.LFE68:
 556              		.size	SaveResult, .-SaveResult
 557              		.text
 558              	.Letext0:
 559              		.file 2 "c:\\program files (x86)\\cypress\\psoc creator\\4.0\\psoc creator\\import\\gnu\\arm\\4.9.
 560              		.file 3 "c:\\program files (x86)\\cypress\\psoc creator\\4.0\\psoc creator\\import\\gnu\\arm\\4.9.
 561              		.file 4 "appGlobal.h"
 562              		.section	.debug_info,"",%progbits
 563              	.Ldebug_info0:
 564 0000 E0010000 		.4byte	0x1e0
 565 0004 0400     		.2byte	0x4
 566 0006 00000000 		.4byte	.Ldebug_abbrev0
 567 000a 04       		.byte	0x4
 568 000b 01       		.uleb128 0x1
 569 000c 14010000 		.4byte	.LASF31
 570 0010 01       		.byte	0x1
 571 0011 35020000 		.4byte	.LASF32
 572 0015 45000000 		.4byte	.LASF33
 573 0019 00000000 		.4byte	.Ldebug_ranges0+0
 574 001d 00000000 		.4byte	0
 575 0021 00000000 		.4byte	.Ldebug_line0
 576 0025 02       		.uleb128 0x2
 577 0026 01       		.byte	0x1
 578 0027 06       		.byte	0x6
 579 0028 68020000 		.4byte	.LASF0
 580 002c 02       		.uleb128 0x2
ARM GAS  C:\Users\Petro\AppData\Local\Temp\cc8fINho.s 			page 15


 581 002d 01       		.byte	0x1
 582 002e 08       		.byte	0x8
 583 002f BA000000 		.4byte	.LASF1
 584 0033 02       		.uleb128 0x2
 585 0034 02       		.byte	0x2
 586 0035 05       		.byte	0x5
 587 0036 41020000 		.4byte	.LASF2
 588 003a 02       		.uleb128 0x2
 589 003b 02       		.byte	0x2
 590 003c 07       		.byte	0x7
 591 003d DA000000 		.4byte	.LASF3
 592 0041 02       		.uleb128 0x2
 593 0042 04       		.byte	0x4
 594 0043 05       		.byte	0x5
 595 0044 5F020000 		.4byte	.LASF4
 596 0048 03       		.uleb128 0x3
 597 0049 09010000 		.4byte	.LASF7
 598 004d 02       		.byte	0x2
 599 004e 41       		.byte	0x41
 600 004f 53000000 		.4byte	0x53
 601 0053 02       		.uleb128 0x2
 602 0054 04       		.byte	0x4
 603 0055 07       		.byte	0x7
 604 0056 C8000000 		.4byte	.LASF5
 605 005a 02       		.uleb128 0x2
 606 005b 08       		.byte	0x8
 607 005c 05       		.byte	0x5
 608 005d 27020000 		.4byte	.LASF6
 609 0061 03       		.uleb128 0x3
 610 0062 4B020000 		.4byte	.LASF8
 611 0066 02       		.byte	0x2
 612 0067 5B       		.byte	0x5b
 613 0068 6C000000 		.4byte	0x6c
 614 006c 02       		.uleb128 0x2
 615 006d 08       		.byte	0x8
 616 006e 07       		.byte	0x7
 617 006f DC010000 		.4byte	.LASF9
 618 0073 04       		.uleb128 0x4
 619 0074 04       		.byte	0x4
 620 0075 05       		.byte	0x5
 621 0076 696E7400 		.ascii	"int\000"
 622 007a 02       		.uleb128 0x2
 623 007b 04       		.byte	0x4
 624 007c 07       		.byte	0x7
 625 007d CF010000 		.4byte	.LASF10
 626 0081 03       		.uleb128 0x3
 627 0082 56020000 		.4byte	.LASF11
 628 0086 03       		.byte	0x3
 629 0087 2D       		.byte	0x2d
 630 0088 48000000 		.4byte	0x48
 631 008c 03       		.uleb128 0x3
 632 008d 36000000 		.4byte	.LASF12
 633 0091 03       		.byte	0x3
 634 0092 39       		.byte	0x39
 635 0093 61000000 		.4byte	0x61
 636 0097 02       		.uleb128 0x2
 637 0098 04       		.byte	0x4
ARM GAS  C:\Users\Petro\AppData\Local\Temp\cc8fINho.s 			page 16


 638 0099 04       		.byte	0x4
 639 009a 3F000000 		.4byte	.LASF13
 640 009e 02       		.uleb128 0x2
 641 009f 08       		.byte	0x8
 642 00a0 04       		.byte	0x4
 643 00a1 F8000000 		.4byte	.LASF14
 644 00a5 02       		.uleb128 0x2
 645 00a6 01       		.byte	0x1
 646 00a7 08       		.byte	0x8
 647 00a8 3C020000 		.4byte	.LASF15
 648 00ac 02       		.uleb128 0x2
 649 00ad 04       		.byte	0x4
 650 00ae 07       		.byte	0x7
 651 00af 1E020000 		.4byte	.LASF16
 652 00b3 05       		.uleb128 0x5
 653 00b4 01       		.byte	0x1
 654 00b5 04       		.byte	0x4
 655 00b6 14       		.byte	0x14
 656 00b7 D4000000 		.4byte	0xd4
 657 00bb 06       		.uleb128 0x6
 658 00bc FF000000 		.4byte	.LASF17
 659 00c0 00       		.sleb128 0
 660 00c1 06       		.uleb128 0x6
 661 00c2 00000000 		.4byte	.LASF18
 662 00c6 01       		.sleb128 1
 663 00c7 06       		.uleb128 0x6
 664 00c8 ED000000 		.4byte	.LASF19
 665 00cc 02       		.sleb128 2
 666 00cd 06       		.uleb128 0x6
 667 00ce 74020000 		.4byte	.LASF20
 668 00d2 03       		.sleb128 3
 669 00d3 00       		.byte	0
 670 00d4 03       		.uleb128 0x3
 671 00d5 A2010000 		.4byte	.LASF21
 672 00d9 04       		.byte	0x4
 673 00da 14       		.byte	0x14
 674 00db B3000000 		.4byte	0xb3
 675 00df 07       		.uleb128 0x7
 676 00e0 CA010000 		.4byte	.LASF22
 677 00e4 01       		.byte	0x1
 678 00e5 03       		.byte	0x3
 679 00e6 73000000 		.4byte	0x73
 680 00ea 00000000 		.4byte	.LFB63
 681 00ee B8000000 		.4byte	.LFE63-.LFB63
 682 00f2 01       		.uleb128 0x1
 683 00f3 9C       		.byte	0x9c
 684 00f4 08       		.uleb128 0x8
 685 00f5 05020000 		.4byte	.LASF23
 686 00f9 01       		.byte	0x1
 687 00fa 3C       		.byte	0x3c
 688 00fb 00000000 		.4byte	.LFB64
 689 00ff 38000000 		.4byte	.LFE64-.LFB64
 690 0103 01       		.uleb128 0x1
 691 0104 9C       		.byte	0x9c
 692 0105 09       		.uleb128 0x9
 693 0106 BA010000 		.4byte	.LASF24
 694 010a 01       		.byte	0x1
ARM GAS  C:\Users\Petro\AppData\Local\Temp\cc8fINho.s 			page 17


 695 010b 4F       		.byte	0x4f
 696 010c 81000000 		.4byte	0x81
 697 0110 00000000 		.4byte	.LFB65
 698 0114 80000000 		.4byte	.LFE65-.LFB65
 699 0118 01       		.uleb128 0x1
 700 0119 9C       		.byte	0x9c
 701 011a 2D010000 		.4byte	0x12d
 702 011e 0A       		.uleb128 0xa
 703 011f FE010000 		.4byte	.LASF26
 704 0123 01       		.byte	0x1
 705 0124 51       		.byte	0x51
 706 0125 81000000 		.4byte	0x81
 707 0129 02       		.uleb128 0x2
 708 012a 91       		.byte	0x91
 709 012b 74       		.sleb128 -12
 710 012c 00       		.byte	0
 711 012d 09       		.uleb128 0x9
 712 012e 1C000000 		.4byte	.LASF25
 713 0132 01       		.byte	0x1
 714 0133 75       		.byte	0x75
 715 0134 81000000 		.4byte	0x81
 716 0138 00000000 		.4byte	.LFB66
 717 013c 64000000 		.4byte	.LFE66-.LFB66
 718 0140 01       		.uleb128 0x1
 719 0141 9C       		.byte	0x9c
 720 0142 55010000 		.4byte	0x155
 721 0146 0A       		.uleb128 0xa
 722 0147 FE010000 		.4byte	.LASF26
 723 014b 01       		.byte	0x1
 724 014c 77       		.byte	0x77
 725 014d 81000000 		.4byte	0x81
 726 0151 02       		.uleb128 0x2
 727 0152 91       		.byte	0x91
 728 0153 74       		.sleb128 -12
 729 0154 00       		.byte	0
 730 0155 09       		.uleb128 0x9
 731 0156 2C000000 		.4byte	.LASF27
 732 015a 01       		.byte	0x1
 733 015b 92       		.byte	0x92
 734 015c 81000000 		.4byte	0x81
 735 0160 00000000 		.4byte	.LFB67
 736 0164 54000000 		.4byte	.LFE67-.LFB67
 737 0168 01       		.uleb128 0x1
 738 0169 9C       		.byte	0x9c
 739 016a 7D010000 		.4byte	0x17d
 740 016e 0A       		.uleb128 0xa
 741 016f FE010000 		.4byte	.LASF26
 742 0173 01       		.byte	0x1
 743 0174 94       		.byte	0x94
 744 0175 81000000 		.4byte	0x81
 745 0179 02       		.uleb128 0x2
 746 017a 91       		.byte	0x91
 747 017b 74       		.sleb128 -12
 748 017c 00       		.byte	0
 749 017d 09       		.uleb128 0x9
 750 017e F3010000 		.4byte	.LASF28
 751 0182 01       		.byte	0x1
ARM GAS  C:\Users\Petro\AppData\Local\Temp\cc8fINho.s 			page 18


 752 0183 AB       		.byte	0xab
 753 0184 81000000 		.4byte	0x81
 754 0188 00000000 		.4byte	.LFB68
 755 018c 64000000 		.4byte	.LFE68-.LFB68
 756 0190 01       		.uleb128 0x1
 757 0191 9C       		.byte	0x9c
 758 0192 C1010000 		.4byte	0x1c1
 759 0196 0A       		.uleb128 0xa
 760 0197 FE010000 		.4byte	.LASF26
 761 019b 01       		.byte	0x1
 762 019c AD       		.byte	0xad
 763 019d 81000000 		.4byte	0x81
 764 01a1 02       		.uleb128 0x2
 765 01a2 91       		.byte	0x91
 766 01a3 6C       		.sleb128 -20
 767 01a4 0A       		.uleb128 0xa
 768 01a5 10020000 		.4byte	.LASF29
 769 01a9 01       		.byte	0x1
 770 01aa AE       		.byte	0xae
 771 01ab 8C000000 		.4byte	0x8c
 772 01af 02       		.uleb128 0x2
 773 01b0 91       		.byte	0x91
 774 01b1 60       		.sleb128 -32
 775 01b2 0A       		.uleb128 0xa
 776 01b3 AC010000 		.4byte	.LASF30
 777 01b7 01       		.byte	0x1
 778 01b8 AF       		.byte	0xaf
 779 01b9 81000000 		.4byte	0x81
 780 01bd 02       		.uleb128 0x2
 781 01be 91       		.byte	0x91
 782 01bf 5C       		.sleb128 -36
 783 01c0 00       		.byte	0
 784 01c1 0A       		.uleb128 0xa
 785 01c2 FE010000 		.4byte	.LASF26
 786 01c6 04       		.byte	0x4
 787 01c7 17       		.byte	0x17
 788 01c8 81000000 		.4byte	0x81
 789 01cc 05       		.uleb128 0x5
 790 01cd 03       		.byte	0x3
 791 01ce 00000000 		.4byte	result
 792 01d2 0B       		.uleb128 0xb
 793 01d3 0F000000 		.4byte	.LASF34
 794 01d7 04       		.byte	0x4
 795 01d8 15       		.byte	0x15
 796 01d9 D4000000 		.4byte	0xd4
 797 01dd 05       		.uleb128 0x5
 798 01de 03       		.byte	0x3
 799 01df 00000000 		.4byte	currentState
 800 01e3 00       		.byte	0
 801              		.section	.debug_abbrev,"",%progbits
 802              	.Ldebug_abbrev0:
 803 0000 01       		.uleb128 0x1
 804 0001 11       		.uleb128 0x11
 805 0002 01       		.byte	0x1
 806 0003 25       		.uleb128 0x25
 807 0004 0E       		.uleb128 0xe
 808 0005 13       		.uleb128 0x13
ARM GAS  C:\Users\Petro\AppData\Local\Temp\cc8fINho.s 			page 19


 809 0006 0B       		.uleb128 0xb
 810 0007 03       		.uleb128 0x3
 811 0008 0E       		.uleb128 0xe
 812 0009 1B       		.uleb128 0x1b
 813 000a 0E       		.uleb128 0xe
 814 000b 55       		.uleb128 0x55
 815 000c 17       		.uleb128 0x17
 816 000d 11       		.uleb128 0x11
 817 000e 01       		.uleb128 0x1
 818 000f 10       		.uleb128 0x10
 819 0010 17       		.uleb128 0x17
 820 0011 00       		.byte	0
 821 0012 00       		.byte	0
 822 0013 02       		.uleb128 0x2
 823 0014 24       		.uleb128 0x24
 824 0015 00       		.byte	0
 825 0016 0B       		.uleb128 0xb
 826 0017 0B       		.uleb128 0xb
 827 0018 3E       		.uleb128 0x3e
 828 0019 0B       		.uleb128 0xb
 829 001a 03       		.uleb128 0x3
 830 001b 0E       		.uleb128 0xe
 831 001c 00       		.byte	0
 832 001d 00       		.byte	0
 833 001e 03       		.uleb128 0x3
 834 001f 16       		.uleb128 0x16
 835 0020 00       		.byte	0
 836 0021 03       		.uleb128 0x3
 837 0022 0E       		.uleb128 0xe
 838 0023 3A       		.uleb128 0x3a
 839 0024 0B       		.uleb128 0xb
 840 0025 3B       		.uleb128 0x3b
 841 0026 0B       		.uleb128 0xb
 842 0027 49       		.uleb128 0x49
 843 0028 13       		.uleb128 0x13
 844 0029 00       		.byte	0
 845 002a 00       		.byte	0
 846 002b 04       		.uleb128 0x4
 847 002c 24       		.uleb128 0x24
 848 002d 00       		.byte	0
 849 002e 0B       		.uleb128 0xb
 850 002f 0B       		.uleb128 0xb
 851 0030 3E       		.uleb128 0x3e
 852 0031 0B       		.uleb128 0xb
 853 0032 03       		.uleb128 0x3
 854 0033 08       		.uleb128 0x8
 855 0034 00       		.byte	0
 856 0035 00       		.byte	0
 857 0036 05       		.uleb128 0x5
 858 0037 04       		.uleb128 0x4
 859 0038 01       		.byte	0x1
 860 0039 0B       		.uleb128 0xb
 861 003a 0B       		.uleb128 0xb
 862 003b 3A       		.uleb128 0x3a
 863 003c 0B       		.uleb128 0xb
 864 003d 3B       		.uleb128 0x3b
 865 003e 0B       		.uleb128 0xb
ARM GAS  C:\Users\Petro\AppData\Local\Temp\cc8fINho.s 			page 20


 866 003f 01       		.uleb128 0x1
 867 0040 13       		.uleb128 0x13
 868 0041 00       		.byte	0
 869 0042 00       		.byte	0
 870 0043 06       		.uleb128 0x6
 871 0044 28       		.uleb128 0x28
 872 0045 00       		.byte	0
 873 0046 03       		.uleb128 0x3
 874 0047 0E       		.uleb128 0xe
 875 0048 1C       		.uleb128 0x1c
 876 0049 0D       		.uleb128 0xd
 877 004a 00       		.byte	0
 878 004b 00       		.byte	0
 879 004c 07       		.uleb128 0x7
 880 004d 2E       		.uleb128 0x2e
 881 004e 00       		.byte	0
 882 004f 3F       		.uleb128 0x3f
 883 0050 19       		.uleb128 0x19
 884 0051 03       		.uleb128 0x3
 885 0052 0E       		.uleb128 0xe
 886 0053 3A       		.uleb128 0x3a
 887 0054 0B       		.uleb128 0xb
 888 0055 3B       		.uleb128 0x3b
 889 0056 0B       		.uleb128 0xb
 890 0057 49       		.uleb128 0x49
 891 0058 13       		.uleb128 0x13
 892 0059 11       		.uleb128 0x11
 893 005a 01       		.uleb128 0x1
 894 005b 12       		.uleb128 0x12
 895 005c 06       		.uleb128 0x6
 896 005d 40       		.uleb128 0x40
 897 005e 18       		.uleb128 0x18
 898 005f 9642     		.uleb128 0x2116
 899 0061 19       		.uleb128 0x19
 900 0062 00       		.byte	0
 901 0063 00       		.byte	0
 902 0064 08       		.uleb128 0x8
 903 0065 2E       		.uleb128 0x2e
 904 0066 00       		.byte	0
 905 0067 3F       		.uleb128 0x3f
 906 0068 19       		.uleb128 0x19
 907 0069 03       		.uleb128 0x3
 908 006a 0E       		.uleb128 0xe
 909 006b 3A       		.uleb128 0x3a
 910 006c 0B       		.uleb128 0xb
 911 006d 3B       		.uleb128 0x3b
 912 006e 0B       		.uleb128 0xb
 913 006f 27       		.uleb128 0x27
 914 0070 19       		.uleb128 0x19
 915 0071 11       		.uleb128 0x11
 916 0072 01       		.uleb128 0x1
 917 0073 12       		.uleb128 0x12
 918 0074 06       		.uleb128 0x6
 919 0075 40       		.uleb128 0x40
 920 0076 18       		.uleb128 0x18
 921 0077 9642     		.uleb128 0x2116
 922 0079 19       		.uleb128 0x19
ARM GAS  C:\Users\Petro\AppData\Local\Temp\cc8fINho.s 			page 21


 923 007a 00       		.byte	0
 924 007b 00       		.byte	0
 925 007c 09       		.uleb128 0x9
 926 007d 2E       		.uleb128 0x2e
 927 007e 01       		.byte	0x1
 928 007f 3F       		.uleb128 0x3f
 929 0080 19       		.uleb128 0x19
 930 0081 03       		.uleb128 0x3
 931 0082 0E       		.uleb128 0xe
 932 0083 3A       		.uleb128 0x3a
 933 0084 0B       		.uleb128 0xb
 934 0085 3B       		.uleb128 0x3b
 935 0086 0B       		.uleb128 0xb
 936 0087 27       		.uleb128 0x27
 937 0088 19       		.uleb128 0x19
 938 0089 49       		.uleb128 0x49
 939 008a 13       		.uleb128 0x13
 940 008b 11       		.uleb128 0x11
 941 008c 01       		.uleb128 0x1
 942 008d 12       		.uleb128 0x12
 943 008e 06       		.uleb128 0x6
 944 008f 40       		.uleb128 0x40
 945 0090 18       		.uleb128 0x18
 946 0091 9642     		.uleb128 0x2116
 947 0093 19       		.uleb128 0x19
 948 0094 01       		.uleb128 0x1
 949 0095 13       		.uleb128 0x13
 950 0096 00       		.byte	0
 951 0097 00       		.byte	0
 952 0098 0A       		.uleb128 0xa
 953 0099 34       		.uleb128 0x34
 954 009a 00       		.byte	0
 955 009b 03       		.uleb128 0x3
 956 009c 0E       		.uleb128 0xe
 957 009d 3A       		.uleb128 0x3a
 958 009e 0B       		.uleb128 0xb
 959 009f 3B       		.uleb128 0x3b
 960 00a0 0B       		.uleb128 0xb
 961 00a1 49       		.uleb128 0x49
 962 00a2 13       		.uleb128 0x13
 963 00a3 02       		.uleb128 0x2
 964 00a4 18       		.uleb128 0x18
 965 00a5 00       		.byte	0
 966 00a6 00       		.byte	0
 967 00a7 0B       		.uleb128 0xb
 968 00a8 34       		.uleb128 0x34
 969 00a9 00       		.byte	0
 970 00aa 03       		.uleb128 0x3
 971 00ab 0E       		.uleb128 0xe
 972 00ac 3A       		.uleb128 0x3a
 973 00ad 0B       		.uleb128 0xb
 974 00ae 3B       		.uleb128 0x3b
 975 00af 0B       		.uleb128 0xb
 976 00b0 49       		.uleb128 0x49
 977 00b1 13       		.uleb128 0x13
 978 00b2 3F       		.uleb128 0x3f
 979 00b3 19       		.uleb128 0x19
ARM GAS  C:\Users\Petro\AppData\Local\Temp\cc8fINho.s 			page 22


 980 00b4 02       		.uleb128 0x2
 981 00b5 18       		.uleb128 0x18
 982 00b6 00       		.byte	0
 983 00b7 00       		.byte	0
 984 00b8 00       		.byte	0
 985              		.section	.debug_aranges,"",%progbits
 986 0000 44000000 		.4byte	0x44
 987 0004 0200     		.2byte	0x2
 988 0006 00000000 		.4byte	.Ldebug_info0
 989 000a 04       		.byte	0x4
 990 000b 00       		.byte	0
 991 000c 0000     		.2byte	0
 992 000e 0000     		.2byte	0
 993 0010 00000000 		.4byte	.LFB63
 994 0014 B8000000 		.4byte	.LFE63-.LFB63
 995 0018 00000000 		.4byte	.LFB64
 996 001c 38000000 		.4byte	.LFE64-.LFB64
 997 0020 00000000 		.4byte	.LFB65
 998 0024 80000000 		.4byte	.LFE65-.LFB65
 999 0028 00000000 		.4byte	.LFB66
 1000 002c 64000000 		.4byte	.LFE66-.LFB66
 1001 0030 00000000 		.4byte	.LFB67
 1002 0034 54000000 		.4byte	.LFE67-.LFB67
 1003 0038 00000000 		.4byte	.LFB68
 1004 003c 64000000 		.4byte	.LFE68-.LFB68
 1005 0040 00000000 		.4byte	0
 1006 0044 00000000 		.4byte	0
 1007              		.section	.debug_ranges,"",%progbits
 1008              	.Ldebug_ranges0:
 1009 0000 00000000 		.4byte	.LFB63
 1010 0004 B8000000 		.4byte	.LFE63
 1011 0008 00000000 		.4byte	.LFB64
 1012 000c 38000000 		.4byte	.LFE64
 1013 0010 00000000 		.4byte	.LFB65
 1014 0014 80000000 		.4byte	.LFE65
 1015 0018 00000000 		.4byte	.LFB66
 1016 001c 64000000 		.4byte	.LFE66
 1017 0020 00000000 		.4byte	.LFB67
 1018 0024 54000000 		.4byte	.LFE67
 1019 0028 00000000 		.4byte	.LFB68
 1020 002c 64000000 		.4byte	.LFE68
 1021 0030 00000000 		.4byte	0
 1022 0034 00000000 		.4byte	0
 1023              		.section	.debug_line,"",%progbits
 1024              	.Ldebug_line0:
 1025 0000 E4010000 		.section	.debug_str,"MS",%progbits,1
 1025      02002401 
 1025      00000201 
 1025      FB0E0D00 
 1025      01010101 
 1026              	.LASF18:
 1027 0000 4745545F 		.ascii	"GET_FIN_STATUS\000"
 1027      46494E5F 
 1027      53544154 
 1027      555300
 1028              	.LASF34:
 1029 000f 63757272 		.ascii	"currentState\000"
ARM GAS  C:\Users\Petro\AppData\Local\Temp\cc8fINho.s 			page 23


 1029      656E7453 
 1029      74617465 
 1029      00
 1030              	.LASF25:
 1031 001c 47657446 		.ascii	"GetFinishStatus\000"
 1031      696E6973 
 1031      68537461 
 1031      74757300 
 1032              	.LASF27:
 1033 002c 43686563 		.ascii	"CheckGate\000"
 1033      6B476174 
 1033      6500
 1034              	.LASF12:
 1035 0036 75696E74 		.ascii	"uint64_t\000"
 1035      36345F74 
 1035      00
 1036              	.LASF13:
 1037 003f 666C6F61 		.ascii	"float\000"
 1037      7400
 1038              	.LASF33:
 1039 0045 443A5C43 		.ascii	"D:\\Cypress\\system-start-finish\\vesion 2\\fw\\sta"
 1039      79707265 
 1039      73735C73 
 1039      79737465 
 1039      6D2D7374 
 1040 0073 72745C73 		.ascii	"rt\\sandbox\\v9_testmode_1602display\\Start(state m"
 1040      616E6462 
 1040      6F785C76 
 1040      395F7465 
 1040      73746D6F 
 1041 00a3 61636869 		.ascii	"achine)\\start_v0.cydsn\000"
 1041      6E65295C 
 1041      73746172 
 1041      745F7630 
 1041      2E637964 
 1042              	.LASF1:
 1043 00ba 756E7369 		.ascii	"unsigned char\000"
 1043      676E6564 
 1043      20636861 
 1043      7200
 1044              	.LASF5:
 1045 00c8 6C6F6E67 		.ascii	"long unsigned int\000"
 1045      20756E73 
 1045      69676E65 
 1045      6420696E 
 1045      7400
 1046              	.LASF3:
 1047 00da 73686F72 		.ascii	"short unsigned int\000"
 1047      7420756E 
 1047      7369676E 
 1047      65642069 
 1047      6E7400
 1048              	.LASF19:
 1049 00ed 43484543 		.ascii	"CHECK_GATE\000"
 1049      4B5F4741 
 1049      544500
 1050              	.LASF14:
ARM GAS  C:\Users\Petro\AppData\Local\Temp\cc8fINho.s 			page 24


 1051 00f8 646F7562 		.ascii	"double\000"
 1051      6C6500
 1052              	.LASF17:
 1053 00ff 54494D45 		.ascii	"TIME_SYNC\000"
 1053      5F53594E 
 1053      4300
 1054              	.LASF7:
 1055 0109 5F5F7569 		.ascii	"__uint32_t\000"
 1055      6E743332 
 1055      5F7400
 1056              	.LASF31:
 1057 0114 474E5520 		.ascii	"GNU C 4.9.3 20150303 (release) [ARM/embedded-4_9-br"
 1057      4320342E 
 1057      392E3320 
 1057      32303135 
 1057      30333033 
 1058 0147 616E6368 		.ascii	"anch revision 221220] -mcpu=cortex-m0 -mthumb -g -O"
 1058      20726576 
 1058      6973696F 
 1058      6E203232 
 1058      31323230 
 1059 017a 30202D66 		.ascii	"0 -ffunction-sections -ffat-lto-objects\000"
 1059      66756E63 
 1059      74696F6E 
 1059      2D736563 
 1059      74696F6E 
 1060              	.LASF21:
 1061 01a2 53746174 		.ascii	"StateType\000"
 1061      65547970 
 1061      6500
 1062              	.LASF30:
 1063 01ac 73746172 		.ascii	"startRecentMs\000"
 1063      74526563 
 1063      656E744D 
 1063      7300
 1064              	.LASF24:
 1065 01ba 54696D65 		.ascii	"TimeSynchronize\000"
 1065      53796E63 
 1065      68726F6E 
 1065      697A6500 
 1066              	.LASF22:
 1067 01ca 6D61696E 		.ascii	"main\000"
 1067      00
 1068              	.LASF10:
 1069 01cf 756E7369 		.ascii	"unsigned int\000"
 1069      676E6564 
 1069      20696E74 
 1069      00
 1070              	.LASF9:
 1071 01dc 6C6F6E67 		.ascii	"long long unsigned int\000"
 1071      206C6F6E 
 1071      6720756E 
 1071      7369676E 
 1071      65642069 
 1072              	.LASF28:
 1073 01f3 53617665 		.ascii	"SaveResult\000"
 1073      52657375 
ARM GAS  C:\Users\Petro\AppData\Local\Temp\cc8fINho.s 			page 25


 1073      6C7400
 1074              	.LASF26:
 1075 01fe 72657375 		.ascii	"result\000"
 1075      6C7400
 1076              	.LASF23:
 1077 0205 53797374 		.ascii	"SystemInit\000"
 1077      656D496E 
 1077      697400
 1078              	.LASF29:
 1079 0210 73746172 		.ascii	"startUnixTime\000"
 1079      74556E69 
 1079      7854696D 
 1079      6500
 1080              	.LASF16:
 1081 021e 73697A65 		.ascii	"sizetype\000"
 1081      74797065 
 1081      00
 1082              	.LASF6:
 1083 0227 6C6F6E67 		.ascii	"long long int\000"
 1083      206C6F6E 
 1083      6720696E 
 1083      7400
 1084              	.LASF32:
 1085 0235 6D61696E 		.ascii	"main.c\000"
 1085      2E6300
 1086              	.LASF15:
 1087 023c 63686172 		.ascii	"char\000"
 1087      00
 1088              	.LASF2:
 1089 0241 73686F72 		.ascii	"short int\000"
 1089      7420696E 
 1089      7400
 1090              	.LASF8:
 1091 024b 5F5F7569 		.ascii	"__uint64_t\000"
 1091      6E743634 
 1091      5F7400
 1092              	.LASF11:
 1093 0256 75696E74 		.ascii	"uint32_t\000"
 1093      33325F74 
 1093      00
 1094              	.LASF4:
 1095 025f 6C6F6E67 		.ascii	"long int\000"
 1095      20696E74 
 1095      00
 1096              	.LASF0:
 1097 0268 7369676E 		.ascii	"signed char\000"
 1097      65642063 
 1097      68617200 
 1098              	.LASF20:
 1099 0274 53415645 		.ascii	"SAVE_RESULT\000"
 1099      5F524553 
 1099      554C5400 
 1100              		.ident	"GCC: (GNU Tools for ARM Embedded Processors) 4.9.3 20150303 (release) [ARM/embedded-4_9-br
