ARM GAS  C:\Users\Petro\AppData\Local\Temp\cc8fINho.s 			page 1


   1              		.cpu cortex-m0
   2              		.fpu softvfp
   3              		.eabi_attribute 20, 1
   4              		.eabi_attribute 21, 1
   5              		.eabi_attribute 23, 3
   6              		.eabi_attribute 24, 1
   7              		.eabi_attribute 25, 1
   8              		.eabi_attribute 26, 1
   9              		.eabi_attribute 30, 6
  10              		.eabi_attribute 34, 0
  11              		.eabi_attribute 18, 4
  12              		.code	16
  13              		.file	"main.c"
  14              		.text
  15              	.Ltext0:
  16              		.cfi_sections	.debug_frame
  17              		.comm	currentState,1,1
  18              		.bss
  19              		.align	2
  20              	result:
  21 0000 00000000 		.space	4
  22              		.section	.text.main,"ax",%progbits
  23              		.align	2
  24              		.global	main
  25              		.code	16
  26              		.thumb_func
  27              		.type	main, %function
  28              	main:
  29              	.LFB63:
  30              		.file 1 "main.c"
   1:main.c        **** #include "appGlobal.h"
   2:main.c        **** 
   3:main.c        **** int main()
   4:main.c        **** {
  31              		.loc 1 4 0
  32              		.cfi_startproc
  33 0000 80B5     		push	{r7, lr}
  34              		.cfi_def_cfa_offset 8
  35              		.cfi_offset 7, -8
  36              		.cfi_offset 14, -4
  37 0002 00AF     		add	r7, sp, #0
  38              		.cfi_def_cfa_register 7
   5:main.c        ****     SystemInit();
  39              		.loc 1 5 0
  40 0004 FFF7FEFF 		bl	SystemInit
   6:main.c        ****     currentState = TIME_SYNC;
  41              		.loc 1 6 0
  42 0008 294B     		ldr	r3, .L14
  43 000a 0022     		mov	r2, #0
  44 000c 1A70     		strb	r2, [r3]
  45              	.L13:
   7:main.c        **** 
   8:main.c        ****     for(;;)
   9:main.c        ****     {
  10:main.c        ****         switch (currentState)
  46              		.loc 1 10 0
  47 000e 284B     		ldr	r3, .L14
ARM GAS  C:\Users\Petro\AppData\Local\Temp\cc8fINho.s 			page 2


  48 0010 1B78     		ldrb	r3, [r3]
  49 0012 012B     		cmp	r3, #1
  50 0014 16D0     		beq	.L3
  51 0016 02DC     		bgt	.L4
  52 0018 002B     		cmp	r3, #0
  53 001a 05D0     		beq	.L5
  54 001c 42E0     		b	.L2
  55              	.L4:
  56 001e 022B     		cmp	r3, #2
  57 0020 26D0     		beq	.L6
  58 0022 032B     		cmp	r3, #3
  59 0024 35D0     		beq	.L7
  60 0026 3DE0     		b	.L2
  61              	.L5:
  11:main.c        ****         {
  12:main.c        ****             case TIME_SYNC:
  13:main.c        ****             {
  14:main.c        ****                 result = TimeSynchronize();
  62              		.loc 1 14 0
  63 0028 FFF7FEFF 		bl	TimeSynchronize
  64 002c 021C     		mov	r2, r0
  65 002e 214B     		ldr	r3, .L14+4
  66 0030 1A60     		str	r2, [r3]
  15:main.c        ****                 if(result == TIME_SYNC_OK)
  67              		.loc 1 15 0
  68 0032 204B     		ldr	r3, .L14+4
  69 0034 1B68     		ldr	r3, [r3]
  70 0036 002B     		cmp	r3, #0
  71 0038 03D1     		bne	.L8
  16:main.c        ****                 {
  17:main.c        ****                     currentState = GET_FIN_STATUS;
  72              		.loc 1 17 0
  73 003a 1D4B     		ldr	r3, .L14
  74 003c 0122     		mov	r2, #1
  75 003e 1A70     		strb	r2, [r3]
  18:main.c        ****                 }
  19:main.c        ****                 break;
  76              		.loc 1 19 0
  77 0040 30E0     		b	.L2
  78              	.L8:
  79 0042 2FE0     		b	.L2
  80              	.L3:
  20:main.c        ****             }
  21:main.c        ****             case GET_FIN_STATUS:
  22:main.c        ****             {
  23:main.c        ****                 result = GetFinishStatus();
  81              		.loc 1 23 0
  82 0044 FFF7FEFF 		bl	GetFinishStatus
  83 0048 021C     		mov	r2, r0
  84 004a 1A4B     		ldr	r3, .L14+4
  85 004c 1A60     		str	r2, [r3]
  24:main.c        **** 
  25:main.c        ****                 if(result == NO_ERROR)
  86              		.loc 1 25 0
  87 004e 194B     		ldr	r3, .L14+4
  88 0050 1B68     		ldr	r3, [r3]
  89 0052 012B     		cmp	r3, #1
ARM GAS  C:\Users\Petro\AppData\Local\Temp\cc8fINho.s 			page 3


  90 0054 03D1     		bne	.L9
  26:main.c        ****                 {
  27:main.c        ****                     currentState = CHECK_GATE;                   
  91              		.loc 1 27 0
  92 0056 164B     		ldr	r3, .L14
  93 0058 0222     		mov	r2, #2
  94 005a 1A70     		strb	r2, [r3]
  95 005c 07E0     		b	.L10
  96              	.L9:
  28:main.c        ****                 }
  29:main.c        ****                 else if(result == REBOOT)  
  97              		.loc 1 29 0
  98 005e 154B     		ldr	r3, .L14+4
  99 0060 1B68     		ldr	r3, [r3]
 100 0062 FF2B     		cmp	r3, #255
 101 0064 03D1     		bne	.L10
  30:main.c        ****                 {
  31:main.c        ****                     currentState = TIME_SYNC;
 102              		.loc 1 31 0
 103 0066 124B     		ldr	r3, .L14
 104 0068 0022     		mov	r2, #0
 105 006a 1A70     		strb	r2, [r3]
  32:main.c        ****                 }
  33:main.c        ****                 break;
 106              		.loc 1 33 0
 107 006c 1AE0     		b	.L2
 108              	.L10:
 109 006e 19E0     		b	.L2
 110              	.L6:
  34:main.c        ****             }
  35:main.c        ****             case CHECK_GATE:
  36:main.c        ****             {
  37:main.c        ****                 result = CheckGate();
 111              		.loc 1 37 0
 112 0070 FFF7FEFF 		bl	CheckGate
 113 0074 021C     		mov	r2, r0
 114 0076 0F4B     		ldr	r3, .L14+4
 115 0078 1A60     		str	r2, [r3]
  38:main.c        ****                 if(result == GATE_OPEN)
 116              		.loc 1 38 0
 117 007a 0E4B     		ldr	r3, .L14+4
 118 007c 1B68     		ldr	r3, [r3]
 119 007e 012B     		cmp	r3, #1
 120 0080 03D1     		bne	.L11
  39:main.c        ****                 {
  40:main.c        ****                     currentState = SAVE_RESULT;
 121              		.loc 1 40 0
 122 0082 0B4B     		ldr	r3, .L14
 123 0084 0322     		mov	r2, #3
 124 0086 1A70     		strb	r2, [r3]
  41:main.c        ****                 }
  42:main.c        ****                 else
  43:main.c        ****                 {
  44:main.c        ****                     currentState = GET_FIN_STATUS;
  45:main.c        ****                 }
  46:main.c        ****                 break;
 125              		.loc 1 46 0
ARM GAS  C:\Users\Petro\AppData\Local\Temp\cc8fINho.s 			page 4


 126 0088 0CE0     		b	.L2
 127              	.L11:
  44:main.c        ****                 }
 128              		.loc 1 44 0
 129 008a 094B     		ldr	r3, .L14
 130 008c 0122     		mov	r2, #1
 131 008e 1A70     		strb	r2, [r3]
 132              		.loc 1 46 0
 133 0090 08E0     		b	.L2
 134              	.L7:
  47:main.c        ****             }
  48:main.c        ****             case SAVE_RESULT:
  49:main.c        ****             {
  50:main.c        ****                 result = SaveResult();
 135              		.loc 1 50 0
 136 0092 FFF7FEFF 		bl	SaveResult
 137 0096 021C     		mov	r2, r0
 138 0098 064B     		ldr	r3, .L14+4
 139 009a 1A60     		str	r2, [r3]
  51:main.c        ****                 currentState = GET_FIN_STATUS;
 140              		.loc 1 51 0
 141 009c 044B     		ldr	r3, .L14
 142 009e 0122     		mov	r2, #1
 143 00a0 1A70     		strb	r2, [r3]
  52:main.c        ****     
  53:main.c        ****                 break;
 144              		.loc 1 53 0
 145 00a2 C046     		mov	r8, r8
 146              	.L2:
  54:main.c        ****             }           
  55:main.c        ****         }
  56:main.c        ****         MyDelay(TIMEOUT_STATE);
 147              		.loc 1 56 0
 148 00a4 FA23     		mov	r3, #250
 149 00a6 5B00     		lsl	r3, r3, #1
 150 00a8 181C     		mov	r0, r3
 151 00aa FFF7FEFF 		bl	MyDelay
  57:main.c        ****     }
 152              		.loc 1 57 0
 153 00ae AEE7     		b	.L13
 154              	.L15:
 155              		.align	2
 156              	.L14:
 157 00b0 00000000 		.word	currentState
 158 00b4 00000000 		.word	result
 159              		.cfi_endproc
 160              	.LFE63:
 161              		.size	main, .-main
 162              		.section	.rodata
 163              		.align	2
 164              	.LC2:
 165 0000 53797374 		.ascii	"System init...\000"
 165      656D2069 
 165      6E69742E 
 165      2E2E00
 166              		.section	.text.SystemInit,"ax",%progbits
 167              		.align	2
ARM GAS  C:\Users\Petro\AppData\Local\Temp\cc8fINho.s 			page 5


 168              		.global	SystemInit
 169              		.code	16
 170              		.thumb_func
 171              		.type	SystemInit, %function
 172              	SystemInit:
 173              	.LFB64:
  58:main.c        **** }
  59:main.c        **** 
  60:main.c        **** void  SystemInit(void)
  61:main.c        **** {   
 174              		.loc 1 61 0
 175              		.cfi_startproc
 176 0000 80B5     		push	{r7, lr}
 177              		.cfi_def_cfa_offset 8
 178              		.cfi_offset 7, -8
 179              		.cfi_offset 14, -4
 180 0002 00AF     		add	r7, sp, #0
 181              		.cfi_def_cfa_register 7
  62:main.c        ****     SetRebootFlag();
 182              		.loc 1 62 0
 183 0004 FFF7FEFF 		bl	SetRebootFlag
  63:main.c        ****     LedInit();
 184              		.loc 1 63 0
 185 0008 FFF7FEFF 		bl	LedInit
  64:main.c        ****     LedBlink(FREQ_INIT_BLINK);
 186              		.loc 1 64 0
 187 000c 0A20     		mov	r0, #10
 188 000e FFF7FEFF 		bl	LedBlink
  65:main.c        ****     
  66:main.c        ****     DisplayStart();
 189              		.loc 1 66 0
 190 0012 FFF7FEFF 		bl	DisplayStart
  67:main.c        ****     Display("System init...");
 191              		.loc 1 67 0
 192 0016 074B     		ldr	r3, .L17
 193 0018 181C     		mov	r0, r3
 194 001a FFF7FEFF 		bl	Display
  68:main.c        ****     
  69:main.c        ****     RTC_WDT_Init(); 
 195              		.loc 1 69 0
 196 001e FFF7FEFF 		bl	RTC_WDT_Init
  70:main.c        ****     InitNetwork();
 197              		.loc 1 70 0
 198 0022 FFF7FEFF 		bl	InitNetwork
  71:main.c        ****     GateInit();
 199              		.loc 1 71 0
 200 0026 FFF7FEFF 		bl	GateInit
  72:main.c        ****     BattADC_Init();
 201              		.loc 1 72 0
 202 002a FFF7FEFF 		bl	BattADC_Init
  73:main.c        ****     
  74:main.c        ****     /* Enable global interrupts. */ 
  75:main.c        ****     CyGlobalIntEnable; 
 203              		.loc 1 75 0
 204              	@ 75 "main.c" 1
 205 002e 62B6     		CPSIE   i
 206              	@ 0 "" 2
ARM GAS  C:\Users\Petro\AppData\Local\Temp\cc8fINho.s 			page 6


  76:main.c        ****     
  77:main.c        **** }
 207              		.loc 1 77 0
 208              		.code	16
 209 0030 BD46     		mov	sp, r7
 210              		@ sp needed
 211 0032 80BD     		pop	{r7, pc}
 212              	.L18:
 213              		.align	2
 214              	.L17:
 215 0034 00000000 		.word	.LC2
 216              		.cfi_endproc
 217              	.LFE64:
 218              		.size	SystemInit, .-SystemInit
 219              		.section	.rodata
 220 000f 00       		.align	2
 221              	.LC4:
 222 0010 4E657477 		.ascii	"Network conn...\000"
 222      6F726B20 
 222      636F6E6E 
 222      2E2E2E00 
 223              		.align	2
 224              	.LC6:
 225 0020 53796E63 		.ascii	"Sync time...\000"
 225      2074696D 
 225      652E2E2E 
 225      00
 226 002d 000000   		.align	2
 227              	.LC8:
 228 0030 53796E63 		.ascii	"Sync ok\000"
 228      206F6B00 
 229              		.align	2
 230              	.LC10:
 231 0038 53796E63 		.ascii	"Sync time error\000"
 231      2074696D 
 231      65206572 
 231      726F7200 
 232              		.section	.text.TimeSynchronize,"ax",%progbits
 233              		.align	2
 234              		.global	TimeSynchronize
 235              		.code	16
 236              		.thumb_func
 237              		.type	TimeSynchronize, %function
 238              	TimeSynchronize:
 239              	.LFB65:
  78:main.c        **** 
  79:main.c        **** uint32_t TimeSynchronize(void)
  80:main.c        **** {
 240              		.loc 1 80 0
 241              		.cfi_startproc
 242 0000 80B5     		push	{r7, lr}
 243              		.cfi_def_cfa_offset 8
 244              		.cfi_offset 7, -8
 245              		.cfi_offset 14, -4
 246 0002 82B0     		sub	sp, sp, #8
 247              		.cfi_def_cfa_offset 16
 248 0004 00AF     		add	r7, sp, #0
ARM GAS  C:\Users\Petro\AppData\Local\Temp\cc8fINho.s 			page 7


 249              		.cfi_def_cfa_register 7
  81:main.c        ****     uint32_t result;
  82:main.c        ****     
  83:main.c        ****     LedBlink(FREQ_INIT_BLINK);
 250              		.loc 1 83 0
 251 0006 0A20     		mov	r0, #10
 252 0008 FFF7FEFF 		bl	LedBlink
  84:main.c        ****     
  85:main.c        ****     /*network connect*/
  86:main.c        ****     if(NetworkStatus() == NETWORK_DISCONN)
 253              		.loc 1 86 0
 254 000c FFF7FEFF 		bl	NetworkStatus
 255 0010 031E     		sub	r3, r0, #0
 256 0012 09D1     		bne	.L20
  87:main.c        ****     {
  88:main.c        ****         Display("Network conn...");
 257              		.loc 1 88 0
 258 0014 164B     		ldr	r3, .L24
 259 0016 181C     		mov	r0, r3
 260 0018 FFF7FEFF 		bl	Display
  89:main.c        ****         MyDelay(TIMEOUT_STATE);
 261              		.loc 1 89 0
 262 001c FA23     		mov	r3, #250
 263 001e 5B00     		lsl	r3, r3, #1
 264 0020 181C     		mov	r0, r3
 265 0022 FFF7FEFF 		bl	MyDelay
 266 0026 1DE0     		b	.L21
 267              	.L20:
  90:main.c        ****     }
  91:main.c        ****     else
  92:main.c        ****     {
  93:main.c        ****         /*time sync*/
  94:main.c        ****         Display("Sync time...");
 268              		.loc 1 94 0
 269 0028 124B     		ldr	r3, .L24+4
 270 002a 181C     		mov	r0, r3
 271 002c FFF7FEFF 		bl	Display
  95:main.c        ****         
  96:main.c        ****         if(NTPsync() == TIME_SYNC_OK)
 272              		.loc 1 96 0
 273 0030 FFF7FEFF 		bl	NTPsync
 274 0034 031E     		sub	r3, r0, #0
 275 0036 0DD1     		bne	.L22
  97:main.c        ****         {
  98:main.c        ****             Display("Sync ok");
 276              		.loc 1 98 0
 277 0038 0F4B     		ldr	r3, .L24+8
 278 003a 181C     		mov	r0, r3
 279 003c FFF7FEFF 		bl	Display
  99:main.c        ****             ClearRebootFlag();
 280              		.loc 1 99 0
 281 0040 FFF7FEFF 		bl	ClearRebootFlag
 100:main.c        ****             MyDelay(4*TIMEOUT_USER_READ_INFO);
 282              		.loc 1 100 0
 283 0044 FA23     		mov	r3, #250
 284 0046 DB00     		lsl	r3, r3, #3
 285 0048 181C     		mov	r0, r3
ARM GAS  C:\Users\Petro\AppData\Local\Temp\cc8fINho.s 			page 8


 286 004a FFF7FEFF 		bl	MyDelay
 101:main.c        ****             
 102:main.c        ****             result = TIME_SYNC_OK;
 287              		.loc 1 102 0
 288 004e 0023     		mov	r3, #0
 289 0050 7B60     		str	r3, [r7, #4]
 290 0052 07E0     		b	.L21
 291              	.L22:
 103:main.c        ****         }
 104:main.c        ****         else
 105:main.c        ****         {
 106:main.c        ****             Display("Sync time error");
 292              		.loc 1 106 0
 293 0054 094B     		ldr	r3, .L24+12
 294 0056 181C     		mov	r0, r3
 295 0058 FFF7FEFF 		bl	Display
 107:main.c        ****             SetRebootFlag();
 296              		.loc 1 107 0
 297 005c FFF7FEFF 		bl	SetRebootFlag
 108:main.c        ****             //MyDelay(TIMEOUT_USER_READ_INFO);
 109:main.c        ****       
 110:main.c        ****             result = TIME_SYNC_ERR;
 298              		.loc 1 110 0
 299 0060 0123     		mov	r3, #1
 300 0062 7B60     		str	r3, [r7, #4]
 301              	.L21:
 111:main.c        ****         }
 112:main.c        ****     }
 113:main.c        ****     
 114:main.c        ****     return result;
 302              		.loc 1 114 0
 303 0064 7B68     		ldr	r3, [r7, #4]
 115:main.c        **** }
 304              		.loc 1 115 0
 305 0066 181C     		mov	r0, r3
 306 0068 BD46     		mov	sp, r7
 307 006a 02B0     		add	sp, sp, #8
 308              		@ sp needed
 309 006c 80BD     		pop	{r7, pc}
 310              	.L25:
 311 006e C046     		.align	2
 312              	.L24:
 313 0070 10000000 		.word	.LC4
 314 0074 20000000 		.word	.LC6
 315 0078 30000000 		.word	.LC8
 316 007c 38000000 		.word	.LC10
 317              		.cfi_endproc
 318              	.LFE65:
 319              		.size	TimeSynchronize, .-TimeSynchronize
 320              		.section	.rodata
 321              		.align	2
 322              	.LC12:
 323 0048 46696E20 		.ascii	"Fin no ready\000"
 323      6E6F2072 
 323      65616479 
 323      00
 324              		.section	.text.GetFinishStatus,"ax",%progbits
ARM GAS  C:\Users\Petro\AppData\Local\Temp\cc8fINho.s 			page 9


 325              		.align	2
 326              		.global	GetFinishStatus
 327              		.code	16
 328              		.thumb_func
 329              		.type	GetFinishStatus, %function
 330              	GetFinishStatus:
 331              	.LFB66:
 116:main.c        **** 
 117:main.c        **** uint32_t GetFinishStatus(void)
 118:main.c        **** {
 332              		.loc 1 118 0
 333              		.cfi_startproc
 334 0000 80B5     		push	{r7, lr}
 335              		.cfi_def_cfa_offset 8
 336              		.cfi_offset 7, -8
 337              		.cfi_offset 14, -4
 338 0002 82B0     		sub	sp, sp, #8
 339              		.cfi_def_cfa_offset 16
 340 0004 00AF     		add	r7, sp, #0
 341              		.cfi_def_cfa_register 7
 119:main.c        ****     uint32_t result;
 120:main.c        ****     
 121:main.c        ****     if (NetworkStatus() == NETWORK_DISCONN || FinWriteInDB() == NO_WRITE || FinReady() == NO_READY)
 342              		.loc 1 121 0
 343 0006 FFF7FEFF 		bl	NetworkStatus
 344 000a 031E     		sub	r3, r0, #0
 345 000c 07D0     		beq	.L27
 346              		.loc 1 121 0 is_stmt 0 discriminator 1
 347 000e FFF7FEFF 		bl	FinWriteInDB
 348 0012 031E     		sub	r3, r0, #0
 349 0014 03D0     		beq	.L27
 350              		.loc 1 121 0 discriminator 2
 351 0016 FFF7FEFF 		bl	FinReady
 352 001a 031E     		sub	r3, r0, #0
 353 001c 10D1     		bne	.L28
 354              	.L27:
 122:main.c        ****     {
 123:main.c        ****         LedBlink(FREQ_ERR_BLINK);
 355              		.loc 1 123 0 is_stmt 1
 356 001e 0320     		mov	r0, #3
 357 0020 FFF7FEFF 		bl	LedBlink
 124:main.c        ****         result = ERROR;
 358              		.loc 1 124 0
 359 0024 0023     		mov	r3, #0
 360 0026 7B60     		str	r3, [r7, #4]
 125:main.c        ****         Display("Fin no ready");
 361              		.loc 1 125 0
 362 0028 0D4B     		ldr	r3, .L32
 363 002a 181C     		mov	r0, r3
 364 002c FFF7FEFF 		bl	Display
 126:main.c        ****         DisAllowNextSkier();
 365              		.loc 1 126 0
 366 0030 FFF7FEFF 		bl	DisAllowNextSkier
 127:main.c        ****         MyDelay(TIMEOUT_USER_READ_INFO);
 367              		.loc 1 127 0
 368 0034 FA23     		mov	r3, #250
 369 0036 5B00     		lsl	r3, r3, #1
ARM GAS  C:\Users\Petro\AppData\Local\Temp\cc8fINho.s 			page 10


 370 0038 181C     		mov	r0, r3
 371 003a FFF7FEFF 		bl	MyDelay
 372 003e 01E0     		b	.L29
 373              	.L28:
 128:main.c        ****     }
 129:main.c        ****     else
 130:main.c        ****     {
 131:main.c        ****         result = NO_ERROR;
 374              		.loc 1 131 0
 375 0040 0123     		mov	r3, #1
 376 0042 7B60     		str	r3, [r7, #4]
 377              	.L29:
 132:main.c        ****     }
 133:main.c        ****     
 134:main.c        ****     if(IsRebootFinishFlag() == REBOOT)
 378              		.loc 1 134 0
 379 0044 FFF7FEFF 		bl	IsRebootFinishFlag
 380 0048 031E     		sub	r3, r0, #0
 381 004a FF2B     		cmp	r3, #255
 382 004c 01D1     		bne	.L30
 135:main.c        ****     {
 136:main.c        ****         result = REBOOT;    
 383              		.loc 1 136 0
 384 004e FF23     		mov	r3, #255
 385 0050 7B60     		str	r3, [r7, #4]
 386              	.L30:
 137:main.c        ****     }
 138:main.c        ****     
 139:main.c        ****         /*test mode on/off*/
 140:main.c        ****     newFuncTestMode(); 
 387              		.loc 1 140 0
 388 0052 FFF7FEFF 		bl	newFuncTestMode
 141:main.c        ****              
 142:main.c        ****     return result;
 389              		.loc 1 142 0
 390 0056 7B68     		ldr	r3, [r7, #4]
 143:main.c        ****     
 144:main.c        **** }
 391              		.loc 1 144 0
 392 0058 181C     		mov	r0, r3
 393 005a BD46     		mov	sp, r7
 394 005c 02B0     		add	sp, sp, #8
 395              		@ sp needed
 396 005e 80BD     		pop	{r7, pc}
 397              	.L33:
 398              		.align	2
 399              	.L32:
 400 0060 48000000 		.word	.LC12
 401              		.cfi_endproc
 402              	.LFE66:
 403              		.size	GetFinishStatus, .-GetFinishStatus
 404              		.section	.rodata
 405 0055 000000   		.align	2
 406              	.LC14:
 407 0058 536B6965 		.ascii	"Skier Started\000"
 407      72205374 
 407      61727465 
ARM GAS  C:\Users\Petro\AppData\Local\Temp\cc8fINho.s 			page 11


 407      6400
 408 0066 0000     		.align	2
 409              	.LC16:
 410 0068 53746172 		.ascii	"Start ready\000"
 410      74207265 
 410      61647900 
 411              		.section	.text.CheckGate,"ax",%progbits
 412              		.align	2
 413              		.global	CheckGate
 414              		.code	16
 415              		.thumb_func
 416              		.type	CheckGate, %function
 417              	CheckGate:
 418              	.LFB67:
 145:main.c        **** 
 146:main.c        **** uint32_t CheckGate(void)
 147:main.c        **** {
 419              		.loc 1 147 0
 420              		.cfi_startproc
 421 0000 80B5     		push	{r7, lr}
 422              		.cfi_def_cfa_offset 8
 423              		.cfi_offset 7, -8
 424              		.cfi_offset 14, -4
 425 0002 82B0     		sub	sp, sp, #8
 426              		.cfi_def_cfa_offset 16
 427 0004 00AF     		add	r7, sp, #0
 428              		.cfi_def_cfa_register 7
 148:main.c        ****     uint32_t result;
 149:main.c        ****     
 150:main.c        ****     result = GateIsOpen();
 429              		.loc 1 150 0
 430 0006 FFF7FEFF 		bl	GateIsOpen
 431 000a 031C     		mov	r3, r0
 432 000c 7B60     		str	r3, [r7, #4]
 151:main.c        ****     
 152:main.c        ****     if(result == GATE_OPEN)
 433              		.loc 1 152 0
 434 000e 7B68     		ldr	r3, [r7, #4]
 435 0010 012B     		cmp	r3, #1
 436 0012 0CD1     		bne	.L35
 153:main.c        ****     {
 154:main.c        ****         Display("Skier Started");
 437              		.loc 1 154 0
 438 0014 0D4B     		ldr	r3, .L38
 439 0016 181C     		mov	r0, r3
 440 0018 FFF7FEFF 		bl	Display
 155:main.c        ****         LedBlink(FREQ_INIT_BLINK);
 441              		.loc 1 155 0
 442 001c 0A20     		mov	r0, #10
 443 001e FFF7FEFF 		bl	LedBlink
 156:main.c        ****         MyDelay(TIMEOUT_USER_READ_INFO);
 444              		.loc 1 156 0
 445 0022 FA23     		mov	r3, #250
 446 0024 5B00     		lsl	r3, r3, #1
 447 0026 181C     		mov	r0, r3
 448 0028 FFF7FEFF 		bl	MyDelay
 449 002c 08E0     		b	.L36
ARM GAS  C:\Users\Petro\AppData\Local\Temp\cc8fINho.s 			page 12


 450              	.L35:
 157:main.c        **** 
 158:main.c        ****     }
 159:main.c        ****     else
 160:main.c        ****     {
 161:main.c        ****         Display("Start ready");
 451              		.loc 1 161 0
 452 002e 084B     		ldr	r3, .L38+4
 453 0030 181C     		mov	r0, r3
 454 0032 FFF7FEFF 		bl	Display
 162:main.c        ****         SetLedState(LED_ENABLE);
 455              		.loc 1 162 0
 456 0036 0120     		mov	r0, #1
 457 0038 FFF7FEFF 		bl	SetLedState
 163:main.c        ****         AllowNextSkier();
 458              		.loc 1 163 0
 459 003c FFF7FEFF 		bl	AllowNextSkier
 460              	.L36:
 164:main.c        **** 
 165:main.c        ****     }
 166:main.c        **** 
 167:main.c        ****     return result;
 461              		.loc 1 167 0
 462 0040 7B68     		ldr	r3, [r7, #4]
 168:main.c        ****     
 169:main.c        **** }
 463              		.loc 1 169 0
 464 0042 181C     		mov	r0, r3
 465 0044 BD46     		mov	sp, r7
 466 0046 02B0     		add	sp, sp, #8
 467              		@ sp needed
 468 0048 80BD     		pop	{r7, pc}
 469              	.L39:
 470 004a C046     		.align	2
 471              	.L38:
 472 004c 58000000 		.word	.LC14
 473 0050 68000000 		.word	.LC16
 474              		.cfi_endproc
 475              	.LFE67:
 476              		.size	CheckGate, .-CheckGate
 477              		.section	.rodata
 478              		.align	2
 479              	.LC18:
 480 0074 53617665 		.ascii	"Save result\000"
 480      20726573 
 480      756C7400 
 481              		.align	2
 482              	.LC20:
 483 0080 57616974 		.ascii	"Wait next skier\000"
 483      206E6578 
 483      7420736B 
 483      69657200 
 484              		.section	.text.SaveResult,"ax",%progbits
 485              		.align	2
 486              		.global	SaveResult
 487              		.code	16
 488              		.thumb_func
ARM GAS  C:\Users\Petro\AppData\Local\Temp\cc8fINho.s 			page 13


 489              		.type	SaveResult, %function
 490              	SaveResult:
 491              	.LFB68:
 170:main.c        **** 
 171:main.c        **** uint32_t SaveResult(void)
 172:main.c        **** {
 492              		.loc 1 172 0
 493              		.cfi_startproc
 494 0000 90B5     		push	{r4, r7, lr}
 495              		.cfi_def_cfa_offset 12
 496              		.cfi_offset 4, -12
 497              		.cfi_offset 7, -8
 498              		.cfi_offset 14, -4
 499 0002 87B0     		sub	sp, sp, #28
 500              		.cfi_def_cfa_offset 40
 501 0004 00AF     		add	r7, sp, #0
 502              		.cfi_def_cfa_register 7
 173:main.c        ****     uint32_t result;
 174:main.c        ****     uint64_t startUnixTime;
 175:main.c        ****     uint32_t startRecentMs;
 176:main.c        ****     
 177:main.c        ****     LedBlink(FREQ_INIT_BLINK);
 503              		.loc 1 177 0
 504 0006 0A20     		mov	r0, #10
 505 0008 FFF7FEFF 		bl	LedBlink
 178:main.c        ****     Display("Save result");
 506              		.loc 1 178 0
 507 000c 134B     		ldr	r3, .L42
 508 000e 181C     		mov	r0, r3
 509 0010 FFF7FEFF 		bl	Display
 179:main.c        ****     MyDelay(TIMEOUT_USER_READ_INFO);
 510              		.loc 1 179 0
 511 0014 FA23     		mov	r3, #250
 512 0016 5B00     		lsl	r3, r3, #1
 513 0018 181C     		mov	r0, r3
 514 001a FFF7FEFF 		bl	MyDelay
 180:main.c        ****     
 181:main.c        ****     GetStartTime(&startUnixTime, &startRecentMs);
 515              		.loc 1 181 0
 516 001e 0823     		mov	r3, #8
 517 0020 FA18     		add	r2, r7, r3
 518 0022 3B1D     		add	r3, r7, #4
 519 0024 101C     		mov	r0, r2
 520 0026 191C     		mov	r1, r3
 521 0028 FFF7FEFF 		bl	GetStartTime
 182:main.c        ****     SendSkierStart(startUnixTime, startRecentMs);
 522              		.loc 1 182 0
 523 002c BB68     		ldr	r3, [r7, #8]
 524 002e FC68     		ldr	r4, [r7, #12]
 525 0030 7A68     		ldr	r2, [r7, #4]
 526 0032 181C     		mov	r0, r3
 527 0034 211C     		mov	r1, r4
 528 0036 FFF7FEFF 		bl	SendSkierStart
 183:main.c        ****     
 184:main.c        ****     Display("Wait next skier");
 529              		.loc 1 184 0
 530 003a 094B     		ldr	r3, .L42+4
ARM GAS  C:\Users\Petro\AppData\Local\Temp\cc8fINho.s 			page 14


 531 003c 181C     		mov	r0, r3
 532 003e FFF7FEFF 		bl	Display
 185:main.c        ****     MyDelay(TIMEOUT_NEXT_SKIER);
 533              		.loc 1 185 0
 534 0042 FA23     		mov	r3, #250
 535 0044 DB00     		lsl	r3, r3, #3
 536 0046 181C     		mov	r0, r3
 537 0048 FFF7FEFF 		bl	MyDelay
 186:main.c        ****     
 187:main.c        ****     result = NO_ERROR;
 538              		.loc 1 187 0
 539 004c 0123     		mov	r3, #1
 540 004e 7B61     		str	r3, [r7, #20]
 188:main.c        ****     
 189:main.c        ****     return result;
 541              		.loc 1 189 0
 542 0050 7B69     		ldr	r3, [r7, #20]
 190:main.c        ****     
 191:main.c        **** }
 543              		.loc 1 191 0
 544 0052 181C     		mov	r0, r3
 545 0054 BD46     		mov	sp, r7
 546 0056 07B0     		add	sp, sp, #28
 547              		@ sp needed
 548 0058 90BD     		pop	{r4, r7, pc}
 549              	.L43:
 550 005a C046     		.align	2
 551              	.L42:
 552 005c 74000000 		.word	.LC18
 553 0060 80000000 		.word	.LC20
 554              		.cfi_endproc
 555              	.LFE68:
 556              		.size	SaveResult, .-SaveResult
 557              		.text
 558              	.Letext0:
 559              		.file 2 "c:\\program files (x86)\\cypress\\psoc creator\\4.0\\psoc creator\\import\\gnu\\arm\\4.9.
 560              		.file 3 "c:\\program files (x86)\\cypress\\psoc creator\\4.0\\psoc creator\\import\\gnu\\arm\\4.9.
 561              		.file 4 "appGlobal.h"