ARM GAS  C:\Users\Petro\AppData\Local\Temp\ccGN8BES.s 			page 1


   1              		.cpu cortex-m0
   2              		.fpu softvfp
   3              		.eabi_attribute 20, 1
   4              		.eabi_attribute 21, 1
   5              		.eabi_attribute 23, 3
   6              		.eabi_attribute 24, 1
   7              		.eabi_attribute 25, 1
   8              		.eabi_attribute 26, 1
   9              		.eabi_attribute 30, 6
  10              		.eabi_attribute 34, 0
  11              		.eabi_attribute 18, 4
  12              		.code	16
  13              		.file	"testMode.c"
  14              		.text
  15              	.Ltext0:
  16              		.cfi_sections	.debug_frame
  17              		.global	statusTestMode
  18              		.bss
  19              		.type	statusTestMode, %object
  20              		.size	statusTestMode, 1
  21              	statusTestMode:
  22 0000 00       		.space	1
  23              		.global	switchState
  24              		.data
  25              		.type	switchState, %object
  26              		.size	switchState, 1
  27              	switchState:
  28 0000 03       		.byte	3
  29              		.global	networkState
  30              		.type	networkState, %object
  31              		.size	networkState, 1
  32              	networkState:
  33 0001 03       		.byte	3
  34              		.bss
  35              	enableTestMode:
  36 0001 00       		.space	1
  37              		.section	.text.testModeHandler,"ax",%progbits
  38              		.align	2
  39              		.global	testModeHandler
  40              		.code	16
  41              		.thumb_func
  42              		.type	testModeHandler, %function
  43              	testModeHandler:
  44              	.LFB63:
  45              		.file 1 "lib_testMode\\testMode.c"
   1:lib_testMode/testMode.c **** #include "project.h"
   2:lib_testMode/testMode.c **** #include <stdlib.h>
   3:lib_testMode/testMode.c **** 
   4:lib_testMode/testMode.c **** #include <stdio.h>
   5:lib_testMode/testMode.c **** #include <lib_Display\Display.h>
   6:lib_testMode/testMode.c **** #include <lib_Network\network.h>
   7:lib_testMode/testMode.c **** #include <lib_Testmode\testMode.h>
   8:lib_testMode/testMode.c **** 
   9:lib_testMode/testMode.c **** #define COUNTER_TEST_MODE   5
  10:lib_testMode/testMode.c **** 
  11:lib_testMode/testMode.c **** enum status {STOPPED=0, RUN};
  12:lib_testMode/testMode.c **** typedef enum {HIGH_LEVEL, RISING_EDGE, FALLING_EDGE, LOW_LEVEL}funcReturnValue;
ARM GAS  C:\Users\Petro\AppData\Local\Temp\ccGN8BES.s 			page 2


  13:lib_testMode/testMode.c **** 
  14:lib_testMode/testMode.c **** uint8_t statusTestMode = STOPPED;
  15:lib_testMode/testMode.c **** 
  16:lib_testMode/testMode.c **** funcReturnValue switchState = LOW_LEVEL;
  17:lib_testMode/testMode.c **** funcReturnValue networkState = LOW_LEVEL;
  18:lib_testMode/testMode.c **** 
  19:lib_testMode/testMode.c **** funcReturnValue ReadSwitchState();
  20:lib_testMode/testMode.c **** funcReturnValue ReadNetworkState();
  21:lib_testMode/testMode.c **** 
  22:lib_testMode/testMode.c **** static uint8_t enableTestMode;
  23:lib_testMode/testMode.c **** 
  24:lib_testMode/testMode.c **** CY_ISR(testModeHandler)
  25:lib_testMode/testMode.c **** {
  46              		.loc 1 25 0
  47              		.cfi_startproc
  48 0000 80B5     		push	{r7, lr}
  49              		.cfi_def_cfa_offset 8
  50              		.cfi_offset 7, -8
  51              		.cfi_offset 14, -4
  52 0002 00AF     		add	r7, sp, #0
  53              		.cfi_def_cfa_register 7
  26:lib_testMode/testMode.c ****     Pin_testMode_Write(0);
  54              		.loc 1 26 0
  55 0004 0020     		mov	r0, #0
  56 0006 FFF7FEFF 		bl	Pin_testMode_Write
  27:lib_testMode/testMode.c ****     Pin_testMode_Write(1);
  57              		.loc 1 27 0
  58 000a 0120     		mov	r0, #1
  59 000c FFF7FEFF 		bl	Pin_testMode_Write
  28:lib_testMode/testMode.c ****     
  29:lib_testMode/testMode.c ****     TimerTestMode_ClearInterrupt(TimerTestMode_INTR_MASK_CC_MATCH);
  60              		.loc 1 29 0
  61 0010 0220     		mov	r0, #2
  62 0012 FFF7FEFF 		bl	TimerTestMode_ClearInterrupt
  30:lib_testMode/testMode.c ****     statusTestMode = STOPPED;
  63              		.loc 1 30 0
  64 0016 024B     		ldr	r3, .L2
  65 0018 0022     		mov	r2, #0
  66 001a 1A70     		strb	r2, [r3]
  31:lib_testMode/testMode.c **** }
  67              		.loc 1 31 0
  68 001c BD46     		mov	sp, r7
  69              		@ sp needed
  70 001e 80BD     		pop	{r7, pc}
  71              	.L3:
  72              		.align	2
  73              	.L2:
  74 0020 00000000 		.word	statusTestMode
  75              		.cfi_endproc
  76              	.LFE63:
  77              		.size	testModeHandler, .-testModeHandler
  78              		.section	.text.newFuncTestMode,"ax",%progbits
  79              		.align	2
  80              		.global	newFuncTestMode
  81              		.code	16
  82              		.thumb_func
  83              		.type	newFuncTestMode, %function
ARM GAS  C:\Users\Petro\AppData\Local\Temp\ccGN8BES.s 			page 3


  84              	newFuncTestMode:
  85              	.LFB64:
  32:lib_testMode/testMode.c **** 
  33:lib_testMode/testMode.c **** 
  34:lib_testMode/testMode.c **** void newFuncTestMode()
  35:lib_testMode/testMode.c **** {   
  86              		.loc 1 35 0
  87              		.cfi_startproc
  88 0000 80B5     		push	{r7, lr}
  89              		.cfi_def_cfa_offset 8
  90              		.cfi_offset 7, -8
  91              		.cfi_offset 14, -4
  92 0002 00AF     		add	r7, sp, #0
  93              		.cfi_def_cfa_register 7
  36:lib_testMode/testMode.c ****     ReadSwitchState();
  94              		.loc 1 36 0
  95 0004 FFF7FEFF 		bl	ReadSwitchState
  37:lib_testMode/testMode.c ****     ReadNetworkState();
  96              		.loc 1 37 0
  97 0008 FFF7FEFF 		bl	ReadNetworkState
  38:lib_testMode/testMode.c ****     
  39:lib_testMode/testMode.c ****     if(switchState == RISING_EDGE || networkState == RISING_EDGE)   //enable test mode
  98              		.loc 1 39 0
  99 000c 234B     		ldr	r3, .L10
 100 000e 1B78     		ldrb	r3, [r3]
 101 0010 012B     		cmp	r3, #1
 102 0012 03D0     		beq	.L5
 103              		.loc 1 39 0 is_stmt 0 discriminator 1
 104 0014 224B     		ldr	r3, .L10+4
 105 0016 1B78     		ldrb	r3, [r3]
 106 0018 012B     		cmp	r3, #1
 107 001a 09D1     		bne	.L6
 108              	.L5:
  40:lib_testMode/testMode.c ****     {
  41:lib_testMode/testMode.c ****         DisplayTestMode(1);
 109              		.loc 1 41 0 is_stmt 1
 110 001c 0120     		mov	r0, #1
 111 001e FFF7FEFF 		bl	DisplayTestMode
  42:lib_testMode/testMode.c ****         NetworkSendTestModeStatus(1);
 112              		.loc 1 42 0
 113 0022 0120     		mov	r0, #1
 114 0024 FFF7FEFF 		bl	NetworkSendTestModeStatus
  43:lib_testMode/testMode.c ****         statusTestMode = STOPPED;
 115              		.loc 1 43 0
 116 0028 1E4B     		ldr	r3, .L10+8
 117 002a 0022     		mov	r2, #0
 118 002c 1A70     		strb	r2, [r3]
 119 002e 12E0     		b	.L7
 120              	.L6:
  44:lib_testMode/testMode.c **** //        if(switchState == RISING_EDGE) networkState = HIGH_LEVEL;
  45:lib_testMode/testMode.c **** //        else if(networkState == RISING_EDGE) switchState = HIGH_LEVEL;
  46:lib_testMode/testMode.c ****         //switchState = HIGH_LEVEL;
  47:lib_testMode/testMode.c ****         //networkState = HIGH_LEVEL;
  48:lib_testMode/testMode.c ****     }
  49:lib_testMode/testMode.c ****     else if(switchState == FALLING_EDGE || networkState == FALLING_EDGE)        //disable test mode
 121              		.loc 1 49 0
 122 0030 1A4B     		ldr	r3, .L10
ARM GAS  C:\Users\Petro\AppData\Local\Temp\ccGN8BES.s 			page 4


 123 0032 1B78     		ldrb	r3, [r3]
 124 0034 022B     		cmp	r3, #2
 125 0036 03D0     		beq	.L8
 126              		.loc 1 49 0 is_stmt 0 discriminator 1
 127 0038 194B     		ldr	r3, .L10+4
 128 003a 1B78     		ldrb	r3, [r3]
 129 003c 022B     		cmp	r3, #2
 130 003e 0AD1     		bne	.L7
 131              	.L8:
  50:lib_testMode/testMode.c ****     {
  51:lib_testMode/testMode.c ****         TimerTestMode_Stop();
 132              		.loc 1 51 0 is_stmt 1
 133 0040 FFF7FEFF 		bl	TimerTestMode_Stop
  52:lib_testMode/testMode.c ****         DisplayTestMode(0);
 134              		.loc 1 52 0
 135 0044 0020     		mov	r0, #0
 136 0046 FFF7FEFF 		bl	DisplayTestMode
  53:lib_testMode/testMode.c ****         NetworkSendTestModeStatus(0);
 137              		.loc 1 53 0
 138 004a 0020     		mov	r0, #0
 139 004c FFF7FEFF 		bl	NetworkSendTestModeStatus
  54:lib_testMode/testMode.c ****         statusTestMode = STOPPED;
 140              		.loc 1 54 0
 141 0050 144B     		ldr	r3, .L10+8
 142 0052 0022     		mov	r2, #0
 143 0054 1A70     		strb	r2, [r3]
 144              	.L7:
  55:lib_testMode/testMode.c **** //        if(switchState == FALLING_EDGE) networkState = LOW_LEVEL;
  56:lib_testMode/testMode.c **** //        else if(networkState == FALLING_EDGE) switchState = LOW_LEVEL;
  57:lib_testMode/testMode.c ****         //switchState = LOW_LEVEL;
  58:lib_testMode/testMode.c ****         //networkState = LOW_LEVEL;
  59:lib_testMode/testMode.c ****     }
  60:lib_testMode/testMode.c ****     //else    
  61:lib_testMode/testMode.c ****     //{
  62:lib_testMode/testMode.c ****     /*update test mode*/
  63:lib_testMode/testMode.c ****     if(networkState == HIGH_LEVEL && switchState == HIGH_LEVEL )
 145              		.loc 1 63 0
 146 0056 124B     		ldr	r3, .L10+4
 147 0058 1B78     		ldrb	r3, [r3]
 148 005a 002B     		cmp	r3, #0
 149 005c 1CD1     		bne	.L4
 150              		.loc 1 63 0 is_stmt 0 discriminator 1
 151 005e 0F4B     		ldr	r3, .L10
 152 0060 1B78     		ldrb	r3, [r3]
 153 0062 002B     		cmp	r3, #0
 154 0064 18D1     		bne	.L4
  64:lib_testMode/testMode.c ****     {
  65:lib_testMode/testMode.c ****         if(statusTestMode == STOPPED )
 155              		.loc 1 65 0 is_stmt 1
 156 0066 0F4B     		ldr	r3, .L10+8
 157 0068 1B78     		ldrb	r3, [r3]
 158 006a 002B     		cmp	r3, #0
 159 006c 14D1     		bne	.L4
  66:lib_testMode/testMode.c ****         {
  67:lib_testMode/testMode.c ****             /*if allowed, start timer*/
  68:lib_testMode/testMode.c ****             if (NetworkStatus() != NETWORK_DISCONN && FinWriteInDB() != NO_WRITE && FinReady() != N
 160              		.loc 1 68 0
ARM GAS  C:\Users\Petro\AppData\Local\Temp\ccGN8BES.s 			page 5


 161 006e FFF7FEFF 		bl	NetworkStatus
 162 0072 031E     		sub	r3, r0, #0
 163 0074 10D0     		beq	.L4
 164              		.loc 1 68 0 is_stmt 0 discriminator 1
 165 0076 FFF7FEFF 		bl	FinWriteInDB
 166 007a 031E     		sub	r3, r0, #0
 167 007c 0CD0     		beq	.L4
 168              		.loc 1 68 0 discriminator 2
 169 007e FFF7FEFF 		bl	FinReady
 170 0082 031E     		sub	r3, r0, #0
 171 0084 08D0     		beq	.L4
  69:lib_testMode/testMode.c ****             {
  70:lib_testMode/testMode.c ****                 TestMode_UpdateNewRandomTime();
 172              		.loc 1 70 0 is_stmt 1
 173 0086 FFF7FEFF 		bl	TestMode_UpdateNewRandomTime
  71:lib_testMode/testMode.c ****                 Int_timerTestMode_StartEx(testModeHandler);
 174              		.loc 1 71 0
 175 008a 074B     		ldr	r3, .L10+12
 176 008c 181C     		mov	r0, r3
 177 008e FFF7FEFF 		bl	Int_timerTestMode_StartEx
  72:lib_testMode/testMode.c ****                 statusTestMode = RUN;
 178              		.loc 1 72 0
 179 0092 044B     		ldr	r3, .L10+8
 180 0094 0122     		mov	r2, #1
 181 0096 1A70     		strb	r2, [r3]
 182              	.L4:
  73:lib_testMode/testMode.c ****             }
  74:lib_testMode/testMode.c ****         }
  75:lib_testMode/testMode.c ****     }
  76:lib_testMode/testMode.c ****     //}
  77:lib_testMode/testMode.c **** }
 183              		.loc 1 77 0
 184 0098 BD46     		mov	sp, r7
 185              		@ sp needed
 186 009a 80BD     		pop	{r7, pc}
 187              	.L11:
 188              		.align	2
 189              	.L10:
 190 009c 00000000 		.word	switchState
 191 00a0 00000000 		.word	networkState
 192 00a4 00000000 		.word	statusTestMode
 193 00a8 00000000 		.word	testModeHandler
 194              		.cfi_endproc
 195              	.LFE64:
 196              		.size	newFuncTestMode, .-newFuncTestMode
 197              		.global	__aeabi_idivmod
 198              		.section	.rodata
 199              		.align	2
 200              	.LC5:
 201 0000 256400   		.ascii	"%d\000"
 202 0003 00       		.section	.text.TestMode_UpdateNewRandomTime,"ax",%progbits
 203              		.align	2
 204              		.global	TestMode_UpdateNewRandomTime
 205              		.code	16
 206              		.thumb_func
 207              		.type	TestMode_UpdateNewRandomTime, %function
 208              	TestMode_UpdateNewRandomTime:
ARM GAS  C:\Users\Petro\AppData\Local\Temp\ccGN8BES.s 			page 6


 209              	.LFB65:
  78:lib_testMode/testMode.c **** 
  79:lib_testMode/testMode.c **** 
  80:lib_testMode/testMode.c **** void TestMode_UpdateNewRandomTime()
  81:lib_testMode/testMode.c **** {
 210              		.loc 1 81 0
 211              		.cfi_startproc
 212 0000 80B5     		push	{r7, lr}
 213              		.cfi_def_cfa_offset 8
 214              		.cfi_offset 7, -8
 215              		.cfi_offset 14, -4
 216 0002 84B0     		sub	sp, sp, #16
 217              		.cfi_def_cfa_offset 24
 218 0004 00AF     		add	r7, sp, #0
 219              		.cfi_def_cfa_register 7
  82:lib_testMode/testMode.c ****     uint8_t num;
  83:lib_testMode/testMode.c ****     
  84:lib_testMode/testMode.c ****     num = 30+rand()%60;
 220              		.loc 1 84 0
 221 0006 FFF7FEFF 		bl	rand
 222 000a 031C     		mov	r3, r0
 223 000c 181C     		mov	r0, r3
 224 000e 3C21     		mov	r1, #60
 225 0010 FFF7FEFF 		bl	__aeabi_idivmod
 226 0014 0B1C     		mov	r3, r1
 227 0016 DAB2     		uxtb	r2, r3
 228 0018 0F23     		mov	r3, #15
 229 001a FB18     		add	r3, r7, r3
 230 001c 1E32     		add	r2, r2, #30
 231 001e 1A70     		strb	r2, [r3]
  85:lib_testMode/testMode.c ****     
  86:lib_testMode/testMode.c ****     char buff[11];
  87:lib_testMode/testMode.c ****     sprintf(buff,"%d",num);
 232              		.loc 1 87 0
 233 0020 0F23     		mov	r3, #15
 234 0022 FB18     		add	r3, r7, r3
 235 0024 1B78     		ldrb	r3, [r3]
 236 0026 391D     		add	r1, r7, #4
 237 0028 0C4A     		ldr	r2, .L13
 238 002a 081C     		mov	r0, r1
 239 002c 111C     		mov	r1, r2
 240 002e 1A1C     		mov	r2, r3
 241 0030 FFF7FEFF 		bl	sprintf
  88:lib_testMode/testMode.c ****     Display(buff);
 242              		.loc 1 88 0
 243 0034 3B1D     		add	r3, r7, #4
 244 0036 181C     		mov	r0, r3
 245 0038 FFF7FEFF 		bl	Display
  89:lib_testMode/testMode.c ****     
  90:lib_testMode/testMode.c ****     TimerTestMode_WriteCounter(0);
 246              		.loc 1 90 0
 247 003c 0020     		mov	r0, #0
 248 003e FFF7FEFF 		bl	TimerTestMode_WriteCounter
  91:lib_testMode/testMode.c ****     TimerTestMode_WriteCompare(num*100);
 249              		.loc 1 91 0
 250 0042 0F23     		mov	r3, #15
 251 0044 FB18     		add	r3, r7, r3
ARM GAS  C:\Users\Petro\AppData\Local\Temp\ccGN8BES.s 			page 7


 252 0046 1B78     		ldrb	r3, [r3]
 253 0048 6422     		mov	r2, #100
 254 004a 5343     		mul	r3, r2
 255 004c 181C     		mov	r0, r3
 256 004e FFF7FEFF 		bl	TimerTestMode_WriteCompare
  92:lib_testMode/testMode.c ****     TimerTestMode_Start();   
 257              		.loc 1 92 0
 258 0052 FFF7FEFF 		bl	TimerTestMode_Start
  93:lib_testMode/testMode.c **** }
 259              		.loc 1 93 0
 260 0056 BD46     		mov	sp, r7
 261 0058 04B0     		add	sp, sp, #16
 262              		@ sp needed
 263 005a 80BD     		pop	{r7, pc}
 264              	.L14:
 265              		.align	2
 266              	.L13:
 267 005c 00000000 		.word	.LC5
 268              		.cfi_endproc
 269              	.LFE65:
 270              		.size	TestMode_UpdateNewRandomTime, .-TestMode_UpdateNewRandomTime
 271              		.section	.text.ReadSwitchState,"ax",%progbits
 272              		.align	2
 273              		.global	ReadSwitchState
 274              		.code	16
 275              		.thumb_func
 276              		.type	ReadSwitchState, %function
 277              	ReadSwitchState:
 278              	.LFB66:
  94:lib_testMode/testMode.c **** 
  95:lib_testMode/testMode.c **** funcReturnValue ReadSwitchState()
  96:lib_testMode/testMode.c **** {  
 279              		.loc 1 96 0
 280              		.cfi_startproc
 281 0000 80B5     		push	{r7, lr}
 282              		.cfi_def_cfa_offset 8
 283              		.cfi_offset 7, -8
 284              		.cfi_offset 14, -4
 285 0002 00AF     		add	r7, sp, #0
 286              		.cfi_def_cfa_register 7
  97:lib_testMode/testMode.c ****     static uint8_t tmpCounter;
  98:lib_testMode/testMode.c ****     
  99:lib_testMode/testMode.c ****     if(SW_RunTestMode_Read() == 0)
 287              		.loc 1 99 0
 288 0004 FFF7FEFF 		bl	SW_RunTestMode_Read
 289 0008 031E     		sub	r3, r0, #0
 290 000a 06D1     		bne	.L16
 100:lib_testMode/testMode.c ****         tmpCounter++;
 291              		.loc 1 100 0
 292 000c 184B     		ldr	r3, .L24
 293 000e 1B78     		ldrb	r3, [r3]
 294 0010 0133     		add	r3, r3, #1
 295 0012 DAB2     		uxtb	r2, r3
 296 0014 164B     		ldr	r3, .L24
 297 0016 1A70     		strb	r2, [r3]
 298 0018 02E0     		b	.L17
 299              	.L16:
ARM GAS  C:\Users\Petro\AppData\Local\Temp\ccGN8BES.s 			page 8


 101:lib_testMode/testMode.c ****     else
 102:lib_testMode/testMode.c ****         tmpCounter = 0;
 300              		.loc 1 102 0
 301 001a 154B     		ldr	r3, .L24
 302 001c 0022     		mov	r2, #0
 303 001e 1A70     		strb	r2, [r3]
 304              	.L17:
 103:lib_testMode/testMode.c ****     
 104:lib_testMode/testMode.c ****     if(tmpCounter > COUNTER_TEST_MODE)
 305              		.loc 1 104 0
 306 0020 134B     		ldr	r3, .L24
 307 0022 1B78     		ldrb	r3, [r3]
 308 0024 052B     		cmp	r3, #5
 309 0026 0FD9     		bls	.L18
 105:lib_testMode/testMode.c ****     {
 106:lib_testMode/testMode.c ****         if(switchState == LOW_LEVEL)switchState = RISING_EDGE;
 310              		.loc 1 106 0
 311 0028 124B     		ldr	r3, .L24+4
 312 002a 1B78     		ldrb	r3, [r3]
 313 002c 032B     		cmp	r3, #3
 314 002e 03D1     		bne	.L19
 315              		.loc 1 106 0 is_stmt 0 discriminator 1
 316 0030 104B     		ldr	r3, .L24+4
 317 0032 0122     		mov	r2, #1
 318 0034 1A70     		strb	r2, [r3]
 319 0036 16E0     		b	.L21
 320              	.L19:
 107:lib_testMode/testMode.c ****         else if(switchState == HIGH_LEVEL)switchState = FALLING_EDGE;
 321              		.loc 1 107 0 is_stmt 1
 322 0038 0E4B     		ldr	r3, .L24+4
 323 003a 1B78     		ldrb	r3, [r3]
 324 003c 002B     		cmp	r3, #0
 325 003e 12D1     		bne	.L21
 326              		.loc 1 107 0 is_stmt 0 discriminator 1
 327 0040 0C4B     		ldr	r3, .L24+4
 328 0042 0222     		mov	r2, #2
 329 0044 1A70     		strb	r2, [r3]
 330 0046 0EE0     		b	.L21
 331              	.L18:
 108:lib_testMode/testMode.c ****     }
 109:lib_testMode/testMode.c ****     else
 110:lib_testMode/testMode.c ****     {
 111:lib_testMode/testMode.c ****         if(switchState == RISING_EDGE)switchState = HIGH_LEVEL;
 332              		.loc 1 111 0 is_stmt 1
 333 0048 0A4B     		ldr	r3, .L24+4
 334 004a 1B78     		ldrb	r3, [r3]
 335 004c 012B     		cmp	r3, #1
 336 004e 03D1     		bne	.L22
 337              		.loc 1 111 0 is_stmt 0 discriminator 1
 338 0050 084B     		ldr	r3, .L24+4
 339 0052 0022     		mov	r2, #0
 340 0054 1A70     		strb	r2, [r3]
 341 0056 06E0     		b	.L21
 342              	.L22:
 112:lib_testMode/testMode.c ****         else if(switchState == FALLING_EDGE)switchState = LOW_LEVEL;
 343              		.loc 1 112 0 is_stmt 1
 344 0058 064B     		ldr	r3, .L24+4
ARM GAS  C:\Users\Petro\AppData\Local\Temp\ccGN8BES.s 			page 9


 345 005a 1B78     		ldrb	r3, [r3]
 346 005c 022B     		cmp	r3, #2
 347 005e 02D1     		bne	.L21
 348              		.loc 1 112 0 is_stmt 0 discriminator 1
 349 0060 044B     		ldr	r3, .L24+4
 350 0062 0322     		mov	r2, #3
 351 0064 1A70     		strb	r2, [r3]
 352              	.L21:
 113:lib_testMode/testMode.c ****     }
 114:lib_testMode/testMode.c ****       
 115:lib_testMode/testMode.c ****     return switchState;
 353              		.loc 1 115 0 is_stmt 1
 354 0066 034B     		ldr	r3, .L24+4
 355 0068 1B78     		ldrb	r3, [r3]
 116:lib_testMode/testMode.c **** }
 356              		.loc 1 116 0
 357 006a 181C     		mov	r0, r3
 358 006c BD46     		mov	sp, r7
 359              		@ sp needed
 360 006e 80BD     		pop	{r7, pc}
 361              	.L25:
 362              		.align	2
 363              	.L24:
 364 0070 02000000 		.word	tmpCounter.7390
 365 0074 00000000 		.word	switchState
 366              		.cfi_endproc
 367              	.LFE66:
 368              		.size	ReadSwitchState, .-ReadSwitchState
 369              		.section	.text.ReadNetworkState,"ax",%progbits
 370              		.align	2
 371              		.global	ReadNetworkState
 372              		.code	16
 373              		.thumb_func
 374              		.type	ReadNetworkState, %function
 375              	ReadNetworkState:
 376              	.LFB67:
 117:lib_testMode/testMode.c **** 
 118:lib_testMode/testMode.c **** 
 119:lib_testMode/testMode.c **** funcReturnValue ReadNetworkState()
 120:lib_testMode/testMode.c **** {
 377              		.loc 1 120 0
 378              		.cfi_startproc
 379 0000 80B5     		push	{r7, lr}
 380              		.cfi_def_cfa_offset 8
 381              		.cfi_offset 7, -8
 382              		.cfi_offset 14, -4
 383 0002 00AF     		add	r7, sp, #0
 384              		.cfi_def_cfa_register 7
 121:lib_testMode/testMode.c ****     if(networkState == LOW_LEVEL && NetworkReadTestModeStatus()==1)  networkState = RISING_EDGE;
 385              		.loc 1 121 0
 386 0004 1A4B     		ldr	r3, .L32
 387 0006 1B78     		ldrb	r3, [r3]
 388 0008 032B     		cmp	r3, #3
 389 000a 08D1     		bne	.L27
 390              		.loc 1 121 0 is_stmt 0 discriminator 1
 391 000c FFF7FEFF 		bl	NetworkReadTestModeStatus
 392 0010 031E     		sub	r3, r0, #0
ARM GAS  C:\Users\Petro\AppData\Local\Temp\ccGN8BES.s 			page 10


 393 0012 012B     		cmp	r3, #1
 394 0014 03D1     		bne	.L27
 395              		.loc 1 121 0 discriminator 2
 396 0016 164B     		ldr	r3, .L32
 397 0018 0122     		mov	r2, #1
 398 001a 1A70     		strb	r2, [r3]
 399 001c 23E0     		b	.L28
 400              	.L27:
 122:lib_testMode/testMode.c ****     else if(networkState == HIGH_LEVEL && NetworkReadTestModeStatus() == 0)  networkState = FALLING
 401              		.loc 1 122 0 is_stmt 1
 402 001e 144B     		ldr	r3, .L32
 403 0020 1B78     		ldrb	r3, [r3]
 404 0022 002B     		cmp	r3, #0
 405 0024 07D1     		bne	.L29
 406              		.loc 1 122 0 is_stmt 0 discriminator 1
 407 0026 FFF7FEFF 		bl	NetworkReadTestModeStatus
 408 002a 031E     		sub	r3, r0, #0
 409 002c 03D1     		bne	.L29
 410              		.loc 1 122 0 discriminator 2
 411 002e 104B     		ldr	r3, .L32
 412 0030 0222     		mov	r2, #2
 413 0032 1A70     		strb	r2, [r3]
 414 0034 17E0     		b	.L28
 415              	.L29:
 123:lib_testMode/testMode.c ****     else if(networkState == RISING_EDGE && NetworkReadTestModeStatus() ==1)  networkState = HIGH_LE
 416              		.loc 1 123 0 is_stmt 1
 417 0036 0E4B     		ldr	r3, .L32
 418 0038 1B78     		ldrb	r3, [r3]
 419 003a 012B     		cmp	r3, #1
 420 003c 08D1     		bne	.L30
 421              		.loc 1 123 0 is_stmt 0 discriminator 1
 422 003e FFF7FEFF 		bl	NetworkReadTestModeStatus
 423 0042 031E     		sub	r3, r0, #0
 424 0044 012B     		cmp	r3, #1
 425 0046 03D1     		bne	.L30
 426              		.loc 1 123 0 discriminator 2
 427 0048 094B     		ldr	r3, .L32
 428 004a 0022     		mov	r2, #0
 429 004c 1A70     		strb	r2, [r3]
 430 004e 0AE0     		b	.L28
 431              	.L30:
 124:lib_testMode/testMode.c ****     else if(networkState == FALLING_EDGE && NetworkReadTestModeStatus() == 0)  networkState = LOW_L
 432              		.loc 1 124 0 is_stmt 1
 433 0050 074B     		ldr	r3, .L32
 434 0052 1B78     		ldrb	r3, [r3]
 435 0054 022B     		cmp	r3, #2
 436 0056 06D1     		bne	.L28
 437              		.loc 1 124 0 is_stmt 0 discriminator 1
 438 0058 FFF7FEFF 		bl	NetworkReadTestModeStatus
 439 005c 031E     		sub	r3, r0, #0
 440 005e 02D1     		bne	.L28
 441              		.loc 1 124 0 discriminator 2
 442 0060 034B     		ldr	r3, .L32
 443 0062 0322     		mov	r2, #3
 444 0064 1A70     		strb	r2, [r3]
 445              	.L28:
 125:lib_testMode/testMode.c ****     
ARM GAS  C:\Users\Petro\AppData\Local\Temp\ccGN8BES.s 			page 11


 126:lib_testMode/testMode.c ****     return networkState;   
 446              		.loc 1 126 0 is_stmt 1
 447 0066 024B     		ldr	r3, .L32
 448 0068 1B78     		ldrb	r3, [r3]
 127:lib_testMode/testMode.c **** }...
 449              		.loc 1 127 0
 450 006a 181C     		mov	r0, r3
 451 006c BD46     		mov	sp, r7
 452              		@ sp needed
 453 006e 80BD     		pop	{r7, pc}
 454              	.L33:
 455              		.align	2
 456              	.L32:
 457 0070 00000000 		.word	networkState
 458              		.cfi_endproc
 459              	.LFE67:
 460              		.size	ReadNetworkState, .-ReadNetworkState
 461              		.bss
 462              	tmpCounter.7390:
 463 0002 00       		.space	1
 464              		.text
 465              	.Letext0:
 466              		.file 2 "c:\\program files (x86)\\cypress\\psoc creator\\4.0\\psoc creator\\import\\gnu\\arm\\4.9.
 467              		.file 3 "c:\\program files (x86)\\cypress\\psoc creator\\4.0\\psoc creator\\import\\gnu\\arm\\4.9.
 468              		.file 4 "Generated_Source\\PSoC4/cytypes.h"