ARM GAS  C:\Users\Petro\AppData\Local\Temp\ccXQwfLp.s 			page 1


   1              		.cpu cortex-m0
   2              		.fpu softvfp
   3              		.eabi_attribute 20, 1
   4              		.eabi_attribute 21, 1
   5              		.eabi_attribute 23, 3
   6              		.eabi_attribute 24, 1
   7              		.eabi_attribute 25, 1
   8              		.eabi_attribute 26, 1
   9              		.eabi_attribute 30, 4
  10              		.eabi_attribute 34, 0
  11              		.eabi_attribute 18, 4
  12              		.code	16
  13              		.file	"LED.c"
  14              		.text
  15              	.Ltext0:
  16              		.cfi_sections	.debug_frame
  17              		.section	.text.LedHandler,"ax",%progbits
  18              		.align	1
  19              		.global	LedHandler
  20              		.code	16
  21              		.thumb_func
  22              		.type	LedHandler, %function
  23              	LedHandler:
  24              	.LFB3:
  25              		.file 1 "lib_LED\\LED.c"
   1:lib_LED/LED.c **** /* ========================================
   2:lib_LED/LED.c ****  *
   3:lib_LED/LED.c ****  * Copyright YOUR COMPANY, THE YEAR
   4:lib_LED/LED.c ****  * All Rights Reserved
   5:lib_LED/LED.c ****  * UNPUBLISHED, LICENSED SOFTWARE.
   6:lib_LED/LED.c ****  *
   7:lib_LED/LED.c ****  * CONFIDENTIAL AND PROPRIETARY INFORMATION
   8:lib_LED/LED.c ****  * WHICH IS THE PROPERTY OF your company.
   9:lib_LED/LED.c ****  *
  10:lib_LED/LED.c ****  * ========================================
  11:lib_LED/LED.c **** */
  12:lib_LED/LED.c **** #include "LED.h"
  13:lib_LED/LED.c **** #include <Timer_LED.h>
  14:lib_LED/LED.c **** #include <LED_PIN.h>
  15:lib_LED/LED.c **** #include <Int_Timer_Led.h>
  16:lib_LED/LED.c **** 
  17:lib_LED/LED.c **** // Max pulses in 16-Bit Resolution
  18:lib_LED/LED.c **** #define MAX_TICKS_16BIT                      (65535)
  19:lib_LED/LED.c **** 
  20:lib_LED/LED.c **** // Frequency Timer for Led in Hz. 
  21:lib_LED/LED.c **** #define FREQ_TIMER_LED                       (1000u)
  22:lib_LED/LED.c **** 
  23:lib_LED/LED.c **** /*******************************************
  24:lib_LED/LED.c ****     Change Frequency value to count pulses
  25:lib_LED/LED.c ****     Macros which value count pulses
  26:lib_LED/LED.c ****     Arguments
  27:lib_LED/LED.c ****                 Freq: Frequency with which want 
  28:lib_LED/LED.c ****                     light LED indicator
  29:lib_LED/LED.c ****     Macro
  30:lib_LED/LED.c ****                 FREQ_TIMER_LED : 
  31:lib_LED/LED.c ****                     Input Clock Timer_LED Frequency
  32:lib_LED/LED.c ****     Result 
ARM GAS  C:\Users\Petro\AppData\Local\Temp\ccXQwfLp.s 			page 2


  33:lib_LED/LED.c ****                 Count pulses which need 
  34:lib_LED/LED.c ****                     upload as Period in Timer
  35:lib_LED/LED.c ****                 
  36:lib_LED/LED.c ****                 Diving 2 because One Period have Low 
  37:lib_LED/LED.c ****                     and Hidh Levels
  38:lib_LED/LED.c ****     
  39:lib_LED/LED.c **** *******************************************/
  40:lib_LED/LED.c **** 
  41:lib_LED/LED.c **** #define FreqToTicks(Freq)        FREQ_TIMER_LED/(2*Freq)  
  42:lib_LED/LED.c **** CY_ISR_PROTO(LedHandler); /* Interrupt Timer */
  43:lib_LED/LED.c **** 
  44:lib_LED/LED.c **** uint8_t LED_InitValue;
  45:lib_LED/LED.c **** 
  46:lib_LED/LED.c **** 
  47:lib_LED/LED.c **** /*
  48:lib_LED/LED.c ****     Initialization timer and add interrupt to him 
  49:lib_LED/LED.c **** */
  50:lib_LED/LED.c **** 
  51:lib_LED/LED.c **** void LedInit(void)
  52:lib_LED/LED.c **** {
  53:lib_LED/LED.c ****         Timer_LED_Init();
  54:lib_LED/LED.c ****         if (!LED_InitValue)
  55:lib_LED/LED.c ****         {
  56:lib_LED/LED.c ****             Int_Timer_Led_StartEx(LedHandler);
  57:lib_LED/LED.c ****         }
  58:lib_LED/LED.c ****         LED_InitValue = 1;
  59:lib_LED/LED.c **** }
  60:lib_LED/LED.c **** 
  61:lib_LED/LED.c **** /*
  62:lib_LED/LED.c ****     Interrupt handler after lefting time one period light
  63:lib_LED/LED.c **** */
  64:lib_LED/LED.c **** 
  65:lib_LED/LED.c **** CY_ISR(LedHandler)
  66:lib_LED/LED.c **** {
  26              		.loc 1 66 0
  27              		.cfi_startproc
  28 0000 08B5     		push	{r3, lr}
  29              		.cfi_def_cfa_offset 8
  30              		.cfi_offset 3, -8
  31              		.cfi_offset 14, -4
  67:lib_LED/LED.c ****     LED_PIN_Write(~LED_PIN_Read());
  32              		.loc 1 67 0
  33 0002 FFF7FEFF 		bl	LED_PIN_Read
  34              	.LVL0:
  35 0006 C043     		mvn	r0, r0
  36 0008 C0B2     		uxtb	r0, r0
  37 000a FFF7FEFF 		bl	LED_PIN_Write
  38              	.LVL1:
  68:lib_LED/LED.c ****     Timer_LED_ClearInterrupt(Timer_LED_INTR_MASK_CC_MATCH);
  39              		.loc 1 68 0
  40 000e 0220     		mov	r0, #2
  41 0010 FFF7FEFF 		bl	Timer_LED_ClearInterrupt
  42              	.LVL2:
  69:lib_LED/LED.c **** }
  43              		.loc 1 69 0
  44              		@ sp needed
  45 0014 08BD     		pop	{r3, pc}
ARM GAS  C:\Users\Petro\AppData\Local\Temp\ccXQwfLp.s 			page 3


  46              		.cfi_endproc
  47              	.LFE3:
  48              		.size	LedHandler, .-LedHandler
  49              		.section	.text.LedInit,"ax",%progbits
  50              		.align	1
  51              		.global	LedInit
  52              		.code	16
  53              		.thumb_func
  54              		.type	LedInit, %function
  55              	LedInit:
  56              	.LFB2:
  52:lib_LED/LED.c ****         Timer_LED_Init();
  57              		.loc 1 52 0
  58              		.cfi_startproc
  59 0000 10B5     		push	{r4, lr}
  60              		.cfi_def_cfa_offset 8
  61              		.cfi_offset 4, -8
  62              		.cfi_offset 14, -4
  53:lib_LED/LED.c ****         if (!LED_InitValue)
  63              		.loc 1 53 0
  64 0002 FFF7FEFF 		bl	Timer_LED_Init
  65              	.LVL3:
  54:lib_LED/LED.c ****         {
  66              		.loc 1 54 0
  67 0006 054B     		ldr	r3, .L5
  68 0008 1A78     		ldrb	r2, [r3]
  69 000a 1C1C     		mov	r4, r3
  70 000c 002A     		cmp	r2, #0
  71 000e 02D1     		bne	.L3
  56:lib_LED/LED.c ****         }
  72              		.loc 1 56 0
  73 0010 0348     		ldr	r0, .L5+4
  74 0012 FFF7FEFF 		bl	Int_Timer_Led_StartEx
  75              	.LVL4:
  76              	.L3:
  58:lib_LED/LED.c **** }
  77              		.loc 1 58 0
  78 0016 0123     		mov	r3, #1
  59:lib_LED/LED.c **** 
  79              		.loc 1 59 0
  80              		@ sp needed
  58:lib_LED/LED.c **** }
  81              		.loc 1 58 0
  82 0018 2370     		strb	r3, [r4]
  59:lib_LED/LED.c **** 
  83              		.loc 1 59 0
  84 001a 10BD     		pop	{r4, pc}
  85              	.L6:
  86              		.align	2
  87              	.L5:
  88 001c 00000000 		.word	LED_InitValue
  89 0020 00000000 		.word	LedHandler
  90              		.cfi_endproc
  91              	.LFE2:
  92              		.size	LedInit, .-LedInit
  93              		.global	__aeabi_uidiv
  94              		.section	.text.LedBlink,"ax",%progbits
ARM GAS  C:\Users\Petro\AppData\Local\Temp\ccXQwfLp.s 			page 4


  95              		.align	1
  96              		.global	LedBlink
  97              		.code	16
  98              		.thumb_func
  99              		.type	LedBlink, %function
 100              	LedBlink:
 101              	.LFB4:
  70:lib_LED/LED.c **** 
  71:lib_LED/LED.c **** /* 
  72:lib_LED/LED.c ****     Blinking Led with Frequency
  73:lib_LED/LED.c ****     Arguments: 
  74:lib_LED/LED.c ****         uint16_t Frequency: 
  75:lib_LED/LED.c ****         Frequency with which LED will blinking
  76:lib_LED/LED.c ****         Value in Hz
  77:lib_LED/LED.c **** */
  78:lib_LED/LED.c **** 
  79:lib_LED/LED.c **** void LedBlink(uint16_t Frequency)
  80:lib_LED/LED.c **** {
 102              		.loc 1 80 0
 103              		.cfi_startproc
 104              	.LVL5:
  81:lib_LED/LED.c ****     uint32_t time_l;
  82:lib_LED/LED.c ****     time_l = FreqToTicks(Frequency);
 105              		.loc 1 82 0
 106 0000 4100     		lsl	r1, r0, #1
 107 0002 FA20     		mov	r0, #250
 108              	.LVL6:
  80:lib_LED/LED.c ****     uint32_t time_l;
 109              		.loc 1 80 0
 110 0004 08B5     		push	{r3, lr}
 111              		.cfi_def_cfa_offset 8
 112              		.cfi_offset 3, -8
 113              		.cfi_offset 14, -4
 114              		.loc 1 82 0
 115 0006 8000     		lsl	r0, r0, #2
 116 0008 FFF7FEFF 		bl	__aeabi_uidiv
 117              	.LVL7:
  83:lib_LED/LED.c ****     Timer_LED_WritePeriod(time_l);
 118              		.loc 1 83 0
 119 000c FFF7FEFF 		bl	Timer_LED_WritePeriod
 120              	.LVL8:
  84:lib_LED/LED.c ****     Timer_LED_Enable();
  85:lib_LED/LED.c **** }
 121              		.loc 1 85 0
 122              		@ sp needed
  84:lib_LED/LED.c ****     Timer_LED_Enable();
 123              		.loc 1 84 0
 124 0010 FFF7FEFF 		bl	Timer_LED_Enable
 125              	.LVL9:
 126              		.loc 1 85 0
 127 0014 08BD     		pop	{r3, pc}
 128              		.cfi_endproc
 129              	.LFE4:
 130              		.size	LedBlink, .-LedBlink
 131              		.section	.text.SetLedState,"ax",%progbits
 132              		.align	1
 133              		.global	SetLedState
ARM GAS  C:\Users\Petro\AppData\Local\Temp\ccXQwfLp.s 			page 5


 134              		.code	16
 135              		.thumb_func
 136              		.type	SetLedState, %function
 137              	SetLedState:
 138              	.LFB5:
  86:lib_LED/LED.c **** 
  87:lib_LED/LED.c **** /* 
  88:lib_LED/LED.c ****     Set static state LED indicator
  89:lib_LED/LED.c ****     Arguments: 
  90:lib_LED/LED.c ****         uint8_t State: 
  91:lib_LED/LED.c ****         High or low state.
  92:lib_LED/LED.c ****         High - ENABLE (1u), Low - Disable(0u)
  93:lib_LED/LED.c **** */
  94:lib_LED/LED.c **** 
  95:lib_LED/LED.c **** void SetLedState(uint8_t State)
  96:lib_LED/LED.c **** {
 139              		.loc 1 96 0
 140              		.cfi_startproc
 141              	.LVL10:
 142 0000 10B5     		push	{r4, lr}
 143              		.cfi_def_cfa_offset 8
 144              		.cfi_offset 4, -8
 145              		.cfi_offset 14, -4
 146              		.loc 1 96 0
 147 0002 041C     		mov	r4, r0
  97:lib_LED/LED.c ****     Timer_LED_Stop();
 148              		.loc 1 97 0
 149 0004 FFF7FEFF 		bl	Timer_LED_Stop
 150              	.LVL11:
  98:lib_LED/LED.c ****     LED_PIN_Write(State);
 151              		.loc 1 98 0
 152 0008 201C     		mov	r0, r4
 153 000a FFF7FEFF 		bl	LED_PIN_Write
 154              	.LVL12:
  99:lib_LED/LED.c **** }
 155              		.loc 1 99 0
 156              		@ sp needed
 157 000e 10BD     		pop	{r4, pc}
 158              		.cfi_endproc
 159              	.LFE5:
 160              		.size	SetLedState, .-SetLedState
 161              		.comm	LED_InitValue,1,1
 162              		.text
 163              	.Letext0:
 164              		.file 2 "c:\\program files (x86)\\cypress\\psoc creator\\4.0\\psoc creator\\import\\gnu\\arm\\4.9.
 165              		.file 3 "c:\\program files (x86)\\cypress\\psoc creator\\4.0\\psoc creator\\import\\gnu\\arm\\4.9.
 166              		.file 4 "Generated_Source\\PSoC4/cytypes.h"
 167              		.file 5 "Generated_Source\\PSoC4/LED_PIN.h"
 168              		.file 6 "Generated_Source\\PSoC4/Timer_LED.h"
 169              		.file 7 "Generated_Source\\PSoC4/Int_Timer_Led.h"