ARM GAS  C:\Users\Petro\AppData\Local\Temp\ccORfzmR.s 			page 1


   1              		.cpu cortex-m0
   2              		.fpu softvfp
   3              		.eabi_attribute 20, 1
   4              		.eabi_attribute 21, 1
   5              		.eabi_attribute 23, 3
   6              		.eabi_attribute 24, 1
   7              		.eabi_attribute 25, 1
   8              		.eabi_attribute 26, 1
   9              		.eabi_attribute 30, 4
  10              		.eabi_attribute 34, 0
  11              		.eabi_attribute 18, 4
  12              		.code	16
  13              		.file	"main.c"
  14              		.text
  15              	.Ltext0:
  16              		.cfi_sections	.debug_frame
  17              		.section	.text.SystemInit,"ax",%progbits
  18              		.align	1
  19              		.global	SystemInit
  20              		.code	16
  21              		.thumb_func
  22              		.type	SystemInit, %function
  23              	SystemInit:
  24              	.LFB64:
  25              		.file 1 "main.c"
   1:main.c        **** 
   2:main.c        **** #include "appGlobal.h"
   3:main.c        **** 
   4:main.c        **** 
   5:main.c        **** int main()
   6:main.c        **** {    
   7:main.c        ****     DisplayStart(); 
   8:main.c        ****     while(SystemInit() == ERROR);
   9:main.c        ****     BLE_start();
  10:main.c        ****     currentState = TIME_SYNC;
  11:main.c        ****     
  12:main.c        ****     for(;;)
  13:main.c        ****     {
  14:main.c        ****         switch (currentState)
  15:main.c        ****         {
  16:main.c        ****             case TIME_SYNC:
  17:main.c        ****             {
  18:main.c        ****                 result = TimeSynchronize();
  19:main.c        ****                 if(result == TIME_SYNC_OK)
  20:main.c        ****                 {
  21:main.c        ****                     currentState = READY;
  22:main.c        ****                 }
  23:main.c        ****                 break;
  24:main.c        ****             }
  25:main.c        ****             case READY:
  26:main.c        ****             {
  27:main.c        ****                 result = CheckReady();
  28:main.c        ****                 if(result == NO_ERROR)
  29:main.c        ****                 {
  30:main.c        ****                     currentState = CHECK_GATE;
  31:main.c        ****                 }
  32:main.c        ****                 else if(result == REBOOT)  
ARM GAS  C:\Users\Petro\AppData\Local\Temp\ccORfzmR.s 			page 2


  33:main.c        ****                 {
  34:main.c        ****                     currentState = TIME_SYNC;
  35:main.c        ****                 }
  36:main.c        ****                 break;
  37:main.c        ****             }
  38:main.c        ****             case CHECK_GATE:
  39:main.c        ****             {
  40:main.c        ****                 result = CheckGate();
  41:main.c        ****                 if(result == GATE_OPEN)
  42:main.c        ****                 {
  43:main.c        ****                     currentState = SAVE_RESULT;
  44:main.c        ****                 }
  45:main.c        ****                 else
  46:main.c        ****                 {
  47:main.c        ****                     currentState = READY;
  48:main.c        ****                 }
  49:main.c        ****                 break;
  50:main.c        ****             }
  51:main.c        ****             case SAVE_RESULT:
  52:main.c        ****             {
  53:main.c        ****                 SaveResult();
  54:main.c        ****                 currentState = READY;
  55:main.c        ****                 break;
  56:main.c        ****             }            
  57:main.c        ****         }
  58:main.c        ****         MyDelay(TIMEOUT_DELAY);
  59:main.c        ****     }
  60:main.c        **** }
  61:main.c        **** 
  62:main.c        **** 
  63:main.c        **** uint32_t SystemInit(void)
  64:main.c        **** {
  26              		.loc 1 64 0
  27              		.cfi_startproc
  28 0000 10B5     		push	{r4, lr}
  29              		.cfi_def_cfa_offset 8
  30              		.cfi_offset 4, -8
  31              		.cfi_offset 14, -4
  65:main.c        ****     uint32_t result;
  66:main.c        ****     uint32_t unixTime;
  67:main.c        ****         
  68:main.c        ****     SetRebootFlag();
  32              		.loc 1 68 0
  33 0002 FFF7FEFF 		bl	SetRebootFlag
  34              	.LVL0:
  69:main.c        ****     LedInit();   
  35              		.loc 1 69 0
  36 0006 FFF7FEFF 		bl	LedInit
  37              	.LVL1:
  70:main.c        ****     //DisplayStart();   
  71:main.c        ****     RTC_WDT_Init();
  38              		.loc 1 71 0
  39 000a FFF7FEFF 		bl	RTC_WDT_Init
  40              	.LVL2:
  72:main.c        ****     InitNetwork();
  41              		.loc 1 72 0
  42 000e FFF7FEFF 		bl	InitNetwork
ARM GAS  C:\Users\Petro\AppData\Local\Temp\ccORfzmR.s 			page 3


  43              	.LVL3:
  73:main.c        ****     GateInit();
  44              		.loc 1 73 0
  45 0012 FFF7FEFF 		bl	GateInit
  46              	.LVL4:
  74:main.c        ****     InitBuff();
  47              		.loc 1 74 0
  48 0016 FFF7FEFF 		bl	InitBuff
  49              	.LVL5:
  75:main.c        ****     BattADC_Init();
  50              		.loc 1 75 0
  51 001a FFF7FEFF 		bl	BattADC_Init
  52              	.LVL6:
  76:main.c        **** 
  77:main.c        ****     /* Enable global interrupts */
  78:main.c        ****     CyGlobalIntEnable;
  53              		.loc 1 78 0
  54              	@ 78 "main.c" 1
  55 001e 62B6     		CPSIE   i
  56              	@ 0 "" 2
  57              	.LVL7:
  79:main.c        ****    
  80:main.c        ****     /*sync real time*/
  81:main.c        **** //    unixTime = DS1307_GetUnixTime();
  82:main.c        ****     unixTime = 1485184625 ;
  83:main.c        ****     if(unixTime > 0)
  84:main.c        ****     {      
  85:main.c        ****         RTC_SetUnixTime(unixTime);
  58              		.loc 1 85 0
  59              		.code	16
  60 0020 0C48     		ldr	r0, .L5
  61 0022 0021     		mov	r1, #0
  62 0024 FFF7FEFF 		bl	RTC_SetUnixTime
  63              	.LVL8:
  86:main.c        ****         result = DataBaseStart();
  64              		.loc 1 86 0
  65 0028 FFF7FEFF 		bl	DataBaseStart
  66              	.LVL9:
  67 002c 041E     		sub	r4, r0, #0
  68              	.LVL10:
  87:main.c        ****         if(result == DB_NO_ERROR)
  69              		.loc 1 87 0
  70 002e 012C     		cmp	r4, #1
  71 0030 03D1     		bne	.L2
  88:main.c        ****         {
  89:main.c        ****             Display("System init...");
  72              		.loc 1 89 0
  73 0032 0948     		ldr	r0, .L5+4
  74              	.LVL11:
  75 0034 FFF7FEFF 		bl	Display
  76              	.LVL12:
  77 0038 0AE0     		b	.L3
  78              	.LVL13:
  79              	.L2:
  90:main.c        ****             result = NO_ERROR;
  91:main.c        ****         }
  92:main.c        ****         else
ARM GAS  C:\Users\Petro\AppData\Local\Temp\ccORfzmR.s 			page 4


  93:main.c        ****         {
  94:main.c        ****             Display("Please insert SD");
  80              		.loc 1 94 0
  81 003a 0848     		ldr	r0, .L5+8
  82              	.LVL14:
  83 003c FFF7FEFF 		bl	Display
  84              	.LVL15:
  95:main.c        ****             result = ERROR;
  96:main.c        ****             SendFinStatus(FIN_NO_READY);
  85              		.loc 1 96 0
  86 0040 0020     		mov	r0, #0
  87 0042 FFF7FEFF 		bl	SendFinStatus
  88              	.LVL16:
  97:main.c        ****             MyDelay(300);
  89              		.loc 1 97 0
  90 0046 9620     		mov	r0, #150
  91 0048 4000     		lsl	r0, r0, #1
  92 004a FFF7FEFF 		bl	MyDelay
  93              	.LVL17:
  95:main.c        ****             result = ERROR;
  94              		.loc 1 95 0
  95 004e 0024     		mov	r4, #0
  96              	.LVL18:
  97              	.L3:
  98:main.c        ****         }
  99:main.c        ****     }
 100:main.c        ****     else
 101:main.c        ****     {
 102:main.c        ****         Display("Error sync time");
 103:main.c        ****         result = ERROR;
 104:main.c        ****         SendFinStatus(FIN_NO_READY);
 105:main.c        ****         MyDelay(500);
 106:main.c        ****     }
 107:main.c        ****     
 108:main.c        ****     return result;    
 109:main.c        **** }
  98              		.loc 1 109 0
  99 0050 201C     		mov	r0, r4
 100              		@ sp needed
 101              	.LVL19:
 102 0052 10BD     		pop	{r4, pc}
 103              	.L6:
 104              		.align	2
 105              	.L5:
 106 0054 711E8658 		.word	1485184625
 107 0058 00000000 		.word	.LC0
 108 005c 0F000000 		.word	.LC2
 109              		.cfi_endproc
 110              	.LFE64:
 111              		.size	SystemInit, .-SystemInit
 112              		.section	.text.TimeSynchronize,"ax",%progbits
 113              		.align	1
 114              		.global	TimeSynchronize
 115              		.code	16
 116              		.thumb_func
 117              		.type	TimeSynchronize, %function
 118              	TimeSynchronize:
ARM GAS  C:\Users\Petro\AppData\Local\Temp\ccORfzmR.s 			page 5


 119              	.LFB65:
 110:main.c        **** 
 111:main.c        **** uint32_t TimeSynchronize(void)
 112:main.c        **** {
 120              		.loc 1 112 0
 121              		.cfi_startproc
 122 0000 10B5     		push	{r4, lr}
 123              		.cfi_def_cfa_offset 8
 124              		.cfi_offset 4, -8
 125              		.cfi_offset 14, -4
 113:main.c        ****     uint32_t result;
 114:main.c        ****     
 115:main.c        ****     LedBlink(FREQ_INIT_BLINK);
 126              		.loc 1 115 0
 127 0002 0A20     		mov	r0, #10
 128 0004 FFF7FEFF 		bl	LedBlink
 129              	.LVL20:
 116:main.c        ****     
 117:main.c        ****     /* network connect */
 118:main.c        ****     if(NetworkStatus() == NETWORK_DISCONNECT)
 130              		.loc 1 118 0
 131 0008 FFF7FEFF 		bl	NetworkStatus
 132              	.LVL21:
 133 000c 0028     		cmp	r0, #0
 134 000e 03D1     		bne	.L8
 119:main.c        ****     {
 120:main.c        ****         Display("Network conn...");
 135              		.loc 1 120 0
 136 0010 1448     		ldr	r0, .L11
 137 0012 FFF7FEFF 		bl	Display
 138              	.LVL22:
 139 0016 22E0     		b	.L9
 140              	.L8:
 121:main.c        ****         //MyDelay(TIMEOUT_DELAY);
 122:main.c        ****     }
 123:main.c        ****     else
 124:main.c        ****     {  
 125:main.c        ****         /* time sync */
 126:main.c        ****         Display("Sync time...");
 141              		.loc 1 126 0
 142 0018 1348     		ldr	r0, .L11+4
 143 001a FFF7FEFF 		bl	Display
 144              	.LVL23:
 127:main.c        ****         if(NTPsync() == TIME_SYNC_OK)
 145              		.loc 1 127 0
 146 001e FFF7FEFF 		bl	NTPsync
 147              	.LVL24:
 148 0022 041E     		sub	r4, r0, #0
 149 0024 0ED1     		bne	.L10
 150              	.LBB4:
 151              	.LBB5:
 128:main.c        ****         {
 129:main.c        ****             Display("Sync ok");
 152              		.loc 1 129 0
 153 0026 1148     		ldr	r0, .L11+8
 154 0028 FFF7FEFF 		bl	Display
 155              	.LVL25:
ARM GAS  C:\Users\Petro\AppData\Local\Temp\ccORfzmR.s 			page 6


 130:main.c        ****             ClearRebootFlag();
 156              		.loc 1 130 0
 157 002c FFF7FEFF 		bl	ClearRebootFlag
 158              	.LVL26:
 131:main.c        ****             BLE_sendSystemStatus(STATUS_OK);
 159              		.loc 1 131 0
 160 0030 201C     		mov	r0, r4
 161 0032 FFF7FEFF 		bl	BLE_sendSystemStatus
 162              	.LVL27:
 132:main.c        ****             ResetTimerForTimeSync();
 163              		.loc 1 132 0
 164 0036 FFF7FEFF 		bl	ResetTimerForTimeSync
 165              	.LVL28:
 133:main.c        ****             
 134:main.c        ****             MyDelay(4 * TIMEOUT_USER_READ_INFO);
 166              		.loc 1 134 0
 167 003a FA20     		mov	r0, #250
 168 003c C000     		lsl	r0, r0, #3
 169 003e FFF7FEFF 		bl	MyDelay
 170              	.LVL29:
 171 0042 0CE0     		b	.L9
 172              	.LVL30:
 173              	.L10:
 174              	.LBE5:
 175              	.LBE4:
 135:main.c        ****             
 136:main.c        ****             result = TIME_SYNC_OK;
 137:main.c        ****         }
 138:main.c        ****         else
 139:main.c        ****         {
 140:main.c        ****             Display("Sync time error");
 176              		.loc 1 140 0
 177 0044 0A48     		ldr	r0, .L11+12
 178 0046 FFF7FEFF 		bl	Display
 179              	.LVL31:
 141:main.c        ****             SetRebootFlag();
 180              		.loc 1 141 0
 181 004a FFF7FEFF 		bl	SetRebootFlag
 182              	.LVL32:
 142:main.c        ****             BLE_sendSystemStatus(STATUS_ERROR);
 183              		.loc 1 142 0
 184 004e 0120     		mov	r0, #1
 185 0050 FFF7FEFF 		bl	BLE_sendSystemStatus
 186              	.LVL33:
 143:main.c        ****             MyDelay(4 * TIMEOUT_USER_READ_INFO);
 187              		.loc 1 143 0
 188 0054 FA20     		mov	r0, #250
 189 0056 C000     		lsl	r0, r0, #3
 190 0058 FFF7FEFF 		bl	MyDelay
 191              	.LVL34:
 144:main.c        ****             
 145:main.c        ****             result = TIME_SYNC_ERR;
 192              		.loc 1 145 0
 193 005c 0124     		mov	r4, #1
 194              	.LVL35:
 195              	.L9:
 146:main.c        ****         }
ARM GAS  C:\Users\Petro\AppData\Local\Temp\ccORfzmR.s 			page 7


 147:main.c        ****     }
 148:main.c        ****     
 149:main.c        ****     return result;
 150:main.c        **** }
 196              		.loc 1 150 0
 197 005e 201C     		mov	r0, r4
 198              		@ sp needed
 199              	.LVL36:
 200 0060 10BD     		pop	{r4, pc}
 201              	.L12:
 202 0062 C046     		.align	2
 203              	.L11:
 204 0064 20000000 		.word	.LC4
 205 0068 30000000 		.word	.LC6
 206 006c 3D000000 		.word	.LC8
 207 0070 45000000 		.word	.LC10
 208              		.cfi_endproc
 209              	.LFE65:
 210              		.size	TimeSynchronize, .-TimeSynchronize
 211              		.section	.text.CheckReady,"ax",%progbits
 212              		.align	1
 213              		.global	CheckReady
 214              		.code	16
 215              		.thumb_func
 216              		.type	CheckReady, %function
 217              	CheckReady:
 218              	.LFB66:
 151:main.c        **** 
 152:main.c        **** 
 153:main.c        **** uint32_t CheckReady(void)
 154:main.c        **** {
 219              		.loc 1 154 0
 220              		.cfi_startproc
 221 0000 38B5     		push	{r3, r4, r5, lr}
 222              		.cfi_def_cfa_offset 16
 223              		.cfi_offset 3, -16
 224              		.cfi_offset 4, -12
 225              		.cfi_offset 5, -8
 226              		.cfi_offset 14, -4
 155:main.c        ****     uint32_t result;   
 156:main.c        ****  
 157:main.c        ****     /*sise FIFO*/
 158:main.c        ****     if ((FifoGetSize() >= MAX_SKIERS_ON_BUF/*main_db_buffer) */)&& (FifoGetSize() <= MAX_FIFO_SIZE)
 227              		.loc 1 158 0
 228 0002 FFF7FEFF 		bl	FifoGetSize
 229              	.LVL37:
 230 0006 0728     		cmp	r0, #7
 231 0008 0FD9     		bls	.L14
 232              		.loc 1 158 0 is_stmt 0 discriminator 1
 233 000a FFF7FEFF 		bl	FifoGetSize
 234              	.LVL38:
 235 000e 0C28     		cmp	r0, #12
 236 0010 0BD8     		bhi	.L14
 159:main.c        ****     {
 160:main.c        ****         /*skier finish successful*/
 161:main.c        ****         Display("Error SD Card!");
 237              		.loc 1 161 0 is_stmt 1
ARM GAS  C:\Users\Petro\AppData\Local\Temp\ccORfzmR.s 			page 8


 238 0012 2848     		ldr	r0, .L26
 239 0014 FFF7FEFF 		bl	Display
 240              	.LVL39:
 162:main.c        ****         SendFinStatus(FIN_NO_READY); 
 241              		.loc 1 162 0
 242 0018 0020     		mov	r0, #0
 243 001a FFF7FEFF 		bl	SendFinStatus
 244              	.LVL40:
 163:main.c        ****         
 164:main.c        ****         if (SkierOnWay() != 0)
 245              		.loc 1 164 0
 246 001e FFF7FEFF 		bl	SkierOnWay
 247              	.LVL41:
 165:main.c        ****         {
 166:main.c        ****             /*if skiers on way*/
 167:main.c        ****             result = NO_ERROR;
 168:main.c        ****         }
 169:main.c        ****         else
 170:main.c        ****         {
 171:main.c        ****             /*if not skiers on way*/
 172:main.c        ****             result = ERROR;
 248              		.loc 1 172 0
 249 0022 041C     		mov	r4, r0
 250 0024 601E     		sub	r0, r4, #1
 251 0026 8441     		sbc	r4, r4, r0
 252 0028 30E0     		b	.L15
 253              	.L14:
 173:main.c        ****         }        
 174:main.c        ****     }
 175:main.c        ****     else if(FifoGetSize() > MAX_FIFO_SIZE)
 254              		.loc 1 175 0
 255 002a FFF7FEFF 		bl	FifoGetSize
 256              	.LVL42:
 257 002e 0C28     		cmp	r0, #12
 258 0030 07D9     		bls	.L16
 176:main.c        ****     {
 177:main.c        ****         /*skier finish no successful*/
 178:main.c        ****         Display("Error SD Card!");
 259              		.loc 1 178 0
 260 0032 2048     		ldr	r0, .L26
 261 0034 FFF7FEFF 		bl	Display
 262              	.LVL43:
 179:main.c        ****         SendFinStatus(FIN_NO_READY); 
 263              		.loc 1 179 0
 264 0038 0020     		mov	r0, #0
 265 003a FFF7FEFF 		bl	SendFinStatus
 266              	.LVL44:
 180:main.c        ****         
 181:main.c        ****         result = ERROR;                
 267              		.loc 1 181 0
 268 003e 0024     		mov	r4, #0
 269 0040 24E0     		b	.L15
 270              	.LVL45:
 271              	.L16:
 182:main.c        ****     }
 183:main.c        ****     else if(SkierOnWay() >= MAX_SKIERS_ON_WAY/*MAX_COUNT, TRACK_OVERFLOW*/)
 272              		.loc 1 183 0
ARM GAS  C:\Users\Petro\AppData\Local\Temp\ccORfzmR.s 			page 9


 273 0042 FFF7FEFF 		bl	SkierOnWay
 274              	.LVL46:
 275 0046 0328     		cmp	r0, #3
 276 0048 0AD9     		bls	.L17
 184:main.c        ****     {
 185:main.c        ****         /*max skier on way*/
 186:main.c        ****      
 187:main.c        ****         Display("Max skier on way");
 277              		.loc 1 187 0
 278 004a 1B48     		ldr	r0, .L26+4
 279 004c FFF7FEFF 		bl	Display
 280              	.LVL47:
 188:main.c        ****         SendFinStatus(FIN_NO_READY);
 281              		.loc 1 188 0
 282 0050 0020     		mov	r0, #0
 283 0052 FFF7FEFF 		bl	SendFinStatus
 284              	.LVL48:
 189:main.c        ****         MyDelay(TIMEOUT_USER_READ_INFO);
 285              		.loc 1 189 0
 286 0056 FA20     		mov	r0, #250
 287 0058 4000     		lsl	r0, r0, #1
 288 005a FFF7FEFF 		bl	MyDelay
 289              	.LVL49:
 290 005e 14E0     		b	.L25
 291              	.LVL50:
 292              	.L17:
 190:main.c        ****         
 191:main.c        ****         result = NO_ERROR;      
 192:main.c        ****     }
 193:main.c        ****     else if(SkierOnWay() == 0)
 293              		.loc 1 193 0
 294 0060 FFF7FEFF 		bl	SkierOnWay
 295              	.LVL51:
 296 0064 154D     		ldr	r5, .L26+8
 297 0066 041E     		sub	r4, r0, #0
 298 0068 09D1     		bne	.L18
 194:main.c        ****     {
 195:main.c        ****         Display("Finish Ready");
 299              		.loc 1 195 0
 300 006a 281C     		mov	r0, r5
 301 006c FFF7FEFF 		bl	Display
 302              	.LVL52:
 196:main.c        ****         SendFinStatus(FIN_READY);
 303              		.loc 1 196 0
 304 0070 0120     		mov	r0, #1
 305 0072 FFF7FEFF 		bl	SendFinStatus
 306              	.LVL53:
 197:main.c        ****         SetLedState(LED_DISABLE);        
 307              		.loc 1 197 0
 308 0076 201C     		mov	r0, r4
 309 0078 FFF7FEFF 		bl	SetLedState
 310              	.LVL54:
 311 007c 06E0     		b	.L15
 312              	.LVL55:
 313              	.L18:
 198:main.c        ****         
 199:main.c        ****         result = ERROR;      
ARM GAS  C:\Users\Petro\AppData\Local\Temp\ccORfzmR.s 			page 10


 200:main.c        ****     }
 201:main.c        ****     else
 202:main.c        ****     {
 203:main.c        ****         /*finish ready*/
 204:main.c        ****         SendFinStatus(FIN_READY);
 314              		.loc 1 204 0
 315 007e 0120     		mov	r0, #1
 316 0080 FFF7FEFF 		bl	SendFinStatus
 317              	.LVL56:
 205:main.c        ****         Display("Finish Ready");
 318              		.loc 1 205 0
 319 0084 281C     		mov	r0, r5
 320 0086 FFF7FEFF 		bl	Display
 321              	.LVL57:
 322              	.L25:
 206:main.c        ****         
 207:main.c        ****         result = NO_ERROR;
 323              		.loc 1 207 0
 324 008a 0124     		mov	r4, #1
 325              	.LVL58:
 326              	.L15:
 208:main.c        ****     }
 209:main.c        ****     
 210:main.c        ****     //if(ReadRebootStartFlag() == REBOOT/*IS*/)
 211:main.c        ****     if(IsRebootStartFlag() == REBOOT)
 327              		.loc 1 211 0
 328 008c FFF7FEFF 		bl	IsRebootStartFlag
 329              	.LVL59:
 330 0090 FF28     		cmp	r0, #255
 331 0092 00D1     		bne	.L19
 212:main.c        ****     {
 213:main.c        ****         result = REBOOT;
 332              		.loc 1 213 0
 333 0094 041C     		mov	r4, r0
 334              	.LVL60:
 335              	.L19:
 214:main.c        ****     }
 215:main.c        ****     
 216:main.c        ****     /*if  admin , read skier time from SD card and send bluetooth*/
 217:main.c        ****     if(BLE_getFlagAdminOnly() != 0)
 336              		.loc 1 217 0
 337 0096 FFF7FEFF 		bl	BLE_getFlagAdminOnly
 338              	.LVL61:
 339 009a 0028     		cmp	r0, #0
 340 009c 01D0     		beq	.L20
 218:main.c        ****     {
 219:main.c        ****         ReadSkierResultAndSendBLE();
 341              		.loc 1 219 0
 342 009e FFF7FEFF 		bl	ReadSkierResultAndSendBLE
 343              	.LVL62:
 344              	.L20:
 220:main.c        ****     }
 221:main.c        ****     
 222:main.c        ****     if(ChekTimerForTimeSync() == SYNC_REQUIRES)
 345              		.loc 1 222 0
 346 00a2 FFF7FEFF 		bl	ChekTimerForTimeSync
 347              	.LVL63:
ARM GAS  C:\Users\Petro\AppData\Local\Temp\ccORfzmR.s 			page 11


 348 00a6 0128     		cmp	r0, #1
 349 00a8 01D1     		bne	.L21
 223:main.c        ****     {
 224:main.c        ****         SetRebootFlag();
 350              		.loc 1 224 0
 351 00aa FFF7FEFF 		bl	SetRebootFlag
 352              	.LVL64:
 353              	.L21:
 225:main.c        ****     }
 226:main.c        ****            
 227:main.c        ****     return result;
 228:main.c        **** }
 354              		.loc 1 228 0
 355 00ae 201C     		mov	r0, r4
 356              		@ sp needed
 357              	.LVL65:
 358 00b0 38BD     		pop	{r3, r4, r5, pc}
 359              	.L27:
 360 00b2 C046     		.align	2
 361              	.L26:
 362 00b4 55000000 		.word	.LC12
 363 00b8 64000000 		.word	.LC14
 364 00bc 75000000 		.word	.LC16
 365              		.cfi_endproc
 366              	.LFE66:
 367              		.size	CheckReady, .-CheckReady
 368              		.section	.text.CheckGate,"ax",%progbits
 369              		.align	1
 370              		.global	CheckGate
 371              		.code	16
 372              		.thumb_func
 373              		.type	CheckGate, %function
 374              	CheckGate:
 375              	.LFB67:
 229:main.c        **** 
 230:main.c        **** uint32_t CheckGate(void)
 231:main.c        **** {
 376              		.loc 1 231 0
 377              		.cfi_startproc
 378 0000 10B5     		push	{r4, lr}
 379              		.cfi_def_cfa_offset 8
 380              		.cfi_offset 4, -8
 381              		.cfi_offset 14, -4
 232:main.c        ****     uint32_t result;
 233:main.c        ****     
 234:main.c        ****     SetLedState(LED_ENABLE);
 382              		.loc 1 234 0
 383 0002 0120     		mov	r0, #1
 384 0004 FFF7FEFF 		bl	SetLedState
 385              	.LVL66:
 235:main.c        ****     result = GateIsOpen();/*IsGateOpen(), CheckGateStatus()*/
 386              		.loc 1 235 0
 387 0008 FFF7FEFF 		bl	GateIsOpen
 388              	.LVL67:
 389 000c 041E     		sub	r4, r0, #0
 390              	.LVL68:
 236:main.c        ****     
ARM GAS  C:\Users\Petro\AppData\Local\Temp\ccORfzmR.s 			page 12


 237:main.c        ****     if(result == GATE_OPEN)
 391              		.loc 1 237 0
 392 000e 012C     		cmp	r4, #1
 393 0010 07D1     		bne	.L29
 394              	.LBB8:
 395              	.LBB9:
 238:main.c        ****     {
 239:main.c        ****         Display("Skier Finished");
 396              		.loc 1 239 0
 397 0012 0648     		ldr	r0, .L31
 398              	.LVL69:
 399 0014 FFF7FEFF 		bl	Display
 400              	.LVL70:
 240:main.c        ****         MyDelay(TIMEOUT_USER_READ_INFO);
 401              		.loc 1 240 0
 402 0018 FA20     		mov	r0, #250
 403 001a 4000     		lsl	r0, r0, #1
 404 001c FFF7FEFF 		bl	MyDelay
 405              	.LVL71:
 406 0020 01E0     		b	.L30
 407              	.LVL72:
 408              	.L29:
 409              	.LBE9:
 410              	.LBE8:
 241:main.c        ****     }
 242:main.c        ****     else
 243:main.c        ****     {
 244:main.c        ****         AllowNextSkier();
 411              		.loc 1 244 0
 412 0022 FFF7FEFF 		bl	AllowNextSkier
 413              	.LVL73:
 414              	.L30:
 245:main.c        ****     }
 246:main.c        ****     
 247:main.c        ****     return result;  
 248:main.c        **** }
 415              		.loc 1 248 0
 416 0026 201C     		mov	r0, r4
 417              		@ sp needed
 418              	.LVL74:
 419 0028 10BD     		pop	{r4, pc}
 420              	.L32:
 421 002a C046     		.align	2
 422              	.L31:
 423 002c 82000000 		.word	.LC18
 424              		.cfi_endproc
 425              	.LFE67:
 426              		.size	CheckGate, .-CheckGate
 427              		.section	.text.SaveResult,"ax",%progbits
 428              		.align	1
 429              		.global	SaveResult
 430              		.code	16
 431              		.thumb_func
 432              		.type	SaveResult, %function
 433              	SaveResult:
 434              	.LFB68:
 249:main.c        **** 
ARM GAS  C:\Users\Petro\AppData\Local\Temp\ccORfzmR.s 			page 13


 250:main.c        **** void SaveResult(void)
 251:main.c        **** {
 435              		.loc 1 251 0
 436              		.cfi_startproc
 437 0000 1FB5     		push	{r0, r1, r2, r3, r4, lr}
 438              		.cfi_def_cfa_offset 24
 439              		.cfi_offset 0, -24
 440              		.cfi_offset 1, -20
 441              		.cfi_offset 2, -16
 442              		.cfi_offset 3, -12
 443              		.cfi_offset 4, -8
 444              		.cfi_offset 14, -4
 252:main.c        ****     uint64_t finUnixTime;
 253:main.c        ****     uint32_t finRecentMs;
 254:main.c        ****     
 255:main.c        ****     SendFinStatus(FIN_READY);
 445              		.loc 1 255 0
 446 0002 0120     		mov	r0, #1
 447 0004 FFF7FEFF 		bl	SendFinStatus
 448              	.LVL75:
 256:main.c        ****     LedBlink(FREQ_INIT_BLINK);
 449              		.loc 1 256 0
 450 0008 0A20     		mov	r0, #10
 451 000a FFF7FEFF 		bl	LedBlink
 452              	.LVL76:
 257:main.c        ****     Display("Save data");
 453              		.loc 1 257 0
 454 000e 1048     		ldr	r0, .L34
 455 0010 FFF7FEFF 		bl	Display
 456              	.LVL77:
 258:main.c        ****     MyDelay(TIMEOUT_USER_READ_INFO);
 457              		.loc 1 258 0
 458 0014 FA20     		mov	r0, #250
 459 0016 4000     		lsl	r0, r0, #1
 460 0018 FFF7FEFF 		bl	MyDelay
 461              	.LVL78:
 259:main.c        ****     
 260:main.c        ****     /*write time in fifo*/
 261:main.c        ****     GetFinTime(&finUnixTime, &finRecentMs);
 462              		.loc 1 261 0
 463 001c 02A8     		add	r0, sp, #8
 464 001e 01A9     		add	r1, sp, #4
 465 0020 FFF7FEFF 		bl	GetFinTime
 466              	.LVL79:
 262:main.c        ****     WriteFinishTime(finUnixTime,finRecentMs);
 467              		.loc 1 262 0
 468 0024 0298     		ldr	r0, [sp, #8]
 469 0026 0399     		ldr	r1, [sp, #12]
 470 0028 019B     		ldr	r3, [sp, #4]
 263:main.c        ****     
 264:main.c        ****     FifoPushLastFinished();
 265:main.c        ****     
 266:main.c        ****     /*print time result last skier finished*/
 267:main.c        ****     DisplayLastSkierTime(LastSecTimeOnWay(),LastMillsTimeOnWay());/*LastTimeOnWaySecs(), LastTimeOn
 268:main.c        ****     MyDelay(2*TIMEOUT_USER_READ_INFO);
 269:main.c        **** }
 471              		.loc 1 269 0
ARM GAS  C:\Users\Petro\AppData\Local\Temp\ccORfzmR.s 			page 14


 472              		@ sp needed
 262:main.c        ****     WriteFinishTime(finUnixTime,finRecentMs);
 473              		.loc 1 262 0
 474 002a 9AB2     		uxth	r2, r3
 475 002c FFF7FEFF 		bl	WriteFinishTime
 476              	.LVL80:
 264:main.c        ****     
 477              		.loc 1 264 0
 478 0030 FFF7FEFF 		bl	FifoPushLastFinished
 479              	.LVL81:
 267:main.c        ****     MyDelay(2*TIMEOUT_USER_READ_INFO);
 480              		.loc 1 267 0
 481 0034 FFF7FEFF 		bl	LastSecTimeOnWay
 482              	.LVL82:
 483 0038 041C     		mov	r4, r0
 484 003a FFF7FEFF 		bl	LastMillsTimeOnWay
 485              	.LVL83:
 486 003e 81B2     		uxth	r1, r0
 487 0040 201C     		mov	r0, r4
 488 0042 FFF7FEFF 		bl	DisplayLastSkierTime
 489              	.LVL84:
 268:main.c        **** }
 490              		.loc 1 268 0
 491 0046 FA20     		mov	r0, #250
 492 0048 8000     		lsl	r0, r0, #2
 493 004a FFF7FEFF 		bl	MyDelay
 494              	.LVL85:
 495              		.loc 1 269 0
 496 004e 1FBD     		pop	{r0, r1, r2, r3, r4, pc}
 497              	.L35:
 498              		.align	2
 499              	.L34:
 500 0050 91000000 		.word	.LC20
 501              		.cfi_endproc
 502              	.LFE68:
 503              		.size	SaveResult, .-SaveResult
 504              		.section	.text.startup.main,"ax",%progbits
 505              		.align	1
 506              		.global	main
 507              		.code	16
 508              		.thumb_func
 509              		.type	main, %function
 510              	main:
 511              	.LFB63:
   6:main.c        ****     DisplayStart(); 
 512              		.loc 1 6 0
 513              		.cfi_startproc
 514 0000 10B5     		push	{r4, lr}
 515              		.cfi_def_cfa_offset 8
 516              		.cfi_offset 4, -8
 517              		.cfi_offset 14, -4
   7:main.c        ****     while(SystemInit() == ERROR);
 518              		.loc 1 7 0
 519 0002 FFF7FEFF 		bl	DisplayStart
 520              	.LVL86:
 521              	.L37:
   8:main.c        ****     BLE_start();
ARM GAS  C:\Users\Petro\AppData\Local\Temp\ccORfzmR.s 			page 15


 522              		.loc 1 8 0 discriminator 1
 523 0006 FFF7FEFF 		bl	SystemInit
 524              	.LVL87:
 525 000a 0028     		cmp	r0, #0
 526 000c FBD0     		beq	.L37
   9:main.c        ****     currentState = TIME_SYNC;
 527              		.loc 1 9 0
 528 000e FFF7FEFF 		bl	BLE_start
 529              	.LVL88:
  10:main.c        ****     
 530              		.loc 1 10 0
 531 0012 0023     		mov	r3, #0
 532 0014 154C     		ldr	r4, .L54
 533 0016 2370     		strb	r3, [r4]
 534              	.L47:
  14:main.c        ****         {
 535              		.loc 1 14 0
 536 0018 2078     		ldrb	r0, [r4]
 537 001a 0328     		cmp	r0, #3
 538 001c 21D8     		bhi	.L38
 539 001e FFF7FEFF 		bl	__gnu_thumb1_case_uqi
 540              	.L40:
 541 0022 02       		.byte	(.L39-.L40)/2
 542 0023 09       		.byte	(.L41-.L40)/2
 543 0024 14       		.byte	(.L42-.L40)/2
 544 0025 1C       		.byte	(.L43-.L40)/2
 545              		.p2align 1
 546              	.L39:
  18:main.c        ****                 if(result == TIME_SYNC_OK)
 547              		.loc 1 18 0
 548 0026 FFF7FEFF 		bl	TimeSynchronize
 549              	.LVL89:
 550 002a 114B     		ldr	r3, .L54+4
 551 002c 1860     		str	r0, [r3]
  19:main.c        ****                 {
 552              		.loc 1 19 0
 553 002e 0028     		cmp	r0, #0
 554 0030 17D1     		bne	.L38
 555 0032 14E0     		b	.L52
 556              	.L41:
  27:main.c        ****                 if(result == NO_ERROR)
 557              		.loc 1 27 0
 558 0034 FFF7FEFF 		bl	CheckReady
 559              	.LVL90:
 560 0038 0D4B     		ldr	r3, .L54+4
 561 003a 1860     		str	r0, [r3]
  30:main.c        ****                 }
 562              		.loc 1 30 0
 563 003c 0223     		mov	r3, #2
  28:main.c        ****                 {
 564              		.loc 1 28 0
 565 003e 0128     		cmp	r0, #1
 566 0040 0ED0     		beq	.L53
  34:main.c        ****                 }
 567              		.loc 1 34 0
 568 0042 0023     		mov	r3, #0
  32:main.c        ****                 {
ARM GAS  C:\Users\Petro\AppData\Local\Temp\ccORfzmR.s 			page 16


 569              		.loc 1 32 0
 570 0044 FF28     		cmp	r0, #255
 571 0046 0CD1     		bne	.L38
 572 0048 0AE0     		b	.L53
 573              	.L42:
  40:main.c        ****                 if(result == GATE_OPEN)
 574              		.loc 1 40 0
 575 004a FFF7FEFF 		bl	CheckGate
 576              	.LVL91:
 577 004e 084B     		ldr	r3, .L54+4
 578 0050 1860     		str	r0, [r3]
  43:main.c        ****                 }
 579              		.loc 1 43 0
 580 0052 0323     		mov	r3, #3
  41:main.c        ****                 {
 581              		.loc 1 41 0
 582 0054 0128     		cmp	r0, #1
 583 0056 02D1     		bne	.L52
 584 0058 02E0     		b	.L53
 585              	.L43:
  53:main.c        ****                 currentState = READY;
 586              		.loc 1 53 0
 587 005a FFF7FEFF 		bl	SaveResult
 588              	.LVL92:
 589              	.L52:
  54:main.c        ****                 break;
 590              		.loc 1 54 0
 591 005e 0123     		mov	r3, #1
 592              	.L53:
 593 0060 2370     		strb	r3, [r4]
 594              	.L38:
  58:main.c        ****     }
 595              		.loc 1 58 0
 596 0062 FA20     		mov	r0, #250
 597 0064 4000     		lsl	r0, r0, #1
 598 0066 FFF7FEFF 		bl	MyDelay
 599              	.LVL93:
  59:main.c        **** }
 600              		.loc 1 59 0
 601 006a D5E7     		b	.L47
 602              	.L55:
 603              		.align	2
 604              	.L54:
 605 006c 00000000 		.word	currentState
 606 0070 00000000 		.word	.LANCHOR0
 607              		.cfi_endproc
 608              	.LFE63:
 609              		.size	main, .-main
 610              		.comm	currentState,1,1
 611              		.section	.rodata.str1.1,"aMS",%progbits,1
 612              	.LC0:
 613 0000 53797374 		.ascii	"System init...\000"
 613      656D2069 
 613      6E69742E 
 613      2E2E00
 614              	.LC2:
 615 000f 506C6561 		.ascii	"Please insert SD\000"
ARM GAS  C:\Users\Petro\AppData\Local\Temp\ccORfzmR.s 			page 17


 615      73652069 
 615      6E736572 
 615      74205344 
 615      00
 616              	.LC4:
 617 0020 4E657477 		.ascii	"Network conn...\000"
 617      6F726B20 
 617      636F6E6E 
 617      2E2E2E00 
 618              	.LC6:
 619 0030 53796E63 		.ascii	"Sync time...\000"
 619      2074696D 
 619      652E2E2E 
 619      00
 620              	.LC8:
 621 003d 53796E63 		.ascii	"Sync ok\000"
 621      206F6B00 
 622              	.LC10:
 623 0045 53796E63 		.ascii	"Sync time error\000"
 623      2074696D 
 623      65206572 
 623      726F7200 
 624              	.LC12:
 625 0055 4572726F 		.ascii	"Error SD Card!\000"
 625      72205344 
 625      20436172 
 625      642100
 626              	.LC14:
 627 0064 4D617820 		.ascii	"Max skier on way\000"
 627      736B6965 
 627      72206F6E 
 627      20776179 
 627      00
 628              	.LC16:
 629 0075 46696E69 		.ascii	"Finish Ready\000"
 629      73682052 
 629      65616479 
 629      00
 630              	.LC18:
 631 0082 536B6965 		.ascii	"Skier Finished\000"
 631      72204669 
 631      6E697368 
 631      656400
 632              	.LC20:
 633 0091 53617665 		.ascii	"Save data\000"
 633      20646174 
 633      6100
 634              		.bss
 635              		.align	2
 636              		.set	.LANCHOR0,. + 0
 637              		.type	result, %object
 638              		.size	result, 4
 639              	result:
 640 0000 00000000 		.space	4
 641              		.text
 642              	.Letext0:
 643              		.file 2 "c:\\program files (x86)\\cypress\\psoc creator\\4.0\\psoc creator\\import\\gnu\\arm\\4.9.
ARM GAS  C:\Users\Petro\AppData\Local\Temp\ccORfzmR.s 			page 18


 644              		.file 3 "c:\\program files (x86)\\cypress\\psoc creator\\4.0\\psoc creator\\import\\gnu\\arm\\4.9.
 645              		.file 4 "Generated_Source\\PSoC4/cytypes.h"
 646              		.file 5 "Generated_Source\\PSoC4/ble_Stack.h"
 647              		.file 6 "lib_BLE\\bluetooth.h"
 648              		.file 7 "appGlobal.h"
 649              		.file 8 "lib_Network\\network.h"
 650              		.file 9 "lib_LED\\LED.h"
 651              		.file 10 "lib_Gate\\gate.h"
 652              		.file 11 "lib_RTC\\RTC_WDT.h"
 653              		.file 12 "lib_DB\\database.h"
 654              		.file 13 "lib_Batt\\batt.h"
 655              		.file 14 "Generated_Source\\PSoC4/RTC.h"
 656              		.file 15 "lib_Display\\display.h"
 657              		.file 16 "lib_MyDelay\\myDelay.h"
 658              		.file 17 "./lib_DB\\logResult.h"