ARM GAS  C:\Users\Petro\AppData\Local\Temp\cc7LCpmR.s 			page 1


   1              		.cpu cortex-m0
   2              		.fpu softvfp
   3              		.eabi_attribute 20, 1
   4              		.eabi_attribute 21, 1
   5              		.eabi_attribute 23, 3
   6              		.eabi_attribute 24, 1
   7              		.eabi_attribute 25, 1
   8              		.eabi_attribute 26, 1
   9              		.eabi_attribute 30, 4
  10              		.eabi_attribute 34, 0
  11              		.eabi_attribute 18, 4
  12              		.code	16
  13              		.file	"myDelay.c"
  14              		.text
  15              	.Ltext0:
  16              		.cfi_sections	.debug_frame
  17              		.section	.text.MyDelay,"ax",%progbits
  18              		.align	1
  19              		.global	MyDelay
  20              		.code	16
  21              		.thumb_func
  22              		.type	MyDelay, %function
  23              	MyDelay:
  24              	.LFB63:
  25              		.file 1 "lib_MyDelay\\myDelay.c"
   1:lib_MyDelay/myDelay.c **** #include "lib_MyDelay\myDelay.h"
   2:lib_MyDelay/myDelay.c **** #include <AppDelay.h>
   3:lib_MyDelay/myDelay.c **** #include <SDinsert.h>
   4:lib_MyDelay/myDelay.c **** #include "lib_DB\logResult.h"
   5:lib_MyDelay/myDelay.c **** #include "lib_Network\network.h"
   6:lib_MyDelay/myDelay.c **** #include "lib_Display\display.h"
   7:lib_MyDelay/myDelay.c **** #include "lib_BLE\bluetooth.h"
   8:lib_MyDelay/myDelay.c **** #include "lib_DS1307\DS1307.h"
   9:lib_MyDelay/myDelay.c **** #include "lib_Batt\batt.h"
  10:lib_MyDelay/myDelay.c **** 
  11:lib_MyDelay/myDelay.c **** /*Minimum time to execution user function  */
  12:lib_MyDelay/myDelay.c **** #define MIN_DELAY_MS    150
  13:lib_MyDelay/myDelay.c **** 
  14:lib_MyDelay/myDelay.c **** #define WRITE_ERROR     1
  15:lib_MyDelay/myDelay.c **** #define WRITE_NO_ERROR  0
  16:lib_MyDelay/myDelay.c **** 
  17:lib_MyDelay/myDelay.c **** static uint16_t writeFlag;
  18:lib_MyDelay/myDelay.c **** 
  19:lib_MyDelay/myDelay.c **** /*user func*/
  20:lib_MyDelay/myDelay.c **** static void UserFunc_1(void);
  21:lib_MyDelay/myDelay.c **** static void UserFunc_2(void);
  22:lib_MyDelay/myDelay.c **** static void UserFunc_3(void);
  23:lib_MyDelay/myDelay.c **** static void UserFunc_4(void);
  24:lib_MyDelay/myDelay.c **** static void UserFunc_5(void);
  25:lib_MyDelay/myDelay.c **** 
  26:lib_MyDelay/myDelay.c **** 
  27:lib_MyDelay/myDelay.c **** /*******************************************************************************
  28:lib_MyDelay/myDelay.c **** * Function Name: MyDelay
  29:lib_MyDelay/myDelay.c **** ********************************************************************************
  30:lib_MyDelay/myDelay.c **** *
  31:lib_MyDelay/myDelay.c **** * Summary:
  32:lib_MyDelay/myDelay.c **** *   delay feature where users performed free time
ARM GAS  C:\Users\Petro\AppData\Local\Temp\cc7LCpmR.s 			page 2


  33:lib_MyDelay/myDelay.c **** *
  34:lib_MyDelay/myDelay.c **** * Parameters:
  35:lib_MyDelay/myDelay.c **** *  delayMs - delay time in miliseconds
  36:lib_MyDelay/myDelay.c **** *
  37:lib_MyDelay/myDelay.c **** *******************************************************************************/
  38:lib_MyDelay/myDelay.c **** void MyDelay(uint32_t delayMs)
  39:lib_MyDelay/myDelay.c **** {
  26              		.loc 1 39 0
  27              		.cfi_startproc
  28              	.LVL0:
  29 0000 F0B5     		push	{r4, r5, r6, r7, lr}
  30              		.cfi_def_cfa_offset 20
  31              		.cfi_offset 4, -20
  32              		.cfi_offset 5, -16
  33              		.cfi_offset 6, -12
  34              		.cfi_offset 7, -8
  35              		.cfi_offset 14, -4
  36 0002 051C     		mov	r5, r0
  37 0004 A1B0     		sub	sp, sp, #132
  38              		.cfi_def_cfa_offset 152
  40:lib_MyDelay/myDelay.c ****     
  41:lib_MyDelay/myDelay.c ****     if(delayMs < MIN_DELAY_MS)
  39              		.loc 1 41 0
  40 0006 952D     		cmp	r5, #149
  41 0008 00D8     		bhi	.LCB16
  42 000a 8FE0     		b	.L22	@long jump
  43              	.LCB16:
  44              	.LVL1:
  45              	.LBB14:
  42:lib_MyDelay/myDelay.c ****     {
  43:lib_MyDelay/myDelay.c ****         CyDelay(delayMs);
  44:lib_MyDelay/myDelay.c ****     }
  45:lib_MyDelay/myDelay.c ****     else
  46:lib_MyDelay/myDelay.c ****     {
  47:lib_MyDelay/myDelay.c ****         uint32_t runTime;
  48:lib_MyDelay/myDelay.c ****         uint32_t counter;
  49:lib_MyDelay/myDelay.c ****         uint32_t period;
  50:lib_MyDelay/myDelay.c ****         
  51:lib_MyDelay/myDelay.c ****         runTime = 0;
  52:lib_MyDelay/myDelay.c ****         AppDelay_Start();
  46              		.loc 1 52 0
  47 000c FFF7FEFF 		bl	AppDelay_Start
  48              	.LVL2:
  53:lib_MyDelay/myDelay.c ****         period = AppDelay_ReadPeriod();
  49              		.loc 1 53 0
  50 0010 FFF7FEFF 		bl	AppDelay_ReadPeriod
  51              	.LVL3:
  51:lib_MyDelay/myDelay.c ****         AppDelay_Start();
  52              		.loc 1 51 0
  53 0014 0024     		mov	r4, #0
  54              		.loc 1 53 0
  55 0016 061C     		mov	r6, r0
  56              	.LVL4:
  54:lib_MyDelay/myDelay.c ****         AppDelay_WriteCounter(period);       
  57              		.loc 1 54 0
  58 0018 FFF7FEFF 		bl	AppDelay_WriteCounter
  59              	.LVL5:
ARM GAS  C:\Users\Petro\AppData\Local\Temp\cc7LCpmR.s 			page 3


  60              	.L4:
  55:lib_MyDelay/myDelay.c ****         
  56:lib_MyDelay/myDelay.c ****         while(((delayMs - runTime) > MIN_DELAY_MS) && (runTime <= delayMs))
  61              		.loc 1 56 0
  62 001c 2F1B     		sub	r7, r5, r4
  63 001e 962F     		cmp	r7, #150
  64 0020 06D8     		bhi	.L16
  65              	.L19:
  57:lib_MyDelay/myDelay.c ****         {
  58:lib_MyDelay/myDelay.c ****             /*user function*/      
  59:lib_MyDelay/myDelay.c ****             UserFunc_1();
  60:lib_MyDelay/myDelay.c ****             UserFunc_2();
  61:lib_MyDelay/myDelay.c ****             UserFunc_3();
  62:lib_MyDelay/myDelay.c ****             UserFunc_4();
  63:lib_MyDelay/myDelay.c ****             UserFunc_5();
  64:lib_MyDelay/myDelay.c ****             
  65:lib_MyDelay/myDelay.c ****             CyDelay(MIN_DELAY_MS);
  66:lib_MyDelay/myDelay.c ****                             
  67:lib_MyDelay/myDelay.c ****             counter = AppDelay_ReadCounter();
  68:lib_MyDelay/myDelay.c ****             runTime = (period -  counter);
  69:lib_MyDelay/myDelay.c ****             
  70:lib_MyDelay/myDelay.c ****             /*user function*/  
  71:lib_MyDelay/myDelay.c ****         }
  72:lib_MyDelay/myDelay.c ****         AppDelay_Stop();
  66              		.loc 1 72 0
  67 0022 FFF7FEFF 		bl	AppDelay_Stop
  68              	.LVL6:
  73:lib_MyDelay/myDelay.c ****         
  74:lib_MyDelay/myDelay.c ****         #ifdef DEBUG_PC
  75:lib_MyDelay/myDelay.c ****         char buffer[100];
  76:lib_MyDelay/myDelay.c ****         sprintf(buffer,"time send data %u\n\r", (runTime));
  77:lib_MyDelay/myDelay.c ****         SW_UART_DEBUG_PutString(buffer);
  78:lib_MyDelay/myDelay.c ****         #endif
  79:lib_MyDelay/myDelay.c ****         
  80:lib_MyDelay/myDelay.c ****         if (delayMs > runTime)
  69              		.loc 1 80 0
  70 0026 A542     		cmp	r5, r4
  71 0028 00D8     		bhi	.LCB41
  72 002a 81E0     		b	.L1	@long jump
  73              	.LCB41:
  81:lib_MyDelay/myDelay.c ****         {
  82:lib_MyDelay/myDelay.c ****             CyDelay(delayMs - runTime);
  74              		.loc 1 82 0
  75 002c 381C     		mov	r0, r7
  76 002e 7DE0     		b	.L22
  77              	.L16:
  56:lib_MyDelay/myDelay.c ****         {
  78              		.loc 1 56 0 discriminator 1
  79 0030 AC42     		cmp	r4, r5
  80 0032 F6D8     		bhi	.L19
  81              	.LBB15:
  82              	.LBB16:
  83:lib_MyDelay/myDelay.c ****         }
  84:lib_MyDelay/myDelay.c ****     }
  85:lib_MyDelay/myDelay.c **** }
  86:lib_MyDelay/myDelay.c **** 
  87:lib_MyDelay/myDelay.c **** 
ARM GAS  C:\Users\Petro\AppData\Local\Temp\cc7LCpmR.s 			page 4


  88:lib_MyDelay/myDelay.c **** static void UserFunc_1(void)
  89:lib_MyDelay/myDelay.c **** {
  90:lib_MyDelay/myDelay.c ****     /*network connection and transfer data*/
  91:lib_MyDelay/myDelay.c **** 
  92:lib_MyDelay/myDelay.c ****     SendData();           
  83              		.loc 1 92 0
  84 0034 FFF7FEFF 		bl	SendData
  85              	.LVL7:
  93:lib_MyDelay/myDelay.c ****     ReceiveData();
  86              		.loc 1 93 0
  87 0038 FFF7FEFF 		bl	ReceiveData
  88              	.LVL8:
  89              	.LBE16:
  90              	.LBE15:
  91              	.LBB17:
  92              	.LBB18:
  94:lib_MyDelay/myDelay.c ****     
  95:lib_MyDelay/myDelay.c ****     #ifdef DEBUG_PC
  96:lib_MyDelay/myDelay.c ****     //inData.readStatus = READ_OK;
  97:lib_MyDelay/myDelay.c ****     #endif
  98:lib_MyDelay/myDelay.c ****  
  99:lib_MyDelay/myDelay.c **** }
 100:lib_MyDelay/myDelay.c **** 
 101:lib_MyDelay/myDelay.c **** 
 102:lib_MyDelay/myDelay.c **** static void UserFunc_2(void)
 103:lib_MyDelay/myDelay.c **** {
 104:lib_MyDelay/myDelay.c ****     /*write result skier on log 
 105:lib_MyDelay/myDelay.c ****     (if there is no memory card that is a record in fifo)*/
 106:lib_MyDelay/myDelay.c ****     
 107:lib_MyDelay/myDelay.c ****     if((FifoGetSize() > 0) || (writeFlag == WRITE_ERROR))
  93              		.loc 1 107 0
  94 003c FFF7FEFF 		bl	FifoGetSize
  95              	.LVL9:
  96 0040 3C4C     		ldr	r4, .L24
  97              	.LVL10:
  98 0042 0028     		cmp	r0, #0
  99 0044 02D1     		bne	.L5
 100 0046 2388     		ldrh	r3, [r4]
 101 0048 012B     		cmp	r3, #1
 102 004a 2FD1     		bne	.L6
 103              	.L5:
 104              	.LBB19:
 108:lib_MyDelay/myDelay.c ****     {
 109:lib_MyDelay/myDelay.c ****         uint32_t result;
 110:lib_MyDelay/myDelay.c ****         skierDB_El tmpStruct;
 111:lib_MyDelay/myDelay.c ****         
 112:lib_MyDelay/myDelay.c ****         if (writeFlag == WRITE_NO_ERROR)
 105              		.loc 1 112 0
 106 004c 2388     		ldrh	r3, [r4]
 107 004e 002B     		cmp	r3, #0
 108 0050 0ED1     		bne	.L7
 113:lib_MyDelay/myDelay.c ****         {
 114:lib_MyDelay/myDelay.c ****             FifoGet(&tmpStruct);
 109              		.loc 1 114 0
 110 0052 14A8     		add	r0, sp, #80
 111 0054 FFF7FEFF 		bl	FifoGet
 112              	.LVL11:
ARM GAS  C:\Users\Petro\AppData\Local\Temp\cc7LCpmR.s 			page 5


 115:lib_MyDelay/myDelay.c ****             FifoPushLast(tmpStruct);
 113              		.loc 1 115 0
 114 0058 18A9     		add	r1, sp, #96
 115 005a 6846     		mov	r0, sp
 116 005c 2022     		mov	r2, #32
 117 005e FFF7FEFF 		bl	memcpy
 118              	.LVL12:
 119 0062 1498     		ldr	r0, [sp, #80]
 120 0064 1599     		ldr	r1, [sp, #84]
 121 0066 169A     		ldr	r2, [sp, #88]
 122 0068 179B     		ldr	r3, [sp, #92]
 123 006a FFF7FEFF 		bl	FifoPushLast
 124              	.LVL13:
 125 006e 07E0     		b	.L8
 126              	.L7:
 116:lib_MyDelay/myDelay.c ****         }
 117:lib_MyDelay/myDelay.c ****         else
 118:lib_MyDelay/myDelay.c ****         {
 119:lib_MyDelay/myDelay.c ****             tmpStruct = FifoGetLast();
 127              		.loc 1 119 0
 128 0070 08A8     		add	r0, sp, #32
 129 0072 FFF7FEFF 		bl	FifoGetLast
 130              	.LVL14:
 131 0076 14A8     		add	r0, sp, #80
 132 0078 08A9     		add	r1, sp, #32
 133 007a 3022     		mov	r2, #48
 134 007c FFF7FEFF 		bl	memcpy
 135              	.LVL15:
 136              	.L8:
 120:lib_MyDelay/myDelay.c ****         }
 121:lib_MyDelay/myDelay.c ****         result = WriteSkierResult(&tmpStruct);
 137              		.loc 1 121 0
 138 0080 14A8     		add	r0, sp, #80
 139 0082 FFF7FEFF 		bl	WriteSkierResult
 140              	.LVL16:
 122:lib_MyDelay/myDelay.c ****         if(result != FR_OK)
 141              		.loc 1 122 0
 142 0086 0028     		cmp	r0, #0
 143 0088 04D0     		beq	.L9
 123:lib_MyDelay/myDelay.c ****         {
 124:lib_MyDelay/myDelay.c ****             LogStart();
 144              		.loc 1 124 0
 145 008a FFF7FEFF 		bl	LogStart
 146              	.LVL17:
 125:lib_MyDelay/myDelay.c ****             writeFlag = WRITE_ERROR;
 147              		.loc 1 125 0
 148 008e 0123     		mov	r3, #1
 149 0090 2380     		strh	r3, [r4]
 150 0092 00E0     		b	.L10
 151              	.LVL18:
 152              	.L9:
 126:lib_MyDelay/myDelay.c ****         }
 127:lib_MyDelay/myDelay.c ****         else
 128:lib_MyDelay/myDelay.c ****         {
 129:lib_MyDelay/myDelay.c ****             writeFlag = WRITE_NO_ERROR;
 153              		.loc 1 129 0
 154 0094 2080     		strh	r0, [r4]
ARM GAS  C:\Users\Petro\AppData\Local\Temp\cc7LCpmR.s 			page 6


 155              	.LVL19:
 156              	.L10:
 130:lib_MyDelay/myDelay.c ****         }
 131:lib_MyDelay/myDelay.c ****         
 132:lib_MyDelay/myDelay.c ****         BLE_sendOneSkierTimeResult(&tmpStruct,GetIDskierFinished(),SkierOnWay(),MAX_SKIERS_ON_WAY);
 157              		.loc 1 132 0
 158 0096 FFF7FEFF 		bl	GetIDskierFinished
 159              	.LVL20:
 160 009a 071C     		mov	r7, r0
 161 009c FFF7FEFF 		bl	SkierOnWay
 162              	.LVL21:
 163 00a0 F9B2     		uxtb	r1, r7
 164 00a2 C2B2     		uxtb	r2, r0
 165 00a4 0423     		mov	r3, #4
 166 00a6 14A8     		add	r0, sp, #80
 167 00a8 FFF7FEFF 		bl	BLE_sendOneSkierTimeResult
 168              	.LVL22:
 169              	.L6:
 170              	.LBE19:
 171              	.LBE18:
 172              	.LBE17:
 173              	.LBB20:
 174              	.LBB21:
 133:lib_MyDelay/myDelay.c ****     }
 134:lib_MyDelay/myDelay.c **** }
 135:lib_MyDelay/myDelay.c **** 
 136:lib_MyDelay/myDelay.c **** static void UserFunc_3(void)
 137:lib_MyDelay/myDelay.c **** {
 138:lib_MyDelay/myDelay.c ****     /*print indicator SD card*/
 139:lib_MyDelay/myDelay.c ****     if(SDinsert_Read() == 0)
 175              		.loc 1 139 0
 176 00ac FFF7FEFF 		bl	SDinsert_Read
 177              	.LVL23:
 178 00b0 071E     		sub	r7, r0, #0
 179 00b2 03D1     		bne	.L11
 140:lib_MyDelay/myDelay.c ****     {
 141:lib_MyDelay/myDelay.c ****         DisplayIndicatorSD(SD_INSERT);
 180              		.loc 1 141 0
 181 00b4 FFF7FEFF 		bl	DisplayIndicatorSD
 182              	.LVL24:
 142:lib_MyDelay/myDelay.c ****         BLE_sendSDcardStatus(STATUS_OK);
 183              		.loc 1 142 0
 184 00b8 381C     		mov	r0, r7
 185 00ba 03E0     		b	.L20
 186              	.L11:
 143:lib_MyDelay/myDelay.c ****     }
 144:lib_MyDelay/myDelay.c ****     else
 145:lib_MyDelay/myDelay.c ****     {
 146:lib_MyDelay/myDelay.c ****         DisplayIndicatorSD(SD_NO_INSERT);
 187              		.loc 1 146 0
 188 00bc 0120     		mov	r0, #1
 189 00be FFF7FEFF 		bl	DisplayIndicatorSD
 190              	.LVL25:
 147:lib_MyDelay/myDelay.c ****         BLE_sendSDcardStatus(STATUS_ERROR);
 191              		.loc 1 147 0
 192 00c2 0120     		mov	r0, #1
 193              	.L20:
ARM GAS  C:\Users\Petro\AppData\Local\Temp\cc7LCpmR.s 			page 7


 194 00c4 FFF7FEFF 		bl	BLE_sendSDcardStatus
 195              	.LVL26:
 148:lib_MyDelay/myDelay.c ****     }
 149:lib_MyDelay/myDelay.c ****     
 150:lib_MyDelay/myDelay.c ****     /*printindicator network*/
 151:lib_MyDelay/myDelay.c ****     if(NetworkStatus() == NETWORK_CONNECT)
 196              		.loc 1 151 0
 197 00c8 FFF7FEFF 		bl	NetworkStatus
 198              	.LVL27:
 199 00cc 0128     		cmp	r0, #1
 200 00ce 04D1     		bne	.L13
 152:lib_MyDelay/myDelay.c ****     {
 153:lib_MyDelay/myDelay.c ****         DisplayIndicatorNetwork(CONNECT);
 201              		.loc 1 153 0
 202 00d0 0020     		mov	r0, #0
 203 00d2 FFF7FEFF 		bl	DisplayIndicatorNetwork
 204              	.LVL28:
 154:lib_MyDelay/myDelay.c ****         BLE_sendNetworkStatus(STATUS_OK);
 205              		.loc 1 154 0
 206 00d6 0020     		mov	r0, #0
 207 00d8 03E0     		b	.L21
 208              	.L13:
 155:lib_MyDelay/myDelay.c ****     }
 156:lib_MyDelay/myDelay.c ****     else
 157:lib_MyDelay/myDelay.c ****     {
 158:lib_MyDelay/myDelay.c ****         DisplayIndicatorNetwork(DISCONNECT);
 209              		.loc 1 158 0
 210 00da 0120     		mov	r0, #1
 211 00dc FFF7FEFF 		bl	DisplayIndicatorNetwork
 212              	.LVL29:
 159:lib_MyDelay/myDelay.c ****         BLE_sendNetworkStatus(STATUS_ERROR);
 213              		.loc 1 159 0
 214 00e0 0120     		mov	r0, #1
 215              	.L21:
 216 00e2 FFF7FEFF 		bl	BLE_sendNetworkStatus
 217              	.LVL30:
 218              	.LBE21:
 219              	.LBE20:
 220              	.LBB22:
 221              	.LBB23:
 160:lib_MyDelay/myDelay.c ****     }  
 161:lib_MyDelay/myDelay.c **** }
 162:lib_MyDelay/myDelay.c **** 
 163:lib_MyDelay/myDelay.c **** static void UserFunc_4(void)
 164:lib_MyDelay/myDelay.c **** {
 165:lib_MyDelay/myDelay.c ****     /*printf real time and num skier on way*/
 166:lib_MyDelay/myDelay.c ****     
 167:lib_MyDelay/myDelay.c ****     DisplayRealTime();
 222              		.loc 1 167 0
 223 00e6 FFF7FEFF 		bl	DisplayRealTime
 224              	.LVL31:
 168:lib_MyDelay/myDelay.c ****     DisplayNumSkierOnWay(SkierOnWay());   
 225              		.loc 1 168 0
 226 00ea FFF7FEFF 		bl	SkierOnWay
 227              	.LVL32:
 228 00ee FFF7FEFF 		bl	DisplayNumSkierOnWay
 229              	.LVL33:
ARM GAS  C:\Users\Petro\AppData\Local\Temp\cc7LCpmR.s 			page 8


 169:lib_MyDelay/myDelay.c ****     DisplayBattVoltage(ReadBattVoltage());
 230              		.loc 1 169 0
 231 00f2 FFF7FEFF 		bl	ReadBattVoltage
 232              	.LVL34:
 233 00f6 FFF7FEFF 		bl	DisplayBattVoltage
 234              	.LVL35:
 235              	.LBE23:
 236              	.LBE22:
 237              	.LBB24:
 238              	.LBB25:
 170:lib_MyDelay/myDelay.c **** }
 171:lib_MyDelay/myDelay.c **** 
 172:lib_MyDelay/myDelay.c **** static void UserFunc_5(void)
 173:lib_MyDelay/myDelay.c **** {
 174:lib_MyDelay/myDelay.c ****     static uint32_t oldUnixTime = 0;
 175:lib_MyDelay/myDelay.c ****     uint32_t unixTime;
 176:lib_MyDelay/myDelay.c ****     
 177:lib_MyDelay/myDelay.c ****     BLE_processEvents();
 239              		.loc 1 177 0
 240 00fa FFF7FEFF 		bl	BLE_processEvents
 241              	.LVL36:
 178:lib_MyDelay/myDelay.c ****     
 179:lib_MyDelay/myDelay.c ****     unixTime = BLE_getUnixTime();
 242              		.loc 1 179 0
 243 00fe FFF7FEFF 		bl	BLE_getUnixTime
 244              	.LVL37:
 180:lib_MyDelay/myDelay.c ****     if(oldUnixTime != unixTime)
 245              		.loc 1 180 0
 246 0102 6368     		ldr	r3, [r4, #4]
 179:lib_MyDelay/myDelay.c ****     if(oldUnixTime != unixTime)
 247              		.loc 1 179 0
 248 0104 071C     		mov	r7, r0
 249              	.LVL38:
 250              		.loc 1 180 0
 251 0106 8342     		cmp	r3, r0
 252 0108 09D0     		beq	.L15
 181:lib_MyDelay/myDelay.c ****     {
 182:lib_MyDelay/myDelay.c ****         /*set unix time in RTC DS1307*/
 183:lib_MyDelay/myDelay.c ****         DS1307_SetUnixTime(unixTime);
 253              		.loc 1 183 0
 254 010a 0021     		mov	r1, #0
 255 010c FFF7FEFF 		bl	DS1307_SetUnixTime
 256              	.LVL39:
 184:lib_MyDelay/myDelay.c ****         RTC_SetUnixTime(unixTime);
 257              		.loc 1 184 0
 258 0110 381C     		mov	r0, r7
 259 0112 0021     		mov	r1, #0
 260 0114 FFF7FEFF 		bl	RTC_SetUnixTime
 261              	.LVL40:
 185:lib_MyDelay/myDelay.c ****         oldUnixTime = unixTime;
 262              		.loc 1 185 0
 263 0118 6760     		str	r7, [r4, #4]
 186:lib_MyDelay/myDelay.c ****         
 187:lib_MyDelay/myDelay.c ****         SetRebootFlag();
 264              		.loc 1 187 0
 265 011a FFF7FEFF 		bl	SetRebootFlag
 266              	.LVL41:
ARM GAS  C:\Users\Petro\AppData\Local\Temp\cc7LCpmR.s 			page 9


 267              	.L15:
 268              	.LBE25:
 269              	.LBE24:
  65:lib_MyDelay/myDelay.c ****                             
 270              		.loc 1 65 0
 271 011e 9620     		mov	r0, #150
 272 0120 FFF7FEFF 		bl	CyDelay
 273              	.LVL42:
  67:lib_MyDelay/myDelay.c ****             runTime = (period -  counter);
 274              		.loc 1 67 0
 275 0124 FFF7FEFF 		bl	AppDelay_ReadCounter
 276              	.LVL43:
  68:lib_MyDelay/myDelay.c ****             
 277              		.loc 1 68 0
 278 0128 341A     		sub	r4, r6, r0
 279              	.LVL44:
 280 012a 77E7     		b	.L4
 281              	.LVL45:
 282              	.L22:
  82:lib_MyDelay/myDelay.c ****         }
 283              		.loc 1 82 0
 284 012c FFF7FEFF 		bl	CyDelay
 285              	.LVL46:
 286              	.L1:
 287              	.LBE14:
  85:lib_MyDelay/myDelay.c **** 
 288              		.loc 1 85 0
 289 0130 21B0     		add	sp, sp, #132
 290              		@ sp needed
 291              	.LVL47:
 292 0132 F0BD     		pop	{r4, r5, r6, r7, pc}
 293              	.L25:
 294              		.align	2
 295              	.L24:
 296 0134 00000000 		.word	.LANCHOR0
 297              		.cfi_endproc
 298              	.LFE63:
 299              		.size	MyDelay, .-MyDelay
 300              		.bss
 301              		.align	2
 302              		.set	.LANCHOR0,. + 0
 303              		.type	writeFlag, %object
 304              		.size	writeFlag, 2
 305              	writeFlag:
 306 0000 0000     		.space	2
 307 0002 0000     		.space	2
 308              		.type	oldUnixTime.8206, %object
 309              		.size	oldUnixTime.8206, 4
 310              	oldUnixTime.8206:
 311 0004 00000000 		.space	4
 312              		.text
 313              	.Letext0:
 314              		.file 2 "c:\\program files (x86)\\cypress\\psoc creator\\4.0\\psoc creator\\import\\gnu\\arm\\4.9.
 315              		.file 3 "c:\\program files (x86)\\cypress\\psoc creator\\4.0\\psoc creator\\import\\gnu\\arm\\4.9.
 316              		.file 4 "Generated_Source\\PSoC4/cytypes.h"
 317              		.file 5 "./lib_DB\\database.h"
 318              		.file 6 "./lib_Fat\\ff.h"
ARM GAS  C:\Users\Petro\AppData\Local\Temp\cc7LCpmR.s 			page 10


 319              		.file 7 "./lib_Display\\display.h"
 320              		.file 8 "Generated_Source\\PSoC4/ble_Stack.h"
 321              		.file 9 "./lib_BLE\\bluetooth.h"
 322              		.file 10 "./lib_Network\\network.h"
 323              		.file 11 "./lib_DB\\logResult.h"
 324              		.file 12 "Generated_Source\\PSoC4/SDinsert.h"
 325              		.file 13 "./lib_Batt\\batt.h"
 326              		.file 14 "./lib_DS1307\\DS1307.h"
 327              		.file 15 "Generated_Source\\PSoC4/RTC.h"
 328              		.file 16 "Generated_Source\\PSoC4/AppDelay.h"
 329              		.file 17 "Generated_Source\\PSoC4/CyLib.h"