ARM GAS  C:\Users\Petro\AppData\Local\Temp\ccbTrpgq.s 			page 1


   1              		.cpu cortex-m0
   2              		.fpu softvfp
   3              		.eabi_attribute 20, 1
   4              		.eabi_attribute 21, 1
   5              		.eabi_attribute 23, 3
   6              		.eabi_attribute 24, 1
   7              		.eabi_attribute 25, 1
   8              		.eabi_attribute 26, 1
   9              		.eabi_attribute 30, 4
  10              		.eabi_attribute 34, 0
  11              		.eabi_attribute 18, 4
  12              		.code	16
  13              		.file	"ntp.c"
  14              		.text
  15              	.Ltext0:
  16              		.cfi_sections	.debug_frame
  17              		.section	.text.NtpDecodeByte,"ax",%progbits
  18              		.align	1
  19              		.global	NtpDecodeByte
  20              		.code	16
  21              		.thumb_func
  22              		.type	NtpDecodeByte, %function
  23              	NtpDecodeByte:
  24              	.LFB1:
  25              		.file 1 "lib_Network\\ntp.c"
   1:lib_Network/ntp.c **** #include "ntp.h"
   2:lib_Network/ntp.c **** 
   3:lib_Network/ntp.c **** enum NTP_STATES 
   4:lib_Network/ntp.c **** {
   5:lib_Network/ntp.c **** 	NTP_WAIT_STX,
   6:lib_Network/ntp.c **** 	NTP_READ_ID,
   7:lib_Network/ntp.c **** 	NTP_READ_FR1,
   8:lib_Network/ntp.c **** 	NTP_READ_DA1,
   9:lib_Network/ntp.c **** 	NTP_READ_DM1,	
  10:lib_Network/ntp.c **** 	NTP_READ_DA2,
  11:lib_Network/ntp.c **** 	NTP_READ_DM2,
  12:lib_Network/ntp.c **** 	NTP_READ_FR2,
  13:lib_Network/ntp.c **** 	NTP_READ_CHS,
  14:lib_Network/ntp.c **** 	NTP_READ_ETX
  15:lib_Network/ntp.c **** };
  16:lib_Network/ntp.c **** 
  17:lib_Network/ntp.c **** #define NTP_LEN_ID  4
  18:lib_Network/ntp.c **** #define NTP_LEN_DA1 8
  19:lib_Network/ntp.c **** #define NTP_LEN_DM1 3
  20:lib_Network/ntp.c **** #define NTP_LEN_DA2 8
  21:lib_Network/ntp.c **** #define NTP_LEN_DM2 3
  22:lib_Network/ntp.c **** #define NTP_LEN_CHS 8
  23:lib_Network/ntp.c **** 
  24:lib_Network/ntp.c **** #define HALF_BYTE 4
  25:lib_Network/ntp.c **** 
  26:lib_Network/ntp.c **** #define NTP_STX '<'
  27:lib_Network/ntp.c **** #define NTP_ETX '>'
  28:lib_Network/ntp.c **** #define NTP_FR1 '!'
  29:lib_Network/ntp.c **** #define NTP_FR2 '@'
  30:lib_Network/ntp.c **** 
  31:lib_Network/ntp.c **** uint8_t NtpLenD1, NtpLenMsD1, NtpLenD2, NtpLenMsD2, NtpLenId, NtpLenChS;
  32:lib_Network/ntp.c **** 
ARM GAS  C:\Users\Petro\AppData\Local\Temp\ccbTrpgq.s 			page 2


  33:lib_Network/ntp.c **** uint8_t NtpDecodeByte(uint8_t Inp);
  34:lib_Network/ntp.c **** uint8_t NtpCheckSymb(uint8_t Inp);
  35:lib_Network/ntp.c **** void 	NtpResetPacket(NtpResp *Data);
  36:lib_Network/ntp.c **** 
  37:lib_Network/ntp.c **** uint8_t NTP_STATE = 0;
  38:lib_Network/ntp.c **** 
  39:lib_Network/ntp.c **** uint8_t NtpUnpackData(NtpResp *Data, uint8_t InByte)
  40:lib_Network/ntp.c **** {
  41:lib_Network/ntp.c **** 	uint8_t RecvB = InByte;
  42:lib_Network/ntp.c **** 	uint32_t ERR_CODE = 0;
  43:lib_Network/ntp.c **** 	InByte = NtpDecodeByte(InByte);
  44:lib_Network/ntp.c **** 
  45:lib_Network/ntp.c **** 	//printf("State: %X -- %d\n", InByte, NTP_STATE);
  46:lib_Network/ntp.c **** 	switch(NTP_STATE){
  47:lib_Network/ntp.c **** 		case NTP_WAIT_STX: 
  48:lib_Network/ntp.c **** 		{
  49:lib_Network/ntp.c **** 			NtpResetPacket(Data);
  50:lib_Network/ntp.c **** 			NtpLenId = 0;
  51:lib_Network/ntp.c **** 			NtpLenChS = 0;
  52:lib_Network/ntp.c **** 			NtpLenD1 = 0;
  53:lib_Network/ntp.c ****             NtpLenMsD1 = 0;
  54:lib_Network/ntp.c ****             NtpLenMsD2 = 0;
  55:lib_Network/ntp.c **** 			NtpLenD2 = 0;
  56:lib_Network/ntp.c **** 			if (InByte == NTP_STX)
  57:lib_Network/ntp.c **** 			{
  58:lib_Network/ntp.c **** 				NTP_STATE = NTP_READ_ID;
  59:lib_Network/ntp.c **** 			}
  60:lib_Network/ntp.c **** 			else 
  61:lib_Network/ntp.c **** 			{
  62:lib_Network/ntp.c **** 				//ERR_CODE = WAIT_FOR_PCKT;
  63:lib_Network/ntp.c **** 			}
  64:lib_Network/ntp.c **** 			break;
  65:lib_Network/ntp.c **** 		}
  66:lib_Network/ntp.c **** 		
  67:lib_Network/ntp.c **** 		case NTP_READ_ID:
  68:lib_Network/ntp.c **** 		{
  69:lib_Network/ntp.c **** 			if(NtpCheckSymb(InByte))
  70:lib_Network/ntp.c **** 			{
  71:lib_Network/ntp.c **** 				Data->Id |= InByte;
  72:lib_Network/ntp.c **** 				NtpLenId++;
  73:lib_Network/ntp.c **** 				if (NtpLenId == NTP_LEN_ID)
  74:lib_Network/ntp.c **** 				{
  75:lib_Network/ntp.c **** 					NTP_STATE = NTP_READ_FR1;
  76:lib_Network/ntp.c **** 				}
  77:lib_Network/ntp.c **** 				else
  78:lib_Network/ntp.c **** 				{
  79:lib_Network/ntp.c **** 					Data->Id = Data->Id << HALF_BYTE;
  80:lib_Network/ntp.c **** 				}
  81:lib_Network/ntp.c **** 			}
  82:lib_Network/ntp.c **** 			else{
  83:lib_Network/ntp.c **** 				NTP_STATE = NTP_WAIT_STX;
  84:lib_Network/ntp.c **** 				ERR_CODE = NTP_BAD_ID;
  85:lib_Network/ntp.c **** 			}
  86:lib_Network/ntp.c **** 			break;
  87:lib_Network/ntp.c **** 		}
  88:lib_Network/ntp.c **** 		
  89:lib_Network/ntp.c **** 		case NTP_READ_FR1:
ARM GAS  C:\Users\Petro\AppData\Local\Temp\ccbTrpgq.s 			page 3


  90:lib_Network/ntp.c **** 		{
  91:lib_Network/ntp.c **** 			if (InByte == NTP_FR1)
  92:lib_Network/ntp.c **** 			{
  93:lib_Network/ntp.c **** 				NTP_STATE = NTP_READ_DA1;
  94:lib_Network/ntp.c **** 			}
  95:lib_Network/ntp.c **** 			else
  96:lib_Network/ntp.c **** 			{
  97:lib_Network/ntp.c **** 				NtpResetPacket(Data);
  98:lib_Network/ntp.c **** 				ERR_CODE = NTP_NO_FR1;
  99:lib_Network/ntp.c **** 				NTP_STATE = NTP_WAIT_STX;
 100:lib_Network/ntp.c **** 			}
 101:lib_Network/ntp.c **** 			break;
 102:lib_Network/ntp.c **** 		}
 103:lib_Network/ntp.c **** 		case NTP_READ_DA1:
 104:lib_Network/ntp.c **** 		{
 105:lib_Network/ntp.c **** 
 106:lib_Network/ntp.c **** 			if(NtpCheckSymb(InByte))
 107:lib_Network/ntp.c **** 			{
 108:lib_Network/ntp.c **** 				Data->Data1 |= InByte;
 109:lib_Network/ntp.c **** 				NtpLenD1++;
 110:lib_Network/ntp.c **** 				if (NtpLenD1 == NTP_LEN_DA1)
 111:lib_Network/ntp.c **** 				{
 112:lib_Network/ntp.c **** 					NTP_STATE = NTP_READ_DM1;
 113:lib_Network/ntp.c **** 				}
 114:lib_Network/ntp.c **** 				else
 115:lib_Network/ntp.c **** 				{
 116:lib_Network/ntp.c **** 					Data->Data1 = Data->Data1 << HALF_BYTE;
 117:lib_Network/ntp.c **** 				}
 118:lib_Network/ntp.c **** 			}
 119:lib_Network/ntp.c **** 			else{
 120:lib_Network/ntp.c **** 				NtpResetPacket(Data);
 121:lib_Network/ntp.c **** 				ERR_CODE = NTP_INV_DA1;
 122:lib_Network/ntp.c **** 				NTP_STATE = NTP_WAIT_STX;
 123:lib_Network/ntp.c **** 			}
 124:lib_Network/ntp.c **** 			break;
 125:lib_Network/ntp.c **** 		}
 126:lib_Network/ntp.c **** 		case NTP_READ_DM1:
 127:lib_Network/ntp.c **** 		{
 128:lib_Network/ntp.c **** 
 129:lib_Network/ntp.c **** 			if(NtpCheckSymb(InByte))
 130:lib_Network/ntp.c **** 			{
 131:lib_Network/ntp.c **** 				Data->DataMs1 |= InByte;
 132:lib_Network/ntp.c **** 				NtpLenMsD1++;
 133:lib_Network/ntp.c **** 				if (NtpLenMsD1 == NTP_LEN_DM1)
 134:lib_Network/ntp.c **** 				{
 135:lib_Network/ntp.c **** 					NTP_STATE = NTP_READ_DA2;
 136:lib_Network/ntp.c **** 				}
 137:lib_Network/ntp.c **** 				else
 138:lib_Network/ntp.c **** 				{
 139:lib_Network/ntp.c **** 					Data->DataMs1 = Data->DataMs1 << HALF_BYTE;
 140:lib_Network/ntp.c **** 				}
 141:lib_Network/ntp.c **** 			}
 142:lib_Network/ntp.c **** 			else{
 143:lib_Network/ntp.c **** 				NtpResetPacket(Data);
 144:lib_Network/ntp.c **** 				ERR_CODE = NTP_INV_DM1;
 145:lib_Network/ntp.c **** 				NTP_STATE = NTP_WAIT_STX;
 146:lib_Network/ntp.c **** 			}
ARM GAS  C:\Users\Petro\AppData\Local\Temp\ccbTrpgq.s 			page 4


 147:lib_Network/ntp.c **** 			break;
 148:lib_Network/ntp.c **** 		}
 149:lib_Network/ntp.c **** 		case NTP_READ_DA2:
 150:lib_Network/ntp.c **** 		{			
 151:lib_Network/ntp.c **** 			if(NtpCheckSymb(InByte))
 152:lib_Network/ntp.c **** 			{
 153:lib_Network/ntp.c **** 				//printf("DATA2: %X -- %X\n", InByte, Data->Data2);
 154:lib_Network/ntp.c **** 				Data->Data2 |= InByte;
 155:lib_Network/ntp.c **** 				NtpLenD2++;
 156:lib_Network/ntp.c **** 				if (NtpLenD2 == NTP_LEN_DA2)
 157:lib_Network/ntp.c **** 				{
 158:lib_Network/ntp.c **** 					NTP_STATE = NTP_READ_DM2;
 159:lib_Network/ntp.c **** 				}
 160:lib_Network/ntp.c **** 				else
 161:lib_Network/ntp.c **** 				{
 162:lib_Network/ntp.c **** 					Data->Data2 = Data->Data2 << HALF_BYTE;
 163:lib_Network/ntp.c **** 				}
 164:lib_Network/ntp.c **** 			}
 165:lib_Network/ntp.c **** 			else{
 166:lib_Network/ntp.c **** 				NtpResetPacket(Data);
 167:lib_Network/ntp.c **** 				ERR_CODE = NTP_INV_DA2;
 168:lib_Network/ntp.c **** 				NTP_STATE = NTP_WAIT_STX;
 169:lib_Network/ntp.c **** 			}
 170:lib_Network/ntp.c **** 			break;
 171:lib_Network/ntp.c **** 		}
 172:lib_Network/ntp.c **** 		case NTP_READ_DM2:
 173:lib_Network/ntp.c **** 		{
 174:lib_Network/ntp.c **** 
 175:lib_Network/ntp.c **** 			if(NtpCheckSymb(InByte))
 176:lib_Network/ntp.c **** 			{
 177:lib_Network/ntp.c **** 				Data->DataMs2 |= InByte;
 178:lib_Network/ntp.c **** 				NtpLenMsD2++;
 179:lib_Network/ntp.c **** 				if (NtpLenMsD2 == NTP_LEN_DM2)
 180:lib_Network/ntp.c **** 				{
 181:lib_Network/ntp.c **** 					NTP_STATE = NTP_READ_FR2;
 182:lib_Network/ntp.c **** 				}
 183:lib_Network/ntp.c **** 				else
 184:lib_Network/ntp.c **** 				{
 185:lib_Network/ntp.c **** 					Data->DataMs2 = Data->DataMs2 << HALF_BYTE;
 186:lib_Network/ntp.c **** 				}
 187:lib_Network/ntp.c **** 			}
 188:lib_Network/ntp.c **** 			else{
 189:lib_Network/ntp.c **** 				NtpResetPacket(Data);
 190:lib_Network/ntp.c **** 				ERR_CODE = NTP_INV_DM2;
 191:lib_Network/ntp.c **** 				NTP_STATE = NTP_WAIT_STX;
 192:lib_Network/ntp.c **** 			}
 193:lib_Network/ntp.c **** 			break;
 194:lib_Network/ntp.c **** 		}
 195:lib_Network/ntp.c **** 		case NTP_READ_FR2:
 196:lib_Network/ntp.c **** 		{
 197:lib_Network/ntp.c **** 			if (InByte == NTP_FR2)
 198:lib_Network/ntp.c **** 			{
 199:lib_Network/ntp.c **** 				NTP_STATE = NTP_READ_CHS;
 200:lib_Network/ntp.c **** 			}
 201:lib_Network/ntp.c **** 			else
 202:lib_Network/ntp.c **** 			{
 203:lib_Network/ntp.c **** 				NtpResetPacket(Data);
ARM GAS  C:\Users\Petro\AppData\Local\Temp\ccbTrpgq.s 			page 5


 204:lib_Network/ntp.c **** 				ERR_CODE = NTP_NO_FR2;
 205:lib_Network/ntp.c **** 				NTP_STATE = NTP_WAIT_STX;
 206:lib_Network/ntp.c **** 			}
 207:lib_Network/ntp.c **** 			break;
 208:lib_Network/ntp.c **** 		}
 209:lib_Network/ntp.c **** 
 210:lib_Network/ntp.c **** 		case NTP_READ_CHS:
 211:lib_Network/ntp.c **** 		{
 212:lib_Network/ntp.c **** 			if(NtpCheckSymb(InByte))
 213:lib_Network/ntp.c **** 			{
 214:lib_Network/ntp.c **** 				Data->CheckSum |= InByte;
 215:lib_Network/ntp.c **** 				NtpLenChS++;
 216:lib_Network/ntp.c **** 				if (NtpLenChS == NTP_LEN_CHS)
 217:lib_Network/ntp.c **** 				{
 218:lib_Network/ntp.c **** 					NTP_STATE = NTP_READ_ETX;
 219:lib_Network/ntp.c **** 				}
 220:lib_Network/ntp.c **** 				else
 221:lib_Network/ntp.c **** 				{
 222:lib_Network/ntp.c **** 					Data->CheckSum = Data->CheckSum << HALF_BYTE;
 223:lib_Network/ntp.c **** 				}
 224:lib_Network/ntp.c **** 			}
 225:lib_Network/ntp.c **** 			else
 226:lib_Network/ntp.c **** 			{
 227:lib_Network/ntp.c **** 				NtpResetPacket(Data);
 228:lib_Network/ntp.c **** 				ERR_CODE = NTP_INV_CKECKSUM;
 229:lib_Network/ntp.c **** 				NTP_STATE = NTP_WAIT_STX;
 230:lib_Network/ntp.c **** 			}
 231:lib_Network/ntp.c **** 			break;
 232:lib_Network/ntp.c **** 		}
 233:lib_Network/ntp.c **** 		case NTP_READ_ETX:
 234:lib_Network/ntp.c **** 		{
 235:lib_Network/ntp.c **** 			if (InByte == NTP_ETX)
 236:lib_Network/ntp.c **** 			{
 237:lib_Network/ntp.c **** 				Data->EndPacket = 1;
 238:lib_Network/ntp.c **** 				ERR_CODE = NTP_PARSED_OK;
 239:lib_Network/ntp.c **** 
 240:lib_Network/ntp.c **** 			}
 241:lib_Network/ntp.c **** 			else{
 242:lib_Network/ntp.c **** 				ERR_CODE = NTP_NO_ETX;
 243:lib_Network/ntp.c **** 				NtpResetPacket(Data);
 244:lib_Network/ntp.c **** 			}
 245:lib_Network/ntp.c **** 			NTP_STATE = NTP_WAIT_STX;
 246:lib_Network/ntp.c **** 			break;
 247:lib_Network/ntp.c **** 		}
 248:lib_Network/ntp.c **** 	}
 249:lib_Network/ntp.c **** 	
 250:lib_Network/ntp.c **** 	/*if (Data->EndPacket)
 251:lib_Network/ntp.c **** 	{
 252:lib_Network/ntp.c **** 		char tempbuff[40];
 253:lib_Network/ntp.c **** 		sprintf(tempbuff, "%04X:%08X_%03X %08X_%03X@%08X", Data->Id, Data->Data1, Data->DataMs1, Data->Da
 254:lib_Network/ntp.c **** 		printf("ID + Data1: %s\n", tempbuff);
 255:lib_Network/ntp.c **** 	}*/
 256:lib_Network/ntp.c **** 	
 257:lib_Network/ntp.c **** 	return ERR_CODE;
 258:lib_Network/ntp.c **** 
 259:lib_Network/ntp.c **** }
 260:lib_Network/ntp.c **** 
ARM GAS  C:\Users\Petro\AppData\Local\Temp\ccbTrpgq.s 			page 6


 261:lib_Network/ntp.c **** uint8_t NtpDecodeByte(uint8_t Inp)
 262:lib_Network/ntp.c **** {
  26              		.loc 1 262 0
  27              		.cfi_startproc
  28              	.LVL0:
 263:lib_Network/ntp.c **** 	if ((Inp >= 'A') && (Inp <= 'F'))
  29              		.loc 1 263 0
  30 0000 031C     		mov	r3, r0
  31 0002 413B     		sub	r3, r3, #65
  32 0004 052B     		cmp	r3, #5
  33 0006 02D8     		bhi	.L2
 264:lib_Network/ntp.c **** 	{
 265:lib_Network/ntp.c **** 		Inp -= 0x37;
  34              		.loc 1 265 0
  35 0008 3738     		sub	r0, r0, #55
  36              	.LVL1:
  37 000a C0B2     		uxtb	r0, r0
  38              	.LVL2:
  39 000c 05E0     		b	.L3
  40              	.L2:
 266:lib_Network/ntp.c **** 	}
 267:lib_Network/ntp.c **** 	else if ((Inp >= '0') && (Inp <= '9')){
  41              		.loc 1 267 0
  42 000e 031C     		mov	r3, r0
  43 0010 303B     		sub	r3, r3, #48
  44 0012 DBB2     		uxtb	r3, r3
  45 0014 092B     		cmp	r3, #9
  46 0016 00D8     		bhi	.L3
  47 0018 181C     		mov	r0, r3
  48              	.LVL3:
  49              	.L3:
 268:lib_Network/ntp.c **** 		Inp -= 0x30;
 269:lib_Network/ntp.c **** 	}
 270:lib_Network/ntp.c **** 	return Inp;
 271:lib_Network/ntp.c **** }
  50              		.loc 1 271 0
  51              		@ sp needed
  52 001a 7047     		bx	lr
  53              		.cfi_endproc
  54              	.LFE1:
  55              		.size	NtpDecodeByte, .-NtpDecodeByte
  56              		.section	.text.NtpCheckSymb,"ax",%progbits
  57              		.align	1
  58              		.global	NtpCheckSymb
  59              		.code	16
  60              		.thumb_func
  61              		.type	NtpCheckSymb, %function
  62              	NtpCheckSymb:
  63              	.LFB2:
 272:lib_Network/ntp.c **** 
 273:lib_Network/ntp.c **** uint8_t NtpCheckSymb(uint8_t Inp)
 274:lib_Network/ntp.c **** {
  64              		.loc 1 274 0
  65              		.cfi_startproc
  66              	.LVL4:
 275:lib_Network/ntp.c **** 	uint8_t Val = 1;
 276:lib_Network/ntp.c **** 
ARM GAS  C:\Users\Petro\AppData\Local\Temp\ccbTrpgq.s 			page 7


 277:lib_Network/ntp.c **** 	if ((Inp > 0xF) || (Inp < 0x0))
  67              		.loc 1 277 0
  68 0000 0F22     		mov	r2, #15
  69 0002 0023     		mov	r3, #0
  70 0004 8242     		cmp	r2, r0
  71 0006 5B41     		adc	r3, r3, r3
 278:lib_Network/ntp.c **** 	{
 279:lib_Network/ntp.c **** 		Val = 0;
 280:lib_Network/ntp.c **** 	}
 281:lib_Network/ntp.c **** 	return Val;
 282:lib_Network/ntp.c **** }
  72              		.loc 1 282 0
  73              		@ sp needed
 281:lib_Network/ntp.c **** }
  74              		.loc 1 281 0
  75 0008 D8B2     		uxtb	r0, r3
  76              	.LVL5:
  77              		.loc 1 282 0
  78 000a 7047     		bx	lr
  79              		.cfi_endproc
  80              	.LFE2:
  81              		.size	NtpCheckSymb, .-NtpCheckSymb
  82              		.section	.text.NtpResetPacket,"ax",%progbits
  83              		.align	1
  84              		.global	NtpResetPacket
  85              		.code	16
  86              		.thumb_func
  87              		.type	NtpResetPacket, %function
  88              	NtpResetPacket:
  89              	.LFB3:
 283:lib_Network/ntp.c **** 
 284:lib_Network/ntp.c **** void NtpResetPacket(NtpResp *Data)
 285:lib_Network/ntp.c **** {
  90              		.loc 1 285 0
  91              		.cfi_startproc
  92              	.LVL6:
 286:lib_Network/ntp.c **** 	Data->Id = 0;
  93              		.loc 1 286 0
  94 0000 0023     		mov	r3, #0
 287:lib_Network/ntp.c **** 	Data->Data1 = 0;
 288:lib_Network/ntp.c ****     Data->DataMs1 = 0;
 289:lib_Network/ntp.c **** 	Data->Data2 = 0;
 290:lib_Network/ntp.c **** 	Data->DataMs2 = 0;
 291:lib_Network/ntp.c ****     Data->CheckSum = 0;
 292:lib_Network/ntp.c **** 	Data->EndPacket = 0;
 293:lib_Network/ntp.c **** }
  95              		.loc 1 293 0
  96              		@ sp needed
 286:lib_Network/ntp.c **** 	Data->Id = 0;
  97              		.loc 1 286 0
  98 0002 0380     		strh	r3, [r0]
 287:lib_Network/ntp.c **** 	Data->Data1 = 0;
  99              		.loc 1 287 0
 100 0004 4360     		str	r3, [r0, #4]
 288:lib_Network/ntp.c **** 	Data->Data2 = 0;
 101              		.loc 1 288 0
 102 0006 0381     		strh	r3, [r0, #8]
ARM GAS  C:\Users\Petro\AppData\Local\Temp\ccbTrpgq.s 			page 8


 289:lib_Network/ntp.c **** 	Data->DataMs2 = 0;
 103              		.loc 1 289 0
 104 0008 C360     		str	r3, [r0, #12]
 290:lib_Network/ntp.c ****     Data->CheckSum = 0;
 105              		.loc 1 290 0
 106 000a 4381     		strh	r3, [r0, #10]
 291:lib_Network/ntp.c **** 	Data->EndPacket = 0;
 107              		.loc 1 291 0
 108 000c 0361     		str	r3, [r0, #16]
 292:lib_Network/ntp.c **** }
 109              		.loc 1 292 0
 110 000e 0375     		strb	r3, [r0, #20]
 111              		.loc 1 293 0
 112 0010 7047     		bx	lr
 113              		.cfi_endproc
 114              	.LFE3:
 115              		.size	NtpResetPacket, .-NtpResetPacket
 116              		.section	.text.NtpUnpackData,"ax",%progbits
 117              		.align	1
 118              		.global	NtpUnpackData
 119              		.code	16
 120              		.thumb_func
 121              		.type	NtpUnpackData, %function
 122              	NtpUnpackData:
 123              	.LFB0:
  40:lib_Network/ntp.c **** 	uint8_t RecvB = InByte;
 124              		.loc 1 40 0
 125              		.cfi_startproc
 126              	.LVL7:
 127 0000 F8B5     		push	{r3, r4, r5, r6, r7, lr}
 128              		.cfi_def_cfa_offset 24
 129              		.cfi_offset 3, -24
 130              		.cfi_offset 4, -20
 131              		.cfi_offset 5, -16
 132              		.cfi_offset 6, -12
 133              		.cfi_offset 7, -8
 134              		.cfi_offset 14, -4
  40:lib_Network/ntp.c **** 	uint8_t RecvB = InByte;
 135              		.loc 1 40 0
 136 0002 041C     		mov	r4, r0
  43:lib_Network/ntp.c **** 
 137              		.loc 1 43 0
 138 0004 081C     		mov	r0, r1
 139              	.LVL8:
 140 0006 FFF7FEFF 		bl	NtpDecodeByte
 141              	.LVL9:
  46:lib_Network/ntp.c **** 		case NTP_WAIT_STX: 
 142              		.loc 1 46 0
 143 000a 6D4D     		ldr	r5, .L72
  43:lib_Network/ntp.c **** 
 144              		.loc 1 43 0
 145 000c 061C     		mov	r6, r0
 146              	.LVL10:
  46:lib_Network/ntp.c **** 		case NTP_WAIT_STX: 
 147              		.loc 1 46 0
 148 000e 2878     		ldrb	r0, [r5]
  42:lib_Network/ntp.c **** 	InByte = NtpDecodeByte(InByte);
ARM GAS  C:\Users\Petro\AppData\Local\Temp\ccbTrpgq.s 			page 9


 149              		.loc 1 42 0
 150 0010 0023     		mov	r3, #0
  46:lib_Network/ntp.c **** 		case NTP_WAIT_STX: 
 151              		.loc 1 46 0
 152 0012 0928     		cmp	r0, #9
 153 0014 00D9     		bls	.LCB104
 154 0016 D0E0     		b	.L8	@long jump
 155              	.LCB104:
 156 0018 1F1C     		mov	r7, r3
 157 001a FFF7FEFF 		bl	__gnu_thumb1_case_uqi
 158              	.L10:
 159 001e 05       		.byte	(.L9-.L10)/2
 160 001f 1A       		.byte	(.L11-.L10)/2
 161 0020 1D       		.byte	(.L12-.L10)/2
 162 0021 27       		.byte	(.L13-.L10)/2
 163 0022 30       		.byte	(.L14-.L10)/2
 164 0023 39       		.byte	(.L15-.L10)/2
 165 0024 42       		.byte	(.L16-.L10)/2
 166 0025 4B       		.byte	(.L17-.L10)/2
 167 0026 57       		.byte	(.L18-.L10)/2
 168 0027 5E       		.byte	(.L19-.L10)/2
 169              		.p2align 1
 170              	.L9:
  49:lib_Network/ntp.c **** 			NtpLenId = 0;
 171              		.loc 1 49 0
 172 0028 201C     		mov	r0, r4
 173 002a FFF7FEFF 		bl	NtpResetPacket
 174              	.LVL11:
  50:lib_Network/ntp.c **** 			NtpLenChS = 0;
 175              		.loc 1 50 0
 176 002e 654B     		ldr	r3, .L72+4
  58:lib_Network/ntp.c **** 			}
 177              		.loc 1 58 0
 178 0030 0122     		mov	r2, #1
  50:lib_Network/ntp.c **** 			NtpLenChS = 0;
 179              		.loc 1 50 0
 180 0032 1F70     		strb	r7, [r3]
  51:lib_Network/ntp.c **** 			NtpLenD1 = 0;
 181              		.loc 1 51 0
 182 0034 644B     		ldr	r3, .L72+8
 183 0036 1F70     		strb	r7, [r3]
  52:lib_Network/ntp.c ****             NtpLenMsD1 = 0;
 184              		.loc 1 52 0
 185 0038 644B     		ldr	r3, .L72+12
 186 003a 1F70     		strb	r7, [r3]
  53:lib_Network/ntp.c ****             NtpLenMsD2 = 0;
 187              		.loc 1 53 0
 188 003c 644B     		ldr	r3, .L72+16
 189 003e 1F70     		strb	r7, [r3]
  54:lib_Network/ntp.c **** 			NtpLenD2 = 0;
 190              		.loc 1 54 0
 191 0040 644B     		ldr	r3, .L72+20
 192 0042 1F70     		strb	r7, [r3]
  55:lib_Network/ntp.c **** 			if (InByte == NTP_STX)
 193              		.loc 1 55 0
 194 0044 644B     		ldr	r3, .L72+24
 195 0046 1F70     		strb	r7, [r3]
ARM GAS  C:\Users\Petro\AppData\Local\Temp\ccbTrpgq.s 			page 10


  42:lib_Network/ntp.c **** 	InByte = NtpDecodeByte(InByte);
 196              		.loc 1 42 0
 197 0048 0023     		mov	r3, #0
  56:lib_Network/ntp.c **** 			{
 198              		.loc 1 56 0
 199 004a 3C2E     		cmp	r6, #60
 200 004c 00D0     		beq	.LCB130
 201 004e B4E0     		b	.L8	@long jump
 202              	.LCB130:
 203 0050 4EE0     		b	.L64
 204              	.L11:
 205              	.LVL12:
 206              	.LBB14:
 207              	.LBB15:
 277:lib_Network/ntp.c **** 	{
 208              		.loc 1 277 0
 209 0052 0F2E     		cmp	r6, #15
 210 0054 5BD8     		bhi	.L20
 211 0056 4DE0     		b	.L66
 212              	.LVL13:
 213              	.L12:
 214 0058 0027     		mov	r7, #0
 215              	.LBE15:
 216              	.LBE14:
  93:lib_Network/ntp.c **** 			}
 217              		.loc 1 93 0
 218 005a 0323     		mov	r3, #3
  91:lib_Network/ntp.c **** 			{
 219              		.loc 1 91 0
 220 005c 212E     		cmp	r6, #33
 221 005e 2DD0     		beq	.L65
  97:lib_Network/ntp.c **** 				ERR_CODE = NTP_NO_FR1;
 222              		.loc 1 97 0
 223 0060 201C     		mov	r0, r4
 224 0062 FFF7FEFF 		bl	NtpResetPacket
 225              	.LVL14:
  99:lib_Network/ntp.c **** 			}
 226              		.loc 1 99 0
 227 0066 2F70     		strb	r7, [r5]
  98:lib_Network/ntp.c **** 				NTP_STATE = NTP_WAIT_STX;
 228              		.loc 1 98 0
 229 0068 0223     		mov	r3, #2
 230 006a A6E0     		b	.L8
 231              	.LVL15:
 232              	.L13:
 233              	.LBB16:
 234              	.LBB17:
 277:lib_Network/ntp.c **** 	{
 235              		.loc 1 277 0
 236 006c 0F2E     		cmp	r6, #15
 237 006e 51D9     		bls	.L67
 238              	.LVL16:
 239              	.LBE17:
 240              	.LBE16:
 120:lib_Network/ntp.c **** 				ERR_CODE = NTP_INV_DA1;
 241              		.loc 1 120 0
 242 0070 201C     		mov	r0, r4
ARM GAS  C:\Users\Petro\AppData\Local\Temp\ccbTrpgq.s 			page 11


 243 0072 FFF7FEFF 		bl	NtpResetPacket
 244              	.LVL17:
 122:lib_Network/ntp.c **** 			}
 245              		.loc 1 122 0
 246 0076 0023     		mov	r3, #0
 247 0078 2B70     		strb	r3, [r5]
 121:lib_Network/ntp.c **** 				NTP_STATE = NTP_WAIT_STX;
 248              		.loc 1 121 0
 249 007a 0333     		add	r3, r3, #3
 250 007c 9DE0     		b	.L8
 251              	.LVL18:
 252              	.L14:
 253              	.LBB18:
 254              	.LBB19:
 277:lib_Network/ntp.c **** 	{
 255              		.loc 1 277 0
 256 007e 0F2E     		cmp	r6, #15
 257 0080 57D9     		bls	.L68
 258              	.LVL19:
 259              	.LBE19:
 260              	.LBE18:
 143:lib_Network/ntp.c **** 				ERR_CODE = NTP_INV_DM1;
 261              		.loc 1 143 0
 262 0082 201C     		mov	r0, r4
 263 0084 FFF7FEFF 		bl	NtpResetPacket
 264              	.LVL20:
 145:lib_Network/ntp.c **** 			}
 265              		.loc 1 145 0
 266 0088 0023     		mov	r3, #0
 267 008a 2B70     		strb	r3, [r5]
 144:lib_Network/ntp.c **** 				NTP_STATE = NTP_WAIT_STX;
 268              		.loc 1 144 0
 269 008c 0433     		add	r3, r3, #4
 270 008e 94E0     		b	.L8
 271              	.LVL21:
 272              	.L15:
 273              	.LBB20:
 274              	.LBB21:
 277:lib_Network/ntp.c **** 	{
 275              		.loc 1 277 0
 276 0090 0F2E     		cmp	r6, #15
 277 0092 5ED9     		bls	.L69
 278              	.LVL22:
 279              	.LBE21:
 280              	.LBE20:
 166:lib_Network/ntp.c **** 				ERR_CODE = NTP_INV_DA2;
 281              		.loc 1 166 0
 282 0094 201C     		mov	r0, r4
 283 0096 FFF7FEFF 		bl	NtpResetPacket
 284              	.LVL23:
 168:lib_Network/ntp.c **** 			}
 285              		.loc 1 168 0
 286 009a 0023     		mov	r3, #0
 287 009c 2B70     		strb	r3, [r5]
 167:lib_Network/ntp.c **** 				NTP_STATE = NTP_WAIT_STX;
 288              		.loc 1 167 0
 289 009e 0533     		add	r3, r3, #5
ARM GAS  C:\Users\Petro\AppData\Local\Temp\ccbTrpgq.s 			page 12


 290 00a0 8BE0     		b	.L8
 291              	.LVL24:
 292              	.L16:
 293              	.LBB22:
 294              	.LBB23:
 277:lib_Network/ntp.c **** 	{
 295              		.loc 1 277 0
 296 00a2 0F2E     		cmp	r6, #15
 297 00a4 64D9     		bls	.L70
 298              	.LVL25:
 299              	.LBE23:
 300              	.LBE22:
 189:lib_Network/ntp.c **** 				ERR_CODE = NTP_INV_DM2;
 301              		.loc 1 189 0
 302 00a6 201C     		mov	r0, r4
 303 00a8 FFF7FEFF 		bl	NtpResetPacket
 304              	.LVL26:
 191:lib_Network/ntp.c **** 			}
 305              		.loc 1 191 0
 306 00ac 0023     		mov	r3, #0
 307 00ae 2B70     		strb	r3, [r5]
 190:lib_Network/ntp.c **** 				NTP_STATE = NTP_WAIT_STX;
 308              		.loc 1 190 0
 309 00b0 0633     		add	r3, r3, #6
 310 00b2 82E0     		b	.L8
 311              	.LVL27:
 312              	.L17:
 313 00b4 0027     		mov	r7, #0
 197:lib_Network/ntp.c **** 			{
 314              		.loc 1 197 0
 315 00b6 402E     		cmp	r6, #64
 316 00b8 02D1     		bne	.L31
 199:lib_Network/ntp.c **** 			}
 317              		.loc 1 199 0
 318 00ba 0823     		mov	r3, #8
 319              	.LVL28:
 320              	.L65:
 321 00bc 2B70     		strb	r3, [r5]
 322 00be 0AE0     		b	.L63
 323              	.LVL29:
 324              	.L31:
 203:lib_Network/ntp.c **** 				ERR_CODE = NTP_NO_FR2;
 325              		.loc 1 203 0
 326 00c0 201C     		mov	r0, r4
 327 00c2 FFF7FEFF 		bl	NtpResetPacket
 328              	.LVL30:
 205:lib_Network/ntp.c **** 			}
 329              		.loc 1 205 0
 330 00c6 2F70     		strb	r7, [r5]
 204:lib_Network/ntp.c **** 				NTP_STATE = NTP_WAIT_STX;
 331              		.loc 1 204 0
 332 00c8 0723     		mov	r3, #7
 333 00ca 76E0     		b	.L8
 334              	.LVL31:
 335              	.L18:
 336              	.LBB24:
 337              	.LBB25:
ARM GAS  C:\Users\Petro\AppData\Local\Temp\ccbTrpgq.s 			page 13


 277:lib_Network/ntp.c **** 	{
 338              		.loc 1 277 0
 339 00cc 0F2E     		cmp	r6, #15
 340 00ce 6ED8     		bhi	.L32
 341 00d0 5EE0     		b	.L71
 342              	.LVL32:
 343              	.L57:
 344              	.LBE25:
 345              	.LBE24:
  79:lib_Network/ntp.c **** 				}
 346              		.loc 1 79 0
 347 00d2 3601     		lsl	r6, r6, #4
 348 00d4 2680     		strh	r6, [r4]
 349              	.LVL33:
 350              	.L63:
  42:lib_Network/ntp.c **** 	InByte = NtpDecodeByte(InByte);
 351              		.loc 1 42 0
 352 00d6 0023     		mov	r3, #0
 353 00d8 6FE0     		b	.L8
 354              	.LVL34:
 355              	.L19:
 235:lib_Network/ntp.c **** 			{
 356              		.loc 1 235 0
 357 00da 3E2E     		cmp	r6, #62
 358 00dc 03D1     		bne	.L34
 237:lib_Network/ntp.c **** 				ERR_CODE = NTP_PARSED_OK;
 359              		.loc 1 237 0
 360 00de 0123     		mov	r3, #1
 361 00e0 2375     		strb	r3, [r4, #20]
 238:lib_Network/ntp.c **** 
 362              		.loc 1 238 0
 363 00e2 0023     		mov	r3, #0
 364 00e4 03E0     		b	.L35
 365              	.L34:
 366              	.LVL35:
 243:lib_Network/ntp.c **** 			}
 367              		.loc 1 243 0
 368 00e6 201C     		mov	r0, r4
 369 00e8 FFF7FEFF 		bl	NtpResetPacket
 370              	.LVL36:
 242:lib_Network/ntp.c **** 				NtpResetPacket(Data);
 371              		.loc 1 242 0
 372 00ec 0923     		mov	r3, #9
 373              	.LVL37:
 374              	.L35:
 245:lib_Network/ntp.c **** 			break;
 375              		.loc 1 245 0
 376 00ee 0022     		mov	r2, #0
 377              	.LVL38:
 378              	.L64:
 379 00f0 2A70     		strb	r2, [r5]
 246:lib_Network/ntp.c **** 		}
 380              		.loc 1 246 0
 381 00f2 62E0     		b	.L8
 382              	.LVL39:
 383              	.L66:
  71:lib_Network/ntp.c **** 				NtpLenId++;
ARM GAS  C:\Users\Petro\AppData\Local\Temp\ccbTrpgq.s 			page 14


 384              		.loc 1 71 0
 385 00f4 2388     		ldrh	r3, [r4]
  72:lib_Network/ntp.c **** 				if (NtpLenId == NTP_LEN_ID)
 386              		.loc 1 72 0
 387 00f6 334A     		ldr	r2, .L72+4
  71:lib_Network/ntp.c **** 				NtpLenId++;
 388              		.loc 1 71 0
 389 00f8 1E43     		orr	r6, r3
 390              	.LVL40:
 391 00fa B6B2     		uxth	r6, r6
 392 00fc 2680     		strh	r6, [r4]
  72:lib_Network/ntp.c **** 				if (NtpLenId == NTP_LEN_ID)
 393              		.loc 1 72 0
 394 00fe 1378     		ldrb	r3, [r2]
 395 0100 0133     		add	r3, r3, #1
 396 0102 DBB2     		uxtb	r3, r3
 397 0104 1370     		strb	r3, [r2]
  73:lib_Network/ntp.c **** 				{
 398              		.loc 1 73 0
 399 0106 042B     		cmp	r3, #4
 400 0108 E3D1     		bne	.L57
  75:lib_Network/ntp.c **** 				}
 401              		.loc 1 75 0
 402 010a 0223     		mov	r3, #2
 403 010c D6E7     		b	.L65
 404              	.LVL41:
 405              	.L20:
  83:lib_Network/ntp.c **** 				ERR_CODE = NTP_BAD_ID;
 406              		.loc 1 83 0
 407 010e 2B70     		strb	r3, [r5]
 408              	.LVL42:
  84:lib_Network/ntp.c **** 			}
 409              		.loc 1 84 0
 410 0110 0123     		mov	r3, #1
 411 0112 52E0     		b	.L8
 412              	.LVL43:
 413              	.L67:
 108:lib_Network/ntp.c **** 				NtpLenD1++;
 414              		.loc 1 108 0
 415 0114 6368     		ldr	r3, [r4, #4]
 109:lib_Network/ntp.c **** 				if (NtpLenD1 == NTP_LEN_DA1)
 416              		.loc 1 109 0
 417 0116 2D4A     		ldr	r2, .L72+12
 108:lib_Network/ntp.c **** 				NtpLenD1++;
 418              		.loc 1 108 0
 419 0118 1E43     		orr	r6, r3
 420              	.LVL44:
 109:lib_Network/ntp.c **** 				if (NtpLenD1 == NTP_LEN_DA1)
 421              		.loc 1 109 0
 422 011a 1378     		ldrb	r3, [r2]
 108:lib_Network/ntp.c **** 				NtpLenD1++;
 423              		.loc 1 108 0
 424 011c 6660     		str	r6, [r4, #4]
 109:lib_Network/ntp.c **** 				if (NtpLenD1 == NTP_LEN_DA1)
 425              		.loc 1 109 0
 426 011e 0133     		add	r3, r3, #1
 427 0120 DBB2     		uxtb	r3, r3
ARM GAS  C:\Users\Petro\AppData\Local\Temp\ccbTrpgq.s 			page 15


 428 0122 1370     		strb	r3, [r2]
 110:lib_Network/ntp.c **** 				{
 429              		.loc 1 110 0
 430 0124 082B     		cmp	r3, #8
 431 0126 01D1     		bne	.L58
 112:lib_Network/ntp.c **** 				}
 432              		.loc 1 112 0
 433 0128 0423     		mov	r3, #4
 434 012a C7E7     		b	.L65
 435              	.L58:
 116:lib_Network/ntp.c **** 				}
 436              		.loc 1 116 0
 437 012c 3601     		lsl	r6, r6, #4
 438 012e 6660     		str	r6, [r4, #4]
 439 0130 D1E7     		b	.L63
 440              	.LVL45:
 441              	.L68:
 131:lib_Network/ntp.c **** 				NtpLenMsD1++;
 442              		.loc 1 131 0
 443 0132 2389     		ldrh	r3, [r4, #8]
 132:lib_Network/ntp.c **** 				if (NtpLenMsD1 == NTP_LEN_DM1)
 444              		.loc 1 132 0
 445 0134 264A     		ldr	r2, .L72+16
 131:lib_Network/ntp.c **** 				NtpLenMsD1++;
 446              		.loc 1 131 0
 447 0136 1E43     		orr	r6, r3
 448              	.LVL46:
 132:lib_Network/ntp.c **** 				if (NtpLenMsD1 == NTP_LEN_DM1)
 449              		.loc 1 132 0
 450 0138 1378     		ldrb	r3, [r2]
 131:lib_Network/ntp.c **** 				NtpLenMsD1++;
 451              		.loc 1 131 0
 452 013a B6B2     		uxth	r6, r6
 132:lib_Network/ntp.c **** 				if (NtpLenMsD1 == NTP_LEN_DM1)
 453              		.loc 1 132 0
 454 013c 0133     		add	r3, r3, #1
 455 013e DBB2     		uxtb	r3, r3
 131:lib_Network/ntp.c **** 				NtpLenMsD1++;
 456              		.loc 1 131 0
 457 0140 2681     		strh	r6, [r4, #8]
 132:lib_Network/ntp.c **** 				if (NtpLenMsD1 == NTP_LEN_DM1)
 458              		.loc 1 132 0
 459 0142 1370     		strb	r3, [r2]
 133:lib_Network/ntp.c **** 				{
 460              		.loc 1 133 0
 461 0144 032B     		cmp	r3, #3
 462 0146 01D1     		bne	.L59
 135:lib_Network/ntp.c **** 				}
 463              		.loc 1 135 0
 464 0148 0523     		mov	r3, #5
 465 014a B7E7     		b	.L65
 466              	.L59:
 139:lib_Network/ntp.c **** 				}
 467              		.loc 1 139 0
 468 014c 3601     		lsl	r6, r6, #4
 469 014e 2681     		strh	r6, [r4, #8]
 470 0150 C1E7     		b	.L63
ARM GAS  C:\Users\Petro\AppData\Local\Temp\ccbTrpgq.s 			page 16


 471              	.LVL47:
 472              	.L69:
 154:lib_Network/ntp.c **** 				NtpLenD2++;
 473              		.loc 1 154 0
 474 0152 E368     		ldr	r3, [r4, #12]
 155:lib_Network/ntp.c **** 				if (NtpLenD2 == NTP_LEN_DA2)
 475              		.loc 1 155 0
 476 0154 204A     		ldr	r2, .L72+24
 154:lib_Network/ntp.c **** 				NtpLenD2++;
 477              		.loc 1 154 0
 478 0156 1E43     		orr	r6, r3
 479              	.LVL48:
 155:lib_Network/ntp.c **** 				if (NtpLenD2 == NTP_LEN_DA2)
 480              		.loc 1 155 0
 481 0158 1378     		ldrb	r3, [r2]
 154:lib_Network/ntp.c **** 				NtpLenD2++;
 482              		.loc 1 154 0
 483 015a E660     		str	r6, [r4, #12]
 155:lib_Network/ntp.c **** 				if (NtpLenD2 == NTP_LEN_DA2)
 484              		.loc 1 155 0
 485 015c 0133     		add	r3, r3, #1
 486 015e DBB2     		uxtb	r3, r3
 487 0160 1370     		strb	r3, [r2]
 156:lib_Network/ntp.c **** 				{
 488              		.loc 1 156 0
 489 0162 082B     		cmp	r3, #8
 490 0164 01D1     		bne	.L60
 158:lib_Network/ntp.c **** 				}
 491              		.loc 1 158 0
 492 0166 0623     		mov	r3, #6
 493 0168 A8E7     		b	.L65
 494              	.L60:
 162:lib_Network/ntp.c **** 				}
 495              		.loc 1 162 0
 496 016a 3601     		lsl	r6, r6, #4
 497 016c E660     		str	r6, [r4, #12]
 498 016e B2E7     		b	.L63
 499              	.LVL49:
 500              	.L70:
 177:lib_Network/ntp.c **** 				NtpLenMsD2++;
 501              		.loc 1 177 0
 502 0170 6389     		ldrh	r3, [r4, #10]
 178:lib_Network/ntp.c **** 				if (NtpLenMsD2 == NTP_LEN_DM2)
 503              		.loc 1 178 0
 504 0172 184A     		ldr	r2, .L72+20
 177:lib_Network/ntp.c **** 				NtpLenMsD2++;
 505              		.loc 1 177 0
 506 0174 1E43     		orr	r6, r3
 507              	.LVL50:
 178:lib_Network/ntp.c **** 				if (NtpLenMsD2 == NTP_LEN_DM2)
 508              		.loc 1 178 0
 509 0176 1378     		ldrb	r3, [r2]
 177:lib_Network/ntp.c **** 				NtpLenMsD2++;
 510              		.loc 1 177 0
 511 0178 B6B2     		uxth	r6, r6
 178:lib_Network/ntp.c **** 				if (NtpLenMsD2 == NTP_LEN_DM2)
 512              		.loc 1 178 0
ARM GAS  C:\Users\Petro\AppData\Local\Temp\ccbTrpgq.s 			page 17


 513 017a 0133     		add	r3, r3, #1
 514 017c DBB2     		uxtb	r3, r3
 177:lib_Network/ntp.c **** 				NtpLenMsD2++;
 515              		.loc 1 177 0
 516 017e 6681     		strh	r6, [r4, #10]
 178:lib_Network/ntp.c **** 				if (NtpLenMsD2 == NTP_LEN_DM2)
 517              		.loc 1 178 0
 518 0180 1370     		strb	r3, [r2]
 179:lib_Network/ntp.c **** 				{
 519              		.loc 1 179 0
 520 0182 032B     		cmp	r3, #3
 521 0184 01D1     		bne	.L61
 181:lib_Network/ntp.c **** 				}
 522              		.loc 1 181 0
 523 0186 0723     		mov	r3, #7
 524 0188 98E7     		b	.L65
 525              	.L61:
 185:lib_Network/ntp.c **** 				}
 526              		.loc 1 185 0
 527 018a 3601     		lsl	r6, r6, #4
 528 018c 6681     		strh	r6, [r4, #10]
 529 018e A2E7     		b	.L63
 530              	.LVL51:
 531              	.L71:
 214:lib_Network/ntp.c **** 				NtpLenChS++;
 532              		.loc 1 214 0
 533 0190 2369     		ldr	r3, [r4, #16]
 215:lib_Network/ntp.c **** 				if (NtpLenChS == NTP_LEN_CHS)
 534              		.loc 1 215 0
 535 0192 0D4A     		ldr	r2, .L72+8
 214:lib_Network/ntp.c **** 				NtpLenChS++;
 536              		.loc 1 214 0
 537 0194 1E43     		orr	r6, r3
 538              	.LVL52:
 215:lib_Network/ntp.c **** 				if (NtpLenChS == NTP_LEN_CHS)
 539              		.loc 1 215 0
 540 0196 1378     		ldrb	r3, [r2]
 214:lib_Network/ntp.c **** 				NtpLenChS++;
 541              		.loc 1 214 0
 542 0198 2661     		str	r6, [r4, #16]
 215:lib_Network/ntp.c **** 				if (NtpLenChS == NTP_LEN_CHS)
 543              		.loc 1 215 0
 544 019a 0133     		add	r3, r3, #1
 545 019c DBB2     		uxtb	r3, r3
 546 019e 1370     		strb	r3, [r2]
 216:lib_Network/ntp.c **** 				{
 547              		.loc 1 216 0
 548 01a0 082B     		cmp	r3, #8
 549 01a2 01D1     		bne	.L62
 218:lib_Network/ntp.c **** 				}
 550              		.loc 1 218 0
 551 01a4 0923     		mov	r3, #9
 552 01a6 89E7     		b	.L65
 553              	.L62:
 222:lib_Network/ntp.c **** 				}
 554              		.loc 1 222 0
 555 01a8 3601     		lsl	r6, r6, #4
ARM GAS  C:\Users\Petro\AppData\Local\Temp\ccbTrpgq.s 			page 18


 556 01aa 2661     		str	r6, [r4, #16]
 557 01ac 93E7     		b	.L63
 558              	.LVL53:
 559              	.L32:
 227:lib_Network/ntp.c **** 				ERR_CODE = NTP_INV_CKECKSUM;
 560              		.loc 1 227 0
 561 01ae 201C     		mov	r0, r4
 562 01b0 FFF7FEFF 		bl	NtpResetPacket
 563              	.LVL54:
 229:lib_Network/ntp.c **** 			}
 564              		.loc 1 229 0
 565 01b4 0023     		mov	r3, #0
 566 01b6 2B70     		strb	r3, [r5]
 228:lib_Network/ntp.c **** 				NTP_STATE = NTP_WAIT_STX;
 567              		.loc 1 228 0
 568 01b8 0833     		add	r3, r3, #8
 569              	.LVL55:
 570              	.L8:
 257:lib_Network/ntp.c **** 
 571              		.loc 1 257 0
 572 01ba D8B2     		uxtb	r0, r3
 259:lib_Network/ntp.c **** 
 573              		.loc 1 259 0
 574              		@ sp needed
 575              	.LVL56:
 576 01bc F8BD     		pop	{r3, r4, r5, r6, r7, pc}
 577              	.L73:
 578 01be C046     		.align	2
 579              	.L72:
 580 01c0 00000000 		.word	.LANCHOR0
 581 01c4 00000000 		.word	NtpLenId
 582 01c8 00000000 		.word	NtpLenChS
 583 01cc 00000000 		.word	NtpLenD1
 584 01d0 00000000 		.word	NtpLenMsD1
 585 01d4 00000000 		.word	NtpLenMsD2
 586 01d8 00000000 		.word	NtpLenD2
 587              		.cfi_endproc
 588              	.LFE0:
 589              		.size	NtpUnpackData, .-NtpUnpackData
 590              		.global	NTP_STATE
 591              		.comm	NtpLenChS,1,1
 592              		.comm	NtpLenId,1,1
 593              		.comm	NtpLenMsD2,1,1
 594              		.comm	NtpLenD2,1,1
 595              		.comm	NtpLenMsD1,1,1
 596              		.comm	NtpLenD1,1,1
 597              		.bss
 598              		.set	.LANCHOR0,. + 0
 599              		.type	NTP_STATE, %object
 600              		.size	NTP_STATE, 1
 601              	NTP_STATE:
 602 0000 00       		.space	1
 603              		.text
 604              	.Letext0:
 605              		.file 2 "c:\\program files (x86)\\cypress\\psoc creator\\4.0\\psoc creator\\import\\gnu\\arm\\4.9.
 606              		.file 3 "c:\\program files (x86)\\cypress\\psoc creator\\4.0\\psoc creator\\import\\gnu\\arm\\4.9.
 607              		.file 4 "lib_Network\\ntp.h"
ARM GAS  C:\Users\Petro\AppData\Local\Temp\ccbTrpgq.s 			page 19

