ARM GAS  C:\Users\Petro\AppData\Local\Temp\cc8052rc.s 			page 1


   1              		.cpu cortex-m0
   2              		.fpu softvfp
   3              		.eabi_attribute 20, 1
   4              		.eabi_attribute 21, 1
   5              		.eabi_attribute 23, 3
   6              		.eabi_attribute 24, 1
   7              		.eabi_attribute 25, 1
   8              		.eabi_attribute 26, 1
   9              		.eabi_attribute 30, 4
  10              		.eabi_attribute 34, 0
  11              		.eabi_attribute 18, 4
  12              		.code	16
  13              		.file	"SPIM_PM.c"
  14              		.text
  15              	.Ltext0:
  16              		.cfi_sections	.debug_frame
  17              		.section	.text.SPIM_SaveConfig,"ax",%progbits
  18              		.align	1
  19              		.global	SPIM_SaveConfig
  20              		.code	16
  21              		.thumb_func
  22              		.type	SPIM_SaveConfig, %function
  23              	SPIM_SaveConfig:
  24              	.LFB2:
  25              		.file 1 "Generated_Source\\PSoC4\\SPIM_PM.c"
   1:Generated_Source\PSoC4/SPIM_PM.c **** /*******************************************************************************
   2:Generated_Source\PSoC4/SPIM_PM.c **** * File Name: SPIM_PM.c
   3:Generated_Source\PSoC4/SPIM_PM.c **** * Version 2.50
   4:Generated_Source\PSoC4/SPIM_PM.c **** *
   5:Generated_Source\PSoC4/SPIM_PM.c **** * Description:
   6:Generated_Source\PSoC4/SPIM_PM.c **** *  This file contains the setup, control and status commands to support
   7:Generated_Source\PSoC4/SPIM_PM.c **** *  component operations in low power mode.
   8:Generated_Source\PSoC4/SPIM_PM.c **** *
   9:Generated_Source\PSoC4/SPIM_PM.c **** * Note:
  10:Generated_Source\PSoC4/SPIM_PM.c **** *
  11:Generated_Source\PSoC4/SPIM_PM.c **** ********************************************************************************
  12:Generated_Source\PSoC4/SPIM_PM.c **** * Copyright 2008-2015, Cypress Semiconductor Corporation.  All rights reserved.
  13:Generated_Source\PSoC4/SPIM_PM.c **** * You may use this file only in accordance with the license, terms, conditions,
  14:Generated_Source\PSoC4/SPIM_PM.c **** * disclaimers, and limitations in the end user license agreement accompanying
  15:Generated_Source\PSoC4/SPIM_PM.c **** * the software package with which this file was provided.
  16:Generated_Source\PSoC4/SPIM_PM.c **** *******************************************************************************/
  17:Generated_Source\PSoC4/SPIM_PM.c **** 
  18:Generated_Source\PSoC4/SPIM_PM.c **** #include "SPIM_PVT.h"
  19:Generated_Source\PSoC4/SPIM_PM.c **** 
  20:Generated_Source\PSoC4/SPIM_PM.c **** static SPIM_BACKUP_STRUCT SPIM_backup =
  21:Generated_Source\PSoC4/SPIM_PM.c **** {
  22:Generated_Source\PSoC4/SPIM_PM.c ****     SPIM_DISABLED,
  23:Generated_Source\PSoC4/SPIM_PM.c ****     SPIM_BITCTR_INIT,
  24:Generated_Source\PSoC4/SPIM_PM.c **** };
  25:Generated_Source\PSoC4/SPIM_PM.c **** 
  26:Generated_Source\PSoC4/SPIM_PM.c **** 
  27:Generated_Source\PSoC4/SPIM_PM.c **** /*******************************************************************************
  28:Generated_Source\PSoC4/SPIM_PM.c **** * Function Name: SPIM_SaveConfig
  29:Generated_Source\PSoC4/SPIM_PM.c **** ********************************************************************************
  30:Generated_Source\PSoC4/SPIM_PM.c **** *
  31:Generated_Source\PSoC4/SPIM_PM.c **** * Summary:
  32:Generated_Source\PSoC4/SPIM_PM.c **** *  Empty function. Included for consistency with other components.
ARM GAS  C:\Users\Petro\AppData\Local\Temp\cc8052rc.s 			page 2


  33:Generated_Source\PSoC4/SPIM_PM.c **** *
  34:Generated_Source\PSoC4/SPIM_PM.c **** * Parameters:
  35:Generated_Source\PSoC4/SPIM_PM.c **** *  None.
  36:Generated_Source\PSoC4/SPIM_PM.c **** *
  37:Generated_Source\PSoC4/SPIM_PM.c **** * Return:
  38:Generated_Source\PSoC4/SPIM_PM.c **** *  None.
  39:Generated_Source\PSoC4/SPIM_PM.c **** *
  40:Generated_Source\PSoC4/SPIM_PM.c **** *******************************************************************************/
  41:Generated_Source\PSoC4/SPIM_PM.c **** void SPIM_SaveConfig(void) 
  42:Generated_Source\PSoC4/SPIM_PM.c **** {
  26              		.loc 1 42 0
  27              		.cfi_startproc
  43:Generated_Source\PSoC4/SPIM_PM.c **** 
  44:Generated_Source\PSoC4/SPIM_PM.c **** }
  28              		.loc 1 44 0
  29              		@ sp needed
  30 0000 7047     		bx	lr
  31              		.cfi_endproc
  32              	.LFE2:
  33              		.size	SPIM_SaveConfig, .-SPIM_SaveConfig
  34              		.section	.text.SPIM_RestoreConfig,"ax",%progbits
  35              		.align	1
  36              		.global	SPIM_RestoreConfig
  37              		.code	16
  38              		.thumb_func
  39              		.type	SPIM_RestoreConfig, %function
  40              	SPIM_RestoreConfig:
  41              	.LFB3:
  45:Generated_Source\PSoC4/SPIM_PM.c **** 
  46:Generated_Source\PSoC4/SPIM_PM.c **** 
  47:Generated_Source\PSoC4/SPIM_PM.c **** /*******************************************************************************
  48:Generated_Source\PSoC4/SPIM_PM.c **** * Function Name: SPIM_RestoreConfig
  49:Generated_Source\PSoC4/SPIM_PM.c **** ********************************************************************************
  50:Generated_Source\PSoC4/SPIM_PM.c **** *
  51:Generated_Source\PSoC4/SPIM_PM.c **** * Summary:
  52:Generated_Source\PSoC4/SPIM_PM.c **** *  Empty function. Included for consistency with other components.
  53:Generated_Source\PSoC4/SPIM_PM.c **** *
  54:Generated_Source\PSoC4/SPIM_PM.c **** * Parameters:
  55:Generated_Source\PSoC4/SPIM_PM.c **** *  None.
  56:Generated_Source\PSoC4/SPIM_PM.c **** *
  57:Generated_Source\PSoC4/SPIM_PM.c **** * Return:
  58:Generated_Source\PSoC4/SPIM_PM.c **** *  None.
  59:Generated_Source\PSoC4/SPIM_PM.c **** *
  60:Generated_Source\PSoC4/SPIM_PM.c **** *******************************************************************************/
  61:Generated_Source\PSoC4/SPIM_PM.c **** void SPIM_RestoreConfig(void) 
  62:Generated_Source\PSoC4/SPIM_PM.c **** {
  42              		.loc 1 62 0
  43              		.cfi_startproc
  63:Generated_Source\PSoC4/SPIM_PM.c **** 
  64:Generated_Source\PSoC4/SPIM_PM.c **** }
  44              		.loc 1 64 0
  45              		@ sp needed
  46 0000 7047     		bx	lr
  47              		.cfi_endproc
  48              	.LFE3:
  49              		.size	SPIM_RestoreConfig, .-SPIM_RestoreConfig
  50              		.section	.text.SPIM_Sleep,"ax",%progbits
ARM GAS  C:\Users\Petro\AppData\Local\Temp\cc8052rc.s 			page 3


  51              		.align	1
  52              		.global	SPIM_Sleep
  53              		.code	16
  54              		.thumb_func
  55              		.type	SPIM_Sleep, %function
  56              	SPIM_Sleep:
  57              	.LFB4:
  65:Generated_Source\PSoC4/SPIM_PM.c **** 
  66:Generated_Source\PSoC4/SPIM_PM.c **** 
  67:Generated_Source\PSoC4/SPIM_PM.c **** /*******************************************************************************
  68:Generated_Source\PSoC4/SPIM_PM.c **** * Function Name: SPIM_Sleep
  69:Generated_Source\PSoC4/SPIM_PM.c **** ********************************************************************************
  70:Generated_Source\PSoC4/SPIM_PM.c **** *
  71:Generated_Source\PSoC4/SPIM_PM.c **** * Summary:
  72:Generated_Source\PSoC4/SPIM_PM.c **** *  Prepare SPIM Component goes to sleep.
  73:Generated_Source\PSoC4/SPIM_PM.c **** *
  74:Generated_Source\PSoC4/SPIM_PM.c **** * Parameters:
  75:Generated_Source\PSoC4/SPIM_PM.c **** *  None.
  76:Generated_Source\PSoC4/SPIM_PM.c **** *
  77:Generated_Source\PSoC4/SPIM_PM.c **** * Return:
  78:Generated_Source\PSoC4/SPIM_PM.c **** *  None.
  79:Generated_Source\PSoC4/SPIM_PM.c **** *
  80:Generated_Source\PSoC4/SPIM_PM.c **** * Global Variables:
  81:Generated_Source\PSoC4/SPIM_PM.c **** *  SPIM_backup - modified when non-retention registers are saved.
  82:Generated_Source\PSoC4/SPIM_PM.c **** *
  83:Generated_Source\PSoC4/SPIM_PM.c **** * Reentrant:
  84:Generated_Source\PSoC4/SPIM_PM.c **** *  No.
  85:Generated_Source\PSoC4/SPIM_PM.c **** *
  86:Generated_Source\PSoC4/SPIM_PM.c **** *******************************************************************************/
  87:Generated_Source\PSoC4/SPIM_PM.c **** void SPIM_Sleep(void) 
  88:Generated_Source\PSoC4/SPIM_PM.c **** {
  58              		.loc 1 88 0
  59              		.cfi_startproc
  60 0000 08B5     		push	{r3, lr}
  61              		.cfi_def_cfa_offset 8
  62              		.cfi_offset 3, -8
  63              		.cfi_offset 14, -4
  89:Generated_Source\PSoC4/SPIM_PM.c ****     /* Save components enable state */
  90:Generated_Source\PSoC4/SPIM_PM.c ****     SPIM_backup.enableState = ((uint8) SPIM_IS_ENABLED);
  64              		.loc 1 90 0
  65 0002 044B     		ldr	r3, .L4
  66 0004 044A     		ldr	r2, .L4+4
  67 0006 1B78     		ldrb	r3, [r3]
  91:Generated_Source\PSoC4/SPIM_PM.c **** 
  92:Generated_Source\PSoC4/SPIM_PM.c ****     SPIM_Stop();
  93:Generated_Source\PSoC4/SPIM_PM.c **** }
  68              		.loc 1 93 0
  69              		@ sp needed
  90:Generated_Source\PSoC4/SPIM_PM.c **** 
  70              		.loc 1 90 0
  71 0008 DB06     		lsl	r3, r3, #27
  72 000a DB0F     		lsr	r3, r3, #31
  73 000c 1370     		strb	r3, [r2]
  92:Generated_Source\PSoC4/SPIM_PM.c **** }
  74              		.loc 1 92 0
  75 000e FFF7FEFF 		bl	SPIM_Stop
  76              	.LVL0:
ARM GAS  C:\Users\Petro\AppData\Local\Temp\cc8052rc.s 			page 4


  77              		.loc 1 93 0
  78 0012 08BD     		pop	{r3, pc}
  79              	.L5:
  80              		.align	2
  81              	.L4:
  82 0014 92000F40 		.word	1074725010
  83 0018 00000000 		.word	.LANCHOR0
  84              		.cfi_endproc
  85              	.LFE4:
  86              		.size	SPIM_Sleep, .-SPIM_Sleep
  87              		.section	.text.SPIM_Wakeup,"ax",%progbits
  88              		.align	1
  89              		.global	SPIM_Wakeup
  90              		.code	16
  91              		.thumb_func
  92              		.type	SPIM_Wakeup, %function
  93              	SPIM_Wakeup:
  94              	.LFB5:
  94:Generated_Source\PSoC4/SPIM_PM.c **** 
  95:Generated_Source\PSoC4/SPIM_PM.c **** 
  96:Generated_Source\PSoC4/SPIM_PM.c **** /*******************************************************************************
  97:Generated_Source\PSoC4/SPIM_PM.c **** * Function Name: SPIM_Wakeup
  98:Generated_Source\PSoC4/SPIM_PM.c **** ********************************************************************************
  99:Generated_Source\PSoC4/SPIM_PM.c **** *
 100:Generated_Source\PSoC4/SPIM_PM.c **** * Summary:
 101:Generated_Source\PSoC4/SPIM_PM.c **** *  Prepare SPIM Component to wake up.
 102:Generated_Source\PSoC4/SPIM_PM.c **** *
 103:Generated_Source\PSoC4/SPIM_PM.c **** * Parameters:
 104:Generated_Source\PSoC4/SPIM_PM.c **** *  None.
 105:Generated_Source\PSoC4/SPIM_PM.c **** *
 106:Generated_Source\PSoC4/SPIM_PM.c **** * Return:
 107:Generated_Source\PSoC4/SPIM_PM.c **** *  None.
 108:Generated_Source\PSoC4/SPIM_PM.c **** *
 109:Generated_Source\PSoC4/SPIM_PM.c **** * Global Variables:
 110:Generated_Source\PSoC4/SPIM_PM.c **** *  SPIM_backup - used when non-retention registers are restored.
 111:Generated_Source\PSoC4/SPIM_PM.c **** *  SPIM_txBufferWrite - modified every function call - resets to
 112:Generated_Source\PSoC4/SPIM_PM.c **** *  zero.
 113:Generated_Source\PSoC4/SPIM_PM.c **** *  SPIM_txBufferRead - modified every function call - resets to
 114:Generated_Source\PSoC4/SPIM_PM.c **** *  zero.
 115:Generated_Source\PSoC4/SPIM_PM.c **** *  SPIM_rxBufferWrite - modified every function call - resets to
 116:Generated_Source\PSoC4/SPIM_PM.c **** *  zero.
 117:Generated_Source\PSoC4/SPIM_PM.c **** *  SPIM_rxBufferRead - modified every function call - resets to
 118:Generated_Source\PSoC4/SPIM_PM.c **** *  zero.
 119:Generated_Source\PSoC4/SPIM_PM.c **** *
 120:Generated_Source\PSoC4/SPIM_PM.c **** * Reentrant:
 121:Generated_Source\PSoC4/SPIM_PM.c **** *  No.
 122:Generated_Source\PSoC4/SPIM_PM.c **** *
 123:Generated_Source\PSoC4/SPIM_PM.c **** *******************************************************************************/
 124:Generated_Source\PSoC4/SPIM_PM.c **** void SPIM_Wakeup(void) 
 125:Generated_Source\PSoC4/SPIM_PM.c **** {
  95              		.loc 1 125 0
  96              		.cfi_startproc
  97 0000 08B5     		push	{r3, lr}
  98              		.cfi_def_cfa_offset 8
  99              		.cfi_offset 3, -8
 100              		.cfi_offset 14, -4
 126:Generated_Source\PSoC4/SPIM_PM.c ****     #if(SPIM_RX_SOFTWARE_BUF_ENABLED)
ARM GAS  C:\Users\Petro\AppData\Local\Temp\cc8052rc.s 			page 5


 127:Generated_Source\PSoC4/SPIM_PM.c ****         SPIM_rxBufferFull  = 0u;
 128:Generated_Source\PSoC4/SPIM_PM.c ****         SPIM_rxBufferRead  = 0u;
 129:Generated_Source\PSoC4/SPIM_PM.c ****         SPIM_rxBufferWrite = 0u;
 130:Generated_Source\PSoC4/SPIM_PM.c ****     #endif /* (SPIM_RX_SOFTWARE_BUF_ENABLED) */
 131:Generated_Source\PSoC4/SPIM_PM.c **** 
 132:Generated_Source\PSoC4/SPIM_PM.c ****     #if(SPIM_TX_SOFTWARE_BUF_ENABLED)
 133:Generated_Source\PSoC4/SPIM_PM.c ****         SPIM_txBufferFull  = 0u;
 134:Generated_Source\PSoC4/SPIM_PM.c ****         SPIM_txBufferRead  = 0u;
 135:Generated_Source\PSoC4/SPIM_PM.c ****         SPIM_txBufferWrite = 0u;
 136:Generated_Source\PSoC4/SPIM_PM.c ****     #endif /* (SPIM_TX_SOFTWARE_BUF_ENABLED) */
 137:Generated_Source\PSoC4/SPIM_PM.c **** 
 138:Generated_Source\PSoC4/SPIM_PM.c ****     /* Clear any data from the RX and TX FIFO */
 139:Generated_Source\PSoC4/SPIM_PM.c ****     SPIM_ClearFIFO();
 101              		.loc 1 139 0
 102 0002 FFF7FEFF 		bl	SPIM_ClearFIFO
 103              	.LVL1:
 140:Generated_Source\PSoC4/SPIM_PM.c **** 
 141:Generated_Source\PSoC4/SPIM_PM.c ****     /* Restore components block enable state */
 142:Generated_Source\PSoC4/SPIM_PM.c ****     if(0u != SPIM_backup.enableState)
 104              		.loc 1 142 0
 105 0006 034B     		ldr	r3, .L12
 106 0008 1B78     		ldrb	r3, [r3]
 107 000a 002B     		cmp	r3, #0
 108 000c 01D0     		beq	.L6
 143:Generated_Source\PSoC4/SPIM_PM.c ****     {
 144:Generated_Source\PSoC4/SPIM_PM.c ****         SPIM_Enable();
 109              		.loc 1 144 0
 110 000e FFF7FEFF 		bl	SPIM_Enable
 111              	.LVL2:
 112              	.L6:
 145:Generated_Source\PSoC4/SPIM_PM.c ****     }
 146:Generated_Source\PSoC4/SPIM_PM.c **** }
 113              		.loc 1 146 0
 114              		@ sp needed
 115 0012 08BD     		pop	{r3, pc}
 116              	.L13:
 117              		.align	2
 118              	.L12:
 119 0014 00000000 		.word	.LANCHOR0
 120              		.cfi_endproc
 121              	.LFE5:
 122              		.size	SPIM_Wakeup, .-SPIM_Wakeup
 123              		.data
 124              		.set	.LANCHOR0,. + 0
 125              		.type	SPIM_backup, %object
 126              		.size	SPIM_backup, 2
 127              	SPIM_backup:
 128 0000 00       		.byte	0
 129 0001 0F       		.byte	15
 130              		.text
 131              	.Letext0:
 132              		.file 2 "Generated_Source\\PSoC4\\cytypes.h"
 133              		.file 3 "Generated_Source\\PSoC4\\SPIM.h"