ARM GAS  C:\Users\Petro\AppData\Local\Temp\ccT7fEuf.s 			page 1


   1              		.cpu cortex-m0
   2              		.fpu softvfp
   3              		.eabi_attribute 20, 1
   4              		.eabi_attribute 21, 1
   5              		.eabi_attribute 23, 3
   6              		.eabi_attribute 24, 1
   7              		.eabi_attribute 25, 1
   8              		.eabi_attribute 26, 1
   9              		.eabi_attribute 30, 4
  10              		.eabi_attribute 34, 0
  11              		.eabi_attribute 18, 4
  12              		.code	16
  13              		.file	"UART_XB.c"
  14              		.text
  15              	.Ltext0:
  16              		.cfi_sections	.debug_frame
  17              		.section	.text.UART_XB_Init,"ax",%progbits
  18              		.align	1
  19              		.global	UART_XB_Init
  20              		.code	16
  21              		.thumb_func
  22              		.type	UART_XB_Init, %function
  23              	UART_XB_Init:
  24              	.LFB2:
  25              		.file 1 "Generated_Source\\PSoC4\\UART_XB.c"
   1:Generated_Source\PSoC4/UART_XB.c **** /***************************************************************************//**
   2:Generated_Source\PSoC4/UART_XB.c **** * \file UART_XB.c
   3:Generated_Source\PSoC4/UART_XB.c **** * \version 3.20
   4:Generated_Source\PSoC4/UART_XB.c **** *
   5:Generated_Source\PSoC4/UART_XB.c **** * \brief
   6:Generated_Source\PSoC4/UART_XB.c **** *  This file provides the source code to the API for the SCB Component.
   7:Generated_Source\PSoC4/UART_XB.c **** *
   8:Generated_Source\PSoC4/UART_XB.c **** * Note:
   9:Generated_Source\PSoC4/UART_XB.c **** *
  10:Generated_Source\PSoC4/UART_XB.c **** *******************************************************************************
  11:Generated_Source\PSoC4/UART_XB.c **** * \copyright
  12:Generated_Source\PSoC4/UART_XB.c **** * Copyright 2013-2016, Cypress Semiconductor Corporation.  All rights reserved.
  13:Generated_Source\PSoC4/UART_XB.c **** * You may use this file only in accordance with the license, terms, conditions,
  14:Generated_Source\PSoC4/UART_XB.c **** * disclaimers, and limitations in the end user license agreement accompanying
  15:Generated_Source\PSoC4/UART_XB.c **** * the software package with which this file was provided.
  16:Generated_Source\PSoC4/UART_XB.c **** *******************************************************************************/
  17:Generated_Source\PSoC4/UART_XB.c **** 
  18:Generated_Source\PSoC4/UART_XB.c **** #include "UART_XB_PVT.h"
  19:Generated_Source\PSoC4/UART_XB.c **** 
  20:Generated_Source\PSoC4/UART_XB.c **** #if (UART_XB_SCB_MODE_I2C_INC)
  21:Generated_Source\PSoC4/UART_XB.c ****     #include "UART_XB_I2C_PVT.h"
  22:Generated_Source\PSoC4/UART_XB.c **** #endif /* (UART_XB_SCB_MODE_I2C_INC) */
  23:Generated_Source\PSoC4/UART_XB.c **** 
  24:Generated_Source\PSoC4/UART_XB.c **** #if (UART_XB_SCB_MODE_EZI2C_INC)
  25:Generated_Source\PSoC4/UART_XB.c ****     #include "UART_XB_EZI2C_PVT.h"
  26:Generated_Source\PSoC4/UART_XB.c **** #endif /* (UART_XB_SCB_MODE_EZI2C_INC) */
  27:Generated_Source\PSoC4/UART_XB.c **** 
  28:Generated_Source\PSoC4/UART_XB.c **** #if (UART_XB_SCB_MODE_SPI_INC || UART_XB_SCB_MODE_UART_INC)
  29:Generated_Source\PSoC4/UART_XB.c ****     #include "UART_XB_SPI_UART_PVT.h"
  30:Generated_Source\PSoC4/UART_XB.c **** #endif /* (UART_XB_SCB_MODE_SPI_INC || UART_XB_SCB_MODE_UART_INC) */
  31:Generated_Source\PSoC4/UART_XB.c **** 
  32:Generated_Source\PSoC4/UART_XB.c **** 
ARM GAS  C:\Users\Petro\AppData\Local\Temp\ccT7fEuf.s 			page 2


  33:Generated_Source\PSoC4/UART_XB.c **** /***************************************
  34:Generated_Source\PSoC4/UART_XB.c **** *    Run Time Configuration Vars
  35:Generated_Source\PSoC4/UART_XB.c **** ***************************************/
  36:Generated_Source\PSoC4/UART_XB.c **** 
  37:Generated_Source\PSoC4/UART_XB.c **** /* Stores internal component configuration for Unconfigured mode */
  38:Generated_Source\PSoC4/UART_XB.c **** #if (UART_XB_SCB_MODE_UNCONFIG_CONST_CFG)
  39:Generated_Source\PSoC4/UART_XB.c ****     /* Common configuration variables */
  40:Generated_Source\PSoC4/UART_XB.c ****     uint8 UART_XB_scbMode = UART_XB_SCB_MODE_UNCONFIG;
  41:Generated_Source\PSoC4/UART_XB.c ****     uint8 UART_XB_scbEnableWake;
  42:Generated_Source\PSoC4/UART_XB.c ****     uint8 UART_XB_scbEnableIntr;
  43:Generated_Source\PSoC4/UART_XB.c **** 
  44:Generated_Source\PSoC4/UART_XB.c ****     /* I2C configuration variables */
  45:Generated_Source\PSoC4/UART_XB.c ****     uint8 UART_XB_mode;
  46:Generated_Source\PSoC4/UART_XB.c ****     uint8 UART_XB_acceptAddr;
  47:Generated_Source\PSoC4/UART_XB.c **** 
  48:Generated_Source\PSoC4/UART_XB.c ****     /* SPI/UART configuration variables */
  49:Generated_Source\PSoC4/UART_XB.c ****     volatile uint8 * UART_XB_rxBuffer;
  50:Generated_Source\PSoC4/UART_XB.c ****     uint8  UART_XB_rxDataBits;
  51:Generated_Source\PSoC4/UART_XB.c ****     uint32 UART_XB_rxBufferSize;
  52:Generated_Source\PSoC4/UART_XB.c **** 
  53:Generated_Source\PSoC4/UART_XB.c ****     volatile uint8 * UART_XB_txBuffer;
  54:Generated_Source\PSoC4/UART_XB.c ****     uint8  UART_XB_txDataBits;
  55:Generated_Source\PSoC4/UART_XB.c ****     uint32 UART_XB_txBufferSize;
  56:Generated_Source\PSoC4/UART_XB.c **** 
  57:Generated_Source\PSoC4/UART_XB.c ****     /* EZI2C configuration variables */
  58:Generated_Source\PSoC4/UART_XB.c ****     uint8 UART_XB_numberOfAddr;
  59:Generated_Source\PSoC4/UART_XB.c ****     uint8 UART_XB_subAddrSize;
  60:Generated_Source\PSoC4/UART_XB.c **** #endif /* (UART_XB_SCB_MODE_UNCONFIG_CONST_CFG) */
  61:Generated_Source\PSoC4/UART_XB.c **** 
  62:Generated_Source\PSoC4/UART_XB.c **** 
  63:Generated_Source\PSoC4/UART_XB.c **** /***************************************
  64:Generated_Source\PSoC4/UART_XB.c **** *     Common SCB Vars
  65:Generated_Source\PSoC4/UART_XB.c **** ***************************************/
  66:Generated_Source\PSoC4/UART_XB.c **** /**
  67:Generated_Source\PSoC4/UART_XB.c **** * \addtogroup group_general
  68:Generated_Source\PSoC4/UART_XB.c **** * \{
  69:Generated_Source\PSoC4/UART_XB.c **** */
  70:Generated_Source\PSoC4/UART_XB.c **** 
  71:Generated_Source\PSoC4/UART_XB.c **** /** UART_XB_initVar indicates whether the UART_XB 
  72:Generated_Source\PSoC4/UART_XB.c **** *  component has been initialized. The variable is initialized to 0 
  73:Generated_Source\PSoC4/UART_XB.c **** *  and set to 1 the first time SCB_Start() is called. This allows 
  74:Generated_Source\PSoC4/UART_XB.c **** *  the component to restart without reinitialization after the first 
  75:Generated_Source\PSoC4/UART_XB.c **** *  call to the UART_XB_Start() routine.
  76:Generated_Source\PSoC4/UART_XB.c **** *
  77:Generated_Source\PSoC4/UART_XB.c **** *  If re-initialization of the component is required, then the 
  78:Generated_Source\PSoC4/UART_XB.c **** *  UART_XB_Init() function can be called before the 
  79:Generated_Source\PSoC4/UART_XB.c **** *  UART_XB_Start() or UART_XB_Enable() function.
  80:Generated_Source\PSoC4/UART_XB.c **** */
  81:Generated_Source\PSoC4/UART_XB.c **** uint8 UART_XB_initVar = 0u;
  82:Generated_Source\PSoC4/UART_XB.c **** 
  83:Generated_Source\PSoC4/UART_XB.c **** 
  84:Generated_Source\PSoC4/UART_XB.c **** #if (! (UART_XB_SCB_MODE_I2C_CONST_CFG || \
  85:Generated_Source\PSoC4/UART_XB.c ****         UART_XB_SCB_MODE_EZI2C_CONST_CFG))
  86:Generated_Source\PSoC4/UART_XB.c ****     /** This global variable stores TX interrupt sources after 
  87:Generated_Source\PSoC4/UART_XB.c ****     * UART_XB_Stop() is called. Only these TX interrupt sources 
  88:Generated_Source\PSoC4/UART_XB.c ****     * will be restored on a subsequent UART_XB_Enable() call.
  89:Generated_Source\PSoC4/UART_XB.c ****     */
ARM GAS  C:\Users\Petro\AppData\Local\Temp\ccT7fEuf.s 			page 3


  90:Generated_Source\PSoC4/UART_XB.c ****     uint16 UART_XB_IntrTxMask = 0u;
  91:Generated_Source\PSoC4/UART_XB.c **** #endif /* (! (UART_XB_SCB_MODE_I2C_CONST_CFG || \
  92:Generated_Source\PSoC4/UART_XB.c ****               UART_XB_SCB_MODE_EZI2C_CONST_CFG)) */
  93:Generated_Source\PSoC4/UART_XB.c **** /** \} globals */
  94:Generated_Source\PSoC4/UART_XB.c **** 
  95:Generated_Source\PSoC4/UART_XB.c **** #if (UART_XB_SCB_IRQ_INTERNAL)
  96:Generated_Source\PSoC4/UART_XB.c **** #if !defined (CY_REMOVE_UART_XB_CUSTOM_INTR_HANDLER)
  97:Generated_Source\PSoC4/UART_XB.c ****     void (*UART_XB_customIntrHandler)(void) = NULL;
  98:Generated_Source\PSoC4/UART_XB.c **** #endif /* !defined (CY_REMOVE_UART_XB_CUSTOM_INTR_HANDLER) */
  99:Generated_Source\PSoC4/UART_XB.c **** #endif /* (UART_XB_SCB_IRQ_INTERNAL) */
 100:Generated_Source\PSoC4/UART_XB.c **** 
 101:Generated_Source\PSoC4/UART_XB.c **** 
 102:Generated_Source\PSoC4/UART_XB.c **** /***************************************
 103:Generated_Source\PSoC4/UART_XB.c **** *    Private Function Prototypes
 104:Generated_Source\PSoC4/UART_XB.c **** ***************************************/
 105:Generated_Source\PSoC4/UART_XB.c **** 
 106:Generated_Source\PSoC4/UART_XB.c **** static void UART_XB_ScbEnableIntr(void);
 107:Generated_Source\PSoC4/UART_XB.c **** static void UART_XB_ScbModeStop(void);
 108:Generated_Source\PSoC4/UART_XB.c **** static void UART_XB_ScbModePostEnable(void);
 109:Generated_Source\PSoC4/UART_XB.c **** 
 110:Generated_Source\PSoC4/UART_XB.c **** 
 111:Generated_Source\PSoC4/UART_XB.c **** /*******************************************************************************
 112:Generated_Source\PSoC4/UART_XB.c **** * Function Name: UART_XB_Init
 113:Generated_Source\PSoC4/UART_XB.c **** ****************************************************************************//**
 114:Generated_Source\PSoC4/UART_XB.c **** *
 115:Generated_Source\PSoC4/UART_XB.c **** *  Initializes the UART_XB component to operate in one of the selected
 116:Generated_Source\PSoC4/UART_XB.c **** *  configurations: I2C, SPI, UART or EZI2C.
 117:Generated_Source\PSoC4/UART_XB.c **** *  When the configuration is set to "Unconfigured SCB", this function does
 118:Generated_Source\PSoC4/UART_XB.c **** *  not do any initialization. Use mode-specific initialization APIs instead:
 119:Generated_Source\PSoC4/UART_XB.c **** *  UART_XB_I2CInit, UART_XB_SpiInit, 
 120:Generated_Source\PSoC4/UART_XB.c **** *  UART_XB_UartInit or UART_XB_EzI2CInit.
 121:Generated_Source\PSoC4/UART_XB.c **** *
 122:Generated_Source\PSoC4/UART_XB.c **** *******************************************************************************/
 123:Generated_Source\PSoC4/UART_XB.c **** void UART_XB_Init(void)
 124:Generated_Source\PSoC4/UART_XB.c **** {
  26              		.loc 1 124 0
  27              		.cfi_startproc
  28 0000 08B5     		push	{r3, lr}
  29              		.cfi_def_cfa_offset 8
  30              		.cfi_offset 3, -8
  31              		.cfi_offset 14, -4
 125:Generated_Source\PSoC4/UART_XB.c **** #if (UART_XB_SCB_MODE_UNCONFIG_CONST_CFG)
 126:Generated_Source\PSoC4/UART_XB.c ****     if (UART_XB_SCB_MODE_UNCONFIG_RUNTM_CFG)
 127:Generated_Source\PSoC4/UART_XB.c ****     {
 128:Generated_Source\PSoC4/UART_XB.c ****         UART_XB_initVar = 0u;
 129:Generated_Source\PSoC4/UART_XB.c ****     }
 130:Generated_Source\PSoC4/UART_XB.c ****     else
 131:Generated_Source\PSoC4/UART_XB.c ****     {
 132:Generated_Source\PSoC4/UART_XB.c ****         /* Initialization was done before this function call */
 133:Generated_Source\PSoC4/UART_XB.c ****     }
 134:Generated_Source\PSoC4/UART_XB.c **** 
 135:Generated_Source\PSoC4/UART_XB.c **** #elif (UART_XB_SCB_MODE_I2C_CONST_CFG)
 136:Generated_Source\PSoC4/UART_XB.c ****     UART_XB_I2CInit();
 137:Generated_Source\PSoC4/UART_XB.c **** 
 138:Generated_Source\PSoC4/UART_XB.c **** #elif (UART_XB_SCB_MODE_SPI_CONST_CFG)
 139:Generated_Source\PSoC4/UART_XB.c ****     UART_XB_SpiInit();
 140:Generated_Source\PSoC4/UART_XB.c **** 
ARM GAS  C:\Users\Petro\AppData\Local\Temp\ccT7fEuf.s 			page 4


 141:Generated_Source\PSoC4/UART_XB.c **** #elif (UART_XB_SCB_MODE_UART_CONST_CFG)
 142:Generated_Source\PSoC4/UART_XB.c ****     UART_XB_UartInit();
  32              		.loc 1 142 0
  33 0002 FFF7FEFF 		bl	UART_XB_UartInit
  34              	.LVL0:
 143:Generated_Source\PSoC4/UART_XB.c **** 
 144:Generated_Source\PSoC4/UART_XB.c **** #elif (UART_XB_SCB_MODE_EZI2C_CONST_CFG)
 145:Generated_Source\PSoC4/UART_XB.c ****     UART_XB_EzI2CInit();
 146:Generated_Source\PSoC4/UART_XB.c **** 
 147:Generated_Source\PSoC4/UART_XB.c **** #endif /* (UART_XB_SCB_MODE_UNCONFIG_CONST_CFG) */
 148:Generated_Source\PSoC4/UART_XB.c **** }
  35              		.loc 1 148 0
  36              		@ sp needed
  37 0006 08BD     		pop	{r3, pc}
  38              		.cfi_endproc
  39              	.LFE2:
  40              		.size	UART_XB_Init, .-UART_XB_Init
  41              		.section	.text.UART_XB_Enable,"ax",%progbits
  42              		.align	1
  43              		.global	UART_XB_Enable
  44              		.code	16
  45              		.thumb_func
  46              		.type	UART_XB_Enable, %function
  47              	UART_XB_Enable:
  48              	.LFB3:
 149:Generated_Source\PSoC4/UART_XB.c **** 
 150:Generated_Source\PSoC4/UART_XB.c **** 
 151:Generated_Source\PSoC4/UART_XB.c **** /*******************************************************************************
 152:Generated_Source\PSoC4/UART_XB.c **** * Function Name: UART_XB_Enable
 153:Generated_Source\PSoC4/UART_XB.c **** ****************************************************************************//**
 154:Generated_Source\PSoC4/UART_XB.c **** *
 155:Generated_Source\PSoC4/UART_XB.c **** *  Enables UART_XB component operation: activates the hardware and 
 156:Generated_Source\PSoC4/UART_XB.c **** *  internal interrupt. It also restores TX interrupt sources disabled after the 
 157:Generated_Source\PSoC4/UART_XB.c **** *  UART_XB_Stop() function was called (note that level-triggered TX 
 158:Generated_Source\PSoC4/UART_XB.c **** *  interrupt sources remain disabled to not cause code lock-up).
 159:Generated_Source\PSoC4/UART_XB.c **** *  For I2C and EZI2C modes the interrupt is internal and mandatory for 
 160:Generated_Source\PSoC4/UART_XB.c **** *  operation. For SPI and UART modes the interrupt can be configured as none, 
 161:Generated_Source\PSoC4/UART_XB.c **** *  internal or external.
 162:Generated_Source\PSoC4/UART_XB.c **** *  The UART_XB configuration should be not changed when the component
 163:Generated_Source\PSoC4/UART_XB.c **** *  is enabled. Any configuration changes should be made after disabling the 
 164:Generated_Source\PSoC4/UART_XB.c **** *  component.
 165:Generated_Source\PSoC4/UART_XB.c **** *  When configuration is set to “Unconfigured UART_XB”, the component 
 166:Generated_Source\PSoC4/UART_XB.c **** *  must first be initialized to operate in one of the following configurations: 
 167:Generated_Source\PSoC4/UART_XB.c **** *  I2C, SPI, UART or EZ I2C, using the mode-specific initialization API. 
 168:Generated_Source\PSoC4/UART_XB.c **** *  Otherwise this function does not enable the component.
 169:Generated_Source\PSoC4/UART_XB.c **** *
 170:Generated_Source\PSoC4/UART_XB.c **** *******************************************************************************/
 171:Generated_Source\PSoC4/UART_XB.c **** void UART_XB_Enable(void)
 172:Generated_Source\PSoC4/UART_XB.c **** {
  49              		.loc 1 172 0
  50              		.cfi_startproc
 173:Generated_Source\PSoC4/UART_XB.c **** #if (UART_XB_SCB_MODE_UNCONFIG_CONST_CFG)
 174:Generated_Source\PSoC4/UART_XB.c ****     /* Enable SCB block, only if it is already configured */
 175:Generated_Source\PSoC4/UART_XB.c ****     if (!UART_XB_SCB_MODE_UNCONFIG_RUNTM_CFG)
 176:Generated_Source\PSoC4/UART_XB.c ****     {
 177:Generated_Source\PSoC4/UART_XB.c ****         UART_XB_CTRL_REG |= UART_XB_CTRL_ENABLED;
 178:Generated_Source\PSoC4/UART_XB.c **** 
ARM GAS  C:\Users\Petro\AppData\Local\Temp\ccT7fEuf.s 			page 5


 179:Generated_Source\PSoC4/UART_XB.c ****         UART_XB_ScbEnableIntr();
 180:Generated_Source\PSoC4/UART_XB.c **** 
 181:Generated_Source\PSoC4/UART_XB.c ****         /* Call PostEnable function specific to current operation mode */
 182:Generated_Source\PSoC4/UART_XB.c ****         UART_XB_ScbModePostEnable();
 183:Generated_Source\PSoC4/UART_XB.c ****     }
 184:Generated_Source\PSoC4/UART_XB.c **** #else
 185:Generated_Source\PSoC4/UART_XB.c ****     UART_XB_CTRL_REG |= UART_XB_CTRL_ENABLED;
  51              		.loc 1 185 0
  52 0000 8021     		mov	r1, #128
  53 0002 064A     		ldr	r2, .L3
 172:Generated_Source\PSoC4/UART_XB.c **** #if (UART_XB_SCB_MODE_UNCONFIG_CONST_CFG)
  54              		.loc 1 172 0
  55 0004 08B5     		push	{r3, lr}
  56              		.cfi_def_cfa_offset 8
  57              		.cfi_offset 3, -8
  58              		.cfi_offset 14, -4
  59              		.loc 1 185 0
  60 0006 1368     		ldr	r3, [r2]
  61 0008 0906     		lsl	r1, r1, #24
  62 000a 0B43     		orr	r3, r1
  63 000c 1360     		str	r3, [r2]
  64              	.LBB12:
  65              	.LBB13:
 186:Generated_Source\PSoC4/UART_XB.c **** 
 187:Generated_Source\PSoC4/UART_XB.c ****     UART_XB_ScbEnableIntr();
 188:Generated_Source\PSoC4/UART_XB.c **** 
 189:Generated_Source\PSoC4/UART_XB.c ****     /* Call PostEnable function specific to current operation mode */
 190:Generated_Source\PSoC4/UART_XB.c ****     UART_XB_ScbModePostEnable();
 191:Generated_Source\PSoC4/UART_XB.c **** #endif /* (UART_XB_SCB_MODE_UNCONFIG_CONST_CFG) */
 192:Generated_Source\PSoC4/UART_XB.c **** }
 193:Generated_Source\PSoC4/UART_XB.c **** 
 194:Generated_Source\PSoC4/UART_XB.c **** 
 195:Generated_Source\PSoC4/UART_XB.c **** /*******************************************************************************
 196:Generated_Source\PSoC4/UART_XB.c **** * Function Name: UART_XB_Start
 197:Generated_Source\PSoC4/UART_XB.c **** ****************************************************************************//**
 198:Generated_Source\PSoC4/UART_XB.c **** *
 199:Generated_Source\PSoC4/UART_XB.c **** *  Invokes UART_XB_Init() and UART_XB_Enable().
 200:Generated_Source\PSoC4/UART_XB.c **** *  After this function call, the component is enabled and ready for operation.
 201:Generated_Source\PSoC4/UART_XB.c **** *  When configuration is set to "Unconfigured SCB", the component must first be
 202:Generated_Source\PSoC4/UART_XB.c **** *  initialized to operate in one of the following configurations: I2C, SPI, UART
 203:Generated_Source\PSoC4/UART_XB.c **** *  or EZI2C. Otherwise this function does not enable the component.
 204:Generated_Source\PSoC4/UART_XB.c **** *
 205:Generated_Source\PSoC4/UART_XB.c **** * \globalvars
 206:Generated_Source\PSoC4/UART_XB.c **** *  UART_XB_initVar - used to check initial configuration, modified
 207:Generated_Source\PSoC4/UART_XB.c **** *  on first function call.
 208:Generated_Source\PSoC4/UART_XB.c **** *
 209:Generated_Source\PSoC4/UART_XB.c **** *******************************************************************************/
 210:Generated_Source\PSoC4/UART_XB.c **** void UART_XB_Start(void)
 211:Generated_Source\PSoC4/UART_XB.c **** {
 212:Generated_Source\PSoC4/UART_XB.c ****     if (0u == UART_XB_initVar)
 213:Generated_Source\PSoC4/UART_XB.c ****     {
 214:Generated_Source\PSoC4/UART_XB.c ****         UART_XB_Init();
 215:Generated_Source\PSoC4/UART_XB.c ****         UART_XB_initVar = 1u; /* Component was initialized */
 216:Generated_Source\PSoC4/UART_XB.c ****     }
 217:Generated_Source\PSoC4/UART_XB.c **** 
 218:Generated_Source\PSoC4/UART_XB.c ****     UART_XB_Enable();
 219:Generated_Source\PSoC4/UART_XB.c **** }
ARM GAS  C:\Users\Petro\AppData\Local\Temp\ccT7fEuf.s 			page 6


 220:Generated_Source\PSoC4/UART_XB.c **** 
 221:Generated_Source\PSoC4/UART_XB.c **** 
 222:Generated_Source\PSoC4/UART_XB.c **** /*******************************************************************************
 223:Generated_Source\PSoC4/UART_XB.c **** * Function Name: UART_XB_Stop
 224:Generated_Source\PSoC4/UART_XB.c **** ****************************************************************************//**
 225:Generated_Source\PSoC4/UART_XB.c **** *
 226:Generated_Source\PSoC4/UART_XB.c **** *  Disables the UART_XB component: disable the hardware and internal 
 227:Generated_Source\PSoC4/UART_XB.c **** *  interrupt. It also disables all TX interrupt sources so as not to cause an 
 228:Generated_Source\PSoC4/UART_XB.c **** *  unexpected interrupt trigger because after the component is enabled, the 
 229:Generated_Source\PSoC4/UART_XB.c **** *  TX FIFO is empty.
 230:Generated_Source\PSoC4/UART_XB.c **** *  Refer to the function UART_XB_Enable() for the interrupt 
 231:Generated_Source\PSoC4/UART_XB.c **** *  configuration details.
 232:Generated_Source\PSoC4/UART_XB.c **** *  This function disables the SCB component without checking to see if 
 233:Generated_Source\PSoC4/UART_XB.c **** *  communication is in progress. Before calling this function it may be 
 234:Generated_Source\PSoC4/UART_XB.c **** *  necessary to check the status of communication to make sure communication 
 235:Generated_Source\PSoC4/UART_XB.c **** *  is complete. If this is not done then communication could be stopped mid 
 236:Generated_Source\PSoC4/UART_XB.c **** *  byte and corrupted data could result.
 237:Generated_Source\PSoC4/UART_XB.c **** *
 238:Generated_Source\PSoC4/UART_XB.c **** *******************************************************************************/
 239:Generated_Source\PSoC4/UART_XB.c **** void UART_XB_Stop(void)
 240:Generated_Source\PSoC4/UART_XB.c **** {
 241:Generated_Source\PSoC4/UART_XB.c **** #if (UART_XB_SCB_IRQ_INTERNAL)
 242:Generated_Source\PSoC4/UART_XB.c ****     UART_XB_DisableInt();
 243:Generated_Source\PSoC4/UART_XB.c **** #endif /* (UART_XB_SCB_IRQ_INTERNAL) */
 244:Generated_Source\PSoC4/UART_XB.c **** 
 245:Generated_Source\PSoC4/UART_XB.c ****     /* Call Stop function specific to current operation mode */
 246:Generated_Source\PSoC4/UART_XB.c ****     UART_XB_ScbModeStop();
 247:Generated_Source\PSoC4/UART_XB.c **** 
 248:Generated_Source\PSoC4/UART_XB.c ****     /* Disable SCB IP */
 249:Generated_Source\PSoC4/UART_XB.c ****     UART_XB_CTRL_REG &= (uint32) ~UART_XB_CTRL_ENABLED;
 250:Generated_Source\PSoC4/UART_XB.c **** 
 251:Generated_Source\PSoC4/UART_XB.c ****     /* Disable all TX interrupt sources so as not to cause an unexpected
 252:Generated_Source\PSoC4/UART_XB.c ****     * interrupt trigger after the component will be enabled because the 
 253:Generated_Source\PSoC4/UART_XB.c ****     * TX FIFO is empty.
 254:Generated_Source\PSoC4/UART_XB.c ****     * For SCB IP v0, it is critical as it does not mask-out interrupt
 255:Generated_Source\PSoC4/UART_XB.c ****     * sources when it is disabled. This can cause a code lock-up in the
 256:Generated_Source\PSoC4/UART_XB.c ****     * interrupt handler because TX FIFO cannot be loaded after the block
 257:Generated_Source\PSoC4/UART_XB.c ****     * is disabled.
 258:Generated_Source\PSoC4/UART_XB.c ****     */
 259:Generated_Source\PSoC4/UART_XB.c ****     UART_XB_SetTxInterruptMode(UART_XB_NO_INTR_SOURCES);
 260:Generated_Source\PSoC4/UART_XB.c **** 
 261:Generated_Source\PSoC4/UART_XB.c **** #if (UART_XB_SCB_IRQ_INTERNAL)
 262:Generated_Source\PSoC4/UART_XB.c ****     UART_XB_ClearPendingInt();
 263:Generated_Source\PSoC4/UART_XB.c **** #endif /* (UART_XB_SCB_IRQ_INTERNAL) */
 264:Generated_Source\PSoC4/UART_XB.c **** }
 265:Generated_Source\PSoC4/UART_XB.c **** 
 266:Generated_Source\PSoC4/UART_XB.c **** 
 267:Generated_Source\PSoC4/UART_XB.c **** /*******************************************************************************
 268:Generated_Source\PSoC4/UART_XB.c **** * Function Name: UART_XB_SetRxFifoLevel
 269:Generated_Source\PSoC4/UART_XB.c **** ****************************************************************************//**
 270:Generated_Source\PSoC4/UART_XB.c **** *
 271:Generated_Source\PSoC4/UART_XB.c **** *  Sets level in the RX FIFO to generate a RX level interrupt.
 272:Generated_Source\PSoC4/UART_XB.c **** *  When the RX FIFO has more entries than the RX FIFO level an RX level
 273:Generated_Source\PSoC4/UART_XB.c **** *  interrupt request is generated.
 274:Generated_Source\PSoC4/UART_XB.c **** *
 275:Generated_Source\PSoC4/UART_XB.c **** *  \param level: Level in the RX FIFO to generate RX level interrupt.
 276:Generated_Source\PSoC4/UART_XB.c **** *   The range of valid level values is between 0 and RX FIFO depth - 1.
ARM GAS  C:\Users\Petro\AppData\Local\Temp\ccT7fEuf.s 			page 7


 277:Generated_Source\PSoC4/UART_XB.c **** *
 278:Generated_Source\PSoC4/UART_XB.c **** *******************************************************************************/
 279:Generated_Source\PSoC4/UART_XB.c **** void UART_XB_SetRxFifoLevel(uint32 level)
 280:Generated_Source\PSoC4/UART_XB.c **** {
 281:Generated_Source\PSoC4/UART_XB.c ****     uint32 rxFifoCtrl;
 282:Generated_Source\PSoC4/UART_XB.c **** 
 283:Generated_Source\PSoC4/UART_XB.c ****     rxFifoCtrl = UART_XB_RX_FIFO_CTRL_REG;
 284:Generated_Source\PSoC4/UART_XB.c **** 
 285:Generated_Source\PSoC4/UART_XB.c ****     rxFifoCtrl &= ((uint32) ~UART_XB_RX_FIFO_CTRL_TRIGGER_LEVEL_MASK); /* Clear level mask bits */
 286:Generated_Source\PSoC4/UART_XB.c ****     rxFifoCtrl |= ((uint32) (UART_XB_RX_FIFO_CTRL_TRIGGER_LEVEL_MASK & level));
 287:Generated_Source\PSoC4/UART_XB.c **** 
 288:Generated_Source\PSoC4/UART_XB.c ****     UART_XB_RX_FIFO_CTRL_REG = rxFifoCtrl;
 289:Generated_Source\PSoC4/UART_XB.c **** }
 290:Generated_Source\PSoC4/UART_XB.c **** 
 291:Generated_Source\PSoC4/UART_XB.c **** 
 292:Generated_Source\PSoC4/UART_XB.c **** /*******************************************************************************
 293:Generated_Source\PSoC4/UART_XB.c **** * Function Name: UART_XB_SetTxFifoLevel
 294:Generated_Source\PSoC4/UART_XB.c **** ****************************************************************************//**
 295:Generated_Source\PSoC4/UART_XB.c **** *
 296:Generated_Source\PSoC4/UART_XB.c **** *  Sets level in the TX FIFO to generate a TX level interrupt.
 297:Generated_Source\PSoC4/UART_XB.c **** *  When the TX FIFO has less entries than the TX FIFO level an TX level
 298:Generated_Source\PSoC4/UART_XB.c **** *  interrupt request is generated.
 299:Generated_Source\PSoC4/UART_XB.c **** *
 300:Generated_Source\PSoC4/UART_XB.c **** *  \param level: Level in the TX FIFO to generate TX level interrupt.
 301:Generated_Source\PSoC4/UART_XB.c **** *   The range of valid level values is between 0 and TX FIFO depth - 1.
 302:Generated_Source\PSoC4/UART_XB.c **** *
 303:Generated_Source\PSoC4/UART_XB.c **** *******************************************************************************/
 304:Generated_Source\PSoC4/UART_XB.c **** void UART_XB_SetTxFifoLevel(uint32 level)
 305:Generated_Source\PSoC4/UART_XB.c **** {
 306:Generated_Source\PSoC4/UART_XB.c ****     uint32 txFifoCtrl;
 307:Generated_Source\PSoC4/UART_XB.c **** 
 308:Generated_Source\PSoC4/UART_XB.c ****     txFifoCtrl = UART_XB_TX_FIFO_CTRL_REG;
 309:Generated_Source\PSoC4/UART_XB.c **** 
 310:Generated_Source\PSoC4/UART_XB.c ****     txFifoCtrl &= ((uint32) ~UART_XB_TX_FIFO_CTRL_TRIGGER_LEVEL_MASK); /* Clear level mask bits */
 311:Generated_Source\PSoC4/UART_XB.c ****     txFifoCtrl |= ((uint32) (UART_XB_TX_FIFO_CTRL_TRIGGER_LEVEL_MASK & level));
 312:Generated_Source\PSoC4/UART_XB.c **** 
 313:Generated_Source\PSoC4/UART_XB.c ****     UART_XB_TX_FIFO_CTRL_REG = txFifoCtrl;
 314:Generated_Source\PSoC4/UART_XB.c **** }
 315:Generated_Source\PSoC4/UART_XB.c **** 
 316:Generated_Source\PSoC4/UART_XB.c **** 
 317:Generated_Source\PSoC4/UART_XB.c **** #if (UART_XB_SCB_IRQ_INTERNAL)
 318:Generated_Source\PSoC4/UART_XB.c ****     /*******************************************************************************
 319:Generated_Source\PSoC4/UART_XB.c ****     * Function Name: UART_XB_SetCustomInterruptHandler
 320:Generated_Source\PSoC4/UART_XB.c ****     ****************************************************************************//**
 321:Generated_Source\PSoC4/UART_XB.c ****     *
 322:Generated_Source\PSoC4/UART_XB.c ****     *  Registers a function to be called by the internal interrupt handler.
 323:Generated_Source\PSoC4/UART_XB.c ****     *  First the function that is registered is called, then the internal interrupt
 324:Generated_Source\PSoC4/UART_XB.c ****     *  handler performs any operation such as software buffer management functions
 325:Generated_Source\PSoC4/UART_XB.c ****     *  before the interrupt returns.  It is the user's responsibility not to break
 326:Generated_Source\PSoC4/UART_XB.c ****     *  the software buffer operations. Only one custom handler is supported, which
 327:Generated_Source\PSoC4/UART_XB.c ****     *  is the function provided by the most recent call.
 328:Generated_Source\PSoC4/UART_XB.c ****     *  At the initialization time no custom handler is registered.
 329:Generated_Source\PSoC4/UART_XB.c ****     *
 330:Generated_Source\PSoC4/UART_XB.c ****     *  \param func: Pointer to the function to register.
 331:Generated_Source\PSoC4/UART_XB.c ****     *        The value NULL indicates to remove the current custom interrupt
 332:Generated_Source\PSoC4/UART_XB.c ****     *        handler.
 333:Generated_Source\PSoC4/UART_XB.c ****     *
ARM GAS  C:\Users\Petro\AppData\Local\Temp\ccT7fEuf.s 			page 8


 334:Generated_Source\PSoC4/UART_XB.c ****     *******************************************************************************/
 335:Generated_Source\PSoC4/UART_XB.c ****     void UART_XB_SetCustomInterruptHandler(void (*func)(void))
 336:Generated_Source\PSoC4/UART_XB.c ****     {
 337:Generated_Source\PSoC4/UART_XB.c ****     #if !defined (CY_REMOVE_UART_XB_CUSTOM_INTR_HANDLER)
 338:Generated_Source\PSoC4/UART_XB.c ****         UART_XB_customIntrHandler = func; /* Register interrupt handler */
 339:Generated_Source\PSoC4/UART_XB.c ****     #else
 340:Generated_Source\PSoC4/UART_XB.c ****         if (NULL != func)
 341:Generated_Source\PSoC4/UART_XB.c ****         {
 342:Generated_Source\PSoC4/UART_XB.c ****             /* Suppress compiler warning */
 343:Generated_Source\PSoC4/UART_XB.c ****         }
 344:Generated_Source\PSoC4/UART_XB.c ****     #endif /* !defined (CY_REMOVE_UART_XB_CUSTOM_INTR_HANDLER) */
 345:Generated_Source\PSoC4/UART_XB.c ****     }
 346:Generated_Source\PSoC4/UART_XB.c **** #endif /* (UART_XB_SCB_IRQ_INTERNAL) */
 347:Generated_Source\PSoC4/UART_XB.c **** 
 348:Generated_Source\PSoC4/UART_XB.c **** 
 349:Generated_Source\PSoC4/UART_XB.c **** /*******************************************************************************
 350:Generated_Source\PSoC4/UART_XB.c **** * Function Name: UART_XB_ScbModeEnableIntr
 351:Generated_Source\PSoC4/UART_XB.c **** ****************************************************************************//**
 352:Generated_Source\PSoC4/UART_XB.c **** *
 353:Generated_Source\PSoC4/UART_XB.c **** *  Enables an interrupt for a specific mode.
 354:Generated_Source\PSoC4/UART_XB.c **** *
 355:Generated_Source\PSoC4/UART_XB.c **** *******************************************************************************/
 356:Generated_Source\PSoC4/UART_XB.c **** static void UART_XB_ScbEnableIntr(void)
 357:Generated_Source\PSoC4/UART_XB.c **** {
 358:Generated_Source\PSoC4/UART_XB.c **** #if (UART_XB_SCB_IRQ_INTERNAL)
 359:Generated_Source\PSoC4/UART_XB.c ****     /* Enable interrupt in NVIC */
 360:Generated_Source\PSoC4/UART_XB.c ****     #if (UART_XB_SCB_MODE_UNCONFIG_CONST_CFG)
 361:Generated_Source\PSoC4/UART_XB.c ****         if (0u != UART_XB_scbEnableIntr)
 362:Generated_Source\PSoC4/UART_XB.c ****         {
 363:Generated_Source\PSoC4/UART_XB.c ****             UART_XB_EnableInt();
 364:Generated_Source\PSoC4/UART_XB.c ****         }
 365:Generated_Source\PSoC4/UART_XB.c **** 
 366:Generated_Source\PSoC4/UART_XB.c ****     #else
 367:Generated_Source\PSoC4/UART_XB.c ****         UART_XB_EnableInt();
  66              		.loc 1 367 0
  67 000e 0920     		mov	r0, #9
  68 0010 FFF7FEFF 		bl	CyIntEnable
  69              	.LVL1:
  70              	.LBE13:
  71              	.LBE12:
 192:Generated_Source\PSoC4/UART_XB.c **** 
  72              		.loc 1 192 0
  73              		@ sp needed
  74              	.LBB14:
  75              	.LBB15:
 368:Generated_Source\PSoC4/UART_XB.c **** 
 369:Generated_Source\PSoC4/UART_XB.c ****     #endif /* (UART_XB_SCB_MODE_UNCONFIG_CONST_CFG) */
 370:Generated_Source\PSoC4/UART_XB.c **** #endif /* (UART_XB_SCB_IRQ_INTERNAL) */
 371:Generated_Source\PSoC4/UART_XB.c **** }
 372:Generated_Source\PSoC4/UART_XB.c **** 
 373:Generated_Source\PSoC4/UART_XB.c **** 
 374:Generated_Source\PSoC4/UART_XB.c **** /*******************************************************************************
 375:Generated_Source\PSoC4/UART_XB.c **** * Function Name: UART_XB_ScbModePostEnable
 376:Generated_Source\PSoC4/UART_XB.c **** ****************************************************************************//**
 377:Generated_Source\PSoC4/UART_XB.c **** *
 378:Generated_Source\PSoC4/UART_XB.c **** *  Calls the PostEnable function for a specific operation mode.
 379:Generated_Source\PSoC4/UART_XB.c **** *
ARM GAS  C:\Users\Petro\AppData\Local\Temp\ccT7fEuf.s 			page 9


 380:Generated_Source\PSoC4/UART_XB.c **** *******************************************************************************/
 381:Generated_Source\PSoC4/UART_XB.c **** static void UART_XB_ScbModePostEnable(void)
 382:Generated_Source\PSoC4/UART_XB.c **** {
 383:Generated_Source\PSoC4/UART_XB.c **** #if (UART_XB_SCB_MODE_UNCONFIG_CONST_CFG)
 384:Generated_Source\PSoC4/UART_XB.c **** #if (!UART_XB_CY_SCBIP_V1)
 385:Generated_Source\PSoC4/UART_XB.c ****     if (UART_XB_SCB_MODE_SPI_RUNTM_CFG)
 386:Generated_Source\PSoC4/UART_XB.c ****     {
 387:Generated_Source\PSoC4/UART_XB.c ****         UART_XB_SpiPostEnable();
 388:Generated_Source\PSoC4/UART_XB.c ****     }
 389:Generated_Source\PSoC4/UART_XB.c ****     else if (UART_XB_SCB_MODE_UART_RUNTM_CFG)
 390:Generated_Source\PSoC4/UART_XB.c ****     {
 391:Generated_Source\PSoC4/UART_XB.c ****         UART_XB_UartPostEnable();
 392:Generated_Source\PSoC4/UART_XB.c ****     }
 393:Generated_Source\PSoC4/UART_XB.c ****     else
 394:Generated_Source\PSoC4/UART_XB.c ****     {
 395:Generated_Source\PSoC4/UART_XB.c ****         /* Unknown mode: do nothing */
 396:Generated_Source\PSoC4/UART_XB.c ****     }
 397:Generated_Source\PSoC4/UART_XB.c **** #endif /* (!UART_XB_CY_SCBIP_V1) */
 398:Generated_Source\PSoC4/UART_XB.c **** 
 399:Generated_Source\PSoC4/UART_XB.c **** #elif (UART_XB_SCB_MODE_SPI_CONST_CFG)
 400:Generated_Source\PSoC4/UART_XB.c ****     UART_XB_SpiPostEnable();
 401:Generated_Source\PSoC4/UART_XB.c **** 
 402:Generated_Source\PSoC4/UART_XB.c **** #elif (UART_XB_SCB_MODE_UART_CONST_CFG)
 403:Generated_Source\PSoC4/UART_XB.c ****     UART_XB_UartPostEnable();
  76              		.loc 1 403 0
  77 0014 FFF7FEFF 		bl	UART_XB_UartPostEnable
  78              	.LVL2:
  79              	.LBE15:
  80              	.LBE14:
 192:Generated_Source\PSoC4/UART_XB.c **** 
  81              		.loc 1 192 0
  82 0018 08BD     		pop	{r3, pc}
  83              	.L4:
  84 001a C046     		.align	2
  85              	.L3:
  86 001c 00002440 		.word	1076101120
  87              		.cfi_endproc
  88              	.LFE3:
  89              		.size	UART_XB_Enable, .-UART_XB_Enable
  90              		.section	.text.UART_XB_Start,"ax",%progbits
  91              		.align	1
  92              		.global	UART_XB_Start
  93              		.code	16
  94              		.thumb_func
  95              		.type	UART_XB_Start, %function
  96              	UART_XB_Start:
  97              	.LFB4:
 211:Generated_Source\PSoC4/UART_XB.c ****     if (0u == UART_XB_initVar)
  98              		.loc 1 211 0
  99              		.cfi_startproc
 100 0000 10B5     		push	{r4, lr}
 101              		.cfi_def_cfa_offset 8
 102              		.cfi_offset 4, -8
 103              		.cfi_offset 14, -4
 212:Generated_Source\PSoC4/UART_XB.c ****     {
 104              		.loc 1 212 0
 105 0002 054C     		ldr	r4, .L8
ARM GAS  C:\Users\Petro\AppData\Local\Temp\ccT7fEuf.s 			page 10


 106 0004 2378     		ldrb	r3, [r4]
 107 0006 002B     		cmp	r3, #0
 108 0008 03D1     		bne	.L6
 109              	.LBB16:
 110              	.LBB17:
 142:Generated_Source\PSoC4/UART_XB.c **** 
 111              		.loc 1 142 0
 112 000a FFF7FEFF 		bl	UART_XB_UartInit
 113              	.LVL3:
 114              	.LBE17:
 115              	.LBE16:
 215:Generated_Source\PSoC4/UART_XB.c ****     }
 116              		.loc 1 215 0
 117 000e 0123     		mov	r3, #1
 118 0010 2370     		strb	r3, [r4]
 119              	.L6:
 218:Generated_Source\PSoC4/UART_XB.c **** }
 120              		.loc 1 218 0
 121 0012 FFF7FEFF 		bl	UART_XB_Enable
 122              	.LVL4:
 219:Generated_Source\PSoC4/UART_XB.c **** 
 123              		.loc 1 219 0
 124              		@ sp needed
 125 0016 10BD     		pop	{r4, pc}
 126              	.L9:
 127              		.align	2
 128              	.L8:
 129 0018 00000000 		.word	.LANCHOR0
 130              		.cfi_endproc
 131              	.LFE4:
 132              		.size	UART_XB_Start, .-UART_XB_Start
 133              		.section	.text.UART_XB_Stop,"ax",%progbits
 134              		.align	1
 135              		.global	UART_XB_Stop
 136              		.code	16
 137              		.thumb_func
 138              		.type	UART_XB_Stop, %function
 139              	UART_XB_Stop:
 140              	.LFB5:
 240:Generated_Source\PSoC4/UART_XB.c **** #if (UART_XB_SCB_IRQ_INTERNAL)
 141              		.loc 1 240 0
 142              		.cfi_startproc
 143 0000 08B5     		push	{r3, lr}
 144              		.cfi_def_cfa_offset 8
 145              		.cfi_offset 3, -8
 146              		.cfi_offset 14, -4
 242:Generated_Source\PSoC4/UART_XB.c **** #endif /* (UART_XB_SCB_IRQ_INTERNAL) */
 147              		.loc 1 242 0
 148 0002 0920     		mov	r0, #9
 149 0004 FFF7FEFF 		bl	CyIntDisable
 150              	.LVL5:
 151              	.LBB18:
 152              	.LBB19:
 404:Generated_Source\PSoC4/UART_XB.c **** 
 405:Generated_Source\PSoC4/UART_XB.c **** #else
 406:Generated_Source\PSoC4/UART_XB.c ****     /* Unknown mode: do nothing */
 407:Generated_Source\PSoC4/UART_XB.c **** #endif /* (UART_XB_SCB_MODE_UNCONFIG_CONST_CFG) */
ARM GAS  C:\Users\Petro\AppData\Local\Temp\ccT7fEuf.s 			page 11


 408:Generated_Source\PSoC4/UART_XB.c **** }
 409:Generated_Source\PSoC4/UART_XB.c **** 
 410:Generated_Source\PSoC4/UART_XB.c **** 
 411:Generated_Source\PSoC4/UART_XB.c **** /*******************************************************************************
 412:Generated_Source\PSoC4/UART_XB.c **** * Function Name: UART_XB_ScbModeStop
 413:Generated_Source\PSoC4/UART_XB.c **** ****************************************************************************//**
 414:Generated_Source\PSoC4/UART_XB.c **** *
 415:Generated_Source\PSoC4/UART_XB.c **** *  Calls the Stop function for a specific operation mode.
 416:Generated_Source\PSoC4/UART_XB.c **** *
 417:Generated_Source\PSoC4/UART_XB.c **** *******************************************************************************/
 418:Generated_Source\PSoC4/UART_XB.c **** static void UART_XB_ScbModeStop(void)
 419:Generated_Source\PSoC4/UART_XB.c **** {
 420:Generated_Source\PSoC4/UART_XB.c **** #if (UART_XB_SCB_MODE_UNCONFIG_CONST_CFG)
 421:Generated_Source\PSoC4/UART_XB.c ****     if (UART_XB_SCB_MODE_I2C_RUNTM_CFG)
 422:Generated_Source\PSoC4/UART_XB.c ****     {
 423:Generated_Source\PSoC4/UART_XB.c ****         UART_XB_I2CStop();
 424:Generated_Source\PSoC4/UART_XB.c ****     }
 425:Generated_Source\PSoC4/UART_XB.c ****     else if (UART_XB_SCB_MODE_EZI2C_RUNTM_CFG)
 426:Generated_Source\PSoC4/UART_XB.c ****     {
 427:Generated_Source\PSoC4/UART_XB.c ****         UART_XB_EzI2CStop();
 428:Generated_Source\PSoC4/UART_XB.c ****     }
 429:Generated_Source\PSoC4/UART_XB.c **** #if (!UART_XB_CY_SCBIP_V1)
 430:Generated_Source\PSoC4/UART_XB.c ****     else if (UART_XB_SCB_MODE_SPI_RUNTM_CFG)
 431:Generated_Source\PSoC4/UART_XB.c ****     {
 432:Generated_Source\PSoC4/UART_XB.c ****         UART_XB_SpiStop();
 433:Generated_Source\PSoC4/UART_XB.c ****     }
 434:Generated_Source\PSoC4/UART_XB.c ****     else if (UART_XB_SCB_MODE_UART_RUNTM_CFG)
 435:Generated_Source\PSoC4/UART_XB.c ****     {
 436:Generated_Source\PSoC4/UART_XB.c ****         UART_XB_UartStop();
 437:Generated_Source\PSoC4/UART_XB.c ****     }
 438:Generated_Source\PSoC4/UART_XB.c **** #endif /* (!UART_XB_CY_SCBIP_V1) */
 439:Generated_Source\PSoC4/UART_XB.c ****     else
 440:Generated_Source\PSoC4/UART_XB.c ****     {
 441:Generated_Source\PSoC4/UART_XB.c ****         /* Unknown mode: do nothing */
 442:Generated_Source\PSoC4/UART_XB.c ****     }
 443:Generated_Source\PSoC4/UART_XB.c **** #elif (UART_XB_SCB_MODE_I2C_CONST_CFG)
 444:Generated_Source\PSoC4/UART_XB.c ****     UART_XB_I2CStop();
 445:Generated_Source\PSoC4/UART_XB.c **** 
 446:Generated_Source\PSoC4/UART_XB.c **** #elif (UART_XB_SCB_MODE_EZI2C_CONST_CFG)
 447:Generated_Source\PSoC4/UART_XB.c ****     UART_XB_EzI2CStop();
 448:Generated_Source\PSoC4/UART_XB.c **** 
 449:Generated_Source\PSoC4/UART_XB.c **** #elif (UART_XB_SCB_MODE_SPI_CONST_CFG)
 450:Generated_Source\PSoC4/UART_XB.c ****     UART_XB_SpiStop();
 451:Generated_Source\PSoC4/UART_XB.c **** 
 452:Generated_Source\PSoC4/UART_XB.c **** #elif (UART_XB_SCB_MODE_UART_CONST_CFG)
 453:Generated_Source\PSoC4/UART_XB.c ****     UART_XB_UartStop();
 153              		.loc 1 453 0
 154 0008 FFF7FEFF 		bl	UART_XB_UartStop
 155              	.LVL6:
 156              	.LBE19:
 157              	.LBE18:
 249:Generated_Source\PSoC4/UART_XB.c **** 
 158              		.loc 1 249 0
 159 000c 054A     		ldr	r2, .L11
 262:Generated_Source\PSoC4/UART_XB.c **** #endif /* (UART_XB_SCB_IRQ_INTERNAL) */
 160              		.loc 1 262 0
 161 000e 0920     		mov	r0, #9
ARM GAS  C:\Users\Petro\AppData\Local\Temp\ccT7fEuf.s 			page 12


 249:Generated_Source\PSoC4/UART_XB.c **** 
 162              		.loc 1 249 0
 163 0010 1368     		ldr	r3, [r2]
 264:Generated_Source\PSoC4/UART_XB.c **** 
 164              		.loc 1 264 0
 165              		@ sp needed
 249:Generated_Source\PSoC4/UART_XB.c **** 
 166              		.loc 1 249 0
 167 0012 5B00     		lsl	r3, r3, #1
 168 0014 5B08     		lsr	r3, r3, #1
 169 0016 1360     		str	r3, [r2]
 259:Generated_Source\PSoC4/UART_XB.c **** 
 170              		.loc 1 259 0
 171 0018 0022     		mov	r2, #0
 172 001a 034B     		ldr	r3, .L11+4
 173 001c 1A60     		str	r2, [r3]
 262:Generated_Source\PSoC4/UART_XB.c **** #endif /* (UART_XB_SCB_IRQ_INTERNAL) */
 174              		.loc 1 262 0
 175 001e FFF7FEFF 		bl	CyIntClearPending
 176              	.LVL7:
 264:Generated_Source\PSoC4/UART_XB.c **** 
 177              		.loc 1 264 0
 178 0022 08BD     		pop	{r3, pc}
 179              	.L12:
 180              		.align	2
 181              	.L11:
 182 0024 00002440 		.word	1076101120
 183 0028 880F2440 		.word	1076105096
 184              		.cfi_endproc
 185              	.LFE5:
 186              		.size	UART_XB_Stop, .-UART_XB_Stop
 187              		.section	.text.UART_XB_SetRxFifoLevel,"ax",%progbits
 188              		.align	1
 189              		.global	UART_XB_SetRxFifoLevel
 190              		.code	16
 191              		.thumb_func
 192              		.type	UART_XB_SetRxFifoLevel, %function
 193              	UART_XB_SetRxFifoLevel:
 194              	.LFB6:
 280:Generated_Source\PSoC4/UART_XB.c ****     uint32 rxFifoCtrl;
 195              		.loc 1 280 0
 196              		.cfi_startproc
 197              	.LVL8:
 285:Generated_Source\PSoC4/UART_XB.c ****     rxFifoCtrl |= ((uint32) (UART_XB_RX_FIFO_CTRL_TRIGGER_LEVEL_MASK & level));
 198              		.loc 1 285 0
 199 0000 0F22     		mov	r2, #15
 283:Generated_Source\PSoC4/UART_XB.c **** 
 200              		.loc 1 283 0
 201 0002 0349     		ldr	r1, .L14
 286:Generated_Source\PSoC4/UART_XB.c **** 
 202              		.loc 1 286 0
 203 0004 1040     		and	r0, r2
 204              	.LVL9:
 283:Generated_Source\PSoC4/UART_XB.c **** 
 205              		.loc 1 283 0
 206 0006 0B68     		ldr	r3, [r1]
 207              	.LVL10:
ARM GAS  C:\Users\Petro\AppData\Local\Temp\ccT7fEuf.s 			page 13


 289:Generated_Source\PSoC4/UART_XB.c **** 
 208              		.loc 1 289 0
 209              		@ sp needed
 285:Generated_Source\PSoC4/UART_XB.c ****     rxFifoCtrl |= ((uint32) (UART_XB_RX_FIFO_CTRL_TRIGGER_LEVEL_MASK & level));
 210              		.loc 1 285 0
 211 0008 9343     		bic	r3, r2
 212              	.LVL11:
 286:Generated_Source\PSoC4/UART_XB.c **** 
 213              		.loc 1 286 0
 214 000a 1843     		orr	r0, r3
 215              	.LVL12:
 288:Generated_Source\PSoC4/UART_XB.c **** }
 216              		.loc 1 288 0
 217 000c 0860     		str	r0, [r1]
 289:Generated_Source\PSoC4/UART_XB.c **** 
 218              		.loc 1 289 0
 219 000e 7047     		bx	lr
 220              	.L15:
 221              		.align	2
 222              	.L14:
 223 0010 04032440 		.word	1076101892
 224              		.cfi_endproc
 225              	.LFE6:
 226              		.size	UART_XB_SetRxFifoLevel, .-UART_XB_SetRxFifoLevel
 227              		.section	.text.UART_XB_SetTxFifoLevel,"ax",%progbits
 228              		.align	1
 229              		.global	UART_XB_SetTxFifoLevel
 230              		.code	16
 231              		.thumb_func
 232              		.type	UART_XB_SetTxFifoLevel, %function
 233              	UART_XB_SetTxFifoLevel:
 234              	.LFB7:
 305:Generated_Source\PSoC4/UART_XB.c ****     uint32 txFifoCtrl;
 235              		.loc 1 305 0
 236              		.cfi_startproc
 237              	.LVL13:
 310:Generated_Source\PSoC4/UART_XB.c ****     txFifoCtrl |= ((uint32) (UART_XB_TX_FIFO_CTRL_TRIGGER_LEVEL_MASK & level));
 238              		.loc 1 310 0
 239 0000 0F22     		mov	r2, #15
 308:Generated_Source\PSoC4/UART_XB.c **** 
 240              		.loc 1 308 0
 241 0002 0349     		ldr	r1, .L17
 311:Generated_Source\PSoC4/UART_XB.c **** 
 242              		.loc 1 311 0
 243 0004 1040     		and	r0, r2
 244              	.LVL14:
 308:Generated_Source\PSoC4/UART_XB.c **** 
 245              		.loc 1 308 0
 246 0006 0B68     		ldr	r3, [r1]
 247              	.LVL15:
 314:Generated_Source\PSoC4/UART_XB.c **** 
 248              		.loc 1 314 0
 249              		@ sp needed
 310:Generated_Source\PSoC4/UART_XB.c ****     txFifoCtrl |= ((uint32) (UART_XB_TX_FIFO_CTRL_TRIGGER_LEVEL_MASK & level));
 250              		.loc 1 310 0
 251 0008 9343     		bic	r3, r2
 252              	.LVL16:
ARM GAS  C:\Users\Petro\AppData\Local\Temp\ccT7fEuf.s 			page 14


 311:Generated_Source\PSoC4/UART_XB.c **** 
 253              		.loc 1 311 0
 254 000a 1843     		orr	r0, r3
 255              	.LVL17:
 313:Generated_Source\PSoC4/UART_XB.c **** }
 256              		.loc 1 313 0
 257 000c 0860     		str	r0, [r1]
 314:Generated_Source\PSoC4/UART_XB.c **** 
 258              		.loc 1 314 0
 259 000e 7047     		bx	lr
 260              	.L18:
 261              		.align	2
 262              	.L17:
 263 0010 04022440 		.word	1076101636
 264              		.cfi_endproc
 265              	.LFE7:
 266              		.size	UART_XB_SetTxFifoLevel, .-UART_XB_SetTxFifoLevel
 267              		.section	.text.UART_XB_SetCustomInterruptHandler,"ax",%progbits
 268              		.align	1
 269              		.global	UART_XB_SetCustomInterruptHandler
 270              		.code	16
 271              		.thumb_func
 272              		.type	UART_XB_SetCustomInterruptHandler, %function
 273              	UART_XB_SetCustomInterruptHandler:
 274              	.LFB8:
 336:Generated_Source\PSoC4/UART_XB.c ****     #if !defined (CY_REMOVE_UART_XB_CUSTOM_INTR_HANDLER)
 275              		.loc 1 336 0
 276              		.cfi_startproc
 277              	.LVL18:
 338:Generated_Source\PSoC4/UART_XB.c ****     #else
 278              		.loc 1 338 0
 279 0000 014B     		ldr	r3, .L20
 345:Generated_Source\PSoC4/UART_XB.c **** #endif /* (UART_XB_SCB_IRQ_INTERNAL) */
 280              		.loc 1 345 0
 281              		@ sp needed
 338:Generated_Source\PSoC4/UART_XB.c ****     #else
 282              		.loc 1 338 0
 283 0002 5860     		str	r0, [r3, #4]
 345:Generated_Source\PSoC4/UART_XB.c **** #endif /* (UART_XB_SCB_IRQ_INTERNAL) */
 284              		.loc 1 345 0
 285 0004 7047     		bx	lr
 286              	.L21:
 287 0006 C046     		.align	2
 288              	.L20:
 289 0008 00000000 		.word	.LANCHOR0
 290              		.cfi_endproc
 291              	.LFE8:
 292              		.size	UART_XB_SetCustomInterruptHandler, .-UART_XB_SetCustomInterruptHandler
 293              		.global	UART_XB_customIntrHandler
 294              		.global	UART_XB_IntrTxMask
 295              		.global	UART_XB_initVar
 296              		.bss
 297              		.align	2
 298              		.set	.LANCHOR0,. + 0
 299              		.type	UART_XB_initVar, %object
 300              		.size	UART_XB_initVar, 1
 301              	UART_XB_initVar:
ARM GAS  C:\Users\Petro\AppData\Local\Temp\ccT7fEuf.s 			page 15


 302 0000 00       		.space	1
 303 0001 000000   		.space	3
 304              		.type	UART_XB_customIntrHandler, %object
 305              		.size	UART_XB_customIntrHandler, 4
 306              	UART_XB_customIntrHandler:
 307 0004 00000000 		.space	4
 308              		.type	UART_XB_IntrTxMask, %object
 309              		.size	UART_XB_IntrTxMask, 2
 310              	UART_XB_IntrTxMask:
 311 0008 0000     		.space	2
 312 000a 0000     		.text
 313              	.Letext0:
 314              		.file 2 "Generated_Source\\PSoC4/cytypes.h"
 315              		.file 3 "Generated_Source\\PSoC4\\UART_XB_SPI_UART_PVT.h"
 316              		.file 4 "Generated_Source\\PSoC4/CyLib.h"