ARM GAS  C:\Users\Petro\AppData\Local\Temp\ccPaV2rP.s 			page 1


   1              		.cpu cortex-m0
   2              		.fpu softvfp
   3              		.eabi_attribute 20, 1
   4              		.eabi_attribute 21, 1
   5              		.eabi_attribute 23, 3
   6              		.eabi_attribute 24, 1
   7              		.eabi_attribute 25, 1
   8              		.eabi_attribute 26, 1
   9              		.eabi_attribute 30, 6
  10              		.eabi_attribute 34, 0
  11              		.eabi_attribute 18, 4
  12              		.code	16
  13              		.file	"main.c"
  14              		.text
  15              	.Ltext0:
  16              		.cfi_sections	.debug_frame
  17              		.data
  18              		.align	2
  19              		.type	DS1307_daysBeforeMonthTbl1, %object
  20              		.size	DS1307_daysBeforeMonthTbl1, 24
  21              	DS1307_daysBeforeMonthTbl1:
  22 0000 0000     		.short	0
  23 0002 1F00     		.short	31
  24 0004 3B00     		.short	59
  25 0006 5A00     		.short	90
  26 0008 7800     		.short	120
  27 000a 9700     		.short	151
  28 000c B500     		.short	181
  29 000e D400     		.short	212
  30 0010 F300     		.short	243
  31 0012 1101     		.short	273
  32 0014 3001     		.short	304
  33 0016 4E01     		.short	334
  34              		.align	2
  35              		.type	DS1307_daysInMonthTbl, %object
  36              		.size	DS1307_daysInMonthTbl, 12
  37              	DS1307_daysInMonthTbl:
  38 0018 1F       		.byte	31
  39 0019 1C       		.byte	28
  40 001a 1F       		.byte	31
  41 001b 1E       		.byte	30
  42 001c 1F       		.byte	31
  43 001d 1E       		.byte	30
  44 001e 1F       		.byte	31
  45 001f 1F       		.byte	31
  46 0020 1E       		.byte	30
  47 0021 1F       		.byte	31
  48 0022 1E       		.byte	30
  49 0023 1F       		.byte	31
  50              		.section	.text.main,"ax",%progbits
  51              		.align	2
  52              		.global	main
  53              		.code	16
  54              		.thumb_func
  55              		.type	main, %function
  56              	main:
  57              	.LFB37:
ARM GAS  C:\Users\Petro\AppData\Local\Temp\ccPaV2rP.s 			page 2


  58              		.file 1 ".\\main.c"
   1:.\main.c      **** /* ========================================
   2:.\main.c      ****  *
   3:.\main.c      ****  * Copyright YOUR COMPANY, THE YEAR
   4:.\main.c      ****  * All Rights Reserved
   5:.\main.c      ****  * UNPUBLISHED, LICENSED SOFTWARE.
   6:.\main.c      ****  *
   7:.\main.c      ****  * CONFIDENTIAL AND PROPRIETARY INFORMATION
   8:.\main.c      ****  * WHICH IS THE PROPERTY OF your company.
   9:.\main.c      ****  *
  10:.\main.c      ****  * ========================================
  11:.\main.c      **** */
  12:.\main.c      **** #include <project.h>
  13:.\main.c      **** #include "DS1307.h"
  14:.\main.c      **** 
  15:.\main.c      **** 
  16:.\main.c      **** int main()
  17:.\main.c      **** {
  59              		.loc 1 17 0
  60              		.cfi_startproc
  61 0000 90B5     		push	{r4, r7, lr}
  62              		.cfi_def_cfa_offset 12
  63              		.cfi_offset 4, -12
  64              		.cfi_offset 7, -8
  65              		.cfi_offset 14, -4
  66 0002 83B0     		sub	sp, sp, #12
  67              		.cfi_def_cfa_offset 24
  68 0004 00AF     		add	r7, sp, #0
  69              		.cfi_def_cfa_register 7
  18:.\main.c      ****     CyGlobalIntEnable; /* Enable global interrupts. */
  70              		.loc 1 18 0
  71              	@ 18 ".\main.c" 1
  72 0006 62B6     		CPSIE   i
  73              	@ 0 "" 2
  74              		.code	16
  75              	.L2:
  19:.\main.c      **** 
  20:.\main.c      ****     uint64_t unixTime;
  21:.\main.c      ****     //DS1307_SetUnixTime(1470066420);
  22:.\main.c      ****     
  23:.\main.c      ****     for(;;)
  24:.\main.c      ****     {
  25:.\main.c      ****         unixTime = DS1307_GetUnixTime();
  76              		.loc 1 25 0 discriminator 1
  77 0008 FFF7FEFF 		bl	DS1307_GetUnixTime
  78 000c 031C     		mov	r3, r0
  79 000e 0C1C     		mov	r4, r1
  80 0010 3B60     		str	r3, [r7]
  81 0012 7C60     		str	r4, [r7, #4]
  26:.\main.c      ****         
  27:.\main.c      ****         CyDelay(100);
  82              		.loc 1 27 0 discriminator 1
  83 0014 6420     		mov	r0, #100
  84 0016 FFF7FEFF 		bl	CyDelay
  28:.\main.c      ****     }
  85              		.loc 1 28 0 discriminator 1
  86 001a F5E7     		b	.L2
ARM GAS  C:\Users\Petro\AppData\Local\Temp\ccPaV2rP.s 			page 3


  87              		.cfi_endproc
  88              	.LFE37:
  89              		.size	main, .-main
  90              		.text
  91              	.Letext0:
  92              		.file 2 "c:\\program files (x86)\\cypress\\psoc creator\\3.3\\psoc creator\\import\\gnu\\arm\\4.9.
  93              		.file 3 "c:\\program files (x86)\\cypress\\psoc creator\\3.3\\psoc creator\\import\\gnu\\arm\\4.9.
  94              		.file 4 "Generated_Source\\PSoC4/cytypes.h"
  95              		.file 5 ".\\DS1307.h"