ARM GAS  C:\Users\Petro\AppData\Local\Temp\ccJlJNPj.s 			page 1


   1              		.cpu cortex-m0
   2              		.fpu softvfp
   3              		.eabi_attribute 20, 1
   4              		.eabi_attribute 21, 1
   5              		.eabi_attribute 23, 3
   6              		.eabi_attribute 24, 1
   7              		.eabi_attribute 25, 1
   8              		.eabi_attribute 26, 1
   9              		.eabi_attribute 30, 1
  10              		.eabi_attribute 34, 0
  11              		.eabi_attribute 18, 4
  12              		.code	16
  13              		.file	"BLE.c"
  14              		.text
  15              	.Ltext0:
  16              		.cfi_sections	.debug_frame
  17              		.section	.text.CyBle_ServiceInit,"ax",%progbits
  18              		.align	2
  19              		.global	CyBle_ServiceInit
  20              		.code	16
  21              		.thumb_func
  22              		.type	CyBle_ServiceInit, %function
  23              	CyBle_ServiceInit:
  24              	.LFB3:
  25              		.file 1 ".\\Generated_Source\\PSoC4\\BLE.c"
   1:.\Generated_Source\PSoC4/BLE.c **** /***************************************************************************//**
   2:.\Generated_Source\PSoC4/BLE.c **** * \file CYBLE.c
   3:.\Generated_Source\PSoC4/BLE.c **** * \version 2.30
   4:.\Generated_Source\PSoC4/BLE.c **** * 
   5:.\Generated_Source\PSoC4/BLE.c **** * \brief
   6:.\Generated_Source\PSoC4/BLE.c **** *  This file contains the source code for the Common APIs of the BLE Component.
   7:.\Generated_Source\PSoC4/BLE.c **** * 
   8:.\Generated_Source\PSoC4/BLE.c **** ********************************************************************************
   9:.\Generated_Source\PSoC4/BLE.c **** * \copyright
  10:.\Generated_Source\PSoC4/BLE.c **** * Copyright 2014-2015, Cypress Semiconductor Corporation.  All rights reserved.
  11:.\Generated_Source\PSoC4/BLE.c **** * You may use this file only in accordance with the license, terms, conditions,
  12:.\Generated_Source\PSoC4/BLE.c **** * disclaimers, and limitations in the end user license agreement accompanying
  13:.\Generated_Source\PSoC4/BLE.c **** * the software package with which this file was provided.
  14:.\Generated_Source\PSoC4/BLE.c **** *******************************************************************************/
  15:.\Generated_Source\PSoC4/BLE.c **** 
  16:.\Generated_Source\PSoC4/BLE.c **** #include "BLE_eventHandler.h"
  17:.\Generated_Source\PSoC4/BLE.c **** #include "BLE_HAL_PVT.h"
  18:.\Generated_Source\PSoC4/BLE.c **** #include <stdlib.h>
  19:.\Generated_Source\PSoC4/BLE.c **** 
  20:.\Generated_Source\PSoC4/BLE.c **** 
  21:.\Generated_Source\PSoC4/BLE.c **** /***************************************
  22:.\Generated_Source\PSoC4/BLE.c **** * Function Prototypes
  23:.\Generated_Source\PSoC4/BLE.c **** ***************************************/
  24:.\Generated_Source\PSoC4/BLE.c **** 
  25:.\Generated_Source\PSoC4/BLE.c **** #if(CYBLE_GATT_ROLE_SERVER)
  26:.\Generated_Source\PSoC4/BLE.c ****     #if(CYBLE_GAP_ROLE_PERIPHERAL)
  27:.\Generated_Source\PSoC4/BLE.c ****         static void CyBle_ChangeAdLocalName(const char8 name[], uint8 dest);
  28:.\Generated_Source\PSoC4/BLE.c ****     #endif /* (CYBLE_GAP_ROLE_PERIPHERAL) */
  29:.\Generated_Source\PSoC4/BLE.c **** #endif /* (CYBLE_GATT_ROLE_SERVER) */
  30:.\Generated_Source\PSoC4/BLE.c ****     
  31:.\Generated_Source\PSoC4/BLE.c **** 
  32:.\Generated_Source\PSoC4/BLE.c **** /***************************************
ARM GAS  C:\Users\Petro\AppData\Local\Temp\ccJlJNPj.s 			page 2


  33:.\Generated_Source\PSoC4/BLE.c **** * Global Variables
  34:.\Generated_Source\PSoC4/BLE.c **** ***************************************/
  35:.\Generated_Source\PSoC4/BLE.c **** 
  36:.\Generated_Source\PSoC4/BLE.c **** /* Indicates whether the BLE has been initialized. The variable is initialized to
  37:.\Generated_Source\PSoC4/BLE.c ****    0 and set to 1 the first time CyBle_Start() is called. This allows the component
  38:.\Generated_Source\PSoC4/BLE.c ****    to restart without reinitialization after the first call to the CyBle_Start() 
  39:.\Generated_Source\PSoC4/BLE.c ****    routine. If reinitialization of the component is required, the variable should 
  40:.\Generated_Source\PSoC4/BLE.c ****    be set to 0 before the CyBle_Start() routine is called. Alternatively, the BLE
  41:.\Generated_Source\PSoC4/BLE.c ****    can be reinitialized by calling the CyBle_Init() function.
  42:.\Generated_Source\PSoC4/BLE.c **** */
  43:.\Generated_Source\PSoC4/BLE.c **** uint8  cyBle_initVar = 0u;
  44:.\Generated_Source\PSoC4/BLE.c **** 
  45:.\Generated_Source\PSoC4/BLE.c **** /* Allocate RAM memory for stack. This buffer could be reused by application when 
  46:.\Generated_Source\PSoC4/BLE.c ****    BLE component is stopped. For export mode buffer is allocated in heap.
  47:.\Generated_Source\PSoC4/BLE.c **** */
  48:.\Generated_Source\PSoC4/BLE.c **** #if(CYBLE_SHARING_MODE_EXPORT)
  49:.\Generated_Source\PSoC4/BLE.c ****     
  50:.\Generated_Source\PSoC4/BLE.c **** uint8 *cyBle_stackMemoryRam = NULL;
  51:.\Generated_Source\PSoC4/BLE.c **** 
  52:.\Generated_Source\PSoC4/BLE.c **** #else
  53:.\Generated_Source\PSoC4/BLE.c **** 
  54:.\Generated_Source\PSoC4/BLE.c **** CYBLE_CYALIGNED_BEGIN uint8 cyBle_stackMemoryRam[CYBLE_STACK_RAM_SIZE] CYBLE_CYALIGNED_END;
  55:.\Generated_Source\PSoC4/BLE.c **** 
  56:.\Generated_Source\PSoC4/BLE.c **** #endif  /* CYBLE_SHARING_MODE_EXPORT */
  57:.\Generated_Source\PSoC4/BLE.c **** 
  58:.\Generated_Source\PSoC4/BLE.c **** #if(CYBLE_GAP_ROLE_PERIPHERAL || CYBLE_GAP_ROLE_BROADCASTER)
  59:.\Generated_Source\PSoC4/BLE.c **** 
  60:.\Generated_Source\PSoC4/BLE.c **** 
  61:.\Generated_Source\PSoC4/BLE.c **** 
  62:.\Generated_Source\PSoC4/BLE.c **** #endif /* CYBLE_GAP_ROLE_PERIPHERAL || CYBLE_GAP_ROLE_BROADCASTER */
  63:.\Generated_Source\PSoC4/BLE.c **** 
  64:.\Generated_Source\PSoC4/BLE.c **** #if(CYBLE_GAP_ROLE_CENTRAL)
  65:.\Generated_Source\PSoC4/BLE.c ****     
  66:.\Generated_Source\PSoC4/BLE.c **** CYBLE_GAPC_CONN_PARAM_T cyBle_connectionParameters;
  67:.\Generated_Source\PSoC4/BLE.c **** 
  68:.\Generated_Source\PSoC4/BLE.c **** /* Connecting timeout is set to 30 seconds in CyBle_Init function. 
  69:.\Generated_Source\PSoC4/BLE.c ****    Not zero value starts timer in CyBle_GapcConnectDevice API.
  70:.\Generated_Source\PSoC4/BLE.c **** */
  71:.\Generated_Source\PSoC4/BLE.c **** uint16 cyBle_connectingTimeout;
  72:.\Generated_Source\PSoC4/BLE.c ****     
  73:.\Generated_Source\PSoC4/BLE.c **** #endif /* CYBLE_GAP_ROLE_CENTRAL */
  74:.\Generated_Source\PSoC4/BLE.c **** 
  75:.\Generated_Source\PSoC4/BLE.c **** #if(CYBLE_GAP_ROLE_CENTRAL || CYBLE_GAP_ROLE_OBSERVER)
  76:.\Generated_Source\PSoC4/BLE.c ****     
  77:.\Generated_Source\PSoC4/BLE.c **** /* This variable of type CYBLE_GAPC_DISC_INFO_T is present only when  
  78:.\Generated_Source\PSoC4/BLE.c ****    the BLE component is configured for Central GAP role or Central and  
  79:.\Generated_Source\PSoC4/BLE.c ****    Peripheral GAP role. It contains the Scan settings entered in the  
  80:.\Generated_Source\PSoC4/BLE.c ****    customizer. This variable can be used by advanced users to change Scan  
  81:.\Generated_Source\PSoC4/BLE.c ****    settings in runtime.
  82:.\Generated_Source\PSoC4/BLE.c **** */
  83:.\Generated_Source\PSoC4/BLE.c **** CYBLE_GAPC_DISC_INFO_T cyBle_discoveryInfo =
  84:.\Generated_Source\PSoC4/BLE.c **** {
  85:.\Generated_Source\PSoC4/BLE.c ****     0x01u,      /* discProcedure */
  86:.\Generated_Source\PSoC4/BLE.c ****     0x01u,      /* scanType */
  87:.\Generated_Source\PSoC4/BLE.c ****     0x0030u,    /* scanInterval */
  88:.\Generated_Source\PSoC4/BLE.c ****     0x0030u,    /* scanWindow */
  89:.\Generated_Source\PSoC4/BLE.c ****     0x00u,      /* ownAddrType */
ARM GAS  C:\Users\Petro\AppData\Local\Temp\ccJlJNPj.s 			page 3


  90:.\Generated_Source\PSoC4/BLE.c ****     0x00u,      /* scanFilterPolicy */
  91:.\Generated_Source\PSoC4/BLE.c ****     0x00B4u,    /* scanTO */
  92:.\Generated_Source\PSoC4/BLE.c ****     0x01u,      /* filterDuplicates */
  93:.\Generated_Source\PSoC4/BLE.c **** };
  94:.\Generated_Source\PSoC4/BLE.c ****     
  95:.\Generated_Source\PSoC4/BLE.c **** #endif /* CYBLE_GAP_ROLE_CENTRAL || CYBLE_GAP_ROLE_OBSERVER */
  96:.\Generated_Source\PSoC4/BLE.c **** 
  97:.\Generated_Source\PSoC4/BLE.c **** #if((CYBLE_GAP_ROLE_PERIPHERAL || CYBLE_GAP_ROLE_CENTRAL) && (CYBLE_BONDING_REQUIREMENT == CYBLE_BO
  98:.\Generated_Source\PSoC4/BLE.c **** 
  99:.\Generated_Source\PSoC4/BLE.c **** uint8 cyBle_peerBonding;
 100:.\Generated_Source\PSoC4/BLE.c **** uint8 cyBle_pendingFlashWrite;
 101:.\Generated_Source\PSoC4/BLE.c ****     
 102:.\Generated_Source\PSoC4/BLE.c **** #endif  /* (CYBLE_BONDING_REQUIREMENT == CYBLE_BONDING_YES) */
 103:.\Generated_Source\PSoC4/BLE.c **** 
 104:.\Generated_Source\PSoC4/BLE.c **** CYBLE_CALLBACK_T CyBle_ApplCallback;
 105:.\Generated_Source\PSoC4/BLE.c **** CYBLE_GAP_BD_ADDR_T cyBle_deviceAddress = {{0x20u, 0x00u, 0x00u, 0x50u, 0xA0u, 0x00u}, 0x00u };
 106:.\Generated_Source\PSoC4/BLE.c **** CYBLE_GAP_BD_ADDR_T * cyBle_sflashDeviceAddress = CYBLE_SFLASH_DEVICE_ADDRESS_PTR;
 107:.\Generated_Source\PSoC4/BLE.c **** 
 108:.\Generated_Source\PSoC4/BLE.c **** #if(CYBLE_MODE_PROFILE)
 109:.\Generated_Source\PSoC4/BLE.c ****     #if defined(__ARMCC_VERSION)
 110:.\Generated_Source\PSoC4/BLE.c ****         CY_ALIGN(CYDEV_FLS_ROW_SIZE) const uint8 cyBle_StackFlashptr[CYBLE_STACK_FLASH_SIZE] = {0u}
 111:.\Generated_Source\PSoC4/BLE.c ****     #elif defined (__GNUC__)
 112:.\Generated_Source\PSoC4/BLE.c ****         const uint8 cyBle_StackFlashptr[CYBLE_STACK_FLASH_SIZE] CY_ALIGN(CYDEV_FLS_ROW_SIZE) = {0u}
 113:.\Generated_Source\PSoC4/BLE.c ****     #elif defined (__ICCARM__)
 114:.\Generated_Source\PSoC4/BLE.c ****         #pragma data_alignment=CY_FLASH_SIZEOF_ROW
 115:.\Generated_Source\PSoC4/BLE.c ****         const uint8 cyBle_StackFlashptr[CYBLE_STACK_FLASH_SIZE] = {0u};
 116:.\Generated_Source\PSoC4/BLE.c ****     #endif  /* (__ARMCC_VERSION) */
 117:.\Generated_Source\PSoC4/BLE.c **** #endif /* (CYBLE_MODE_PROFILE) */
 118:.\Generated_Source\PSoC4/BLE.c **** 
 119:.\Generated_Source\PSoC4/BLE.c **** 
 120:.\Generated_Source\PSoC4/BLE.c **** /******************************************************************************
 121:.\Generated_Source\PSoC4/BLE.c **** * Function Name: CyBle_Init
 122:.\Generated_Source\PSoC4/BLE.c **** ***************************************************************************//**
 123:.\Generated_Source\PSoC4/BLE.c **** *
 124:.\Generated_Source\PSoC4/BLE.c **** *   Initializes the component with the parameters set in the customizer.
 125:.\Generated_Source\PSoC4/BLE.c **** * 
 126:.\Generated_Source\PSoC4/BLE.c **** *  \return
 127:.\Generated_Source\PSoC4/BLE.c **** *   None
 128:.\Generated_Source\PSoC4/BLE.c **** * 
 129:.\Generated_Source\PSoC4/BLE.c **** ******************************************************************************/
 130:.\Generated_Source\PSoC4/BLE.c **** void CyBle_Init(void)
 131:.\Generated_Source\PSoC4/BLE.c **** {
 132:.\Generated_Source\PSoC4/BLE.c ****     cyBle_eventHandlerFlag = 0u;
 133:.\Generated_Source\PSoC4/BLE.c ****     cyBle_busyStatus = CYBLE_STACK_STATE_FREE;
 134:.\Generated_Source\PSoC4/BLE.c **** 
 135:.\Generated_Source\PSoC4/BLE.c ****     #if(CYBLE_GAP_ROLE_PERIPHERAL || CYBLE_GAP_ROLE_BROADCASTER) 
 136:.\Generated_Source\PSoC4/BLE.c ****         cyBle_advertisingIntervalType = CYBLE_ADVERTISING_FAST; 
 137:.\Generated_Source\PSoC4/BLE.c ****     #endif /* (CYBLE_GAP_ROLE_PERIPHERAL || CYBLE_GAP_ROLE_BROADCASTER)  */
 138:.\Generated_Source\PSoC4/BLE.c ****     #if(CYBLE_GAP_ROLE_CENTRAL || CYBLE_GAP_ROLE_OBSERVER)
 139:.\Generated_Source\PSoC4/BLE.c ****         cyBle_scanningIntervalType = CYBLE_SCANNING_FAST; 
 140:.\Generated_Source\PSoC4/BLE.c ****     #endif /* (CYBLE_GAP_ROLE_CENTRAL || CYBLE_GAP_ROLE_OBSERVER) */
 141:.\Generated_Source\PSoC4/BLE.c ****         
 142:.\Generated_Source\PSoC4/BLE.c ****     /* Init default connection parameters. 
 143:.\Generated_Source\PSoC4/BLE.c ****        Application may change it before initiating a connection */
 144:.\Generated_Source\PSoC4/BLE.c ****     #if(CYBLE_GAP_ROLE_CENTRAL)
 145:.\Generated_Source\PSoC4/BLE.c ****         cyBle_connectionParameters.scanIntv = cyBle_discoveryInfo.scanIntv;
 146:.\Generated_Source\PSoC4/BLE.c ****         cyBle_connectionParameters.scanWindow = cyBle_discoveryInfo.scanWindow;
ARM GAS  C:\Users\Petro\AppData\Local\Temp\ccJlJNPj.s 			page 4


 147:.\Generated_Source\PSoC4/BLE.c ****         cyBle_connectionParameters.ownAddrType = cyBle_discoveryInfo.ownAddrType;
 148:.\Generated_Source\PSoC4/BLE.c ****         cyBle_connectionParameters.initiatorFilterPolicy = cyBle_discoveryInfo.scanFilterPolicy;
 149:.\Generated_Source\PSoC4/BLE.c ****         cyBle_connectionParameters.connIntvMin = CYBLE_GAPC_CONNECTION_INTERVAL_MIN;
 150:.\Generated_Source\PSoC4/BLE.c ****         cyBle_connectionParameters.connIntvMax = CYBLE_GAPC_CONNECTION_INTERVAL_MAX;
 151:.\Generated_Source\PSoC4/BLE.c ****         cyBle_connectionParameters.connLatency = CYBLE_GAPC_CONNECTION_SLAVE_LATENCY;
 152:.\Generated_Source\PSoC4/BLE.c ****         cyBle_connectionParameters.supervisionTO = CYBLE_GAPC_CONNECTION_TIME_OUT;
 153:.\Generated_Source\PSoC4/BLE.c ****         cyBle_connectionParameters.minCeLength = 0x0000u;
 154:.\Generated_Source\PSoC4/BLE.c ****         cyBle_connectionParameters.maxCeLength = 0xFFFFu;
 155:.\Generated_Source\PSoC4/BLE.c ****         
 156:.\Generated_Source\PSoC4/BLE.c ****         cyBle_connectingTimeout = CYBLE_GAPC_CONNECTING_TIMEOUT;
 157:.\Generated_Source\PSoC4/BLE.c ****     #endif /* CYBLE_GAP_ROLE_CENTRAL */
 158:.\Generated_Source\PSoC4/BLE.c **** 
 159:.\Generated_Source\PSoC4/BLE.c ****     CyBle_ServiceInit();
 160:.\Generated_Source\PSoC4/BLE.c **** 
 161:.\Generated_Source\PSoC4/BLE.c ****     #if((CYBLE_GAP_ROLE_PERIPHERAL || CYBLE_GAP_ROLE_CENTRAL) && (CYBLE_BONDING_REQUIREMENT == CYBL
 162:.\Generated_Source\PSoC4/BLE.c ****         cyBle_pendingFlashWrite = 0u;
 163:.\Generated_Source\PSoC4/BLE.c ****         cyBle_peerBonding = CYBLE_GAP_BONDING_NONE;
 164:.\Generated_Source\PSoC4/BLE.c ****     #endif  /* (CYBLE_BONDING_REQUIREMENT == CYBLE_BONDING_YES) */
 165:.\Generated_Source\PSoC4/BLE.c **** 
 166:.\Generated_Source\PSoC4/BLE.c **** }
 167:.\Generated_Source\PSoC4/BLE.c **** 
 168:.\Generated_Source\PSoC4/BLE.c **** 
 169:.\Generated_Source\PSoC4/BLE.c **** /******************************************************************************
 170:.\Generated_Source\PSoC4/BLE.c **** * Function Name: CyBle_ServiceInit
 171:.\Generated_Source\PSoC4/BLE.c **** ***************************************************************************//**
 172:.\Generated_Source\PSoC4/BLE.c **** * 
 173:.\Generated_Source\PSoC4/BLE.c **** *  Initializes all included services.
 174:.\Generated_Source\PSoC4/BLE.c **** * 
 175:.\Generated_Source\PSoC4/BLE.c **** * \return
 176:.\Generated_Source\PSoC4/BLE.c **** *  None
 177:.\Generated_Source\PSoC4/BLE.c **** * 
 178:.\Generated_Source\PSoC4/BLE.c **** ******************************************************************************/
 179:.\Generated_Source\PSoC4/BLE.c **** void CyBle_ServiceInit(void)
 180:.\Generated_Source\PSoC4/BLE.c **** {
  26              		.loc 1 180 0
  27              		.cfi_startproc
  28 0000 08B5     		push	{r3, lr}
  29              		.cfi_def_cfa_offset 8
  30              		.cfi_offset 3, -8
  31              		.cfi_offset 14, -4
 181:.\Generated_Source\PSoC4/BLE.c ****     #if(CYBLE_GATT_ROLE_CLIENT)
 182:.\Generated_Source\PSoC4/BLE.c ****         (void)memset(&cyBle_gapc, 0, sizeof(cyBle_gapc));
  32              		.loc 1 182 0
  33 0002 074A     		ldr	r2, .L2
  34 0004 0023     		mov	r3, #0
  35 0006 1380     		strh	r3, [r2]
  36 0008 5380     		strh	r3, [r2, #2]
  37 000a 9380     		strh	r3, [r2, #4]
  38 000c D380     		strh	r3, [r2, #6]
  39 000e 1381     		strh	r3, [r2, #8]
 183:.\Generated_Source\PSoC4/BLE.c ****         (void)memset(&cyBle_gattc, 0, sizeof(cyBle_gattc));
  40              		.loc 1 183 0
  41 0010 044A     		ldr	r2, .L2+4
  42 0012 1380     		strh	r3, [r2]
  43 0014 5380     		strh	r3, [r2, #2]
  44 0016 9380     		strh	r3, [r2, #4]
 184:.\Generated_Source\PSoC4/BLE.c ****     #endif /* CYBLE_GATT_ROLE_CLIENT */
ARM GAS  C:\Users\Petro\AppData\Local\Temp\ccJlJNPj.s 			page 5


 185:.\Generated_Source\PSoC4/BLE.c ****     
 186:.\Generated_Source\PSoC4/BLE.c **** 	#ifdef CYBLE_ANCS
 187:.\Generated_Source\PSoC4/BLE.c ****         CyBle_AncsInit();
 188:.\Generated_Source\PSoC4/BLE.c ****     #endif /* CYBLE_ANCS */
 189:.\Generated_Source\PSoC4/BLE.c **** 	
 190:.\Generated_Source\PSoC4/BLE.c ****     #ifdef CYBLE_ANS
 191:.\Generated_Source\PSoC4/BLE.c ****         CyBle_AnsInit();
 192:.\Generated_Source\PSoC4/BLE.c ****     #endif /* CYBLE_ANS */
 193:.\Generated_Source\PSoC4/BLE.c ****     
 194:.\Generated_Source\PSoC4/BLE.c ****     #ifdef CYBLE_BAS
 195:.\Generated_Source\PSoC4/BLE.c ****         CyBle_BasInit();
 196:.\Generated_Source\PSoC4/BLE.c ****     #endif /* CYBLE_BAS */
 197:.\Generated_Source\PSoC4/BLE.c ****     
 198:.\Generated_Source\PSoC4/BLE.c ****     #ifdef CYBLE_BLS
 199:.\Generated_Source\PSoC4/BLE.c ****         CyBle_BlsInit();
 200:.\Generated_Source\PSoC4/BLE.c ****     #endif /* CYBLE_BLS */
 201:.\Generated_Source\PSoC4/BLE.c ****     
 202:.\Generated_Source\PSoC4/BLE.c ****     #ifdef CYBLE_BMS
 203:.\Generated_Source\PSoC4/BLE.c ****         CyBle_BmsInit();
 204:.\Generated_Source\PSoC4/BLE.c ****     #endif /* CYBLE_BMS */
 205:.\Generated_Source\PSoC4/BLE.c ****     
 206:.\Generated_Source\PSoC4/BLE.c ****     #ifdef CYBLE_CGMS
 207:.\Generated_Source\PSoC4/BLE.c ****         CyBle_CgmsInit();
 208:.\Generated_Source\PSoC4/BLE.c ****     #endif /* CYBLE_CGMS */
 209:.\Generated_Source\PSoC4/BLE.c **** 
 210:.\Generated_Source\PSoC4/BLE.c ****     #ifdef CYBLE_CPS
 211:.\Generated_Source\PSoC4/BLE.c ****         CyBle_CpsInit();
 212:.\Generated_Source\PSoC4/BLE.c ****     #endif /* CYBLE_CPS */
 213:.\Generated_Source\PSoC4/BLE.c **** 
 214:.\Generated_Source\PSoC4/BLE.c ****     #ifdef CYBLE_CSCS
 215:.\Generated_Source\PSoC4/BLE.c ****         CyBle_CscsInit();
 216:.\Generated_Source\PSoC4/BLE.c ****     #endif /* CYBLE_CSCS */
 217:.\Generated_Source\PSoC4/BLE.c ****     
 218:.\Generated_Source\PSoC4/BLE.c ****     #ifdef CYBLE_CTS
 219:.\Generated_Source\PSoC4/BLE.c ****         CyBle_CtsInit();
 220:.\Generated_Source\PSoC4/BLE.c ****     #endif /* CYBLE_CTS */
 221:.\Generated_Source\PSoC4/BLE.c **** 
 222:.\Generated_Source\PSoC4/BLE.c ****     #ifdef CYBLE_DIS
 223:.\Generated_Source\PSoC4/BLE.c ****         CyBle_DisInit();
 224:.\Generated_Source\PSoC4/BLE.c ****     #endif /* CYBLE_DIS */
 225:.\Generated_Source\PSoC4/BLE.c **** 
 226:.\Generated_Source\PSoC4/BLE.c ****     #ifdef CYBLE_ESS
 227:.\Generated_Source\PSoC4/BLE.c ****         CyBle_EssInit();
 228:.\Generated_Source\PSoC4/BLE.c ****     #endif /* CYBLE_ESS */
 229:.\Generated_Source\PSoC4/BLE.c ****     
 230:.\Generated_Source\PSoC4/BLE.c ****     #ifdef CYBLE_GLS
 231:.\Generated_Source\PSoC4/BLE.c ****         CyBle_GlsInit();
 232:.\Generated_Source\PSoC4/BLE.c ****     #endif /* CYBLE_GLS */
 233:.\Generated_Source\PSoC4/BLE.c ****     
 234:.\Generated_Source\PSoC4/BLE.c ****     #ifdef CYBLE_CUSTOM
 235:.\Generated_Source\PSoC4/BLE.c ****         CyBle_CustomInit();
 236:.\Generated_Source\PSoC4/BLE.c ****     #endif /* CYBLE_CUSTOM */
 237:.\Generated_Source\PSoC4/BLE.c **** 
 238:.\Generated_Source\PSoC4/BLE.c ****     #ifdef CYBLE_HIDS
 239:.\Generated_Source\PSoC4/BLE.c ****         CyBle_HidsInit();
 240:.\Generated_Source\PSoC4/BLE.c ****     #endif /* CYBLE_HIDS */
 241:.\Generated_Source\PSoC4/BLE.c **** 
ARM GAS  C:\Users\Petro\AppData\Local\Temp\ccJlJNPj.s 			page 6


 242:.\Generated_Source\PSoC4/BLE.c ****     #ifdef CYBLE_HRS
 243:.\Generated_Source\PSoC4/BLE.c ****         CyBle_HrsInit();
 244:.\Generated_Source\PSoC4/BLE.c ****     #endif /* CYBLE_HRS */
 245:.\Generated_Source\PSoC4/BLE.c ****     
 246:.\Generated_Source\PSoC4/BLE.c ****     #ifdef CYBLE_HTS
 247:.\Generated_Source\PSoC4/BLE.c ****         CyBle_HtsInit();
 248:.\Generated_Source\PSoC4/BLE.c ****     #endif /* CYBLE_RSCS */
 249:.\Generated_Source\PSoC4/BLE.c **** 
 250:.\Generated_Source\PSoC4/BLE.c ****     #ifdef CYBLE_IAS
 251:.\Generated_Source\PSoC4/BLE.c ****         CyBle_IasInit();
 252:.\Generated_Source\PSoC4/BLE.c ****     #endif /* CYBLE_IAS */
 253:.\Generated_Source\PSoC4/BLE.c **** 
 254:.\Generated_Source\PSoC4/BLE.c ****     #ifdef CYBLE_LLS
 255:.\Generated_Source\PSoC4/BLE.c ****         CyBle_LlsInit();
 256:.\Generated_Source\PSoC4/BLE.c ****     #endif /* CYBLE_LLS */
 257:.\Generated_Source\PSoC4/BLE.c **** 
 258:.\Generated_Source\PSoC4/BLE.c ****     #ifdef CYBLE_RTUS
 259:.\Generated_Source\PSoC4/BLE.c ****         CyBle_RtusInit();
 260:.\Generated_Source\PSoC4/BLE.c ****     #endif /* CYBLE_RTUS */
 261:.\Generated_Source\PSoC4/BLE.c **** 
 262:.\Generated_Source\PSoC4/BLE.c ****     #ifdef CYBLE_LNS
 263:.\Generated_Source\PSoC4/BLE.c ****         CyBle_LnsInit();
 264:.\Generated_Source\PSoC4/BLE.c ****     #endif /* CYBLE_LNS */
 265:.\Generated_Source\PSoC4/BLE.c ****     
 266:.\Generated_Source\PSoC4/BLE.c ****     #ifdef CYBLE_PASS
 267:.\Generated_Source\PSoC4/BLE.c ****         CyBle_PassInit();
 268:.\Generated_Source\PSoC4/BLE.c ****     #endif /* CYBLE_PASS */
 269:.\Generated_Source\PSoC4/BLE.c ****     
 270:.\Generated_Source\PSoC4/BLE.c ****     #ifdef CYBLE_RSCS
 271:.\Generated_Source\PSoC4/BLE.c ****         CyBle_RscsInit();
 272:.\Generated_Source\PSoC4/BLE.c ****     #endif /* CYBLE_RSCS */
 273:.\Generated_Source\PSoC4/BLE.c **** 
 274:.\Generated_Source\PSoC4/BLE.c ****     #ifdef CYBLE_SCPS
 275:.\Generated_Source\PSoC4/BLE.c ****         CyBle_ScpsInit();
 276:.\Generated_Source\PSoC4/BLE.c ****     #endif /* CYBLE_SCPS */
 277:.\Generated_Source\PSoC4/BLE.c ****     
 278:.\Generated_Source\PSoC4/BLE.c ****     #ifdef CYBLE_TPS
 279:.\Generated_Source\PSoC4/BLE.c ****         CyBle_TpsInit();
 280:.\Generated_Source\PSoC4/BLE.c ****     #endif /* CYBLE_TPS */
 281:.\Generated_Source\PSoC4/BLE.c ****     
 282:.\Generated_Source\PSoC4/BLE.c ****     #ifdef CYBLE_UDS
 283:.\Generated_Source\PSoC4/BLE.c ****         CyBle_UdsInit();
 284:.\Generated_Source\PSoC4/BLE.c ****     #endif /* CYBLE_UDS */
 285:.\Generated_Source\PSoC4/BLE.c **** 
 286:.\Generated_Source\PSoC4/BLE.c ****     #ifdef CYBLE_WPTS
 287:.\Generated_Source\PSoC4/BLE.c ****         CyBle_WptsInit();
  45              		.loc 1 287 0
  46 0018 FFF7FEFF 		bl	CyBle_WptsInit
  47              	.LVL0:
 288:.\Generated_Source\PSoC4/BLE.c ****     #endif /* CYBLE_WPTS */
 289:.\Generated_Source\PSoC4/BLE.c **** 
 290:.\Generated_Source\PSoC4/BLE.c ****     #ifdef CYBLE_WSS
 291:.\Generated_Source\PSoC4/BLE.c ****         CyBle_WssInit();
 292:.\Generated_Source\PSoC4/BLE.c ****     #endif /* CYBLE_WSS */
 293:.\Generated_Source\PSoC4/BLE.c **** }
  48              		.loc 1 293 0
  49              		@ sp needed
ARM GAS  C:\Users\Petro\AppData\Local\Temp\ccJlJNPj.s 			page 7


  50 001c 08BD     		pop	{r3, pc}
  51              	.L3:
  52 001e C046     		.align	2
  53              	.L2:
  54 0020 00000000 		.word	cyBle_gapc
  55 0024 00000000 		.word	cyBle_gattc
  56              		.cfi_endproc
  57              	.LFE3:
  58              		.size	CyBle_ServiceInit, .-CyBle_ServiceInit
  59              		.section	.text.CyBle_Init,"ax",%progbits
  60              		.align	2
  61              		.global	CyBle_Init
  62              		.code	16
  63              		.thumb_func
  64              		.type	CyBle_Init, %function
  65              	CyBle_Init:
  66              	.LFB2:
 131:.\Generated_Source\PSoC4/BLE.c ****     cyBle_eventHandlerFlag = 0u;
  67              		.loc 1 131 0
  68              		.cfi_startproc
  69 0000 08B5     		push	{r3, lr}
  70              		.cfi_def_cfa_offset 8
  71              		.cfi_offset 3, -8
  72              		.cfi_offset 14, -4
 132:.\Generated_Source\PSoC4/BLE.c ****     cyBle_busyStatus = CYBLE_STACK_STATE_FREE;
  73              		.loc 1 132 0
  74 0002 0022     		mov	r2, #0
  75 0004 0F4B     		ldr	r3, .L5
  76 0006 1A70     		strb	r2, [r3]
 133:.\Generated_Source\PSoC4/BLE.c **** 
  77              		.loc 1 133 0
  78 0008 0F4B     		ldr	r3, .L5+4
  79 000a 1A70     		strb	r2, [r3]
 139:.\Generated_Source\PSoC4/BLE.c ****     #endif /* (CYBLE_GAP_ROLE_CENTRAL || CYBLE_GAP_ROLE_OBSERVER) */
  80              		.loc 1 139 0
  81 000c 0F4B     		ldr	r3, .L5+8
  82 000e 1A70     		strb	r2, [r3]
 145:.\Generated_Source\PSoC4/BLE.c ****         cyBle_connectionParameters.scanWindow = cyBle_discoveryInfo.scanWindow;
  83              		.loc 1 145 0
  84 0010 0F49     		ldr	r1, .L5+12
  85 0012 4888     		ldrh	r0, [r1, #2]
  86 0014 0F4B     		ldr	r3, .L5+16
  87 0016 1880     		strh	r0, [r3]
 146:.\Generated_Source\PSoC4/BLE.c ****         cyBle_connectionParameters.ownAddrType = cyBle_discoveryInfo.ownAddrType;
  88              		.loc 1 146 0
  89 0018 8888     		ldrh	r0, [r1, #4]
  90 001a 5880     		strh	r0, [r3, #2]
 147:.\Generated_Source\PSoC4/BLE.c ****         cyBle_connectionParameters.initiatorFilterPolicy = cyBle_discoveryInfo.scanFilterPolicy;
  91              		.loc 1 147 0
  92 001c 8879     		ldrb	r0, [r1, #6]
  93 001e 1873     		strb	r0, [r3, #12]
 148:.\Generated_Source\PSoC4/BLE.c ****         cyBle_connectionParameters.connIntvMin = CYBLE_GAPC_CONNECTION_INTERVAL_MIN;
  94              		.loc 1 148 0
  95 0020 C979     		ldrb	r1, [r1, #7]
  96 0022 1971     		strb	r1, [r3, #4]
 149:.\Generated_Source\PSoC4/BLE.c ****         cyBle_connectionParameters.connIntvMax = CYBLE_GAPC_CONNECTION_INTERVAL_MAX;
  97              		.loc 1 149 0
ARM GAS  C:\Users\Petro\AppData\Local\Temp\ccJlJNPj.s 			page 8


  98 0024 0621     		mov	r1, #6
  99 0026 D981     		strh	r1, [r3, #14]
 150:.\Generated_Source\PSoC4/BLE.c ****         cyBle_connectionParameters.connLatency = CYBLE_GAPC_CONNECTION_SLAVE_LATENCY;
 100              		.loc 1 150 0
 101 0028 C231     		add	r1, r1, #194
 102 002a 1982     		strh	r1, [r3, #16]
 151:.\Generated_Source\PSoC4/BLE.c ****         cyBle_connectionParameters.supervisionTO = CYBLE_GAPC_CONNECTION_TIME_OUT;
 103              		.loc 1 151 0
 104 002c 5A82     		strh	r2, [r3, #18]
 152:.\Generated_Source\PSoC4/BLE.c ****         cyBle_connectionParameters.minCeLength = 0x0000u;
 105              		.loc 1 152 0
 106 002e 6439     		sub	r1, r1, #100
 107 0030 9982     		strh	r1, [r3, #20]
 153:.\Generated_Source\PSoC4/BLE.c ****         cyBle_connectionParameters.maxCeLength = 0xFFFFu;
 108              		.loc 1 153 0
 109 0032 DA82     		strh	r2, [r3, #22]
 154:.\Generated_Source\PSoC4/BLE.c ****         
 110              		.loc 1 154 0
 111 0034 013A     		sub	r2, r2, #1
 112 0036 1A83     		strh	r2, [r3, #24]
 156:.\Generated_Source\PSoC4/BLE.c ****     #endif /* CYBLE_GAP_ROLE_CENTRAL */
 113              		.loc 1 156 0
 114 0038 1F32     		add	r2, r2, #31
 115 003a 074B     		ldr	r3, .L5+20
 116 003c 1A80     		strh	r2, [r3]
 159:.\Generated_Source\PSoC4/BLE.c **** 
 117              		.loc 1 159 0
 118 003e FFF7FEFF 		bl	CyBle_ServiceInit
 119              	.LVL1:
 166:.\Generated_Source\PSoC4/BLE.c **** 
 120              		.loc 1 166 0
 121              		@ sp needed
 122 0042 08BD     		pop	{r3, pc}
 123              	.L6:
 124              		.align	2
 125              	.L5:
 126 0044 00000000 		.word	cyBle_eventHandlerFlag
 127 0048 00000000 		.word	cyBle_busyStatus
 128 004c 00000000 		.word	cyBle_scanningIntervalType
 129 0050 00000000 		.word	.LANCHOR0
 130 0054 00000000 		.word	cyBle_connectionParameters
 131 0058 00000000 		.word	cyBle_connectingTimeout
 132              		.cfi_endproc
 133              	.LFE2:
 134              		.size	CyBle_Init, .-CyBle_Init
 135              		.section	.text.CyBle_Start,"ax",%progbits
 136              		.align	2
 137              		.global	CyBle_Start
 138              		.code	16
 139              		.thumb_func
 140              		.type	CyBle_Start, %function
 141              	CyBle_Start:
 142              	.LFB4:
 294:.\Generated_Source\PSoC4/BLE.c **** 
 295:.\Generated_Source\PSoC4/BLE.c **** 
 296:.\Generated_Source\PSoC4/BLE.c **** /******************************************************************************
 297:.\Generated_Source\PSoC4/BLE.c **** * Function Name: CyBle_Start
ARM GAS  C:\Users\Petro\AppData\Local\Temp\ccJlJNPj.s 			page 9


 298:.\Generated_Source\PSoC4/BLE.c **** ***************************************************************************//**
 299:.\Generated_Source\PSoC4/BLE.c **** * 
 300:.\Generated_Source\PSoC4/BLE.c **** *  This function initializes the BLE Stack, which consists of the BLE Stack 
 301:.\Generated_Source\PSoC4/BLE.c **** *  Manager, BLE Controller, and BLE Host modules. It takes care of initializing
 302:.\Generated_Source\PSoC4/BLE.c **** *  the Profile layer, schedulers, Timer and other platform related
 303:.\Generated_Source\PSoC4/BLE.c **** *  resources required for the BLE component. It also registers the callback 
 304:.\Generated_Source\PSoC4/BLE.c **** *  function for BLE events that will be registered in the BLE stack.
 305:.\Generated_Source\PSoC4/BLE.c **** * 
 306:.\Generated_Source\PSoC4/BLE.c **** *  Note that this function does not reset the BLE Stack.
 307:.\Generated_Source\PSoC4/BLE.c **** * 
 308:.\Generated_Source\PSoC4/BLE.c **** *  For HCI-Mode of operation, this function will not initialize the BLE Host 
 309:.\Generated_Source\PSoC4/BLE.c **** *  module.
 310:.\Generated_Source\PSoC4/BLE.c **** * 
 311:.\Generated_Source\PSoC4/BLE.c **** *  Calling this function results in the generation of CYBLE_EVT_STACK_ON event
 312:.\Generated_Source\PSoC4/BLE.c **** *  on successful initialization of the BLE Stack.
 313:.\Generated_Source\PSoC4/BLE.c **** * 
 314:.\Generated_Source\PSoC4/BLE.c **** *  \param callbackFunc: Event callback function to receive events from BLE stack.
 315:.\Generated_Source\PSoC4/BLE.c **** *   CYBLE_CALLBACK_T is a function pointer type.
 316:.\Generated_Source\PSoC4/BLE.c **** * 
 317:.\Generated_Source\PSoC4/BLE.c **** * \return
 318:.\Generated_Source\PSoC4/BLE.c **** *  CYBLE_API_RESULT_T : Return value indicates if the function succeeded or 
 319:.\Generated_Source\PSoC4/BLE.c **** *  failed. Following are the possible error codes.
 320:.\Generated_Source\PSoC4/BLE.c **** * 
 321:.\Generated_Source\PSoC4/BLE.c **** *   <table>
 322:.\Generated_Source\PSoC4/BLE.c **** *  	  <tr>
 323:.\Generated_Source\PSoC4/BLE.c **** *       <th>Error codes</th>
 324:.\Generated_Source\PSoC4/BLE.c **** *       <th>Description</th>
 325:.\Generated_Source\PSoC4/BLE.c **** *     </tr>
 326:.\Generated_Source\PSoC4/BLE.c **** *     <tr>
 327:.\Generated_Source\PSoC4/BLE.c **** *       <td>CYBLE_ERROR_OK</td>
 328:.\Generated_Source\PSoC4/BLE.c **** *       <td>On successful operation.</td>
 329:.\Generated_Source\PSoC4/BLE.c **** *     </tr>
 330:.\Generated_Source\PSoC4/BLE.c **** *     <tr>
 331:.\Generated_Source\PSoC4/BLE.c **** *       <td>CYBLE_ERROR_INVALID_PARAMETER</td>
 332:.\Generated_Source\PSoC4/BLE.c **** *       <td>On passing a NULL pointer to the function when the BLE stack is not built in HCI mode. 
 333:.\Generated_Source\PSoC4/BLE.c **** *			CYBLE_ERROR_INVALID_PARAMETER is never returned in HCI mode.</td>
 334:.\Generated_Source\PSoC4/BLE.c **** *     </tr>
 335:.\Generated_Source\PSoC4/BLE.c **** *     <tr>
 336:.\Generated_Source\PSoC4/BLE.c **** *       <td>CYBLE_ERROR_REPEATED_ATTEMPTS</td>
 337:.\Generated_Source\PSoC4/BLE.c **** *       <td>On invoking this function more than once without calling CyBle_Shutdown() 
 338:.\Generated_Source\PSoC4/BLE.c **** *           function between calls to this function.</td>
 339:.\Generated_Source\PSoC4/BLE.c **** *     </tr>
 340:.\Generated_Source\PSoC4/BLE.c **** *     <tr>
 341:.\Generated_Source\PSoC4/BLE.c **** *       <td>CYBLE_ERROR_MEMORY_ALLOCATION_FAILED</td>
 342:.\Generated_Source\PSoC4/BLE.c **** *       <td>There is insufficient memory available.</td>
 343:.\Generated_Source\PSoC4/BLE.c **** *     </tr>
 344:.\Generated_Source\PSoC4/BLE.c **** *   </table>
 345:.\Generated_Source\PSoC4/BLE.c **** * 
 346:.\Generated_Source\PSoC4/BLE.c **** *  \globalvars
 347:.\Generated_Source\PSoC4/BLE.c **** *   The CyBle_initVar variable is used to indicate initial
 348:.\Generated_Source\PSoC4/BLE.c **** *   configuration of this component. The variable is initialized to zero (0u)
 349:.\Generated_Source\PSoC4/BLE.c **** *   and set to one (1u) the first time CyBle_Start() is called. This
 350:.\Generated_Source\PSoC4/BLE.c **** *   allows for component initialization without re-initialization in all
 351:.\Generated_Source\PSoC4/BLE.c **** *   subsequent calls to the CyBle_Start() routine.
 352:.\Generated_Source\PSoC4/BLE.c **** * 
 353:.\Generated_Source\PSoC4/BLE.c **** ******************************************************************************/
 354:.\Generated_Source\PSoC4/BLE.c **** CYBLE_API_RESULT_T CyBle_Start(CYBLE_CALLBACK_T callbackFunc)
ARM GAS  C:\Users\Petro\AppData\Local\Temp\ccJlJNPj.s 			page 10


 355:.\Generated_Source\PSoC4/BLE.c **** {
 143              		.loc 1 355 0
 144              		.cfi_startproc
 145              	.LVL2:
 146 0000 10B5     		push	{r4, lr}
 147              		.cfi_def_cfa_offset 8
 148              		.cfi_offset 4, -8
 149              		.cfi_offset 14, -4
 150 0002 8AB0     		sub	sp, sp, #40
 151              		.cfi_def_cfa_offset 48
 152 0004 041C     		mov	r4, r0
 153              	.LVL3:
 356:.\Generated_Source\PSoC4/BLE.c ****     CYBLE_API_RESULT_T apiResult = CYBLE_ERROR_OK;
 357:.\Generated_Source\PSoC4/BLE.c ****     
 358:.\Generated_Source\PSoC4/BLE.c ****     #if(CYBLE_MODE_PROFILE)
 359:.\Generated_Source\PSoC4/BLE.c ****     
 360:.\Generated_Source\PSoC4/BLE.c ****     CYBLE_STK_APP_DATA_BUFF_T cyBle_stackDataBuff[CYBLE_STACK_BUF_COUNT] = 
 154              		.loc 1 360 0
 155 0006 04A8     		add	r0, sp, #16
 156              	.LVL4:
 157 0008 1449     		ldr	r1, .L11
 158 000a 1822     		mov	r2, #24
 159 000c FFF7FEFF 		bl	memcpy
 160              	.LVL5:
 361:.\Generated_Source\PSoC4/BLE.c ****     {
 362:.\Generated_Source\PSoC4/BLE.c ****         {CYBLE_GATT_MTU_PLUS_L2CAP_MEM_EXT, CYBLE_GATT_MTU_BUF_COUNT},
 363:.\Generated_Source\PSoC4/BLE.c ****         {CYBLE_GATT_MAX_ATTR_LEN_PLUS_L2CAP_MEM_EXT, 1u},
 364:.\Generated_Source\PSoC4/BLE.c ****         {CYBLE_L2CAP_PSM_PLUS_L2CAP_MEM_EXT, CYBLE_L2CAP_PSM_COUNT},
 365:.\Generated_Source\PSoC4/BLE.c ****         {CYBLE_L2CAP_CBFC_PLUS_L2CAP_MEM_EXT, CYBLE_L2CAP_LOGICAL_CHANNEL_COUNT},
 366:.\Generated_Source\PSoC4/BLE.c ****         {CYBLE_L2CAP_MTU_PLUS_L2CAP_MEM_EXT, CYBLE_L2CAP_LOGICAL_CHANNEL_COUNT},
 367:.\Generated_Source\PSoC4/BLE.c ****         {CYBLE_L2CAP_MPS_PLUS_L2CAP_MEM_EXT, CYBLE_L2CAP_LOGICAL_CHANNEL_COUNT * (CYBLE_L2CAP_MTU/C
 368:.\Generated_Source\PSoC4/BLE.c ****     }; 
 369:.\Generated_Source\PSoC4/BLE.c **** 
 370:.\Generated_Source\PSoC4/BLE.c ****     #endif /* CYBLE_MODE_PROFILE */
 371:.\Generated_Source\PSoC4/BLE.c ****     
 372:.\Generated_Source\PSoC4/BLE.c ****     /* If not initialized then initialize all the required hardware and software */
 373:.\Generated_Source\PSoC4/BLE.c ****     if(cyBle_initVar == 0u)
 161              		.loc 1 373 0
 162 0010 134B     		ldr	r3, .L11+4
 163 0012 1B78     		ldrb	r3, [r3]
 164 0014 002B     		cmp	r3, #0
 165 0016 04D1     		bne	.L8
 374:.\Generated_Source\PSoC4/BLE.c ****     {
 375:.\Generated_Source\PSoC4/BLE.c ****         CyBle_Init();
 166              		.loc 1 375 0
 167 0018 FFF7FEFF 		bl	CyBle_Init
 168              	.LVL6:
 376:.\Generated_Source\PSoC4/BLE.c ****         cyBle_initVar = 1u;
 169              		.loc 1 376 0
 170 001c 0122     		mov	r2, #1
 171 001e 104B     		ldr	r3, .L11+4
 172 0020 1A70     		strb	r2, [r3]
 173              	.L8:
 377:.\Generated_Source\PSoC4/BLE.c ****     }
 378:.\Generated_Source\PSoC4/BLE.c ****     
 379:.\Generated_Source\PSoC4/BLE.c ****     if(callbackFunc != NULL)
 174              		.loc 1 379 0
ARM GAS  C:\Users\Petro\AppData\Local\Temp\ccJlJNPj.s 			page 11


 175 0022 002C     		cmp	r4, #0
 176 0024 17D0     		beq	.L10
 380:.\Generated_Source\PSoC4/BLE.c ****     {
 381:.\Generated_Source\PSoC4/BLE.c ****     #if(CYBLE_SHARING_MODE_EXPORT)
 382:.\Generated_Source\PSoC4/BLE.c ****         if(cyBle_stackMemoryRam == NULL)
 383:.\Generated_Source\PSoC4/BLE.c ****         {
 384:.\Generated_Source\PSoC4/BLE.c ****             cyBle_stackMemoryRam = (uint8 *)malloc(CYBLE_STACK_RAM_SIZE);
 385:.\Generated_Source\PSoC4/BLE.c ****             if(cyBle_stackMemoryRam == NULL)
 386:.\Generated_Source\PSoC4/BLE.c ****             {
 387:.\Generated_Source\PSoC4/BLE.c ****                 apiResult = CYBLE_ERROR_MEMORY_ALLOCATION_FAILED;
 388:.\Generated_Source\PSoC4/BLE.c ****             } 
 389:.\Generated_Source\PSoC4/BLE.c ****         }
 390:.\Generated_Source\PSoC4/BLE.c ****     #endif /* CYBLE_SHARING_MODE_EXPORT */
 391:.\Generated_Source\PSoC4/BLE.c ****         if(apiResult == CYBLE_ERROR_OK)
 392:.\Generated_Source\PSoC4/BLE.c ****         {
 393:.\Generated_Source\PSoC4/BLE.c ****             CyBle_ApplCallback = callbackFunc;
 177              		.loc 1 393 0
 178 0026 0F4B     		ldr	r3, .L11+8
 179 0028 1C60     		str	r4, [r3]
 394:.\Generated_Source\PSoC4/BLE.c ****             
 395:.\Generated_Source\PSoC4/BLE.c ****         #if(CYBLE_MODE_PROFILE)
 396:.\Generated_Source\PSoC4/BLE.c ****             apiResult = CyBle_StackInit(&CyBle_EventHandler, cyBle_stackMemoryRam, CYBLE_STACK_RAM_
 180              		.loc 1 396 0
 181 002a 0623     		mov	r3, #6
 182 002c 0093     		str	r3, [sp]
 183 002e 0E4B     		ldr	r3, .L11+12
 184 0030 0193     		str	r3, [sp, #4]
 185 0032 6E23     		mov	r3, #110
 186 0034 FF33     		add	r3, r3, #255
 187 0036 0293     		str	r3, [sp, #8]
 188 0038 0C48     		ldr	r0, .L11+16
 189 003a 0D49     		ldr	r1, .L11+20
 190 003c 0D4A     		ldr	r2, .L11+24
 191 003e 04AB     		add	r3, sp, #16
 192 0040 FFF7FEFF 		bl	CyBle_StackInit
 193              	.LVL7:
 397:.\Generated_Source\PSoC4/BLE.c ****                 cyBle_stackDataBuff, CYBLE_STACK_BUF_COUNT, cyBle_flashStorage.stackFlashptr, CYBLE
 398:.\Generated_Source\PSoC4/BLE.c ****         #else
 399:.\Generated_Source\PSoC4/BLE.c ****             apiResult = CyBle_StackInit(&CyBle_EventHandler, cyBle_stackMemoryRam, CYBLE_STACK_RAM_
 400:.\Generated_Source\PSoC4/BLE.c ****                 NULL, 0u, NULL, 0u);
 401:.\Generated_Source\PSoC4/BLE.c ****         #endif /* CYBLE_MODE_PROFILE */
 402:.\Generated_Source\PSoC4/BLE.c **** 
 403:.\Generated_Source\PSoC4/BLE.c ****             if(apiResult == CYBLE_ERROR_OK)
 194              		.loc 1 403 0
 195 0044 0028     		cmp	r0, #0
 196 0046 07D1     		bne	.L9
 404:.\Generated_Source\PSoC4/BLE.c ****             {
 405:.\Generated_Source\PSoC4/BLE.c ****                 CyBle_SetState(CYBLE_STATE_INITIALIZING);
 197              		.loc 1 405 0
 198 0048 0122     		mov	r2, #1
 199 004a 0B4B     		ldr	r3, .L11+28
 200 004c 1A70     		strb	r2, [r3]
 406:.\Generated_Source\PSoC4/BLE.c ****                 
 407:.\Generated_Source\PSoC4/BLE.c ****             #if (CYBLE_GATT_ROLE_CLIENT)
 408:.\Generated_Source\PSoC4/BLE.c ****                 CyBle_SetClientState(CYBLE_CLIENT_STATE_DISCONNECTED);
 201              		.loc 1 408 0
 202 004e 0732     		add	r2, r2, #7
ARM GAS  C:\Users\Petro\AppData\Local\Temp\ccJlJNPj.s 			page 12


 203 0050 0A4B     		ldr	r3, .L11+32
 204 0052 1A70     		strb	r2, [r3]
 205 0054 00E0     		b	.L9
 206              	.LVL8:
 207              	.L10:
 409:.\Generated_Source\PSoC4/BLE.c ****             #endif /* CYBLE_GATT_ROLE_CLIENT */
 410:.\Generated_Source\PSoC4/BLE.c ****                 
 411:.\Generated_Source\PSoC4/BLE.c ****             #if(CYBLE_GATT_ROLE_SERVER)
 412:.\Generated_Source\PSoC4/BLE.c ****                 apiResult = CyBle_GattsDbRegister(cyBle_gattDB, CYBLE_GATT_DB_INDEX_COUNT, CYBLE_GA
 413:.\Generated_Source\PSoC4/BLE.c ****             #endif /* CYBLE_GATT_ROLE_SERVER */
 414:.\Generated_Source\PSoC4/BLE.c ****             }
 415:.\Generated_Source\PSoC4/BLE.c ****         }
 416:.\Generated_Source\PSoC4/BLE.c ****     }
 417:.\Generated_Source\PSoC4/BLE.c ****     else
 418:.\Generated_Source\PSoC4/BLE.c ****     {
 419:.\Generated_Source\PSoC4/BLE.c ****         apiResult = CYBLE_ERROR_INVALID_PARAMETER;
 208              		.loc 1 419 0
 209 0056 0120     		mov	r0, #1
 210              	.LVL9:
 211              	.L9:
 420:.\Generated_Source\PSoC4/BLE.c ****     }
 421:.\Generated_Source\PSoC4/BLE.c **** 
 422:.\Generated_Source\PSoC4/BLE.c ****     return (apiResult);
 423:.\Generated_Source\PSoC4/BLE.c **** }
 212              		.loc 1 423 0
 213 0058 0AB0     		add	sp, sp, #40
 214              		@ sp needed
 215              	.LVL10:
 216 005a 10BD     		pop	{r4, pc}
 217              	.L12:
 218              		.align	2
 219              	.L11:
 220 005c 00000000 		.word	.LANCHOR1
 221 0060 00000000 		.word	.LANCHOR2
 222 0064 00000000 		.word	CyBle_ApplCallback
 223 0068 00000000 		.word	cyBle_flashStorage
 224 006c 00000000 		.word	CyBle_EventHandler
 225 0070 00000000 		.word	cyBle_stackMemoryRam
 226 0074 BC0A0000 		.word	2748
 227 0078 00000000 		.word	cyBle_state
 228 007c 00000000 		.word	cyBle_clientState
 229              		.cfi_endproc
 230              	.LFE4:
 231              		.size	CyBle_Start, .-CyBle_Start
 232              		.section	.text.CyBle_Stop,"ax",%progbits
 233              		.align	2
 234              		.global	CyBle_Stop
 235              		.code	16
 236              		.thumb_func
 237              		.type	CyBle_Stop, %function
 238              	CyBle_Stop:
 239              	.LFB5:
 424:.\Generated_Source\PSoC4/BLE.c **** 
 425:.\Generated_Source\PSoC4/BLE.c **** 
 426:.\Generated_Source\PSoC4/BLE.c **** /******************************************************************************
 427:.\Generated_Source\PSoC4/BLE.c **** * Function Name: CyBle_Stop
 428:.\Generated_Source\PSoC4/BLE.c **** ***************************************************************************//**
ARM GAS  C:\Users\Petro\AppData\Local\Temp\ccJlJNPj.s 			page 13


 429:.\Generated_Source\PSoC4/BLE.c **** * 
 430:.\Generated_Source\PSoC4/BLE.c **** *  This function stops any ongoing operation in the BLE Stack and forces the 
 431:.\Generated_Source\PSoC4/BLE.c **** *  BLE Stack to shut down. The only function that can be called after calling
 432:.\Generated_Source\PSoC4/BLE.c **** *  this function is CyBle_Start(). 
 433:.\Generated_Source\PSoC4/BLE.c **** * 
 434:.\Generated_Source\PSoC4/BLE.c **** * \return
 435:.\Generated_Source\PSoC4/BLE.c **** *  None
 436:.\Generated_Source\PSoC4/BLE.c **** * 
 437:.\Generated_Source\PSoC4/BLE.c **** ******************************************************************************/
 438:.\Generated_Source\PSoC4/BLE.c **** void CyBle_Stop(void)
 439:.\Generated_Source\PSoC4/BLE.c **** {
 240              		.loc 1 439 0
 241              		.cfi_startproc
 242 0000 08B5     		push	{r3, lr}
 243              		.cfi_def_cfa_offset 8
 244              		.cfi_offset 3, -8
 245              		.cfi_offset 14, -4
 440:.\Generated_Source\PSoC4/BLE.c ****     CyBle_Shutdown();                         /* Stop all ongoing activities */
 246              		.loc 1 440 0
 247 0002 FFF7FEFF 		bl	CyBle_Shutdown
 248              	.LVL11:
 441:.\Generated_Source\PSoC4/BLE.c ****     CyBle_SetState(CYBLE_STATE_STOPPED);
 249              		.loc 1 441 0
 250 0006 0022     		mov	r2, #0
 251 0008 014B     		ldr	r3, .L14
 252 000a 1A70     		strb	r2, [r3]
 442:.\Generated_Source\PSoC4/BLE.c ****     #if(CYBLE_SHARING_MODE_EXPORT)
 443:.\Generated_Source\PSoC4/BLE.c ****         if(cyBle_stackMemoryRam != NULL)
 444:.\Generated_Source\PSoC4/BLE.c ****         {
 445:.\Generated_Source\PSoC4/BLE.c ****             free(cyBle_stackMemoryRam);
 446:.\Generated_Source\PSoC4/BLE.c ****         }
 447:.\Generated_Source\PSoC4/BLE.c ****     #endif /* CYBLE_SHARING_MODE_EXPORT */
 448:.\Generated_Source\PSoC4/BLE.c **** }
 253              		.loc 1 448 0
 254              		@ sp needed
 255 000c 08BD     		pop	{r3, pc}
 256              	.L15:
 257 000e C046     		.align	2
 258              	.L14:
 259 0010 00000000 		.word	cyBle_state
 260              		.cfi_endproc
 261              	.LFE5:
 262              		.size	CyBle_Stop, .-CyBle_Stop
 263              		.section	.text.CyBle_GapcStartScan,"ax",%progbits
 264              		.align	2
 265              		.global	CyBle_GapcStartScan
 266              		.code	16
 267              		.thumb_func
 268              		.type	CyBle_GapcStartScan, %function
 269              	CyBle_GapcStartScan:
 270              	.LFB6:
 449:.\Generated_Source\PSoC4/BLE.c **** 
 450:.\Generated_Source\PSoC4/BLE.c **** 
 451:.\Generated_Source\PSoC4/BLE.c **** #if((CYBLE_GAP_ROLE_PERIPHERAL || CYBLE_GAP_ROLE_CENTRAL) && (CYBLE_BONDING_REQUIREMENT == CYBLE_BO
 452:.\Generated_Source\PSoC4/BLE.c **** 
 453:.\Generated_Source\PSoC4/BLE.c ****     
 454:.\Generated_Source\PSoC4/BLE.c **** /******************************************************************************
ARM GAS  C:\Users\Petro\AppData\Local\Temp\ccJlJNPj.s 			page 14


 455:.\Generated_Source\PSoC4/BLE.c **** * Function Name: CyBle_StoreBondingData
 456:.\Generated_Source\PSoC4/BLE.c **** ***************************************************************************//**
 457:.\Generated_Source\PSoC4/BLE.c **** * 
 458:.\Generated_Source\PSoC4/BLE.c **** *  This function writes the new bonding data from RAM to the dedicated Flash 
 459:.\Generated_Source\PSoC4/BLE.c **** *  location as defined by the component. It performs data comparing between RAM
 460:.\Generated_Source\PSoC4/BLE.c **** *  and Flash before writing to Flash. If there is no change between RAM and Flash
 461:.\Generated_Source\PSoC4/BLE.c **** *  data, then no write is performed. It writes only one flash row in one call.
 462:.\Generated_Source\PSoC4/BLE.c **** *  Application should keep calling this function till API return CYBLE_ERROR_OK. 
 463:.\Generated_Source\PSoC4/BLE.c **** *  This function is available only when Bonding requirement is selected in
 464:.\Generated_Source\PSoC4/BLE.c **** *  Security settings.    
 465:.\Generated_Source\PSoC4/BLE.c **** * 
 466:.\Generated_Source\PSoC4/BLE.c **** *  \param isForceWrite:  If value is set to 0, then stack will check if flash write 
 467:.\Generated_Source\PSoC4/BLE.c **** *                 is permissible. 
 468:.\Generated_Source\PSoC4/BLE.c **** *  
 469:.\Generated_Source\PSoC4/BLE.c **** * \return
 470:.\Generated_Source\PSoC4/BLE.c **** *  Return value is of type CYBLE_API_RESULT_T.
 471:.\Generated_Source\PSoC4/BLE.c **** *
 472:.\Generated_Source\PSoC4/BLE.c **** *   Errors codes                         | Description
 473:.\Generated_Source\PSoC4/BLE.c **** *   ----------------------------------   | ------------------------------------
 474:.\Generated_Source\PSoC4/BLE.c **** *   CYBLE_ERROR_OK                       | On successful operation
 475:.\Generated_Source\PSoC4/BLE.c **** *   CYBLE_ERROR_FLASH_WRITE_NOT_PERMITED | Flash Write is not complete
 476:.\Generated_Source\PSoC4/BLE.c **** *    
 477:.\Generated_Source\PSoC4/BLE.c **** *  \sideeffect
 478:.\Generated_Source\PSoC4/BLE.c **** *   For BLE devices with 128K of Flash memory this API will automatically 
 479:.\Generated_Source\PSoC4/BLE.c **** *   modify the clock settings for the device.
 480:.\Generated_Source\PSoC4/BLE.c **** *   Writing to flash requires changes to be done to the IMO (set to 48 MHz)
 481:.\Generated_Source\PSoC4/BLE.c **** *   and HFCLK (source set to IMO) settings. The configuration is restored before
 482:.\Generated_Source\PSoC4/BLE.c **** *   returning. This will impact the operation of most of the hardware in the
 483:.\Generated_Source\PSoC4/BLE.c **** *   device.
 484:.\Generated_Source\PSoC4/BLE.c **** * 
 485:.\Generated_Source\PSoC4/BLE.c **** *  \globalvars
 486:.\Generated_Source\PSoC4/BLE.c **** *   The BLE_pendingFlashWrite variable is used to detect status
 487:.\Generated_Source\PSoC4/BLE.c **** *   of pending write to flash operation for stack data and CCCD.
 488:.\Generated_Source\PSoC4/BLE.c **** *   This API automatically clears pending bits after write operation complete.
 489:.\Generated_Source\PSoC4/BLE.c **** *     
 490:.\Generated_Source\PSoC4/BLE.c **** ******************************************************************************/
 491:.\Generated_Source\PSoC4/BLE.c **** CYBLE_API_RESULT_T CyBle_StoreBondingData(uint8 isForceWrite)
 492:.\Generated_Source\PSoC4/BLE.c **** {
 493:.\Generated_Source\PSoC4/BLE.c ****     CYBLE_API_RESULT_T apiResult = CYBLE_ERROR_OK;
 494:.\Generated_Source\PSoC4/BLE.c ****     
 495:.\Generated_Source\PSoC4/BLE.c ****     /* Store Stack data */
 496:.\Generated_Source\PSoC4/BLE.c ****     if((cyBle_pendingFlashWrite & CYBLE_PENDING_STACK_FLASH_WRITE_BIT) != 0u)
 497:.\Generated_Source\PSoC4/BLE.c ****     {
 498:.\Generated_Source\PSoC4/BLE.c ****         apiResult = CyBle_StoreStackData(isForceWrite);
 499:.\Generated_Source\PSoC4/BLE.c ****         if(apiResult == CYBLE_ERROR_OK)
 500:.\Generated_Source\PSoC4/BLE.c ****         {
 501:.\Generated_Source\PSoC4/BLE.c ****             cyBle_pendingFlashWrite &= (uint8)~CYBLE_PENDING_STACK_FLASH_WRITE_BIT;
 502:.\Generated_Source\PSoC4/BLE.c ****             /* Change apiResult if there are more pending data to store */
 503:.\Generated_Source\PSoC4/BLE.c ****             if((cyBle_pendingFlashWrite & CYBLE_PENDING_CCCD_FLASH_WRITE_BIT) != 0u)
 504:.\Generated_Source\PSoC4/BLE.c ****             {
 505:.\Generated_Source\PSoC4/BLE.c ****                 apiResult = CYBLE_ERROR_FLASH_WRITE_NOT_PERMITED;
 506:.\Generated_Source\PSoC4/BLE.c ****             }
 507:.\Generated_Source\PSoC4/BLE.c ****         }
 508:.\Generated_Source\PSoC4/BLE.c ****     }
 509:.\Generated_Source\PSoC4/BLE.c **** #if(CYBLE_GATT_DB_CCCD_COUNT != 0u)
 510:.\Generated_Source\PSoC4/BLE.c ****     /* Store CCCD values */
 511:.\Generated_Source\PSoC4/BLE.c ****     if( ((apiResult == CYBLE_ERROR_OK) || (isForceWrite != 0u)) && 
ARM GAS  C:\Users\Petro\AppData\Local\Temp\ccJlJNPj.s 			page 15


 512:.\Generated_Source\PSoC4/BLE.c ****         ((cyBle_pendingFlashWrite & CYBLE_PENDING_CCCD_FLASH_WRITE_BIT) != 0u) &&
 513:.\Generated_Source\PSoC4/BLE.c ****         (cyBle_connHandle.bdHandle <= CYBLE_GAP_MAX_BONDED_DEVICE))
 514:.\Generated_Source\PSoC4/BLE.c ****     {
 515:.\Generated_Source\PSoC4/BLE.c ****         apiResult = CyBle_StoreAppData(cyBle_attValuesCCCD, cyBle_flashStorage.attValuesCCCDFlashMe
 516:.\Generated_Source\PSoC4/BLE.c ****                                        CYBLE_GATT_DB_CCCD_COUNT, isForceWrite);
 517:.\Generated_Source\PSoC4/BLE.c ****         if(apiResult == CYBLE_ERROR_OK)
 518:.\Generated_Source\PSoC4/BLE.c ****         {
 519:.\Generated_Source\PSoC4/BLE.c ****             cyBle_pendingFlashWrite &= (uint8)~CYBLE_PENDING_CCCD_FLASH_WRITE_BIT;
 520:.\Generated_Source\PSoC4/BLE.c ****         }
 521:.\Generated_Source\PSoC4/BLE.c ****     }
 522:.\Generated_Source\PSoC4/BLE.c **** #endif /* CYBLE_GATT_DB_CCCD_COUNT != 0u */
 523:.\Generated_Source\PSoC4/BLE.c ****     return(apiResult);
 524:.\Generated_Source\PSoC4/BLE.c **** }
 525:.\Generated_Source\PSoC4/BLE.c **** 
 526:.\Generated_Source\PSoC4/BLE.c **** 
 527:.\Generated_Source\PSoC4/BLE.c **** #endif /* (CYBLE_GAP_ROLE_PERIPHERAL || CYBLE_GAP_ROLE_CENTRAL) && (CYBLE_BONDING_REQUIREMENT == CY
 528:.\Generated_Source\PSoC4/BLE.c **** 
 529:.\Generated_Source\PSoC4/BLE.c **** 
 530:.\Generated_Source\PSoC4/BLE.c **** #if(CYBLE_GAP_ROLE_PERIPHERAL || CYBLE_GAP_ROLE_BROADCASTER)
 531:.\Generated_Source\PSoC4/BLE.c **** 
 532:.\Generated_Source\PSoC4/BLE.c ****     /******************************************************************************
 533:.\Generated_Source\PSoC4/BLE.c ****     *  Function Name: CyBle_GappStartAdvertisement
 534:.\Generated_Source\PSoC4/BLE.c ****     ***************************************************************************//**
 535:.\Generated_Source\PSoC4/BLE.c ****     *     
 536:.\Generated_Source\PSoC4/BLE.c ****     *  This function is used to start the advertisement using the advertisement data 
 537:.\Generated_Source\PSoC4/BLE.c ****     *  set in the component customizer's GUI. After invoking this API, the device 
 538:.\Generated_Source\PSoC4/BLE.c ****     *  will be available for connection by the devices configured for GAP central 
 539:.\Generated_Source\PSoC4/BLE.c ****     *  role. It is only included if the device is configured for GAP Peripheral or 
 540:.\Generated_Source\PSoC4/BLE.c ****     *  GAP Peripheral + Central role.
 541:.\Generated_Source\PSoC4/BLE.c ****     *  
 542:.\Generated_Source\PSoC4/BLE.c ****     *  On start of advertisement, GAP Peripheral receives the
 543:.\Generated_Source\PSoC4/BLE.c ****     *  CYBLE_EVT_GAPP_ADVERTISEMENT_START_STOP event. The following events are 
 544:.\Generated_Source\PSoC4/BLE.c ****     *  possible on invoking this function:
 545:.\Generated_Source\PSoC4/BLE.c ****     *  
 546:.\Generated_Source\PSoC4/BLE.c ****     *  * CYBLE_EVT_GAP_DEVICE_CONNECTED: If the device connects to remote GAP 
 547:.\Generated_Source\PSoC4/BLE.c ****     *                                      Central device
 548:.\Generated_Source\PSoC4/BLE.c ****     *  * CYBLE_EVT_TIMEOUT: If no device in GAP Central mode connects to this 
 549:.\Generated_Source\PSoC4/BLE.c ****     *                       device within the specified timeout limit. Stack 
 550:.\Generated_Source\PSoC4/BLE.c ****     *                       automatically initiate stop advertising when Slow 
 551:.\Generated_Source\PSoC4/BLE.c ****     *                       advertising was initiated, or starts Slow advertising
 552:.\Generated_Source\PSoC4/BLE.c ****     *                       after Fast advertising timeout occur.
 553:.\Generated_Source\PSoC4/BLE.c ****     *  * CYBLE_EVT_GAPP_ADVERTISEMENT_START_STOP: If device started or stopped
 554:.\Generated_Source\PSoC4/BLE.c ****     *                                               advertising. Use CyBle_GetState()
 555:.\Generated_Source\PSoC4/BLE.c ****     *                                               to determine the state. Sequential 
 556:.\Generated_Source\PSoC4/BLE.c ****     *                                               advertising could be started when
 557:.\Generated_Source\PSoC4/BLE.c ****     *                                               CYBLE_STATE_DISCONNECTED state is
 558:.\Generated_Source\PSoC4/BLE.c ****     *                                               returned.
 559:.\Generated_Source\PSoC4/BLE.c ****     * 
 560:.\Generated_Source\PSoC4/BLE.c ****     *  \param advertisingIntervalType: Fast or slow advertising interval with timings
 561:.\Generated_Source\PSoC4/BLE.c ****     *                                 entered in Advertising settings section of the
 562:.\Generated_Source\PSoC4/BLE.c ****     *                                 customizer.
 563:.\Generated_Source\PSoC4/BLE.c ****     *  * CYBLE_ADVERTISING_FAST   0x00u
 564:.\Generated_Source\PSoC4/BLE.c ****     *  * CYBLE_ADVERTISING_SLOW   0x01u
 565:.\Generated_Source\PSoC4/BLE.c ****     *  * CYBLE_ADVERTISING_CUSTOM 0x02u
 566:.\Generated_Source\PSoC4/BLE.c ****     * 
 567:.\Generated_Source\PSoC4/BLE.c ****     * \return
 568:.\Generated_Source\PSoC4/BLE.c ****     *  CYBLE_API_RESULT_T : Return value indicates if the function succeeded or
ARM GAS  C:\Users\Petro\AppData\Local\Temp\ccJlJNPj.s 			page 16


 569:.\Generated_Source\PSoC4/BLE.c ****     *  failed. Following are the possible error codes.
 570:.\Generated_Source\PSoC4/BLE.c ****     * 
 571:.\Generated_Source\PSoC4/BLE.c ****     *   Errors codes                      |  Description
 572:.\Generated_Source\PSoC4/BLE.c ****     *   --------------------------------- |  --------------------------------
 573:.\Generated_Source\PSoC4/BLE.c ****     *   CYBLE_ERROR_OK                    |  On successful operation.
 574:.\Generated_Source\PSoC4/BLE.c ****     *   CYBLE_ERROR_INVALID_PARAMETER     |  On passing an invalid parameter.
 575:.\Generated_Source\PSoC4/BLE.c ****     *   CYBLE_ERROR_INVALID_STATE         |  On calling this API not in Disconnected state.
 576:.\Generated_Source\PSoC4/BLE.c ****     *
 577:.\Generated_Source\PSoC4/BLE.c ****     * 
 578:.\Generated_Source\PSoC4/BLE.c ****     *******************************************************************************/
 579:.\Generated_Source\PSoC4/BLE.c ****     CYBLE_API_RESULT_T CyBle_GappStartAdvertisement(uint8 advertisingIntervalType)
 580:.\Generated_Source\PSoC4/BLE.c ****     {
 581:.\Generated_Source\PSoC4/BLE.c ****         CYBLE_API_RESULT_T apiResult;
 582:.\Generated_Source\PSoC4/BLE.c ****         
 583:.\Generated_Source\PSoC4/BLE.c ****         if(advertisingIntervalType > CYBLE_ADVERTISING_CUSTOM)
 584:.\Generated_Source\PSoC4/BLE.c ****         {
 585:.\Generated_Source\PSoC4/BLE.c ****             apiResult = CYBLE_ERROR_INVALID_PARAMETER;
 586:.\Generated_Source\PSoC4/BLE.c ****         }
 587:.\Generated_Source\PSoC4/BLE.c ****         else if((CYBLE_STATE_DISCONNECTED == CyBle_GetState()) && ((cyBle_eventHandlerFlag & CYBLE_
 588:.\Generated_Source\PSoC4/BLE.c ****         {   
 589:.\Generated_Source\PSoC4/BLE.c ****             if(advertisingIntervalType == CYBLE_ADVERTISING_FAST)
 590:.\Generated_Source\PSoC4/BLE.c ****             {
 591:.\Generated_Source\PSoC4/BLE.c ****                 cyBle_discoveryModeInfo.advTo = CYBLE_FAST_ADV_TIMEOUT;
 592:.\Generated_Source\PSoC4/BLE.c ****                 cyBle_discoveryModeInfo.advParam->advIntvMin = CYBLE_FAST_ADV_INT_MIN;
 593:.\Generated_Source\PSoC4/BLE.c ****                 cyBle_discoveryModeInfo.advParam->advIntvMax = CYBLE_FAST_ADV_INT_MAX;
 594:.\Generated_Source\PSoC4/BLE.c ****             }
 595:.\Generated_Source\PSoC4/BLE.c ****             else if(advertisingIntervalType == CYBLE_ADVERTISING_SLOW)
 596:.\Generated_Source\PSoC4/BLE.c ****             {
 597:.\Generated_Source\PSoC4/BLE.c ****                 cyBle_discoveryModeInfo.advTo = CYBLE_SLOW_ADV_TIMEOUT;
 598:.\Generated_Source\PSoC4/BLE.c ****                 cyBle_discoveryModeInfo.advParam->advIntvMin = CYBLE_SLOW_ADV_INT_MIN;
 599:.\Generated_Source\PSoC4/BLE.c ****                 cyBle_discoveryModeInfo.advParam->advIntvMax = CYBLE_SLOW_ADV_INT_MAX;
 600:.\Generated_Source\PSoC4/BLE.c ****             }       
 601:.\Generated_Source\PSoC4/BLE.c ****             else /* Do not update advertising intervals */
 602:.\Generated_Source\PSoC4/BLE.c ****             {
 603:.\Generated_Source\PSoC4/BLE.c ****             }
 604:.\Generated_Source\PSoC4/BLE.c ****             cyBle_advertisingIntervalType = advertisingIntervalType;
 605:.\Generated_Source\PSoC4/BLE.c ****             apiResult = CyBle_GappEnterDiscoveryMode(&cyBle_discoveryModeInfo);
 606:.\Generated_Source\PSoC4/BLE.c ****         
 607:.\Generated_Source\PSoC4/BLE.c ****             if(CYBLE_ERROR_OK == apiResult)
 608:.\Generated_Source\PSoC4/BLE.c ****             {
 609:.\Generated_Source\PSoC4/BLE.c ****                 cyBle_eventHandlerFlag |= CYBLE_START_FLAG;
 610:.\Generated_Source\PSoC4/BLE.c ****             }
 611:.\Generated_Source\PSoC4/BLE.c ****         }
 612:.\Generated_Source\PSoC4/BLE.c ****         else
 613:.\Generated_Source\PSoC4/BLE.c ****         {
 614:.\Generated_Source\PSoC4/BLE.c ****             apiResult = CYBLE_ERROR_INVALID_STATE;
 615:.\Generated_Source\PSoC4/BLE.c ****         }
 616:.\Generated_Source\PSoC4/BLE.c **** 
 617:.\Generated_Source\PSoC4/BLE.c ****         return (apiResult);
 618:.\Generated_Source\PSoC4/BLE.c ****     }
 619:.\Generated_Source\PSoC4/BLE.c **** 
 620:.\Generated_Source\PSoC4/BLE.c ****     
 621:.\Generated_Source\PSoC4/BLE.c ****     /******************************************************************************
 622:.\Generated_Source\PSoC4/BLE.c ****     * Function Name: CyBle_GappStopAdvertisement
 623:.\Generated_Source\PSoC4/BLE.c ****     ***************************************************************************//**
 624:.\Generated_Source\PSoC4/BLE.c ****     * 
 625:.\Generated_Source\PSoC4/BLE.c ****     *   This function can be used to exit from discovery mode. After the execution 
ARM GAS  C:\Users\Petro\AppData\Local\Temp\ccJlJNPj.s 			page 17


 626:.\Generated_Source\PSoC4/BLE.c ****     *   of this function, there will no longer be any advertisements. On stopping 
 627:.\Generated_Source\PSoC4/BLE.c ****     *   advertising, GAP Peripheral receives CYBLE_EVT_GAPP_ADVERTISEMENT_START_STOP
 628:.\Generated_Source\PSoC4/BLE.c ****     *   event. It is expected that the application layer tracks the function call 
 629:.\Generated_Source\PSoC4/BLE.c ****     *   performed before occurrence of this event as this event can occur on making 
 630:.\Generated_Source\PSoC4/BLE.c ****     *   a call to Cy_BleGappStartAdvertisement(), CyBle_GappEnterDiscoveryMode(), 
 631:.\Generated_Source\PSoC4/BLE.c ****     *   or CyBle_GappStartAdvertisement() functions as well.
 632:.\Generated_Source\PSoC4/BLE.c ****     *   
 633:.\Generated_Source\PSoC4/BLE.c ****     *   The following event occurs on invoking this function:
 634:.\Generated_Source\PSoC4/BLE.c ****     *   * CYBLE_EVT_GAPP_ADVERTISEMENT_START_STOP
 635:.\Generated_Source\PSoC4/BLE.c ****     * 
 636:.\Generated_Source\PSoC4/BLE.c ****     *  \return
 637:.\Generated_Source\PSoC4/BLE.c ****     *   None
 638:.\Generated_Source\PSoC4/BLE.c ****     * 
 639:.\Generated_Source\PSoC4/BLE.c ****     *******************************************************************************/
 640:.\Generated_Source\PSoC4/BLE.c ****     void CyBle_GappStopAdvertisement(void)
 641:.\Generated_Source\PSoC4/BLE.c ****     {
 642:.\Generated_Source\PSoC4/BLE.c ****         CyBle_GappExitDiscoveryMode();
 643:.\Generated_Source\PSoC4/BLE.c ****         cyBle_eventHandlerFlag |= CYBLE_STOP_FLAG;
 644:.\Generated_Source\PSoC4/BLE.c ****     }
 645:.\Generated_Source\PSoC4/BLE.c ****     
 646:.\Generated_Source\PSoC4/BLE.c ****     
 647:.\Generated_Source\PSoC4/BLE.c ****     /******************************************************************************
 648:.\Generated_Source\PSoC4/BLE.c ****     * Function Name: CyBle_ChangeAdDeviceAddress
 649:.\Generated_Source\PSoC4/BLE.c ****     ***************************************************************************//**
 650:.\Generated_Source\PSoC4/BLE.c ****     * 
 651:.\Generated_Source\PSoC4/BLE.c ****     *  This API is used to set the Bluetooth device address into the advertisement 
 652:.\Generated_Source\PSoC4/BLE.c ****     *  or scan response data structure.
 653:.\Generated_Source\PSoC4/BLE.c ****     * 
 654:.\Generated_Source\PSoC4/BLE.c ****     *  \param bdAddr: Bluetooth Device address. The variable is of type CYBLE_GAP_BD_ADDR_T
 655:.\Generated_Source\PSoC4/BLE.c ****     *  \param dest: 0 - selects advertisement structure, not zero value selects scan 
 656:.\Generated_Source\PSoC4/BLE.c ****     *               response structure.
 657:.\Generated_Source\PSoC4/BLE.c ****     * 
 658:.\Generated_Source\PSoC4/BLE.c ****     * \return
 659:.\Generated_Source\PSoC4/BLE.c ****     *  None
 660:.\Generated_Source\PSoC4/BLE.c ****     *  
 661:.\Generated_Source\PSoC4/BLE.c ****     *******************************************************************************/
 662:.\Generated_Source\PSoC4/BLE.c ****     void CyBle_ChangeAdDeviceAddress(const CYBLE_GAP_BD_ADDR_T* bdAddr, uint8 dest)
 663:.\Generated_Source\PSoC4/BLE.c ****     {
 664:.\Generated_Source\PSoC4/BLE.c ****         uint8 i;
 665:.\Generated_Source\PSoC4/BLE.c ****         uint8 *destBuffer = NULL;
 666:.\Generated_Source\PSoC4/BLE.c ****         
 667:.\Generated_Source\PSoC4/BLE.c ****         if(dest == 0u)      /* Destination - advertising structure */
 668:.\Generated_Source\PSoC4/BLE.c ****         {
 669:.\Generated_Source\PSoC4/BLE.c ****             #ifdef CYBLE_ADV_PKT_INDEX_BLUETOOTH_DEVICE_ADDRESS
 670:.\Generated_Source\PSoC4/BLE.c ****                 destBuffer = &cyBle_discoveryData.advData[CYBLE_ADV_PKT_INDEX_BLUETOOTH_DEVICE_ADDR
 671:.\Generated_Source\PSoC4/BLE.c ****             #endif /* CYBLE_ADV_PKT_INDEX_BLUETOOTH_DEVICE_ADDRESS */
 672:.\Generated_Source\PSoC4/BLE.c ****         }
 673:.\Generated_Source\PSoC4/BLE.c ****         else                /* Destination - scan response structure */
 674:.\Generated_Source\PSoC4/BLE.c ****         {
 675:.\Generated_Source\PSoC4/BLE.c ****             #ifdef CYBLE_SCN_PKT_INDEX_BLUETOOTH_DEVICE_ADDRESS
 676:.\Generated_Source\PSoC4/BLE.c ****                 destBuffer = &cyBle_scanRspData.scanRspData[CYBLE_SCN_PKT_INDEX_BLUETOOTH_DEVICE_AD
 677:.\Generated_Source\PSoC4/BLE.c ****             #endif /* CYBLE_SCN_PKT_INDEX_BLUETOOTH_DEVICE_ADDRESS */    
 678:.\Generated_Source\PSoC4/BLE.c ****         }
 679:.\Generated_Source\PSoC4/BLE.c ****         
 680:.\Generated_Source\PSoC4/BLE.c ****         if(destBuffer != NULL)
 681:.\Generated_Source\PSoC4/BLE.c ****         {
 682:.\Generated_Source\PSoC4/BLE.c ****             /* Update Device Address type */
ARM GAS  C:\Users\Petro\AppData\Local\Temp\ccJlJNPj.s 			page 18


 683:.\Generated_Source\PSoC4/BLE.c ****             destBuffer[0u] = bdAddr->type;
 684:.\Generated_Source\PSoC4/BLE.c ****             
 685:.\Generated_Source\PSoC4/BLE.c ****             for(i = 0u; i < CYBLE_GAP_BD_ADDR_SIZE; i++)
 686:.\Generated_Source\PSoC4/BLE.c ****             {
 687:.\Generated_Source\PSoC4/BLE.c ****                 destBuffer[i + 1u] = bdAddr->bdAddr[i];
 688:.\Generated_Source\PSoC4/BLE.c ****             }
 689:.\Generated_Source\PSoC4/BLE.c ****         }
 690:.\Generated_Source\PSoC4/BLE.c ****     }
 691:.\Generated_Source\PSoC4/BLE.c ****   
 692:.\Generated_Source\PSoC4/BLE.c **** #endif /* CYBLE_GAP_ROLE_PERIPHERAL || CYBLE_GAP_ROLE_BROADCASTER */
 693:.\Generated_Source\PSoC4/BLE.c **** 
 694:.\Generated_Source\PSoC4/BLE.c **** 
 695:.\Generated_Source\PSoC4/BLE.c **** #if(CYBLE_GAP_ROLE_CENTRAL || CYBLE_GAP_ROLE_OBSERVER)
 696:.\Generated_Source\PSoC4/BLE.c **** 
 697:.\Generated_Source\PSoC4/BLE.c ****     /******************************************************************************
 698:.\Generated_Source\PSoC4/BLE.c ****     * Function Name: CyBle_GapcStartScan
 699:.\Generated_Source\PSoC4/BLE.c ****     ***************************************************************************//**
 700:.\Generated_Source\PSoC4/BLE.c ****     * 
 701:.\Generated_Source\PSoC4/BLE.c ****     *   This function is used for discovering GAP peripheral devices that are 
 702:.\Generated_Source\PSoC4/BLE.c ****     *   available for connection. It performs the scanning routine using the 
 703:.\Generated_Source\PSoC4/BLE.c ****     *   parameters entered in the component's customizer.
 704:.\Generated_Source\PSoC4/BLE.c ****     *   
 705:.\Generated_Source\PSoC4/BLE.c ****     *   As soon as the discovery operation starts, CYBLE_EVT_GAPC_SCAN_START_STOP 
 706:.\Generated_Source\PSoC4/BLE.c ****     *   event is generated. The CYBLE_EVT_GAPC_SCAN_PROGRESS_RESULT event is 
 707:.\Generated_Source\PSoC4/BLE.c ****     *   generated when a GAP peripheral device is located. There are three discovery
 708:.\Generated_Source\PSoC4/BLE.c ****     *   procedures can be selected in the customizer's GUI:
 709:.\Generated_Source\PSoC4/BLE.c ****     *   
 710:.\Generated_Source\PSoC4/BLE.c ****     *   * Observation procedure: A device performing the observer role receives only
 711:.\Generated_Source\PSoC4/BLE.c ****     *                            advertisement data from devices irrespective of 
 712:.\Generated_Source\PSoC4/BLE.c ****     *                            their discoverable mode settings. Advertisement 
 713:.\Generated_Source\PSoC4/BLE.c ****     *                            data received is provided by the event,      
 714:.\Generated_Source\PSoC4/BLE.c ****     *                            CYBLE_EVT_GAPC_SCAN_PROGRESS_RESULT. This procedure
 715:.\Generated_Source\PSoC4/BLE.c ****     *                            requires the scanType sub parameter to be passive
 716:.\Generated_Source\PSoC4/BLE.c ****     *                            scanning. 
 717:.\Generated_Source\PSoC4/BLE.c ****     *   
 718:.\Generated_Source\PSoC4/BLE.c ****     *   * Limited Discovery procedure: A device performing the limited discovery
 719:.\Generated_Source\PSoC4/BLE.c ****     *                                  procedure receives advertisement data and 
 720:.\Generated_Source\PSoC4/BLE.c ****     *                                  scan# response data from devices in the 
 721:.\Generated_Source\PSoC4/BLE.c ****     *                                  limited discoverable mode only. Received data
 722:.\Generated_Source\PSoC4/BLE.c ****     *                                  is provided by the event, 
 723:.\Generated_Source\PSoC4/BLE.c ****     *                                  CYBLE_EVT_GAPC_SCAN_PROGRESS_RESULT. This 
 724:.\Generated_Source\PSoC4/BLE.c ****     *                                  procedure requires the scanType sub-parameter 
 725:.\Generated_Source\PSoC4/BLE.c ****     *                                  to be active scanning.
 726:.\Generated_Source\PSoC4/BLE.c ****     *   
 727:.\Generated_Source\PSoC4/BLE.c ****     *   * General Discovery procedure: A device performing the general discovery 
 728:.\Generated_Source\PSoC4/BLE.c ****     *                                  procedure receives the advertisement data and
 729:.\Generated_Source\PSoC4/BLE.c ****     *                                  scan response data from devices in both 
 730:.\Generated_Source\PSoC4/BLE.c ****     *                                  limited discoverable mode and the general 
 731:.\Generated_Source\PSoC4/BLE.c ****     *                                  discoverable mode. Received data is provided
 732:.\Generated_Source\PSoC4/BLE.c ****     *                                  by the event,
 733:.\Generated_Source\PSoC4/BLE.c ****     *                                  CYBLE_EVT_GAPC_SCAN_PROGRESS_RESULT. This 
 734:.\Generated_Source\PSoC4/BLE.c ****     *                                  procedure requires the scanType sub-parameter
 735:.\Generated_Source\PSoC4/BLE.c ****     *                                  to be active scanning.
 736:.\Generated_Source\PSoC4/BLE.c ****     *   
 737:.\Generated_Source\PSoC4/BLE.c ****     *   Every Advertisement / Scan response packet received results in a new event, 
 738:.\Generated_Source\PSoC4/BLE.c ****     *   CYBLE_EVT_GAPC_SCAN_PROGRESS_RESULT.
 739:.\Generated_Source\PSoC4/BLE.c ****     *   If 'scanTo' sub-parameter is a non-zero value, then upon commencement of 
ARM GAS  C:\Users\Petro\AppData\Local\Temp\ccJlJNPj.s 			page 19


 740:.\Generated_Source\PSoC4/BLE.c ****     *   discovery procedure and elapsed time = 'scanTo', CYBLE_EVT_TIMEOUT event
 741:.\Generated_Source\PSoC4/BLE.c ****     *   is generated with the event parameter indicating CYBLE_GAP_SCAN_TO.
 742:.\Generated_Source\PSoC4/BLE.c ****     *   Possible generated events are:
 743:.\Generated_Source\PSoC4/BLE.c ****     *   * CYBLE_EVT_GAPC_SCAN_START_STOP: If a device started or stopped scanning. 
 744:.\Generated_Source\PSoC4/BLE.c ****     *                                     Use CyBle_GetState() to determine the 
 745:.\Generated_Source\PSoC4/BLE.c ****     *                                     state. Sequential scanning could be 
 746:.\Generated_Source\PSoC4/BLE.c ****     *                                     started when CYBLE_STATE_DISCONNECTED 
 747:.\Generated_Source\PSoC4/BLE.c ****     *                                     state is returned. 
 748:.\Generated_Source\PSoC4/BLE.c ****     *   * CYBLE_EVT_GAPC_SCAN_PROGRESS_RESULT 
 749:.\Generated_Source\PSoC4/BLE.c ****     *   * CYBLE_EVT_TIMEOUT (CYBLE_GAP_SCAN_TO)
 750:.\Generated_Source\PSoC4/BLE.c ****     * 
 751:.\Generated_Source\PSoC4/BLE.c ****     *   \param scanningIntervalType:  Fast or slow scanning interval with
 752:.\Generated_Source\PSoC4/BLE.c ****     *       timings entered in Scan settings section of the customizer.
 753:.\Generated_Source\PSoC4/BLE.c ****     * 	  * CYBLE_SCANNING_FAST   0x00u
 754:.\Generated_Source\PSoC4/BLE.c ****     * 	  * CYBLE_SCANNING_SLOW   0x01u
 755:.\Generated_Source\PSoC4/BLE.c ****     * 	  * CYBLE_SCANNING_CUSTOM 0x02u
 756:.\Generated_Source\PSoC4/BLE.c ****     * 
 757:.\Generated_Source\PSoC4/BLE.c ****     * \return
 758:.\Generated_Source\PSoC4/BLE.c ****     *  CYBLE_API_RESULT_T : Return value indicates if the function succeeded or
 759:.\Generated_Source\PSoC4/BLE.c ****     *  failed. Following are the possible error codes.
 760:.\Generated_Source\PSoC4/BLE.c ****     *
 761:.\Generated_Source\PSoC4/BLE.c ****     *   Errors codes                       | Description
 762:.\Generated_Source\PSoC4/BLE.c ****     *   ---------------------------------- | -----------------------------------
 763:.\Generated_Source\PSoC4/BLE.c ****     *   CYBLE_ERROR_OK                     | On successful operation.
 764:.\Generated_Source\PSoC4/BLE.c ****     *   CYBLE_ERROR_STACK_INTERNAL         | An error occurred in the BLE stack.
 765:.\Generated_Source\PSoC4/BLE.c ****     *   CYBLE_ERROR_INVALID_PARAMETER      | On passing an invalid parameter.
 766:.\Generated_Source\PSoC4/BLE.c ****     *  
 767:.\Generated_Source\PSoC4/BLE.c ****     *******************************************************************************/
 768:.\Generated_Source\PSoC4/BLE.c ****     CYBLE_API_RESULT_T CyBle_GapcStartScan(uint8 scanningIntervalType)
 769:.\Generated_Source\PSoC4/BLE.c ****     {
 271              		.loc 1 769 0
 272              		.cfi_startproc
 273              	.LVL12:
 274 0000 08B5     		push	{r3, lr}
 275              		.cfi_def_cfa_offset 8
 276              		.cfi_offset 3, -8
 277              		.cfi_offset 14, -4
 770:.\Generated_Source\PSoC4/BLE.c ****         CYBLE_API_RESULT_T apiResult;
 771:.\Generated_Source\PSoC4/BLE.c **** 
 772:.\Generated_Source\PSoC4/BLE.c ****         if(scanningIntervalType > CYBLE_SCANNING_CUSTOM)
 278              		.loc 1 772 0
 279 0002 0228     		cmp	r0, #2
 280 0004 20D8     		bhi	.L20
 773:.\Generated_Source\PSoC4/BLE.c ****         {
 774:.\Generated_Source\PSoC4/BLE.c ****             apiResult = CYBLE_ERROR_INVALID_PARAMETER;
 775:.\Generated_Source\PSoC4/BLE.c ****         }
 776:.\Generated_Source\PSoC4/BLE.c ****         else
 777:.\Generated_Source\PSoC4/BLE.c ****         {
 778:.\Generated_Source\PSoC4/BLE.c ****             if(scanningIntervalType == CYBLE_SCANNING_FAST)
 281              		.loc 1 778 0
 282 0006 0028     		cmp	r0, #0
 283 0008 06D1     		bne	.L18
 779:.\Generated_Source\PSoC4/BLE.c ****             {
 780:.\Generated_Source\PSoC4/BLE.c ****                 cyBle_discoveryInfo.scanTo = CYBLE_FAST_SCAN_TIMEOUT;
 284              		.loc 1 780 0
 285 000a 104B     		ldr	r3, .L21
 286 000c B422     		mov	r2, #180
ARM GAS  C:\Users\Petro\AppData\Local\Temp\ccJlJNPj.s 			page 20


 287 000e 1A81     		strh	r2, [r3, #8]
 781:.\Generated_Source\PSoC4/BLE.c ****                 cyBle_discoveryInfo.scanIntv = CYBLE_FAST_SCAN_INTERVAL;
 288              		.loc 1 781 0
 289 0010 843A     		sub	r2, r2, #132
 290 0012 5A80     		strh	r2, [r3, #2]
 782:.\Generated_Source\PSoC4/BLE.c ****                 cyBle_discoveryInfo.scanWindow = CYBLE_FAST_SCAN_WINDOW;
 291              		.loc 1 782 0
 292 0014 9A80     		strh	r2, [r3, #4]
 293 0016 0AE0     		b	.L19
 294              	.L18:
 783:.\Generated_Source\PSoC4/BLE.c ****             }
 784:.\Generated_Source\PSoC4/BLE.c ****             else if(scanningIntervalType == CYBLE_SCANNING_SLOW)
 295              		.loc 1 784 0
 296 0018 0128     		cmp	r0, #1
 297 001a 08D1     		bne	.L19
 785:.\Generated_Source\PSoC4/BLE.c ****             {
 786:.\Generated_Source\PSoC4/BLE.c ****                 cyBle_discoveryInfo.scanTo = CYBLE_SLOW_SCAN_TIMEOUT;
 298              		.loc 1 786 0
 299 001c 0B4B     		ldr	r3, .L21
 300 001e 0A22     		mov	r2, #10
 301 0020 1A81     		strh	r2, [r3, #8]
 787:.\Generated_Source\PSoC4/BLE.c ****                 cyBle_discoveryInfo.scanIntv = CYBLE_SLOW_SCAN_INTERVAL;
 302              		.loc 1 787 0
 303 0022 8022     		mov	r2, #128
 304 0024 1201     		lsl	r2, r2, #4
 305 0026 5A80     		strh	r2, [r3, #2]
 788:.\Generated_Source\PSoC4/BLE.c ****                 cyBle_discoveryInfo.scanWindow = CYBLE_SLOW_SCAN_WINDOW;
 306              		.loc 1 788 0
 307 0028 C13A     		sub	r2, r2, #193
 308 002a FF3A     		sub	r2, r2, #255
 309 002c 9A80     		strh	r2, [r3, #4]
 310              	.L19:
 789:.\Generated_Source\PSoC4/BLE.c ****             }       
 790:.\Generated_Source\PSoC4/BLE.c ****             else /* Do not update scanning intervals */
 791:.\Generated_Source\PSoC4/BLE.c ****             {
 792:.\Generated_Source\PSoC4/BLE.c ****             }
 793:.\Generated_Source\PSoC4/BLE.c ****             
 794:.\Generated_Source\PSoC4/BLE.c ****             cyBle_scanningIntervalType = scanningIntervalType;
 311              		.loc 1 794 0
 312 002e 084B     		ldr	r3, .L21+4
 313 0030 1870     		strb	r0, [r3]
 795:.\Generated_Source\PSoC4/BLE.c ****             apiResult = CyBle_GapcStartDiscovery(&cyBle_discoveryInfo);
 314              		.loc 1 795 0
 315 0032 0648     		ldr	r0, .L21
 316              	.LVL13:
 317 0034 FFF7FEFF 		bl	CyBle_GapcStartDiscovery
 318              	.LVL14:
 796:.\Generated_Source\PSoC4/BLE.c ****         
 797:.\Generated_Source\PSoC4/BLE.c ****             if(CYBLE_ERROR_OK == apiResult)
 319              		.loc 1 797 0
 320 0038 0028     		cmp	r0, #0
 321 003a 06D1     		bne	.L17
 798:.\Generated_Source\PSoC4/BLE.c ****             {
 799:.\Generated_Source\PSoC4/BLE.c ****                 cyBle_eventHandlerFlag |= CYBLE_START_FLAG;
 322              		.loc 1 799 0
 323 003c 054A     		ldr	r2, .L21+8
 324 003e 1178     		ldrb	r1, [r2]
ARM GAS  C:\Users\Petro\AppData\Local\Temp\ccJlJNPj.s 			page 21


 325 0040 0423     		mov	r3, #4
 326 0042 0B43     		orr	r3, r1
 327 0044 1370     		strb	r3, [r2]
 328 0046 00E0     		b	.L17
 329              	.LVL15:
 330              	.L20:
 774:.\Generated_Source\PSoC4/BLE.c ****         }
 331              		.loc 1 774 0
 332 0048 0120     		mov	r0, #1
 333              	.LVL16:
 334              	.L17:
 800:.\Generated_Source\PSoC4/BLE.c ****             }
 801:.\Generated_Source\PSoC4/BLE.c ****         }
 802:.\Generated_Source\PSoC4/BLE.c ****        
 803:.\Generated_Source\PSoC4/BLE.c ****         return (apiResult);
 804:.\Generated_Source\PSoC4/BLE.c ****     }
 335              		.loc 1 804 0
 336              		@ sp needed
 337 004a 08BD     		pop	{r3, pc}
 338              	.L22:
 339              		.align	2
 340              	.L21:
 341 004c 00000000 		.word	.LANCHOR0
 342 0050 00000000 		.word	cyBle_scanningIntervalType
 343 0054 00000000 		.word	cyBle_eventHandlerFlag
 344              		.cfi_endproc
 345              	.LFE6:
 346              		.size	CyBle_GapcStartScan, .-CyBle_GapcStartScan
 347              		.section	.text.CyBle_GapcStopScan,"ax",%progbits
 348              		.align	2
 349              		.global	CyBle_GapcStopScan
 350              		.code	16
 351              		.thumb_func
 352              		.type	CyBle_GapcStopScan, %function
 353              	CyBle_GapcStopScan:
 354              	.LFB7:
 805:.\Generated_Source\PSoC4/BLE.c ****     
 806:.\Generated_Source\PSoC4/BLE.c ****     
 807:.\Generated_Source\PSoC4/BLE.c ****     /******************************************************************************
 808:.\Generated_Source\PSoC4/BLE.c ****     * Function Name: CyBle_GapcStopScan
 809:.\Generated_Source\PSoC4/BLE.c ****     ***************************************************************************//**
 810:.\Generated_Source\PSoC4/BLE.c ****     * 
 811:.\Generated_Source\PSoC4/BLE.c ****     *   This function used to stop the discovery of devices. On stopping discovery
 812:.\Generated_Source\PSoC4/BLE.c ****     *   operation, CYBLE_EVT_GAPC_SCAN_START_STOP event is generated. Application
 813:.\Generated_Source\PSoC4/BLE.c ****     *   layer needs to keep track of the function call made before receiving this
 814:.\Generated_Source\PSoC4/BLE.c ****     *   event to associate this event with either the start or stop discovery
 815:.\Generated_Source\PSoC4/BLE.c ****     *   function.
 816:.\Generated_Source\PSoC4/BLE.c ****     * 
 817:.\Generated_Source\PSoC4/BLE.c ****     *   Possible events generated are:
 818:.\Generated_Source\PSoC4/BLE.c ****     *    * CYBLE_EVT_GAPC_SCAN_START_STOP
 819:.\Generated_Source\PSoC4/BLE.c ****     * 
 820:.\Generated_Source\PSoC4/BLE.c ****     *  \return
 821:.\Generated_Source\PSoC4/BLE.c ****     *   None
 822:.\Generated_Source\PSoC4/BLE.c ****     * 
 823:.\Generated_Source\PSoC4/BLE.c ****     *******************************************************************************/
 824:.\Generated_Source\PSoC4/BLE.c ****     void CyBle_GapcStopScan(void)
 825:.\Generated_Source\PSoC4/BLE.c ****     {
ARM GAS  C:\Users\Petro\AppData\Local\Temp\ccJlJNPj.s 			page 22


 355              		.loc 1 825 0
 356              		.cfi_startproc
 357 0000 08B5     		push	{r3, lr}
 358              		.cfi_def_cfa_offset 8
 359              		.cfi_offset 3, -8
 360              		.cfi_offset 14, -4
 826:.\Generated_Source\PSoC4/BLE.c ****         CyBle_GapcStopDiscovery();
 361              		.loc 1 826 0
 362 0002 FFF7FEFF 		bl	CyBle_GapcStopDiscovery
 363              	.LVL17:
 827:.\Generated_Source\PSoC4/BLE.c ****         
 828:.\Generated_Source\PSoC4/BLE.c ****         cyBle_eventHandlerFlag |= CYBLE_STOP_FLAG;
 364              		.loc 1 828 0
 365 0006 034A     		ldr	r2, .L24
 366 0008 1178     		ldrb	r1, [r2]
 367 000a 0823     		mov	r3, #8
 368 000c 0B43     		orr	r3, r1
 369 000e 1370     		strb	r3, [r2]
 829:.\Generated_Source\PSoC4/BLE.c ****     }
 370              		.loc 1 829 0
 371              		@ sp needed
 372 0010 08BD     		pop	{r3, pc}
 373              	.L25:
 374 0012 C046     		.align	2
 375              	.L24:
 376 0014 00000000 		.word	cyBle_eventHandlerFlag
 377              		.cfi_endproc
 378              	.LFE7:
 379              		.size	CyBle_GapcStopScan, .-CyBle_GapcStopScan
 380              		.section	.text.CyBle_GapcConnectDevice,"ax",%progbits
 381              		.align	2
 382              		.global	CyBle_GapcConnectDevice
 383              		.code	16
 384              		.thumb_func
 385              		.type	CyBle_GapcConnectDevice, %function
 386              	CyBle_GapcConnectDevice:
 387              	.LFB8:
 830:.\Generated_Source\PSoC4/BLE.c **** 
 831:.\Generated_Source\PSoC4/BLE.c ****     
 832:.\Generated_Source\PSoC4/BLE.c **** #endif /* CYBLE_GAP_ROLE_CENTRAL || CYBLE_GAP_ROLE_OBSERVER */
 833:.\Generated_Source\PSoC4/BLE.c **** 
 834:.\Generated_Source\PSoC4/BLE.c **** 
 835:.\Generated_Source\PSoC4/BLE.c **** #if(CYBLE_GAP_ROLE_CENTRAL)
 836:.\Generated_Source\PSoC4/BLE.c **** 
 837:.\Generated_Source\PSoC4/BLE.c ****     /******************************************************************************
 838:.\Generated_Source\PSoC4/BLE.c ****     * Function Name: CyBle_GapcConnectDevice
 839:.\Generated_Source\PSoC4/BLE.c ****     ***************************************************************************//**
 840:.\Generated_Source\PSoC4/BLE.c ****     * 
 841:.\Generated_Source\PSoC4/BLE.c ****     *  This function is used to send a connection request to the remote device with
 842:.\Generated_Source\PSoC4/BLE.c ****     *  the connection parameters set in the component customizer. This function needs
 843:.\Generated_Source\PSoC4/BLE.c ****     *  to be called only once after the target device is discovered by 
 844:.\Generated_Source\PSoC4/BLE.c ****     *  CyBle_GapcStartScan() and further scanning has stopped. Scanning is 
 845:.\Generated_Source\PSoC4/BLE.c ****     *  successfully stopped on invoking CyBle_GapcStopScan() and then receiving the
 846:.\Generated_Source\PSoC4/BLE.c ****     *  event CYBLE_EVT_GAPC_SCAN_START_STOP with sub-parameter 'success' = 0x01u.
 847:.\Generated_Source\PSoC4/BLE.c ****     *  
 848:.\Generated_Source\PSoC4/BLE.c ****     *  On successful connection, the following events are generated at the GAP 
 849:.\Generated_Source\PSoC4/BLE.c ****     *  Central device (as well as the GAP Peripheral device), in the following order.
ARM GAS  C:\Users\Petro\AppData\Local\Temp\ccJlJNPj.s 			page 23


 850:.\Generated_Source\PSoC4/BLE.c ****     *  * CYBLE_EVT_GATT_CONNECT_IND
 851:.\Generated_Source\PSoC4/BLE.c ****     *  * CYBLE_EVT_GAP_DEVICE_CONNECTED
 852:.\Generated_Source\PSoC4/BLE.c ****     *  
 853:.\Generated_Source\PSoC4/BLE.c ****     *  A procedure is considered to have timed out if a connection response packet is 
 854:.\Generated_Source\PSoC4/BLE.c ****     *  not received within time set by cyBle_connectingTimeout global variable
 855:.\Generated_Source\PSoC4/BLE.c ****     *  (30 seconds by default). CYBLE_EVT_TIMEOUT event with CYBLE_GENERIC_TO parameter
 856:.\Generated_Source\PSoC4/BLE.c ****     *  will indicate about connection procedure timeout. Connection will automatically
 857:.\Generated_Source\PSoC4/BLE.c ****     *  be canceled and state will be changed to CYBLE_STATE_DISCONNECTED.
 858:.\Generated_Source\PSoC4/BLE.c ****     * 
 859:.\Generated_Source\PSoC4/BLE.c ****     *  \param address: The device address of the remote device to connect to. 
 860:.\Generated_Source\PSoC4/BLE.c ****     *  \param timeout: Timeout for which timer to be started in seconds.
 861:.\Generated_Source\PSoC4/BLE.c ****     *  
 862:.\Generated_Source\PSoC4/BLE.c ****     * \return
 863:.\Generated_Source\PSoC4/BLE.c ****     *  CYBLE_API_RESULT_T : Return value indicates if the function succeeded or 
 864:.\Generated_Source\PSoC4/BLE.c ****     *  failed. Following are the possible error codes.
 865:.\Generated_Source\PSoC4/BLE.c ****     *
 866:.\Generated_Source\PSoC4/BLE.c ****     *   Errors codes                       | Description
 867:.\Generated_Source\PSoC4/BLE.c ****     *   ------------                       | -----------
 868:.\Generated_Source\PSoC4/BLE.c ****     *   CYBLE_ERROR_OK                     | On successful operation.
 869:.\Generated_Source\PSoC4/BLE.c ****     *   CYBLE_ERROR_STACK_INTERNAL         | On error occurred in the BLE stack.
 870:.\Generated_Source\PSoC4/BLE.c ****     *   CYBLE_ERROR_INVALID_PARAMETER      | On passing an invalid parameter.
 871:.\Generated_Source\PSoC4/BLE.c ****     *   CYBLE_ERROR_INVALID_STATE          | On calling this API not in Disconnected state.
 872:.\Generated_Source\PSoC4/BLE.c ****     *  
 873:.\Generated_Source\PSoC4/BLE.c ****     ******************************************************************************/
 874:.\Generated_Source\PSoC4/BLE.c ****     CYBLE_API_RESULT_T CyBle_GapcConnectDevice(const CYBLE_GAP_BD_ADDR_T * address)
 875:.\Generated_Source\PSoC4/BLE.c ****     {
 388              		.loc 1 875 0
 389              		.cfi_startproc
 390              	.LVL18:
 391 0000 10B5     		push	{r4, lr}
 392              		.cfi_def_cfa_offset 8
 393              		.cfi_offset 4, -8
 394              		.cfi_offset 14, -4
 876:.\Generated_Source\PSoC4/BLE.c ****         CYBLE_API_RESULT_T apiResult;
 877:.\Generated_Source\PSoC4/BLE.c ****         uint8 i;
 878:.\Generated_Source\PSoC4/BLE.c **** 
 879:.\Generated_Source\PSoC4/BLE.c ****         if(CYBLE_STATE_DISCONNECTED != CyBle_GetState())
 395              		.loc 1 879 0
 396 0002 134B     		ldr	r3, .L32
 397 0004 1B78     		ldrb	r3, [r3]
 398 0006 052B     		cmp	r3, #5
 399 0008 1CD1     		bne	.L30
 880:.\Generated_Source\PSoC4/BLE.c ****         {
 881:.\Generated_Source\PSoC4/BLE.c ****             apiResult = CYBLE_ERROR_INVALID_STATE;
 882:.\Generated_Source\PSoC4/BLE.c ****         }
 883:.\Generated_Source\PSoC4/BLE.c ****         else if(address == NULL)
 400              		.loc 1 883 0
 401 000a 0028     		cmp	r0, #0
 402 000c 1DD0     		beq	.L31
 403 000e 0023     		mov	r3, #0
 404 0010 05E0     		b	.L28
 405              	.LVL19:
 406              	.L29:
 884:.\Generated_Source\PSoC4/BLE.c ****         {
 885:.\Generated_Source\PSoC4/BLE.c ****             apiResult = CYBLE_ERROR_INVALID_PARAMETER;
 886:.\Generated_Source\PSoC4/BLE.c ****         }
 887:.\Generated_Source\PSoC4/BLE.c ****         else
ARM GAS  C:\Users\Petro\AppData\Local\Temp\ccJlJNPj.s 			page 24


 888:.\Generated_Source\PSoC4/BLE.c ****         {
 889:.\Generated_Source\PSoC4/BLE.c ****             for(i = 0u; i < CYBLE_GAP_BD_ADDR_SIZE; i++)
 890:.\Generated_Source\PSoC4/BLE.c ****             {
 891:.\Generated_Source\PSoC4/BLE.c ****                 cyBle_connectionParameters.peerBdAddr[i] = address->bdAddr[i];
 407              		.loc 1 891 0 discriminator 3
 408 0012 C15C     		ldrb	r1, [r0, r3]
 409 0014 0F4A     		ldr	r2, .L32+4
 410 0016 D218     		add	r2, r2, r3
 411 0018 5171     		strb	r1, [r2, #5]
 889:.\Generated_Source\PSoC4/BLE.c ****             {
 412              		.loc 1 889 0 discriminator 3
 413 001a 0133     		add	r3, r3, #1
 414              	.LVL20:
 415 001c DBB2     		uxtb	r3, r3
 416              	.LVL21:
 417              	.L28:
 889:.\Generated_Source\PSoC4/BLE.c ****             {
 418              		.loc 1 889 0 is_stmt 0 discriminator 1
 419 001e 052B     		cmp	r3, #5
 420 0020 F7D9     		bls	.L29
 892:.\Generated_Source\PSoC4/BLE.c ****             }
 893:.\Generated_Source\PSoC4/BLE.c ****             cyBle_connectionParameters.peerAddrType = address -> type;
 421              		.loc 1 893 0 is_stmt 1
 422 0022 8379     		ldrb	r3, [r0, #6]
 423              	.LVL22:
 424 0024 0B48     		ldr	r0, .L32+4
 425              	.LVL23:
 426 0026 C372     		strb	r3, [r0, #11]
 894:.\Generated_Source\PSoC4/BLE.c ****             apiResult = CyBle_GapcInitConnection(&cyBle_connectionParameters);
 427              		.loc 1 894 0
 428 0028 FFF7FEFF 		bl	CyBle_GapcInitConnection
 429              	.LVL24:
 430 002c 041E     		sub	r4, r0, #0
 431              	.LVL25:
 895:.\Generated_Source\PSoC4/BLE.c ****             
 896:.\Generated_Source\PSoC4/BLE.c ****             if(CYBLE_ERROR_OK == apiResult)
 432              		.loc 1 896 0
 433 002e 0DD1     		bne	.L27
 897:.\Generated_Source\PSoC4/BLE.c ****             {
 898:.\Generated_Source\PSoC4/BLE.c ****                 CyBle_SetState(CYBLE_STATE_CONNECTING);
 434              		.loc 1 898 0
 435 0030 0422     		mov	r2, #4
 436 0032 074B     		ldr	r3, .L32
 437 0034 1A70     		strb	r2, [r3]
 899:.\Generated_Source\PSoC4/BLE.c ****                 if(cyBle_connectingTimeout != 0u)
 438              		.loc 1 899 0
 439 0036 084B     		ldr	r3, .L32+8
 440 0038 1888     		ldrh	r0, [r3]
 441              	.LVL26:
 442 003a 0028     		cmp	r0, #0
 443 003c 06D0     		beq	.L27
 900:.\Generated_Source\PSoC4/BLE.c ****                 {
 901:.\Generated_Source\PSoC4/BLE.c ****                     (void)CyBle_StartTimer(cyBle_connectingTimeout);
 444              		.loc 1 901 0
 445 003e FFF7FEFF 		bl	CyBle_StartTimer
 446              	.LVL27:
 447 0042 03E0     		b	.L27
ARM GAS  C:\Users\Petro\AppData\Local\Temp\ccJlJNPj.s 			page 25


 448              	.LVL28:
 449              	.L30:
 881:.\Generated_Source\PSoC4/BLE.c ****         }
 450              		.loc 1 881 0
 451 0044 0424     		mov	r4, #4
 452 0046 FF34     		add	r4, r4, #255
 453 0048 00E0     		b	.L27
 454              	.L31:
 885:.\Generated_Source\PSoC4/BLE.c ****         }
 455              		.loc 1 885 0
 456 004a 0124     		mov	r4, #1
 457              	.LVL29:
 458              	.L27:
 902:.\Generated_Source\PSoC4/BLE.c ****                 }
 903:.\Generated_Source\PSoC4/BLE.c ****             }
 904:.\Generated_Source\PSoC4/BLE.c ****         }
 905:.\Generated_Source\PSoC4/BLE.c ****         return (apiResult);
 906:.\Generated_Source\PSoC4/BLE.c ****     }
 459              		.loc 1 906 0
 460 004c 201C     		mov	r0, r4
 461              		@ sp needed
 462              	.LVL30:
 463 004e 10BD     		pop	{r4, pc}
 464              	.L33:
 465              		.align	2
 466              	.L32:
 467 0050 00000000 		.word	cyBle_state
 468 0054 00000000 		.word	cyBle_connectionParameters
 469 0058 00000000 		.word	cyBle_connectingTimeout
 470              		.cfi_endproc
 471              	.LFE8:
 472              		.size	CyBle_GapcConnectDevice, .-CyBle_GapcConnectDevice
 473              		.section	.text.CyBle_GapcCancelDeviceConnection,"ax",%progbits
 474              		.align	2
 475              		.global	CyBle_GapcCancelDeviceConnection
 476              		.code	16
 477              		.thumb_func
 478              		.type	CyBle_GapcCancelDeviceConnection, %function
 479              	CyBle_GapcCancelDeviceConnection:
 480              	.LFB9:
 907:.\Generated_Source\PSoC4/BLE.c ****     
 908:.\Generated_Source\PSoC4/BLE.c **** 
 909:.\Generated_Source\PSoC4/BLE.c ****     /******************************************************************************
 910:.\Generated_Source\PSoC4/BLE.c ****     * Function Name: CyBle_GapcCancelDeviceConnection
 911:.\Generated_Source\PSoC4/BLE.c ****     ***************************************************************************//**
 912:.\Generated_Source\PSoC4/BLE.c ****     * 
 913:.\Generated_Source\PSoC4/BLE.c ****     *  This function cancels a previously initiated connection with the remote 
 914:.\Generated_Source\PSoC4/BLE.c ****     *  device. It is a blocking function. No event is generated on calling this 
 915:.\Generated_Source\PSoC4/BLE.c ****     *  function. If the devices are already connected then this function should not
 916:.\Generated_Source\PSoC4/BLE.c ****     *  be used. If you intend to disconnect from an existing connection, the function
 917:.\Generated_Source\PSoC4/BLE.c ****     *  CyBle_GapDisconnect() should be used.
 918:.\Generated_Source\PSoC4/BLE.c ****     * 
 919:.\Generated_Source\PSoC4/BLE.c ****     * \return
 920:.\Generated_Source\PSoC4/BLE.c ****     *  CYBLE_API_RESULT_T : Return value indicates if the function succeeded or 
 921:.\Generated_Source\PSoC4/BLE.c ****     *  failed. Following are the possible error codes.
 922:.\Generated_Source\PSoC4/BLE.c ****     *
 923:.\Generated_Source\PSoC4/BLE.c ****     *   Errors codes                       | Description
ARM GAS  C:\Users\Petro\AppData\Local\Temp\ccJlJNPj.s 			page 26


 924:.\Generated_Source\PSoC4/BLE.c ****     *   ---------------------------------- | --------------------------------------
 925:.\Generated_Source\PSoC4/BLE.c ****     *   CYBLE_ERROR_OK                     | On successful operation.
 926:.\Generated_Source\PSoC4/BLE.c ****     *   CYBLE_ERROR_STACK_INTERNAL         | An error occurred in the BLE stack.
 927:.\Generated_Source\PSoC4/BLE.c ****     *   CYBLE_ERROR_INVALID_OPERATION      | Device is already connected.
 928:.\Generated_Source\PSoC4/BLE.c ****     *  
 929:.\Generated_Source\PSoC4/BLE.c ****     *******************************************************************************/
 930:.\Generated_Source\PSoC4/BLE.c ****     CYBLE_API_RESULT_T CyBle_GapcCancelDeviceConnection(void)
 931:.\Generated_Source\PSoC4/BLE.c ****     {
 481              		.loc 1 931 0
 482              		.cfi_startproc
 483 0000 38B5     		push	{r3, r4, r5, lr}
 484              		.cfi_def_cfa_offset 16
 485              		.cfi_offset 3, -16
 486              		.cfi_offset 4, -12
 487              		.cfi_offset 5, -8
 488              		.cfi_offset 14, -4
 932:.\Generated_Source\PSoC4/BLE.c ****         CYBLE_API_RESULT_T apiResult;
 933:.\Generated_Source\PSoC4/BLE.c ****         
 934:.\Generated_Source\PSoC4/BLE.c ****         apiResult = CyBle_GapcCancelConnection();
 489              		.loc 1 934 0
 490 0002 FFF7FEFF 		bl	CyBle_GapcCancelConnection
 491              	.LVL31:
 492 0006 041C     		mov	r4, r0
 493 0008 051C     		mov	r5, r0
 494              	.LVL32:
 935:.\Generated_Source\PSoC4/BLE.c ****             
 936:.\Generated_Source\PSoC4/BLE.c ****         if(cyBle_connectingTimeout != 0u)
 495              		.loc 1 936 0
 496 000a 064B     		ldr	r3, .L37
 497 000c 1B88     		ldrh	r3, [r3]
 498 000e 002B     		cmp	r3, #0
 499 0010 01D0     		beq	.L35
 937:.\Generated_Source\PSoC4/BLE.c ****         {
 938:.\Generated_Source\PSoC4/BLE.c ****             (void)CyBle_StopTimer();
 500              		.loc 1 938 0
 501 0012 FFF7FEFF 		bl	CyBle_StopTimer
 502              	.LVL33:
 503              	.L35:
 939:.\Generated_Source\PSoC4/BLE.c ****         }
 940:.\Generated_Source\PSoC4/BLE.c **** 
 941:.\Generated_Source\PSoC4/BLE.c ****         if(CYBLE_ERROR_OK == apiResult)
 504              		.loc 1 941 0
 505 0016 002D     		cmp	r5, #0
 506 0018 02D1     		bne	.L36
 942:.\Generated_Source\PSoC4/BLE.c ****         {
 943:.\Generated_Source\PSoC4/BLE.c ****             CyBle_SetState(CYBLE_STATE_DISCONNECTED);
 507              		.loc 1 943 0
 508 001a 0522     		mov	r2, #5
 509 001c 024B     		ldr	r3, .L37+4
 510 001e 1A70     		strb	r2, [r3]
 511              	.L36:
 944:.\Generated_Source\PSoC4/BLE.c ****         }
 945:.\Generated_Source\PSoC4/BLE.c ****         return (apiResult);
 946:.\Generated_Source\PSoC4/BLE.c ****     }    
 512              		.loc 1 946 0
 513 0020 201C     		mov	r0, r4
 514              		@ sp needed
ARM GAS  C:\Users\Petro\AppData\Local\Temp\ccJlJNPj.s 			page 27


 515              	.LVL34:
 516 0022 38BD     		pop	{r3, r4, r5, pc}
 517              	.L38:
 518              		.align	2
 519              	.L37:
 520 0024 00000000 		.word	cyBle_connectingTimeout
 521 0028 00000000 		.word	cyBle_state
 522              		.cfi_endproc
 523              	.LFE9:
 524              		.size	CyBle_GapcCancelDeviceConnection, .-CyBle_GapcCancelDeviceConnection
 525              		.section	.text.CyBle_Get16ByPtr,"ax",%progbits
 526              		.align	2
 527              		.global	CyBle_Get16ByPtr
 528              		.code	16
 529              		.thumb_func
 530              		.type	CyBle_Get16ByPtr, %function
 531              	CyBle_Get16ByPtr:
 532              	.LFB10:
 947:.\Generated_Source\PSoC4/BLE.c **** 
 948:.\Generated_Source\PSoC4/BLE.c ****     
 949:.\Generated_Source\PSoC4/BLE.c **** #endif /* CYBLE_GAP_ROLE_CENTRAL */
 950:.\Generated_Source\PSoC4/BLE.c **** 
 951:.\Generated_Source\PSoC4/BLE.c **** 
 952:.\Generated_Source\PSoC4/BLE.c **** #if(CYBLE_GATT_ROLE_SERVER)
 953:.\Generated_Source\PSoC4/BLE.c **** 
 954:.\Generated_Source\PSoC4/BLE.c **** #if(CYBLE_GAP_ROLE_PERIPHERAL)
 955:.\Generated_Source\PSoC4/BLE.c **** 
 956:.\Generated_Source\PSoC4/BLE.c ****         /******************************************************************************
 957:.\Generated_Source\PSoC4/BLE.c ****         * Function Name: CyBle_ChangeAdLocalName
 958:.\Generated_Source\PSoC4/BLE.c ****         ***************************************************************************//**
 959:.\Generated_Source\PSoC4/BLE.c ****         *  This API is used to set the local device name in the advertisement or scan 
 960:.\Generated_Source\PSoC4/BLE.c ****         *  response data structure.
 961:.\Generated_Source\PSoC4/BLE.c ****         * 
 962:.\Generated_Source\PSoC4/BLE.c ****         *  \param name: The local device name string to be set in advertisement data 
 963:.\Generated_Source\PSoC4/BLE.c ****         *            structure.
 964:.\Generated_Source\PSoC4/BLE.c ****         *  \param dest: 0 - advertisement structure, not zero value selects scan response
 965:.\Generated_Source\PSoC4/BLE.c ****         *              structure.
 966:.\Generated_Source\PSoC4/BLE.c ****         * 
 967:.\Generated_Source\PSoC4/BLE.c ****         * \return
 968:.\Generated_Source\PSoC4/BLE.c ****         *  None
 969:.\Generated_Source\PSoC4/BLE.c ****         *  
 970:.\Generated_Source\PSoC4/BLE.c ****         *******************************************************************************/
 971:.\Generated_Source\PSoC4/BLE.c ****         static void CyBle_ChangeAdLocalName(const char8 name[], uint8 dest)
 972:.\Generated_Source\PSoC4/BLE.c ****         {
 973:.\Generated_Source\PSoC4/BLE.c ****             uint8 i;
 974:.\Generated_Source\PSoC4/BLE.c ****             uint8 flag = 0u;
 975:.\Generated_Source\PSoC4/BLE.c ****             uint8 adLength = 0u;
 976:.\Generated_Source\PSoC4/BLE.c ****             uint8 byteCounter = 0u;
 977:.\Generated_Source\PSoC4/BLE.c ****             uint8 *destBuffer;
 978:.\Generated_Source\PSoC4/BLE.c ****             uint8 maxLength;
 979:.\Generated_Source\PSoC4/BLE.c ****             
 980:.\Generated_Source\PSoC4/BLE.c ****             if(dest == 0u)      /* Destination - advertising structure */
 981:.\Generated_Source\PSoC4/BLE.c ****             {
 982:.\Generated_Source\PSoC4/BLE.c ****                 destBuffer = cyBle_discoveryData.advData;
 983:.\Generated_Source\PSoC4/BLE.c ****                 maxLength = cyBle_discoveryData.advDataLen;
 984:.\Generated_Source\PSoC4/BLE.c ****             }
 985:.\Generated_Source\PSoC4/BLE.c ****             else                /* Destination - scan response structure */
ARM GAS  C:\Users\Petro\AppData\Local\Temp\ccJlJNPj.s 			page 28


 986:.\Generated_Source\PSoC4/BLE.c ****             {
 987:.\Generated_Source\PSoC4/BLE.c ****                 destBuffer = cyBle_scanRspData.scanRspData;
 988:.\Generated_Source\PSoC4/BLE.c ****                 maxLength = cyBle_scanRspData.scanRspDataLen;
 989:.\Generated_Source\PSoC4/BLE.c ****             }
 990:.\Generated_Source\PSoC4/BLE.c ****             
 991:.\Generated_Source\PSoC4/BLE.c ****             while((byteCounter < maxLength) && (0u == flag))
 992:.\Generated_Source\PSoC4/BLE.c ****             {
 993:.\Generated_Source\PSoC4/BLE.c ****                 adLength = destBuffer[byteCounter];
 994:.\Generated_Source\PSoC4/BLE.c ****                 
 995:.\Generated_Source\PSoC4/BLE.c ****                 if(0u != adLength)
 996:.\Generated_Source\PSoC4/BLE.c ****                 {
 997:.\Generated_Source\PSoC4/BLE.c ****                     /* Increment byte counter so it can point to AD type */
 998:.\Generated_Source\PSoC4/BLE.c ****                     byteCounter++;
 999:.\Generated_Source\PSoC4/BLE.c ****                     
1000:.\Generated_Source\PSoC4/BLE.c ****                     if((CYBLE_SHORT_LOCAL_NAME == destBuffer[byteCounter]) || 
1001:.\Generated_Source\PSoC4/BLE.c ****                        (CYBLE_COMPLETE_LOCAL_NAME == destBuffer[byteCounter]))
1002:.\Generated_Source\PSoC4/BLE.c ****                     {
1003:.\Generated_Source\PSoC4/BLE.c ****                         /* Start of the Local Name AD type was fount. Set flag and exit the loop. *
1004:.\Generated_Source\PSoC4/BLE.c ****                         flag = 1u;
1005:.\Generated_Source\PSoC4/BLE.c ****                     }
1006:.\Generated_Source\PSoC4/BLE.c ****                     else
1007:.\Generated_Source\PSoC4/BLE.c ****                     {
1008:.\Generated_Source\PSoC4/BLE.c ****                         byteCounter += adLength;
1009:.\Generated_Source\PSoC4/BLE.c ****                     }
1010:.\Generated_Source\PSoC4/BLE.c ****                 }
1011:.\Generated_Source\PSoC4/BLE.c ****                 else
1012:.\Generated_Source\PSoC4/BLE.c ****                 {
1013:.\Generated_Source\PSoC4/BLE.c ****                     /* The end of advertisement data structure was encountered though exit the loop
1014:.\Generated_Source\PSoC4/BLE.c ****                     break;
1015:.\Generated_Source\PSoC4/BLE.c ****                 }
1016:.\Generated_Source\PSoC4/BLE.c ****             }
1017:.\Generated_Source\PSoC4/BLE.c ****             
1018:.\Generated_Source\PSoC4/BLE.c ****             if(0u != flag)
1019:.\Generated_Source\PSoC4/BLE.c ****             {
1020:.\Generated_Source\PSoC4/BLE.c ****                 /* Reuse "adLength" to hold location of the last character of local name in 
1021:.\Generated_Source\PSoC4/BLE.c ****                    AD structure. */
1022:.\Generated_Source\PSoC4/BLE.c ****                 adLength += byteCounter;
1023:.\Generated_Source\PSoC4/BLE.c ****                 
1024:.\Generated_Source\PSoC4/BLE.c ****                 /* Increment byte counter to point to start of the local Name string */
1025:.\Generated_Source\PSoC4/BLE.c ****                 byteCounter++;
1026:.\Generated_Source\PSoC4/BLE.c ****                 
1027:.\Generated_Source\PSoC4/BLE.c ****                 for(i = byteCounter; ((i < (adLength)) && (CYBLE_NULL_CHARCTER != name[i - byteCoun
1028:.\Generated_Source\PSoC4/BLE.c ****                 {
1029:.\Generated_Source\PSoC4/BLE.c ****                     destBuffer[i] = (uint8)name[i - byteCounter];
1030:.\Generated_Source\PSoC4/BLE.c ****                 }
1031:.\Generated_Source\PSoC4/BLE.c ****                 
1032:.\Generated_Source\PSoC4/BLE.c ****                 /* This loop handles the case when new local name is shorted than old one.
1033:.\Generated_Source\PSoC4/BLE.c ****                    In this case all remaining characters should be null characters. */
1034:.\Generated_Source\PSoC4/BLE.c ****                 while(adLength > i)
1035:.\Generated_Source\PSoC4/BLE.c ****                 {
1036:.\Generated_Source\PSoC4/BLE.c ****                     /* Terminate string */
1037:.\Generated_Source\PSoC4/BLE.c ****                     destBuffer[i] = (uint8)CYBLE_NULL_CHARCTER;
1038:.\Generated_Source\PSoC4/BLE.c ****                     i++;
1039:.\Generated_Source\PSoC4/BLE.c ****                 }
1040:.\Generated_Source\PSoC4/BLE.c ****             }
1041:.\Generated_Source\PSoC4/BLE.c ****         }
1042:.\Generated_Source\PSoC4/BLE.c ****         
ARM GAS  C:\Users\Petro\AppData\Local\Temp\ccJlJNPj.s 			page 29


1043:.\Generated_Source\PSoC4/BLE.c **** #endif /* (CYBLE_GAP_ROLE_PERIPHERAL) */  
1044:.\Generated_Source\PSoC4/BLE.c ****     
1045:.\Generated_Source\PSoC4/BLE.c ****     
1046:.\Generated_Source\PSoC4/BLE.c ****     /******************************************************************************
1047:.\Generated_Source\PSoC4/BLE.c ****     * Function Name: CyBle_GapSetLocalName
1048:.\Generated_Source\PSoC4/BLE.c ****     ***************************************************************************//**
1049:.\Generated_Source\PSoC4/BLE.c ****     *  This API is used to set the local device name - a Characteristic of the 
1050:.\Generated_Source\PSoC4/BLE.c ****     *  GAP Service. If the characteristic length entered in the component customizer
1051:.\Generated_Source\PSoC4/BLE.c ****     *  is shorter than the string specified by the "name" parameter, the local device
1052:.\Generated_Source\PSoC4/BLE.c ****     *  name will be cut to the length specified in the customizer.
1053:.\Generated_Source\PSoC4/BLE.c ****     * 
1054:.\Generated_Source\PSoC4/BLE.c ****     *  \param name: The local device name string. The name string to be written as
1055:.\Generated_Source\PSoC4/BLE.c ****     *              the local device name. It represents a UTF-8 encoded User
1056:.\Generated_Source\PSoC4/BLE.c ****     *              Friendly Descriptive Name for the device. The length of the local
1057:.\Generated_Source\PSoC4/BLE.c ****     *              device string is entered into the component customizer and it can
1058:.\Generated_Source\PSoC4/BLE.c ****     *              be set to a value from 0 to 248 bytes. If the name contained in
1059:.\Generated_Source\PSoC4/BLE.c ****     *              the parameter is shorter than the length from the customizer, the
1060:.\Generated_Source\PSoC4/BLE.c ****     *              end of the name is indicated by a NULL octet (0x00).
1061:.\Generated_Source\PSoC4/BLE.c ****     * 
1062:.\Generated_Source\PSoC4/BLE.c ****     * \return
1063:.\Generated_Source\PSoC4/BLE.c ****     *  CYBLE_API_RESULT_T : Return value indicates if the function succeeded or 
1064:.\Generated_Source\PSoC4/BLE.c ****     *  failed. Following are the possible error codes.
1065:.\Generated_Source\PSoC4/BLE.c ****     *
1066:.\Generated_Source\PSoC4/BLE.c ****     *   Errors codes                       | Description
1067:.\Generated_Source\PSoC4/BLE.c ****     *   ------------                       | -----------
1068:.\Generated_Source\PSoC4/BLE.c ****     *   CYBLE_ERROR_OK                     | Function completed successfully.
1069:.\Generated_Source\PSoC4/BLE.c ****     *   CYBLE_ERROR_INVALID_PARAMETER      | On specifying NULL as input parameter
1070:.\Generated_Source\PSoC4/BLE.c ****     *  
1071:.\Generated_Source\PSoC4/BLE.c ****     *******************************************************************************/
1072:.\Generated_Source\PSoC4/BLE.c ****     CYBLE_API_RESULT_T CyBle_GapSetLocalName(const char8 name[])
1073:.\Generated_Source\PSoC4/BLE.c ****     {
1074:.\Generated_Source\PSoC4/BLE.c ****         CYBLE_API_RESULT_T apiResult = CYBLE_ERROR_OK;
1075:.\Generated_Source\PSoC4/BLE.c ****         uint8 i;
1076:.\Generated_Source\PSoC4/BLE.c ****         char8 *ptr;
1077:.\Generated_Source\PSoC4/BLE.c ****         uint8 charLen;
1078:.\Generated_Source\PSoC4/BLE.c **** 
1079:.\Generated_Source\PSoC4/BLE.c ****         if(NULL != name)
1080:.\Generated_Source\PSoC4/BLE.c ****         {
1081:.\Generated_Source\PSoC4/BLE.c ****             /* Get the pointer to the Device Name characteristic  */
1082:.\Generated_Source\PSoC4/BLE.c ****             ptr = (char8 *) CYBLE_GATT_DB_ATTR_GET_ATTR_GEN_PTR(CYBLE_GAP_DEVICE_NAME_INDEX + 1u);
1083:.\Generated_Source\PSoC4/BLE.c **** 
1084:.\Generated_Source\PSoC4/BLE.c ****             /* First need to get the maximum length of the characteristic data in the GATT
1085:.\Generated_Source\PSoC4/BLE.c ****                 database to make sure there is enough place for the data. The length
1086:.\Generated_Source\PSoC4/BLE.c ****                 can't be longer than 248, so only the LSB of 16 bit of length is to
1087:.\Generated_Source\PSoC4/BLE.c ****                 be used. */
1088:.\Generated_Source\PSoC4/BLE.c ****             charLen = (uint8)CYBLE_GATT_DB_ATTR_GET_ATTR_GEN_MAX_LEN(CYBLE_GAP_DEVICE_NAME_INDEX + 
1089:.\Generated_Source\PSoC4/BLE.c **** 
1090:.\Generated_Source\PSoC4/BLE.c ****             /* Copy name into characteristic */
1091:.\Generated_Source\PSoC4/BLE.c ****             for(i = 0u; ((i < charLen) && (CYBLE_NULL_CHARCTER != name[i])); i++)
1092:.\Generated_Source\PSoC4/BLE.c ****             {
1093:.\Generated_Source\PSoC4/BLE.c ****                 ptr[i] = name[i];
1094:.\Generated_Source\PSoC4/BLE.c ****             }
1095:.\Generated_Source\PSoC4/BLE.c **** 
1096:.\Generated_Source\PSoC4/BLE.c ****             if(i < charLen)
1097:.\Generated_Source\PSoC4/BLE.c ****             {
1098:.\Generated_Source\PSoC4/BLE.c ****                 /* Terminate string */
1099:.\Generated_Source\PSoC4/BLE.c ****                 ptr[i] = CYBLE_NULL_CHARCTER;
ARM GAS  C:\Users\Petro\AppData\Local\Temp\ccJlJNPj.s 			page 30


1100:.\Generated_Source\PSoC4/BLE.c ****             }
1101:.\Generated_Source\PSoC4/BLE.c ****             
1102:.\Generated_Source\PSoC4/BLE.c ****             /* Set new actual length */
1103:.\Generated_Source\PSoC4/BLE.c ****             
1104:.\Generated_Source\PSoC4/BLE.c ****             /* Update device name in advertising and scan response structure */
1105:.\Generated_Source\PSoC4/BLE.c ****             #if(CYBLE_GAP_ROLE_PERIPHERAL)
1106:.\Generated_Source\PSoC4/BLE.c ****                 CyBle_ChangeAdLocalName(name, 0u);
1107:.\Generated_Source\PSoC4/BLE.c ****                 CyBle_ChangeAdLocalName(name, 1u);
1108:.\Generated_Source\PSoC4/BLE.c ****             #endif /* (CYBLE_GAP_ROLE_PERIPHERAL) */
1109:.\Generated_Source\PSoC4/BLE.c ****         }
1110:.\Generated_Source\PSoC4/BLE.c ****         else
1111:.\Generated_Source\PSoC4/BLE.c ****         {
1112:.\Generated_Source\PSoC4/BLE.c ****             apiResult = CYBLE_ERROR_INVALID_PARAMETER;
1113:.\Generated_Source\PSoC4/BLE.c ****         }
1114:.\Generated_Source\PSoC4/BLE.c ****         
1115:.\Generated_Source\PSoC4/BLE.c ****         return(apiResult);
1116:.\Generated_Source\PSoC4/BLE.c ****     }
1117:.\Generated_Source\PSoC4/BLE.c **** 
1118:.\Generated_Source\PSoC4/BLE.c **** 
1119:.\Generated_Source\PSoC4/BLE.c ****     /******************************************************************************
1120:.\Generated_Source\PSoC4/BLE.c ****     * Function Name: CyBle_GapGetLocalName
1121:.\Generated_Source\PSoC4/BLE.c ****     ***************************************************************************//**
1122:.\Generated_Source\PSoC4/BLE.c ****     *  
1123:.\Generated_Source\PSoC4/BLE.c ****     *  This API is used to read the local device name - a Characteristic of the 
1124:.\Generated_Source\PSoC4/BLE.c ****     *  GAP Service.
1125:.\Generated_Source\PSoC4/BLE.c ****     * 
1126:.\Generated_Source\PSoC4/BLE.c ****     * \param name: The local device name string. Used to read the local name to the
1127:.\Generated_Source\PSoC4/BLE.c ****     *             given string array. It represents a UTF-8 encoded User Friendly 
1128:.\Generated_Source\PSoC4/BLE.c ****     *             Descriptive Name for the device. The length of the local device
1129:.\Generated_Source\PSoC4/BLE.c ****     *             string is entered into the component customizer and it can be set
1130:.\Generated_Source\PSoC4/BLE.c ****     *             to a value from 0 to 248 bytes. If the name contained in the
1131:.\Generated_Source\PSoC4/BLE.c ****     *             parameter is shorter than the length from the customizer, the end
1132:.\Generated_Source\PSoC4/BLE.c ****     *             of the name is indicated by a NULL octet (0x00).
1133:.\Generated_Source\PSoC4/BLE.c ****     * 
1134:.\Generated_Source\PSoC4/BLE.c ****     * \return
1135:.\Generated_Source\PSoC4/BLE.c ****     *  CYBLE_API_RESULT_T : Return value indicates if the function succeeded or 
1136:.\Generated_Source\PSoC4/BLE.c ****     *  failed. Following are the possible error codes.
1137:.\Generated_Source\PSoC4/BLE.c ****     *
1138:.\Generated_Source\PSoC4/BLE.c ****     *   Errors codes                       | Description
1139:.\Generated_Source\PSoC4/BLE.c ****     *   ------------                       | -----------
1140:.\Generated_Source\PSoC4/BLE.c ****     *   CYBLE_ERROR_OK                     | Function completed successfully.
1141:.\Generated_Source\PSoC4/BLE.c ****     *   CYBLE_ERROR_INVALID_PARAMETER      | On specifying NULL as input parameter
1142:.\Generated_Source\PSoC4/BLE.c ****     *
1143:.\Generated_Source\PSoC4/BLE.c ****     *******************************************************************************/
1144:.\Generated_Source\PSoC4/BLE.c ****     CYBLE_API_RESULT_T CyBle_GapGetLocalName(char8 name[])
1145:.\Generated_Source\PSoC4/BLE.c ****     {
1146:.\Generated_Source\PSoC4/BLE.c ****         CYBLE_API_RESULT_T apiResult = CYBLE_ERROR_OK;
1147:.\Generated_Source\PSoC4/BLE.c ****         uint8 charLen;
1148:.\Generated_Source\PSoC4/BLE.c ****         uint8 i;
1149:.\Generated_Source\PSoC4/BLE.c ****         char8 *ptr;
1150:.\Generated_Source\PSoC4/BLE.c **** 
1151:.\Generated_Source\PSoC4/BLE.c ****         if(NULL != name)
1152:.\Generated_Source\PSoC4/BLE.c ****         {
1153:.\Generated_Source\PSoC4/BLE.c ****             /* Get the pointer to the Device Name characteristic  */
1154:.\Generated_Source\PSoC4/BLE.c ****             ptr = (char8 *) CYBLE_GATT_DB_ATTR_GET_ATTR_GEN_PTR(CYBLE_GAP_DEVICE_NAME_INDEX + 1u);
1155:.\Generated_Source\PSoC4/BLE.c **** 
1156:.\Generated_Source\PSoC4/BLE.c ****             /* First need to get the length of the characteristic data in the GATT
ARM GAS  C:\Users\Petro\AppData\Local\Temp\ccJlJNPj.s 			page 31


1157:.\Generated_Source\PSoC4/BLE.c ****                 database to make sure there is enough place for the data. The length
1158:.\Generated_Source\PSoC4/BLE.c ****                 can't be longer than 248, so only the LSB of 16 bit of length is to
1159:.\Generated_Source\PSoC4/BLE.c ****                 be used. */
1160:.\Generated_Source\PSoC4/BLE.c ****             charLen = (uint8)CYBLE_GATT_DB_ATTR_GET_ATTR_GEN_LEN(CYBLE_GAP_DEVICE_NAME_INDEX + 1u);
1161:.\Generated_Source\PSoC4/BLE.c **** 
1162:.\Generated_Source\PSoC4/BLE.c ****             /* Copy name from characteristic */
1163:.\Generated_Source\PSoC4/BLE.c ****             for(i = 0u; ((i < charLen) && (CYBLE_NULL_CHARCTER != ptr[i])); i++)
1164:.\Generated_Source\PSoC4/BLE.c ****             {
1165:.\Generated_Source\PSoC4/BLE.c ****                 name[i] = ptr[i];
1166:.\Generated_Source\PSoC4/BLE.c ****             }
1167:.\Generated_Source\PSoC4/BLE.c **** 
1168:.\Generated_Source\PSoC4/BLE.c ****             /* Terminate string */
1169:.\Generated_Source\PSoC4/BLE.c ****             name[i] = CYBLE_NULL_CHARCTER;
1170:.\Generated_Source\PSoC4/BLE.c ****         }
1171:.\Generated_Source\PSoC4/BLE.c ****         else
1172:.\Generated_Source\PSoC4/BLE.c ****         {
1173:.\Generated_Source\PSoC4/BLE.c ****             apiResult = CYBLE_ERROR_INVALID_PARAMETER;
1174:.\Generated_Source\PSoC4/BLE.c ****         }
1175:.\Generated_Source\PSoC4/BLE.c ****         
1176:.\Generated_Source\PSoC4/BLE.c ****         return(apiResult);
1177:.\Generated_Source\PSoC4/BLE.c ****     }
1178:.\Generated_Source\PSoC4/BLE.c **** 
1179:.\Generated_Source\PSoC4/BLE.c **** #endif /* (CYBLE_GATT_ROLE_SERVER) */
1180:.\Generated_Source\PSoC4/BLE.c **** 
1181:.\Generated_Source\PSoC4/BLE.c **** 
1182:.\Generated_Source\PSoC4/BLE.c **** /******************************************************************************
1183:.\Generated_Source\PSoC4/BLE.c **** * Function Name: CyBle_Get16ByPtr
1184:.\Generated_Source\PSoC4/BLE.c **** ***************************************************************************//**
1185:.\Generated_Source\PSoC4/BLE.c **** * 
1186:.\Generated_Source\PSoC4/BLE.c **** *  Returns the two-bytes value by using a pointer to the LSB.
1187:.\Generated_Source\PSoC4/BLE.c **** * 
1188:.\Generated_Source\PSoC4/BLE.c **** *  \param ptr: Pointer to the LSB of two-bytes data (little endian).
1189:.\Generated_Source\PSoC4/BLE.c **** * 
1190:.\Generated_Source\PSoC4/BLE.c **** *  \return
1191:.\Generated_Source\PSoC4/BLE.c **** *  uint16: Two-bytes data.
1192:.\Generated_Source\PSoC4/BLE.c **** * 
1193:.\Generated_Source\PSoC4/BLE.c **** ******************************************************************************/
1194:.\Generated_Source\PSoC4/BLE.c **** uint16 CyBle_Get16ByPtr(const uint8 ptr[])
1195:.\Generated_Source\PSoC4/BLE.c **** {
 533              		.loc 1 1195 0
 534              		.cfi_startproc
 535              	.LVL35:
1196:.\Generated_Source\PSoC4/BLE.c ****     return ((uint16) ptr[0u] | ((uint16) (((uint16) ptr[1u]) << 8u)));
 536              		.loc 1 1196 0
 537 0000 0378     		ldrb	r3, [r0]
 538 0002 4078     		ldrb	r0, [r0, #1]
 539              	.LVL36:
 540 0004 0002     		lsl	r0, r0, #8
 541 0006 1843     		orr	r0, r3
1197:.\Generated_Source\PSoC4/BLE.c **** }
 542              		.loc 1 1197 0
 543              		@ sp needed
 544 0008 7047     		bx	lr
 545              		.cfi_endproc
 546              	.LFE10:
 547              		.size	CyBle_Get16ByPtr, .-CyBle_Get16ByPtr
 548 000a C046     		.section	.text.CyBle_Set16ByPtr,"ax",%progbits
ARM GAS  C:\Users\Petro\AppData\Local\Temp\ccJlJNPj.s 			page 32


 549              		.align	2
 550              		.global	CyBle_Set16ByPtr
 551              		.code	16
 552              		.thumb_func
 553              		.type	CyBle_Set16ByPtr, %function
 554              	CyBle_Set16ByPtr:
 555              	.LFB11:
1198:.\Generated_Source\PSoC4/BLE.c **** 
1199:.\Generated_Source\PSoC4/BLE.c **** 
1200:.\Generated_Source\PSoC4/BLE.c **** /******************************************************************************
1201:.\Generated_Source\PSoC4/BLE.c **** * Function Name: CyBle_Set16ByPtr
1202:.\Generated_Source\PSoC4/BLE.c **** ***************************************************************************//**
1203:.\Generated_Source\PSoC4/BLE.c **** * 
1204:.\Generated_Source\PSoC4/BLE.c **** *  Sets the two-bytes value by using a pointer to the LSB.
1205:.\Generated_Source\PSoC4/BLE.c **** * 
1206:.\Generated_Source\PSoC4/BLE.c **** *  \param ptr:    Pointer to the LSB of two-bytes data (little endian).
1207:.\Generated_Source\PSoC4/BLE.c **** *  \param value:  Two-bytes data to be written.
1208:.\Generated_Source\PSoC4/BLE.c **** * 
1209:.\Generated_Source\PSoC4/BLE.c **** *  \return
1210:.\Generated_Source\PSoC4/BLE.c **** *  None
1211:.\Generated_Source\PSoC4/BLE.c **** * 
1212:.\Generated_Source\PSoC4/BLE.c **** ******************************************************************************/
1213:.\Generated_Source\PSoC4/BLE.c **** void CyBle_Set16ByPtr(uint8 ptr[], uint16 value)
1214:.\Generated_Source\PSoC4/BLE.c **** {
 556              		.loc 1 1214 0
 557              		.cfi_startproc
 558              	.LVL37:
1215:.\Generated_Source\PSoC4/BLE.c ****     ptr[0u] = (uint8) value;
 559              		.loc 1 1215 0
 560 0000 0170     		strb	r1, [r0]
1216:.\Generated_Source\PSoC4/BLE.c ****     ptr[1u] = (uint8) (value >> 8u);
 561              		.loc 1 1216 0
 562 0002 090A     		lsr	r1, r1, #8
 563              	.LVL38:
 564 0004 4170     		strb	r1, [r0, #1]
1217:.\Generated_Source\PSoC4/BLE.c **** }
 565              		.loc 1 1217 0
 566              		@ sp needed
 567 0006 7047     		bx	lr
 568              		.cfi_endproc
 569              	.LFE11:
 570              		.size	CyBle_Set16ByPtr, .-CyBle_Set16ByPtr
 571              		.global	cyBle_StackFlashptr
 572              		.global	cyBle_sflashDeviceAddress
 573              		.global	cyBle_deviceAddress
 574              		.comm	CyBle_ApplCallback,4,4
 575              		.global	cyBle_discoveryInfo
 576              		.comm	cyBle_connectingTimeout,2,2
 577              		.comm	cyBle_connectionParameters,26,4
 578              		.comm	cyBle_stackMemoryRam,2748,8
 579              		.global	cyBle_initVar
 580              		.section	.rodata
 581              		.align	7
 582              		.set	.LANCHOR1,. + 0
 583              	.LC0:
 584 0000 2400     		.short	36
 585 0002 03       		.byte	3
ARM GAS  C:\Users\Petro\AppData\Local\Temp\ccJlJNPj.s 			page 33


 586 0003 00       		.space	1
 587 0004 1000     		.short	16
 588 0006 01       		.byte	1
 589 0007 00       		.space	1
 590 0008 3000     		.short	48
 591 000a 01       		.byte	1
 592 000b 00       		.space	1
 593 000c 4800     		.short	72
 594 000e 01       		.byte	1
 595 000f 00       		.space	1
 596 0010 2400     		.short	36
 597 0012 01       		.byte	1
 598 0013 00       		.space	1
 599 0014 2400     		.short	36
 600 0016 01       		.byte	1
 601 0017 00       		.space	1
 602 0018 00000000 		.space	104
 602      00000000 
 602      00000000 
 602      00000000 
 602      00000000 
 603              		.type	cyBle_StackFlashptr, %object
 604              		.size	cyBle_StackFlashptr, 365
 605              	cyBle_StackFlashptr:
 606 0080 00000000 		.space	365
 606      00000000 
 606      00000000 
 606      00000000 
 606      00000000 
 607 01ed 00000000 		.data
 607      00000000 
 607      00000000 
 607      00000000 
 607      000000
 608              		.align	2
 609              		.set	.LANCHOR0,. + 0
 610              		.type	cyBle_discoveryInfo, %object
 611              		.size	cyBle_discoveryInfo, 12
 612              	cyBle_discoveryInfo:
 613 0000 01       		.byte	1
 614 0001 01       		.byte	1
 615 0002 3000     		.short	48
 616 0004 3000     		.short	48
 617 0006 00       		.byte	0
 618 0007 00       		.byte	0
 619 0008 B400     		.short	180
 620 000a 01       		.byte	1
 621 000b 00       		.space	1
 622              		.type	cyBle_sflashDeviceAddress, %object
 623              		.size	cyBle_sflashDeviceAddress, 4
 624              	cyBle_sflashDeviceAddress:
 625 000c 00F2FF0F 		.word	268431872
 626              		.type	cyBle_deviceAddress, %object
 627              		.size	cyBle_deviceAddress, 7
 628              	cyBle_deviceAddress:
 629 0010 20       		.byte	32
 630 0011 00       		.byte	0
ARM GAS  C:\Users\Petro\AppData\Local\Temp\ccJlJNPj.s 			page 34


 631 0012 00       		.byte	0
 632 0013 50       		.byte	80
 633 0014 A0       		.byte	-96
 634 0015 00       		.byte	0
 635 0016 00       		.byte	0
 636 0017 00       		.bss
 637              		.set	.LANCHOR2,. + 0
 638              		.type	cyBle_initVar, %object
 639              		.size	cyBle_initVar, 1
 640              	cyBle_initVar:
 641 0000 00       		.space	1
 642              		.text
 643              	.Letext0:
 644              		.file 2 ".\\Generated_Source\\PSoC4\\cytypes.h"
 645              		.file 3 ".\\Generated_Source\\PSoC4\\BLE_Stack.h"
 646              		.file 4 ".\\Generated_Source\\PSoC4\\BLE_StackGap.h"
 647              		.file 5 ".\\Generated_Source\\PSoC4\\BLE_StackGatt.h"
 648              		.file 6 ".\\Generated_Source\\PSoC4\\BLE.h"
 649              		.file 7 ".\\Generated_Source\\PSoC4\\BLE_gatt.h"
 650              		.file 8 ".\\Generated_Source\\PSoC4\\BLE_wpts.h"
 651              		.file 9 ".\\Generated_Source\\PSoC4\\BLE_eventHandler.h"
 652              		.file 10 ".\\Generated_Source\\PSoC4\\BLE_StackHostMain.h"