ARM GAS  C:\Users\Petro\AppData\Local\Temp\cca5nTbz.s 			page 1


   1              		.cpu cortex-m0
   2              		.fpu softvfp
   3              		.eabi_attribute 20, 1
   4              		.eabi_attribute 21, 1
   5              		.eabi_attribute 23, 3
   6              		.eabi_attribute 24, 1
   7              		.eabi_attribute 25, 1
   8              		.eabi_attribute 26, 1
   9              		.eabi_attribute 30, 1
  10              		.eabi_attribute 34, 0
  11              		.eabi_attribute 18, 4
  12              		.code	16
  13              		.file	"BLE_wpts.c"
  14              		.text
  15              	.Ltext0:
  16              		.cfi_sections	.debug_frame
  17              		.section	.text.CyBle_WptsInit,"ax",%progbits
  18              		.align	2
  19              		.global	CyBle_WptsInit
  20              		.code	16
  21              		.thumb_func
  22              		.type	CyBle_WptsInit, %function
  23              	CyBle_WptsInit:
  24              	.LFB2:
  25              		.file 1 ".\\Generated_Source\\PSoC4\\BLE_wpts.c"
   1:.\Generated_Source\PSoC4/BLE_wpts.c **** /***************************************************************************//**
   2:.\Generated_Source\PSoC4/BLE_wpts.c **** * \file CYBLE_wpts.c
   3:.\Generated_Source\PSoC4/BLE_wpts.c **** * \version 2.30
   4:.\Generated_Source\PSoC4/BLE_wpts.c **** * 
   5:.\Generated_Source\PSoC4/BLE_wpts.c **** * \brief
   6:.\Generated_Source\PSoC4/BLE_wpts.c **** *  Contains the source code for Wireless Power Transfer Service.
   7:.\Generated_Source\PSoC4/BLE_wpts.c **** * 
   8:.\Generated_Source\PSoC4/BLE_wpts.c **** ********************************************************************************
   9:.\Generated_Source\PSoC4/BLE_wpts.c **** * \copyright
  10:.\Generated_Source\PSoC4/BLE_wpts.c **** * Copyright 2015, Cypress Semiconductor Corporation.  All rights reserved.
  11:.\Generated_Source\PSoC4/BLE_wpts.c **** * You may use this file only in accordance with the license, terms, conditions,
  12:.\Generated_Source\PSoC4/BLE_wpts.c **** * disclaimers, and limitations in the end user license agreement accompanying
  13:.\Generated_Source\PSoC4/BLE_wpts.c **** * the software package with which this file was provided.
  14:.\Generated_Source\PSoC4/BLE_wpts.c **** *******************************************************************************/
  15:.\Generated_Source\PSoC4/BLE_wpts.c **** 
  16:.\Generated_Source\PSoC4/BLE_wpts.c **** #include "BLE_eventHandler.h"
  17:.\Generated_Source\PSoC4/BLE_wpts.c **** 
  18:.\Generated_Source\PSoC4/BLE_wpts.c **** #ifdef CYBLE_WPTS_SERVER
  19:.\Generated_Source\PSoC4/BLE_wpts.c **** 
  20:.\Generated_Source\PSoC4/BLE_wpts.c **** 
  21:.\Generated_Source\PSoC4/BLE_wpts.c **** 
  22:.\Generated_Source\PSoC4/BLE_wpts.c **** static CYBLE_GATT_DB_ATTR_HANDLE_T cyBle_wptssReqHandle;
  23:.\Generated_Source\PSoC4/BLE_wpts.c **** 
  24:.\Generated_Source\PSoC4/BLE_wpts.c **** #endif /* CYBLE_WPTS_SERVER */
  25:.\Generated_Source\PSoC4/BLE_wpts.c **** 
  26:.\Generated_Source\PSoC4/BLE_wpts.c **** #ifdef CYBLE_WPTS_CLIENT
  27:.\Generated_Source\PSoC4/BLE_wpts.c **** 
  28:.\Generated_Source\PSoC4/BLE_wpts.c **** CYBLE_WPTSC_T cyBle_wptsc;
  29:.\Generated_Source\PSoC4/BLE_wpts.c **** static CYBLE_GATT_DB_ATTR_HANDLE_T cyBle_wptscReqHandle;
  30:.\Generated_Source\PSoC4/BLE_wpts.c **** 
  31:.\Generated_Source\PSoC4/BLE_wpts.c **** /* WPTS characteristics 128-bit UUIDs */
  32:.\Generated_Source\PSoC4/BLE_wpts.c **** const CYBLE_UUID128_T cyBle_wptscCharUuid128[CYBLE_WPTS_CHAR_COUNT] = {
ARM GAS  C:\Users\Petro\AppData\Local\Temp\cca5nTbz.s 			page 2


  33:.\Generated_Source\PSoC4/BLE_wpts.c ****     /* PRU Control Characteristic*/
  34:.\Generated_Source\PSoC4/BLE_wpts.c ****     {{ 0x67u, 0x9Au, 0x0Cu, 0x20u, 0x00u, 0x08u, 0x96u, 0x9Eu, 0xE2u, 0x11u, 0x46u, 0xA1u, 0x70u, 0
  35:.\Generated_Source\PSoC4/BLE_wpts.c ****     /* PTU Static Parameter Characteristic*/
  36:.\Generated_Source\PSoC4/BLE_wpts.c ****     {{ 0x68u, 0x9Au, 0x0Cu, 0x20u, 0x00u, 0x08u, 0x96u, 0x9Eu, 0xE2u, 0x11u, 0x46u, 0xA1u, 0x70u, 0
  37:.\Generated_Source\PSoC4/BLE_wpts.c ****     /* PRU Alert Characteristic*/
  38:.\Generated_Source\PSoC4/BLE_wpts.c ****     {{ 0x69u, 0x9Au, 0x0Cu, 0x20u, 0x00u, 0x08u, 0x96u, 0x9Eu, 0xE2u, 0x11u, 0x46u, 0xA1u, 0x70u, 0
  39:.\Generated_Source\PSoC4/BLE_wpts.c ****     /* PRU Static Parameter Characteristic*/
  40:.\Generated_Source\PSoC4/BLE_wpts.c ****     {{ 0x6Au, 0x9Au, 0x0Cu, 0x20u, 0x00u, 0x08u, 0x96u, 0x9Eu, 0xE2u, 0x11u, 0x46u, 0xA1u, 0x70u, 0
  41:.\Generated_Source\PSoC4/BLE_wpts.c ****     /* PRU Dynamic Parameter Characteristic*/
  42:.\Generated_Source\PSoC4/BLE_wpts.c ****     {{ 0x6Bu, 0x9Au, 0x0Cu, 0x20u, 0x00u, 0x08u, 0x96u, 0x9Eu, 0xE2u, 0x11u, 0x46u, 0xA1u, 0x70u, 0
  43:.\Generated_Source\PSoC4/BLE_wpts.c **** };
  44:.\Generated_Source\PSoC4/BLE_wpts.c **** 
  45:.\Generated_Source\PSoC4/BLE_wpts.c **** #endif /* (CYBLE_WPTS_CLIENT) */
  46:.\Generated_Source\PSoC4/BLE_wpts.c **** 
  47:.\Generated_Source\PSoC4/BLE_wpts.c **** static CYBLE_CALLBACK_T CyBle_WptsApplCallback = NULL;
  48:.\Generated_Source\PSoC4/BLE_wpts.c **** 
  49:.\Generated_Source\PSoC4/BLE_wpts.c **** 
  50:.\Generated_Source\PSoC4/BLE_wpts.c **** /******************************************************************************
  51:.\Generated_Source\PSoC4/BLE_wpts.c **** * Function Name: CyBle_WptsInit
  52:.\Generated_Source\PSoC4/BLE_wpts.c **** ***************************************************************************//**
  53:.\Generated_Source\PSoC4/BLE_wpts.c **** * 
  54:.\Generated_Source\PSoC4/BLE_wpts.c **** *  This function initializes Wireless Power Transfer Service.
  55:.\Generated_Source\PSoC4/BLE_wpts.c **** * 
  56:.\Generated_Source\PSoC4/BLE_wpts.c **** * \return
  57:.\Generated_Source\PSoC4/BLE_wpts.c **** *  None
  58:.\Generated_Source\PSoC4/BLE_wpts.c **** * 
  59:.\Generated_Source\PSoC4/BLE_wpts.c **** ******************************************************************************/
  60:.\Generated_Source\PSoC4/BLE_wpts.c **** void CyBle_WptsInit(void)
  61:.\Generated_Source\PSoC4/BLE_wpts.c **** {
  26              		.loc 1 61 0
  27              		.cfi_startproc
  28 0000 08B5     		push	{r3, lr}
  29              		.cfi_def_cfa_offset 8
  30              		.cfi_offset 3, -8
  31              		.cfi_offset 14, -4
  62:.\Generated_Source\PSoC4/BLE_wpts.c **** #ifdef CYBLE_WPTS_SERVER
  63:.\Generated_Source\PSoC4/BLE_wpts.c **** 
  64:.\Generated_Source\PSoC4/BLE_wpts.c ****     cyBle_wptssReqHandle = CYBLE_GATT_INVALID_ATTR_HANDLE_VALUE;
  65:.\Generated_Source\PSoC4/BLE_wpts.c **** 
  66:.\Generated_Source\PSoC4/BLE_wpts.c **** #endif /* CYBLE_WPTS_SERVER */
  67:.\Generated_Source\PSoC4/BLE_wpts.c **** 
  68:.\Generated_Source\PSoC4/BLE_wpts.c **** #ifdef CYBLE_WPTS_CLIENT
  69:.\Generated_Source\PSoC4/BLE_wpts.c **** 
  70:.\Generated_Source\PSoC4/BLE_wpts.c ****     cyBle_wptscReqHandle = CYBLE_GATT_INVALID_ATTR_HANDLE_VALUE;
  32              		.loc 1 70 0
  33 0002 0022     		mov	r2, #0
  34 0004 034B     		ldr	r3, .L2
  35 0006 1A80     		strh	r2, [r3]
  71:.\Generated_Source\PSoC4/BLE_wpts.c ****     (void)memset(&cyBle_wptsc, 0, sizeof(cyBle_wptsc));
  36              		.loc 1 71 0
  37 0008 0348     		ldr	r0, .L2+4
  38 000a 0021     		mov	r1, #0
  39 000c 2A32     		add	r2, r2, #42
  40 000e FFF7FEFF 		bl	memset
  41              	.LVL0:
  72:.\Generated_Source\PSoC4/BLE_wpts.c **** 
  73:.\Generated_Source\PSoC4/BLE_wpts.c **** #endif /* CYBLE_WPTS_CLIENT */
ARM GAS  C:\Users\Petro\AppData\Local\Temp\cca5nTbz.s 			page 3


  74:.\Generated_Source\PSoC4/BLE_wpts.c **** }
  42              		.loc 1 74 0
  43              		@ sp needed
  44 0012 08BD     		pop	{r3, pc}
  45              	.L3:
  46              		.align	2
  47              	.L2:
  48 0014 00000000 		.word	.LANCHOR0
  49 0018 00000000 		.word	cyBle_wptsc
  50              		.cfi_endproc
  51              	.LFE2:
  52              		.size	CyBle_WptsInit, .-CyBle_WptsInit
  53              		.section	.text.CyBle_WptsRegisterAttrCallback,"ax",%progbits
  54              		.align	2
  55              		.global	CyBle_WptsRegisterAttrCallback
  56              		.code	16
  57              		.thumb_func
  58              		.type	CyBle_WptsRegisterAttrCallback, %function
  59              	CyBle_WptsRegisterAttrCallback:
  60              	.LFB3:
  75:.\Generated_Source\PSoC4/BLE_wpts.c **** 
  76:.\Generated_Source\PSoC4/BLE_wpts.c **** 
  77:.\Generated_Source\PSoC4/BLE_wpts.c **** /******************************************************************************
  78:.\Generated_Source\PSoC4/BLE_wpts.c **** * Function Name: CyBle_WptsRegisterAttrCallback
  79:.\Generated_Source\PSoC4/BLE_wpts.c **** ***************************************************************************//**
  80:.\Generated_Source\PSoC4/BLE_wpts.c **** * 
  81:.\Generated_Source\PSoC4/BLE_wpts.c **** *  Registers a callback function for service specific attribute operations.
  82:.\Generated_Source\PSoC4/BLE_wpts.c **** *  Service specific write requests from peer device will not be handled with
  83:.\Generated_Source\PSoC4/BLE_wpts.c **** *  unregistered callback function.
  84:.\Generated_Source\PSoC4/BLE_wpts.c **** * 
  85:.\Generated_Source\PSoC4/BLE_wpts.c **** *  \param callbackFunc: An application layer event callback function to receive
  86:.\Generated_Source\PSoC4/BLE_wpts.c **** *                 events from the BLE Component. The definition of
  87:.\Generated_Source\PSoC4/BLE_wpts.c **** *                 CYBLE_CALLBACK_T is: \n
  88:.\Generated_Source\PSoC4/BLE_wpts.c **** *                 typedef void (* CYBLE_CALLBACK_T) (uint32 eventCode,
  89:.\Generated_Source\PSoC4/BLE_wpts.c **** *                                                    void *eventParam)
  90:.\Generated_Source\PSoC4/BLE_wpts.c **** *                 * eventCode indicates the event that triggered this
  91:.\Generated_Source\PSoC4/BLE_wpts.c **** *                   callback (e.g. CYBLE_EVT_WPTSS_INDICATION_ENABLED).
  92:.\Generated_Source\PSoC4/BLE_wpts.c **** *                 * eventParam contains the parameters corresponding to the
  93:.\Generated_Source\PSoC4/BLE_wpts.c **** *                   current event. (e.g. pointer to CYBLE_WPTS_CHAR_VALUE_T
  94:.\Generated_Source\PSoC4/BLE_wpts.c **** *                   structure that contains details of the characteristic
  95:.\Generated_Source\PSoC4/BLE_wpts.c **** *                   for which notification enabled event was triggered).
  96:.\Generated_Source\PSoC4/BLE_wpts.c **** * 
  97:.\Generated_Source\PSoC4/BLE_wpts.c **** * \return
  98:.\Generated_Source\PSoC4/BLE_wpts.c **** *  None
  99:.\Generated_Source\PSoC4/BLE_wpts.c **** *
 100:.\Generated_Source\PSoC4/BLE_wpts.c **** * \events
 101:.\Generated_Source\PSoC4/BLE_wpts.c **** *  None
 102:.\Generated_Source\PSoC4/BLE_wpts.c **** *
 103:.\Generated_Source\PSoC4/BLE_wpts.c **** ******************************************************************************/
 104:.\Generated_Source\PSoC4/BLE_wpts.c **** void CyBle_WptsRegisterAttrCallback(CYBLE_CALLBACK_T callbackFunc)
 105:.\Generated_Source\PSoC4/BLE_wpts.c **** {
  61              		.loc 1 105 0
  62              		.cfi_startproc
  63              	.LVL1:
 106:.\Generated_Source\PSoC4/BLE_wpts.c ****     CyBle_WptsApplCallback = callbackFunc;
  64              		.loc 1 106 0
  65 0000 014B     		ldr	r3, .L5
ARM GAS  C:\Users\Petro\AppData\Local\Temp\cca5nTbz.s 			page 4


  66 0002 5860     		str	r0, [r3, #4]
 107:.\Generated_Source\PSoC4/BLE_wpts.c **** }
  67              		.loc 1 107 0
  68              		@ sp needed
  69 0004 7047     		bx	lr
  70              	.L6:
  71 0006 C046     		.align	2
  72              	.L5:
  73 0008 00000000 		.word	.LANCHOR0
  74              		.cfi_endproc
  75              	.LFE3:
  76              		.size	CyBle_WptsRegisterAttrCallback, .-CyBle_WptsRegisterAttrCallback
  77              		.section	.text.CyBle_WptscDiscovery,"ax",%progbits
  78              		.align	2
  79              		.global	CyBle_WptscDiscovery
  80              		.code	16
  81              		.thumb_func
  82              		.type	CyBle_WptscDiscovery, %function
  83              	CyBle_WptscDiscovery:
  84              	.LFB4:
 108:.\Generated_Source\PSoC4/BLE_wpts.c **** 
 109:.\Generated_Source\PSoC4/BLE_wpts.c **** 
 110:.\Generated_Source\PSoC4/BLE_wpts.c **** #ifdef CYBLE_WPTS_SERVER
 111:.\Generated_Source\PSoC4/BLE_wpts.c **** 
 112:.\Generated_Source\PSoC4/BLE_wpts.c **** 
 113:.\Generated_Source\PSoC4/BLE_wpts.c **** /******************************************************************************
 114:.\Generated_Source\PSoC4/BLE_wpts.c **** * Function Name: CyBle_WptssSetCharacteristicValue
 115:.\Generated_Source\PSoC4/BLE_wpts.c **** ***************************************************************************//**
 116:.\Generated_Source\PSoC4/BLE_wpts.c **** * 
 117:.\Generated_Source\PSoC4/BLE_wpts.c **** *  Sets a characteristic value of the Wireless Power Transfer Service in the
 118:.\Generated_Source\PSoC4/BLE_wpts.c **** *  local GATT database. The characteristic is identified by charIndex.
 119:.\Generated_Source\PSoC4/BLE_wpts.c **** * 
 120:.\Generated_Source\PSoC4/BLE_wpts.c **** *  \param charIndex:       The index of a service characteristic of type
 121:.\Generated_Source\PSoC4/BLE_wpts.c **** *                   CYBLE_WPTS_CHAR_INDEX_T.
 122:.\Generated_Source\PSoC4/BLE_wpts.c **** *  \param attrSize:        The size of the characteristic value attribute.
 123:.\Generated_Source\PSoC4/BLE_wpts.c **** *  \param attrValue:      The pointer to the characteristic value data that should be
 124:.\Generated_Source\PSoC4/BLE_wpts.c **** *                   stored to the GATT database.
 125:.\Generated_Source\PSoC4/BLE_wpts.c **** * 
 126:.\Generated_Source\PSoC4/BLE_wpts.c **** * \return
 127:.\Generated_Source\PSoC4/BLE_wpts.c **** *  Return value is of type CYBLE_API_RESULT_T.
 128:.\Generated_Source\PSoC4/BLE_wpts.c **** *   * CYBLE_ERROR_OK - The characteristic value was written successfully.
 129:.\Generated_Source\PSoC4/BLE_wpts.c **** *   * CYBLE_ERROR_INVALID_PARAMETER - Validation of the input parameters failed.
 130:.\Generated_Source\PSoC4/BLE_wpts.c **** *
 131:.\Generated_Source\PSoC4/BLE_wpts.c **** * \events
 132:.\Generated_Source\PSoC4/BLE_wpts.c **** *  None
 133:.\Generated_Source\PSoC4/BLE_wpts.c **** *
 134:.\Generated_Source\PSoC4/BLE_wpts.c **** ******************************************************************************/
 135:.\Generated_Source\PSoC4/BLE_wpts.c **** CYBLE_API_RESULT_T CyBle_WptssSetCharacteristicValue(CYBLE_WPTS_CHAR_INDEX_T charIndex, uint8 attrS
 136:.\Generated_Source\PSoC4/BLE_wpts.c **** {
 137:.\Generated_Source\PSoC4/BLE_wpts.c ****     CYBLE_API_RESULT_T apiResult = CYBLE_ERROR_INVALID_PARAMETER;
 138:.\Generated_Source\PSoC4/BLE_wpts.c ****     CYBLE_GATT_HANDLE_VALUE_PAIR_T wssHandleValuePair;
 139:.\Generated_Source\PSoC4/BLE_wpts.c **** 
 140:.\Generated_Source\PSoC4/BLE_wpts.c ****     if((attrValue != NULL) && (charIndex < CYBLE_WPTS_CHAR_COUNT))
 141:.\Generated_Source\PSoC4/BLE_wpts.c ****     {
 142:.\Generated_Source\PSoC4/BLE_wpts.c ****         /* Fill the structure */
 143:.\Generated_Source\PSoC4/BLE_wpts.c ****         wssHandleValuePair.attrHandle = cyBle_wptss.charInfo[charIndex].charHandle;
 144:.\Generated_Source\PSoC4/BLE_wpts.c ****         wssHandleValuePair.value.len = attrSize;
ARM GAS  C:\Users\Petro\AppData\Local\Temp\cca5nTbz.s 			page 5


 145:.\Generated_Source\PSoC4/BLE_wpts.c ****         wssHandleValuePair.value.val = attrValue;
 146:.\Generated_Source\PSoC4/BLE_wpts.c **** 
 147:.\Generated_Source\PSoC4/BLE_wpts.c ****         if(CyBle_GattsWriteAttributeValue(&wssHandleValuePair, 0u, NULL, CYBLE_GATT_DB_LOCALLY_INIT
 148:.\Generated_Source\PSoC4/BLE_wpts.c ****             CYBLE_GATT_ERR_NONE)
 149:.\Generated_Source\PSoC4/BLE_wpts.c ****         {
 150:.\Generated_Source\PSoC4/BLE_wpts.c ****             /* Indicate success */
 151:.\Generated_Source\PSoC4/BLE_wpts.c ****             apiResult = CYBLE_ERROR_OK;
 152:.\Generated_Source\PSoC4/BLE_wpts.c ****         }
 153:.\Generated_Source\PSoC4/BLE_wpts.c ****     }
 154:.\Generated_Source\PSoC4/BLE_wpts.c **** 
 155:.\Generated_Source\PSoC4/BLE_wpts.c ****     /* Return status */
 156:.\Generated_Source\PSoC4/BLE_wpts.c ****     return(apiResult);
 157:.\Generated_Source\PSoC4/BLE_wpts.c **** }
 158:.\Generated_Source\PSoC4/BLE_wpts.c **** 
 159:.\Generated_Source\PSoC4/BLE_wpts.c **** 
 160:.\Generated_Source\PSoC4/BLE_wpts.c **** /******************************************************************************
 161:.\Generated_Source\PSoC4/BLE_wpts.c **** * Function Name: CyBle_WptssGetCharacteristicValue
 162:.\Generated_Source\PSoC4/BLE_wpts.c **** ***************************************************************************//**
 163:.\Generated_Source\PSoC4/BLE_wpts.c **** * 
 164:.\Generated_Source\PSoC4/BLE_wpts.c **** *  Reads a characteristic value of the Wireless Power Transfer Service, which
 165:.\Generated_Source\PSoC4/BLE_wpts.c **** *  is identified by charIndex from the GATT database.
 166:.\Generated_Source\PSoC4/BLE_wpts.c **** * 
 167:.\Generated_Source\PSoC4/BLE_wpts.c **** *  \param charIndex:       The index of a service characteristic of type
 168:.\Generated_Source\PSoC4/BLE_wpts.c **** *                   CYBLE_WPTS_CHAR_INDEX_T.
 169:.\Generated_Source\PSoC4/BLE_wpts.c **** *  \param attrSize:        The size of the characteristic value attribute.
 170:.\Generated_Source\PSoC4/BLE_wpts.c **** *  \param attrValue:      The pointer to the location where characteristic value data
 171:.\Generated_Source\PSoC4/BLE_wpts.c **** *                   should be stored.
 172:.\Generated_Source\PSoC4/BLE_wpts.c **** * 
 173:.\Generated_Source\PSoC4/BLE_wpts.c **** * \return
 174:.\Generated_Source\PSoC4/BLE_wpts.c **** *  Return value is of type CYBLE_API_RESULT_T.
 175:.\Generated_Source\PSoC4/BLE_wpts.c **** *   * CYBLE_ERROR_OK - The characteristic value was read successfully.
 176:.\Generated_Source\PSoC4/BLE_wpts.c **** *   * CYBLE_ERROR_INVALID_PARAMETER - Validation of the input parameters failed.
 177:.\Generated_Source\PSoC4/BLE_wpts.c **** *
 178:.\Generated_Source\PSoC4/BLE_wpts.c **** * \events
 179:.\Generated_Source\PSoC4/BLE_wpts.c **** *  None
 180:.\Generated_Source\PSoC4/BLE_wpts.c **** *
 181:.\Generated_Source\PSoC4/BLE_wpts.c **** ******************************************************************************/
 182:.\Generated_Source\PSoC4/BLE_wpts.c **** CYBLE_API_RESULT_T CyBle_WptssGetCharacteristicValue(CYBLE_WPTS_CHAR_INDEX_T charIndex, uint8 attrS
 183:.\Generated_Source\PSoC4/BLE_wpts.c **** {
 184:.\Generated_Source\PSoC4/BLE_wpts.c ****     CYBLE_API_RESULT_T apiResult = CYBLE_ERROR_INVALID_PARAMETER;
 185:.\Generated_Source\PSoC4/BLE_wpts.c ****     CYBLE_GATT_HANDLE_VALUE_PAIR_T wssHandleValuePair;
 186:.\Generated_Source\PSoC4/BLE_wpts.c **** 
 187:.\Generated_Source\PSoC4/BLE_wpts.c ****     if((attrValue != NULL) && (charIndex < CYBLE_WPTS_CHAR_COUNT))
 188:.\Generated_Source\PSoC4/BLE_wpts.c ****     {
 189:.\Generated_Source\PSoC4/BLE_wpts.c ****         /* Fill the structure */
 190:.\Generated_Source\PSoC4/BLE_wpts.c ****         wssHandleValuePair.attrHandle = cyBle_wptss.charInfo[charIndex].charHandle;
 191:.\Generated_Source\PSoC4/BLE_wpts.c ****         wssHandleValuePair.value.len = attrSize;
 192:.\Generated_Source\PSoC4/BLE_wpts.c ****         wssHandleValuePair.value.val = attrValue;
 193:.\Generated_Source\PSoC4/BLE_wpts.c **** 
 194:.\Generated_Source\PSoC4/BLE_wpts.c ****         /* Get characteristic value from GATT database */
 195:.\Generated_Source\PSoC4/BLE_wpts.c ****         if(CyBle_GattsReadAttributeValue(&wssHandleValuePair, NULL, CYBLE_GATT_DB_LOCALLY_INITIATED
 196:.\Generated_Source\PSoC4/BLE_wpts.c ****             CYBLE_GATT_ERR_NONE)
 197:.\Generated_Source\PSoC4/BLE_wpts.c ****         {
 198:.\Generated_Source\PSoC4/BLE_wpts.c ****             /* Indicate success */
 199:.\Generated_Source\PSoC4/BLE_wpts.c ****             apiResult = CYBLE_ERROR_OK;
 200:.\Generated_Source\PSoC4/BLE_wpts.c ****         }
 201:.\Generated_Source\PSoC4/BLE_wpts.c ****     }
ARM GAS  C:\Users\Petro\AppData\Local\Temp\cca5nTbz.s 			page 6


 202:.\Generated_Source\PSoC4/BLE_wpts.c ****     /* Return status */
 203:.\Generated_Source\PSoC4/BLE_wpts.c ****     return(apiResult);
 204:.\Generated_Source\PSoC4/BLE_wpts.c **** }
 205:.\Generated_Source\PSoC4/BLE_wpts.c **** 
 206:.\Generated_Source\PSoC4/BLE_wpts.c **** 
 207:.\Generated_Source\PSoC4/BLE_wpts.c **** /******************************************************************************
 208:.\Generated_Source\PSoC4/BLE_wpts.c **** * Function Name: CyBle_WptssSetCharacteristicDescriptor
 209:.\Generated_Source\PSoC4/BLE_wpts.c **** ***************************************************************************//**
 210:.\Generated_Source\PSoC4/BLE_wpts.c **** * 
 211:.\Generated_Source\PSoC4/BLE_wpts.c **** *  Sets the characteristic descriptor of the specified characteristic.
 212:.\Generated_Source\PSoC4/BLE_wpts.c **** * 
 213:.\Generated_Source\PSoC4/BLE_wpts.c **** *  \param charIndex:       The index of a service characteristic of type
 214:.\Generated_Source\PSoC4/BLE_wpts.c **** *                   CYBLE_WPTS_CHAR_INDEX_T.
 215:.\Generated_Source\PSoC4/BLE_wpts.c **** *  \param descrIndex:      The index of a service characteristic descriptor of type
 216:.\Generated_Source\PSoC4/BLE_wpts.c **** *                   CYBLE_WPTS_DESCR_INDEX_T.
 217:.\Generated_Source\PSoC4/BLE_wpts.c **** *  \param attrSize:        The size of the characteristic descriptor attribute.
 218:.\Generated_Source\PSoC4/BLE_wpts.c **** *  \param attrValue:      The pointer to the descriptor value data that should
 219:.\Generated_Source\PSoC4/BLE_wpts.c **** *                   be stored to the GATT database.
 220:.\Generated_Source\PSoC4/BLE_wpts.c **** * 
 221:.\Generated_Source\PSoC4/BLE_wpts.c **** * \return
 222:.\Generated_Source\PSoC4/BLE_wpts.c **** *  A return value is of type CYBLE_API_RESULT_T.
 223:.\Generated_Source\PSoC4/BLE_wpts.c **** *  * CYBLE_ERROR_OK - The request handled successfully.
 224:.\Generated_Source\PSoC4/BLE_wpts.c **** *  * CYBLE_ERROR_INVALID_PARAMETER - Validation of the input parameter failed.
 225:.\Generated_Source\PSoC4/BLE_wpts.c **** *
 226:.\Generated_Source\PSoC4/BLE_wpts.c **** * \events
 227:.\Generated_Source\PSoC4/BLE_wpts.c **** *  None
 228:.\Generated_Source\PSoC4/BLE_wpts.c **** *
 229:.\Generated_Source\PSoC4/BLE_wpts.c **** ******************************************************************************/
 230:.\Generated_Source\PSoC4/BLE_wpts.c **** CYBLE_API_RESULT_T CyBle_WptssSetCharacteristicDescriptor(CYBLE_WPTS_CHAR_INDEX_T charIndex,
 231:.\Generated_Source\PSoC4/BLE_wpts.c ****     CYBLE_WPTS_DESCR_INDEX_T descrIndex, uint8 attrSize, uint8 *attrValue)
 232:.\Generated_Source\PSoC4/BLE_wpts.c **** {
 233:.\Generated_Source\PSoC4/BLE_wpts.c ****     CYBLE_API_RESULT_T apiResult = CYBLE_ERROR_INVALID_PARAMETER;
 234:.\Generated_Source\PSoC4/BLE_wpts.c ****     CYBLE_GATT_HANDLE_VALUE_PAIR_T locHandleValuePair;
 235:.\Generated_Source\PSoC4/BLE_wpts.c **** 
 236:.\Generated_Source\PSoC4/BLE_wpts.c ****     if((charIndex < CYBLE_WPTS_CHAR_COUNT) && (descrIndex < CYBLE_WPTS_DESCR_COUNT) && (attrValue !
 237:.\Generated_Source\PSoC4/BLE_wpts.c ****     {
 238:.\Generated_Source\PSoC4/BLE_wpts.c ****         locHandleValuePair.attrHandle = cyBle_wptss.charInfo[charIndex].descrHandle[descrIndex];
 239:.\Generated_Source\PSoC4/BLE_wpts.c ****         locHandleValuePair.value.len = attrSize;
 240:.\Generated_Source\PSoC4/BLE_wpts.c ****         locHandleValuePair.value.val = attrValue;
 241:.\Generated_Source\PSoC4/BLE_wpts.c **** 
 242:.\Generated_Source\PSoC4/BLE_wpts.c ****         /* Read characteristic value from database */
 243:.\Generated_Source\PSoC4/BLE_wpts.c ****         if(CyBle_GattsWriteAttributeValue(&locHandleValuePair, 0u, NULL, CYBLE_GATT_DB_LOCALLY_INIT
 244:.\Generated_Source\PSoC4/BLE_wpts.c ****             CYBLE_GATT_ERR_NONE)
 245:.\Generated_Source\PSoC4/BLE_wpts.c ****         {
 246:.\Generated_Source\PSoC4/BLE_wpts.c ****             apiResult = CYBLE_ERROR_OK;
 247:.\Generated_Source\PSoC4/BLE_wpts.c ****         }
 248:.\Generated_Source\PSoC4/BLE_wpts.c ****     }
 249:.\Generated_Source\PSoC4/BLE_wpts.c ****     return (apiResult);
 250:.\Generated_Source\PSoC4/BLE_wpts.c **** }
 251:.\Generated_Source\PSoC4/BLE_wpts.c **** 
 252:.\Generated_Source\PSoC4/BLE_wpts.c **** 
 253:.\Generated_Source\PSoC4/BLE_wpts.c **** /******************************************************************************
 254:.\Generated_Source\PSoC4/BLE_wpts.c **** * Function Name: CyBle_WptssGetCharacteristicDescriptor
 255:.\Generated_Source\PSoC4/BLE_wpts.c **** ***************************************************************************//**
 256:.\Generated_Source\PSoC4/BLE_wpts.c **** * 
 257:.\Generated_Source\PSoC4/BLE_wpts.c **** *  Reads a a characteristic descriptor of a specified characteristic of the
 258:.\Generated_Source\PSoC4/BLE_wpts.c **** *  Wireless Power Transfer Service from the GATT database.
ARM GAS  C:\Users\Petro\AppData\Local\Temp\cca5nTbz.s 			page 7


 259:.\Generated_Source\PSoC4/BLE_wpts.c **** * 
 260:.\Generated_Source\PSoC4/BLE_wpts.c **** *  \param charIndex:       The index of a service characteristic of type
 261:.\Generated_Source\PSoC4/BLE_wpts.c **** *                   CYBLE_WPTS_CHAR_INDEX_T.
 262:.\Generated_Source\PSoC4/BLE_wpts.c **** *  \param descrIndex:      The index of a service characteristic descriptor of type
 263:.\Generated_Source\PSoC4/BLE_wpts.c **** *                   CYBLE_WPTS_DESCR_INDEX_T.
 264:.\Generated_Source\PSoC4/BLE_wpts.c **** *  \param attrSize:        The size of the characteristic descriptor attribute.
 265:.\Generated_Source\PSoC4/BLE_wpts.c **** *  \param attrValue:      The pointer to the location where characteristic descriptor
 266:.\Generated_Source\PSoC4/BLE_wpts.c **** *                   value data should be stored.
 267:.\Generated_Source\PSoC4/BLE_wpts.c **** * 
 268:.\Generated_Source\PSoC4/BLE_wpts.c **** * \return
 269:.\Generated_Source\PSoC4/BLE_wpts.c **** *  Return value is of type CYBLE_API_RESULT_T.
 270:.\Generated_Source\PSoC4/BLE_wpts.c **** *   * CYBLE_ERROR_OK - The request handled successfully.
 271:.\Generated_Source\PSoC4/BLE_wpts.c **** *   * CYBLE_ERROR_INVALID_PARAMETER - Validation of the input parameter failed
 272:.\Generated_Source\PSoC4/BLE_wpts.c **** *
 273:.\Generated_Source\PSoC4/BLE_wpts.c **** * \events
 274:.\Generated_Source\PSoC4/BLE_wpts.c **** *  None
 275:.\Generated_Source\PSoC4/BLE_wpts.c **** *
 276:.\Generated_Source\PSoC4/BLE_wpts.c **** ******************************************************************************/
 277:.\Generated_Source\PSoC4/BLE_wpts.c **** CYBLE_API_RESULT_T CyBle_WptssGetCharacteristicDescriptor(CYBLE_WPTS_CHAR_INDEX_T charIndex,
 278:.\Generated_Source\PSoC4/BLE_wpts.c ****     CYBLE_WPTS_DESCR_INDEX_T descrIndex, uint8 attrSize, uint8 *attrValue)
 279:.\Generated_Source\PSoC4/BLE_wpts.c **** {
 280:.\Generated_Source\PSoC4/BLE_wpts.c ****     CYBLE_API_RESULT_T apiResult = CYBLE_ERROR_INVALID_PARAMETER;
 281:.\Generated_Source\PSoC4/BLE_wpts.c ****     CYBLE_GATT_HANDLE_VALUE_PAIR_T wssHandleValuePair;
 282:.\Generated_Source\PSoC4/BLE_wpts.c **** 
 283:.\Generated_Source\PSoC4/BLE_wpts.c ****     if((charIndex < CYBLE_WPTS_CHAR_COUNT) && (descrIndex < CYBLE_WPTS_DESCR_COUNT) && (attrValue !
 284:.\Generated_Source\PSoC4/BLE_wpts.c ****     {
 285:.\Generated_Source\PSoC4/BLE_wpts.c ****         wssHandleValuePair.attrHandle = cyBle_wptss.charInfo[charIndex].descrHandle[descrIndex];
 286:.\Generated_Source\PSoC4/BLE_wpts.c ****         wssHandleValuePair.value.len = attrSize;
 287:.\Generated_Source\PSoC4/BLE_wpts.c ****         wssHandleValuePair.value.val = attrValue;
 288:.\Generated_Source\PSoC4/BLE_wpts.c **** 
 289:.\Generated_Source\PSoC4/BLE_wpts.c ****         /* Get characteristic value from GATT database */
 290:.\Generated_Source\PSoC4/BLE_wpts.c ****         if(CyBle_GattsReadAttributeValue(&wssHandleValuePair, NULL, CYBLE_GATT_DB_LOCALLY_INITIATED
 291:.\Generated_Source\PSoC4/BLE_wpts.c ****             CYBLE_GATT_ERR_NONE)
 292:.\Generated_Source\PSoC4/BLE_wpts.c ****         {
 293:.\Generated_Source\PSoC4/BLE_wpts.c ****             /* Indicate success */
 294:.\Generated_Source\PSoC4/BLE_wpts.c ****             apiResult = CYBLE_ERROR_OK;
 295:.\Generated_Source\PSoC4/BLE_wpts.c ****         }
 296:.\Generated_Source\PSoC4/BLE_wpts.c ****     }
 297:.\Generated_Source\PSoC4/BLE_wpts.c **** 
 298:.\Generated_Source\PSoC4/BLE_wpts.c ****     return (apiResult);
 299:.\Generated_Source\PSoC4/BLE_wpts.c **** }
 300:.\Generated_Source\PSoC4/BLE_wpts.c **** 
 301:.\Generated_Source\PSoC4/BLE_wpts.c **** 
 302:.\Generated_Source\PSoC4/BLE_wpts.c **** /******************************************************************************
 303:.\Generated_Source\PSoC4/BLE_wpts.c **** * Function Name: CyBle_WptssSendNotification
 304:.\Generated_Source\PSoC4/BLE_wpts.c **** ***************************************************************************//**
 305:.\Generated_Source\PSoC4/BLE_wpts.c **** * 
 306:.\Generated_Source\PSoC4/BLE_wpts.c **** *  Sends notification with a characteristic value of the WPTS, which is a value
 307:.\Generated_Source\PSoC4/BLE_wpts.c **** *  specified by charIndex, to the Client device.
 308:.\Generated_Source\PSoC4/BLE_wpts.c **** * 
 309:.\Generated_Source\PSoC4/BLE_wpts.c **** *  \param connHandle:      The connection handle
 310:.\Generated_Source\PSoC4/BLE_wpts.c **** *  \param charIndex:       The index of a service characteristic of type
 311:.\Generated_Source\PSoC4/BLE_wpts.c **** *                   CYBLE_WPTS_CHAR_INDEX_T.
 312:.\Generated_Source\PSoC4/BLE_wpts.c **** *  \param attrSize:        The size of the characteristic value attribute.
 313:.\Generated_Source\PSoC4/BLE_wpts.c **** *  \param attrValue:      The pointer to the characteristic value data that should be
 314:.\Generated_Source\PSoC4/BLE_wpts.c **** *                   sent to the Client device.
 315:.\Generated_Source\PSoC4/BLE_wpts.c **** * 
ARM GAS  C:\Users\Petro\AppData\Local\Temp\cca5nTbz.s 			page 8


 316:.\Generated_Source\PSoC4/BLE_wpts.c **** * \return
 317:.\Generated_Source\PSoC4/BLE_wpts.c **** *  Return value is of type CYBLE_API_RESULT_T.
 318:.\Generated_Source\PSoC4/BLE_wpts.c **** *   * CYBLE_ERROR_OK - The request handled successfully
 319:.\Generated_Source\PSoC4/BLE_wpts.c **** *   * CYBLE_ERROR_INVALID_PARAMETER - Validation of the input parameter failed
 320:.\Generated_Source\PSoC4/BLE_wpts.c **** *   * CYBLE_ERROR_INVALID_OPERATION - This operation is not permitted
 321:.\Generated_Source\PSoC4/BLE_wpts.c **** *   * CYBLE_ERROR_GATT_DB_INVALID_ATTR_HANDLE - Optional characteristic is absent
 322:.\Generated_Source\PSoC4/BLE_wpts.c **** *   * CYBLE_ERROR_INVALID_STATE - Connection with the Client is not established
 323:.\Generated_Source\PSoC4/BLE_wpts.c **** *   * CYBLE_ERROR_MEMORY_ALLOCATION_FAILED - Memory allocation failed.
 324:.\Generated_Source\PSoC4/BLE_wpts.c **** *   * CYBLE_ERROR_NTF_DISABLED - Notification is not enabled by the Client.
 325:.\Generated_Source\PSoC4/BLE_wpts.c **** *
 326:.\Generated_Source\PSoC4/BLE_wpts.c **** * \events
 327:.\Generated_Source\PSoC4/BLE_wpts.c **** *  None
 328:.\Generated_Source\PSoC4/BLE_wpts.c **** *
 329:.\Generated_Source\PSoC4/BLE_wpts.c **** ******************************************************************************/
 330:.\Generated_Source\PSoC4/BLE_wpts.c **** CYBLE_API_RESULT_T CyBle_WptssSendNotification(CYBLE_CONN_HANDLE_T connHandle,
 331:.\Generated_Source\PSoC4/BLE_wpts.c ****     CYBLE_WPTS_CHAR_INDEX_T charIndex, uint8 attrSize, uint8 *attrValue)
 332:.\Generated_Source\PSoC4/BLE_wpts.c **** {
 333:.\Generated_Source\PSoC4/BLE_wpts.c **** 
 334:.\Generated_Source\PSoC4/BLE_wpts.c ****     CYBLE_API_RESULT_T apiResult;
 335:.\Generated_Source\PSoC4/BLE_wpts.c **** 
 336:.\Generated_Source\PSoC4/BLE_wpts.c ****     /* Send Notification if it is enabled and connected */
 337:.\Generated_Source\PSoC4/BLE_wpts.c ****     if(CyBle_GetState() != CYBLE_STATE_CONNECTED)
 338:.\Generated_Source\PSoC4/BLE_wpts.c ****     {
 339:.\Generated_Source\PSoC4/BLE_wpts.c ****         apiResult = CYBLE_ERROR_INVALID_STATE;
 340:.\Generated_Source\PSoC4/BLE_wpts.c ****     }
 341:.\Generated_Source\PSoC4/BLE_wpts.c ****     else if(charIndex >= CYBLE_WPTS_CHAR_COUNT)
 342:.\Generated_Source\PSoC4/BLE_wpts.c ****     {
 343:.\Generated_Source\PSoC4/BLE_wpts.c ****         apiResult = CYBLE_ERROR_INVALID_PARAMETER;
 344:.\Generated_Source\PSoC4/BLE_wpts.c ****     }
 345:.\Generated_Source\PSoC4/BLE_wpts.c ****     else if(cyBle_wptss.charInfo[charIndex].charHandle == CYBLE_GATT_INVALID_ATTR_HANDLE_VALUE)
 346:.\Generated_Source\PSoC4/BLE_wpts.c ****     {
 347:.\Generated_Source\PSoC4/BLE_wpts.c ****         apiResult = CYBLE_ERROR_GATT_DB_INVALID_ATTR_HANDLE;
 348:.\Generated_Source\PSoC4/BLE_wpts.c ****     }
 349:.\Generated_Source\PSoC4/BLE_wpts.c ****     else if((!CYBLE_IS_NOTIFICATION_SUPPORTED(cyBle_wptss.charInfo[charIndex].charHandle)) ||
 350:.\Generated_Source\PSoC4/BLE_wpts.c ****             (!CYBLE_IS_NOTIFICATION_ENABLED(cyBle_wptss.charInfo[charIndex].descrHandle[CYBLE_WPTS_
 351:.\Generated_Source\PSoC4/BLE_wpts.c ****     {
 352:.\Generated_Source\PSoC4/BLE_wpts.c ****         apiResult = CYBLE_ERROR_NTF_DISABLED;
 353:.\Generated_Source\PSoC4/BLE_wpts.c ****     }
 354:.\Generated_Source\PSoC4/BLE_wpts.c ****     else
 355:.\Generated_Source\PSoC4/BLE_wpts.c ****     {
 356:.\Generated_Source\PSoC4/BLE_wpts.c ****         CYBLE_GATTS_HANDLE_VALUE_NTF_T ntfReqParam;
 357:.\Generated_Source\PSoC4/BLE_wpts.c **** 
 358:.\Generated_Source\PSoC4/BLE_wpts.c ****         /* Fill all fields of write request structure ... */
 359:.\Generated_Source\PSoC4/BLE_wpts.c ****         ntfReqParam.attrHandle = cyBle_wptss.charInfo[charIndex].charHandle;
 360:.\Generated_Source\PSoC4/BLE_wpts.c ****         ntfReqParam.value.val = attrValue;
 361:.\Generated_Source\PSoC4/BLE_wpts.c ****         ntfReqParam.value.len = attrSize;
 362:.\Generated_Source\PSoC4/BLE_wpts.c **** 
 363:.\Generated_Source\PSoC4/BLE_wpts.c ****         /* Send notification to the Client using previously filled structure */
 364:.\Generated_Source\PSoC4/BLE_wpts.c ****         apiResult = CyBle_GattsNotification(connHandle, &ntfReqParam);
 365:.\Generated_Source\PSoC4/BLE_wpts.c ****     }
 366:.\Generated_Source\PSoC4/BLE_wpts.c **** 
 367:.\Generated_Source\PSoC4/BLE_wpts.c ****     return (apiResult);
 368:.\Generated_Source\PSoC4/BLE_wpts.c **** }
 369:.\Generated_Source\PSoC4/BLE_wpts.c **** 
 370:.\Generated_Source\PSoC4/BLE_wpts.c **** 
 371:.\Generated_Source\PSoC4/BLE_wpts.c **** /******************************************************************************
 372:.\Generated_Source\PSoC4/BLE_wpts.c **** * Function Name: CyBle_WptssSendIndication
ARM GAS  C:\Users\Petro\AppData\Local\Temp\cca5nTbz.s 			page 9


 373:.\Generated_Source\PSoC4/BLE_wpts.c **** ***************************************************************************//**
 374:.\Generated_Source\PSoC4/BLE_wpts.c **** * 
 375:.\Generated_Source\PSoC4/BLE_wpts.c **** *  Sends an indication with a characteristic value of the Wireless Power Transfer
 376:.\Generated_Source\PSoC4/BLE_wpts.c **** *  Service, which is a value specified by charIndex, to the Client device.
 377:.\Generated_Source\PSoC4/BLE_wpts.c **** * 
 378:.\Generated_Source\PSoC4/BLE_wpts.c **** *  \param connHandle:      The connection handle
 379:.\Generated_Source\PSoC4/BLE_wpts.c **** *  \param charIndex:       The index of a service characteristic of type
 380:.\Generated_Source\PSoC4/BLE_wpts.c **** *                   CYBLE_WPTS_CHAR_INDEX_T.
 381:.\Generated_Source\PSoC4/BLE_wpts.c **** *  \param attrSize:        The size of the characteristic value attribute.
 382:.\Generated_Source\PSoC4/BLE_wpts.c **** *  \param attrValue:      The pointer to the characteristic value data that should be
 383:.\Generated_Source\PSoC4/BLE_wpts.c **** *                   sent to the Client device.
 384:.\Generated_Source\PSoC4/BLE_wpts.c **** * 
 385:.\Generated_Source\PSoC4/BLE_wpts.c **** * \return
 386:.\Generated_Source\PSoC4/BLE_wpts.c **** *  A return value is of type CYBLE_API_RESULT_T.
 387:.\Generated_Source\PSoC4/BLE_wpts.c **** *   * CYBLE_ERROR_OK - The request handled successfully
 388:.\Generated_Source\PSoC4/BLE_wpts.c **** *   * CYBLE_ERROR_INVALID_PARAMETER - Validation of the input parameter failed
 389:.\Generated_Source\PSoC4/BLE_wpts.c **** *   * CYBLE_ERROR_INVALID_OPERATION - This operation is not permitted
 390:.\Generated_Source\PSoC4/BLE_wpts.c **** *   * CYBLE_ERROR_GATT_DB_INVALID_ATTR_HANDLE - Optional characteristic is absent
 391:.\Generated_Source\PSoC4/BLE_wpts.c **** *   * CYBLE_ERROR_INVALID_STATE - Connection with the client is not established
 392:.\Generated_Source\PSoC4/BLE_wpts.c **** *   * CYBLE_ERROR_MEMORY_ALLOCATION_FAILED - Memory allocation failed.
 393:.\Generated_Source\PSoC4/BLE_wpts.c **** *   * CYBLE_ERROR_IND_DISABLED - Indication is not enabled by the client.
 394:.\Generated_Source\PSoC4/BLE_wpts.c **** *
 395:.\Generated_Source\PSoC4/BLE_wpts.c **** * \events
 396:.\Generated_Source\PSoC4/BLE_wpts.c **** *  In case of successful execution (return value = CYBLE_ERROR_OK)
 397:.\Generated_Source\PSoC4/BLE_wpts.c **** *  the next events can appear: \n
 398:.\Generated_Source\PSoC4/BLE_wpts.c **** *   If the WPTS service-specific callback is registered 
 399:.\Generated_Source\PSoC4/BLE_wpts.c **** *      (with CyBle_WptsRegisterAttrCallback):
 400:.\Generated_Source\PSoC4/BLE_wpts.c **** *  * CYBLE_EVT_WPTSS_INDICATION_CONFIRMED - in case if the indication is
 401:.\Generated_Source\PSoC4/BLE_wpts.c **** *                                successfully delivered to the peer device.
 402:.\Generated_Source\PSoC4/BLE_wpts.c **** *  .
 403:.\Generated_Source\PSoC4/BLE_wpts.c **** *   Otherwise (if the WPTS service-specific callback is not registered):
 404:.\Generated_Source\PSoC4/BLE_wpts.c **** *  * CYBLE_EVT_GATTS_HANDLE_VALUE_CNF - in case if the indication is
 405:.\Generated_Source\PSoC4/BLE_wpts.c **** *                                successfully delivered to the peer device.
 406:.\Generated_Source\PSoC4/BLE_wpts.c **** *
 407:.\Generated_Source\PSoC4/BLE_wpts.c **** ******************************************************************************/
 408:.\Generated_Source\PSoC4/BLE_wpts.c **** CYBLE_API_RESULT_T CyBle_WptssSendIndication(CYBLE_CONN_HANDLE_T connHandle, CYBLE_WPTS_CHAR_INDEX_
 409:.\Generated_Source\PSoC4/BLE_wpts.c ****     uint8 attrSize, uint8 *attrValue)
 410:.\Generated_Source\PSoC4/BLE_wpts.c **** {
 411:.\Generated_Source\PSoC4/BLE_wpts.c ****     CYBLE_API_RESULT_T apiResult;
 412:.\Generated_Source\PSoC4/BLE_wpts.c **** 
 413:.\Generated_Source\PSoC4/BLE_wpts.c ****     /* Send Notification if it is enabled and connected */
 414:.\Generated_Source\PSoC4/BLE_wpts.c ****     if(CyBle_GetState() != CYBLE_STATE_CONNECTED)
 415:.\Generated_Source\PSoC4/BLE_wpts.c ****     {
 416:.\Generated_Source\PSoC4/BLE_wpts.c ****         apiResult = CYBLE_ERROR_INVALID_STATE;
 417:.\Generated_Source\PSoC4/BLE_wpts.c ****     }
 418:.\Generated_Source\PSoC4/BLE_wpts.c ****     else if(charIndex >= CYBLE_WPTS_CHAR_COUNT)
 419:.\Generated_Source\PSoC4/BLE_wpts.c ****     {
 420:.\Generated_Source\PSoC4/BLE_wpts.c ****         apiResult = CYBLE_ERROR_INVALID_PARAMETER;
 421:.\Generated_Source\PSoC4/BLE_wpts.c ****     }
 422:.\Generated_Source\PSoC4/BLE_wpts.c ****     else if(cyBle_wptss.charInfo[charIndex].charHandle == CYBLE_GATT_INVALID_ATTR_HANDLE_VALUE)
 423:.\Generated_Source\PSoC4/BLE_wpts.c ****     {
 424:.\Generated_Source\PSoC4/BLE_wpts.c ****         apiResult = CYBLE_ERROR_GATT_DB_INVALID_ATTR_HANDLE;
 425:.\Generated_Source\PSoC4/BLE_wpts.c ****     }
 426:.\Generated_Source\PSoC4/BLE_wpts.c ****     else if((!CYBLE_IS_INDICATION_SUPPORTED(cyBle_wptss.charInfo[charIndex].charHandle)) ||
 427:.\Generated_Source\PSoC4/BLE_wpts.c ****             (!CYBLE_IS_INDICATION_ENABLED(cyBle_wptss.charInfo[charIndex].descrHandle[CYBLE_WPTS_CC
 428:.\Generated_Source\PSoC4/BLE_wpts.c ****     {
 429:.\Generated_Source\PSoC4/BLE_wpts.c ****         apiResult = CYBLE_ERROR_IND_DISABLED;
ARM GAS  C:\Users\Petro\AppData\Local\Temp\cca5nTbz.s 			page 10


 430:.\Generated_Source\PSoC4/BLE_wpts.c ****     }
 431:.\Generated_Source\PSoC4/BLE_wpts.c ****     else
 432:.\Generated_Source\PSoC4/BLE_wpts.c ****     {
 433:.\Generated_Source\PSoC4/BLE_wpts.c ****         CYBLE_GATTS_HANDLE_VALUE_IND_T indReqParam;
 434:.\Generated_Source\PSoC4/BLE_wpts.c **** 
 435:.\Generated_Source\PSoC4/BLE_wpts.c ****         /* Fill all fields of write request structure ... */
 436:.\Generated_Source\PSoC4/BLE_wpts.c ****         indReqParam.attrHandle = cyBle_wptss.charInfo[charIndex].charHandle;
 437:.\Generated_Source\PSoC4/BLE_wpts.c ****         indReqParam.value.val = attrValue;
 438:.\Generated_Source\PSoC4/BLE_wpts.c ****         indReqParam.value.len = attrSize;
 439:.\Generated_Source\PSoC4/BLE_wpts.c **** 
 440:.\Generated_Source\PSoC4/BLE_wpts.c ****         /* Send indication to Client using previously filled structure */
 441:.\Generated_Source\PSoC4/BLE_wpts.c ****         apiResult = CyBle_GattsIndication(connHandle, &indReqParam);
 442:.\Generated_Source\PSoC4/BLE_wpts.c ****         /* Save handle to support service specific value confirmation response from Client */
 443:.\Generated_Source\PSoC4/BLE_wpts.c ****         if(apiResult == CYBLE_ERROR_OK)
 444:.\Generated_Source\PSoC4/BLE_wpts.c ****         {
 445:.\Generated_Source\PSoC4/BLE_wpts.c ****             cyBle_wptssReqHandle = indReqParam.attrHandle;
 446:.\Generated_Source\PSoC4/BLE_wpts.c ****         }
 447:.\Generated_Source\PSoC4/BLE_wpts.c ****     }
 448:.\Generated_Source\PSoC4/BLE_wpts.c ****     return (apiResult);
 449:.\Generated_Source\PSoC4/BLE_wpts.c **** }
 450:.\Generated_Source\PSoC4/BLE_wpts.c **** 
 451:.\Generated_Source\PSoC4/BLE_wpts.c **** 
 452:.\Generated_Source\PSoC4/BLE_wpts.c **** /******************************************************************************
 453:.\Generated_Source\PSoC4/BLE_wpts.c **** * Function Name: CyBle_WptssWriteEventHandler
 454:.\Generated_Source\PSoC4/BLE_wpts.c **** ***************************************************************************//**
 455:.\Generated_Source\PSoC4/BLE_wpts.c **** * 
 456:.\Generated_Source\PSoC4/BLE_wpts.c **** *  Handles Write Request Event for Wireless Power Transfer Service.
 457:.\Generated_Source\PSoC4/BLE_wpts.c **** * 
 458:.\Generated_Source\PSoC4/BLE_wpts.c **** *  \param void *eventParam: The pointer to the data structure specified by the event.
 459:.\Generated_Source\PSoC4/BLE_wpts.c **** * 
 460:.\Generated_Source\PSoC4/BLE_wpts.c **** * \return
 461:.\Generated_Source\PSoC4/BLE_wpts.c **** *  Return value is of type CYBLE_GATT_ERR_CODE_T.
 462:.\Generated_Source\PSoC4/BLE_wpts.c **** *   * CYBLE_GATT_ERR_NONE - Write is successful.
 463:.\Generated_Source\PSoC4/BLE_wpts.c **** *   * CYBLE_GATT_ERR_REQUEST_NOT_SUPPORTED - Request is not supported.
 464:.\Generated_Source\PSoC4/BLE_wpts.c **** *   * CYBLE_GATT_ERR_INVALID_HANDLE - 'handleValuePair.attrHandle' is not valid.
 465:.\Generated_Source\PSoC4/BLE_wpts.c **** *   * CYBLE_GATT_ERR_WRITE_NOT_PERMITTED - Write operation is not permitted on
 466:.\Generated_Source\PSoC4/BLE_wpts.c **** *                                          this attribute.
 467:.\Generated_Source\PSoC4/BLE_wpts.c **** *   * CYBLE_GATT_ERR_INVALID_OFFSET - Offset value is invalid.
 468:.\Generated_Source\PSoC4/BLE_wpts.c **** *   * CYBLE_GATT_ERR_UNLIKELY_ERROR - Some other error occurred.
 469:.\Generated_Source\PSoC4/BLE_wpts.c **** * 
 470:.\Generated_Source\PSoC4/BLE_wpts.c **** ******************************************************************************/
 471:.\Generated_Source\PSoC4/BLE_wpts.c **** CYBLE_GATT_ERR_CODE_T CyBle_WptssWriteEventHandler(CYBLE_GATTS_WRITE_REQ_PARAM_T *eventParam)
 472:.\Generated_Source\PSoC4/BLE_wpts.c **** {
 473:.\Generated_Source\PSoC4/BLE_wpts.c ****     CYBLE_WPTS_CHAR_INDEX_T locCharIndex;
 474:.\Generated_Source\PSoC4/BLE_wpts.c ****     CYBLE_WPTS_CHAR_VALUE_T locCharValue;
 475:.\Generated_Source\PSoC4/BLE_wpts.c ****     CYBLE_GATT_ERR_CODE_T gattErr = CYBLE_GATT_ERR_NONE;
 476:.\Generated_Source\PSoC4/BLE_wpts.c ****     uint8 locReqHandle = 0u;
 477:.\Generated_Source\PSoC4/BLE_wpts.c **** 
 478:.\Generated_Source\PSoC4/BLE_wpts.c ****     if(CyBle_WptsApplCallback != NULL)
 479:.\Generated_Source\PSoC4/BLE_wpts.c ****     {
 480:.\Generated_Source\PSoC4/BLE_wpts.c ****         for(locCharIndex = CYBLE_WPTS_PRU_CONTROL; (locCharIndex < CYBLE_WPTS_CHAR_COUNT) && (locRe
 481:.\Generated_Source\PSoC4/BLE_wpts.c ****             locCharIndex++)
 482:.\Generated_Source\PSoC4/BLE_wpts.c ****         {
 483:.\Generated_Source\PSoC4/BLE_wpts.c ****             if((eventParam->handleValPair.attrHandle == cyBle_wptss.charInfo[locCharIndex].descrHan
 484:.\Generated_Source\PSoC4/BLE_wpts.c ****                 || (eventParam->handleValPair.attrHandle == cyBle_wptss.charInfo[locCharIndex].char
 485:.\Generated_Source\PSoC4/BLE_wpts.c ****             {
 486:.\Generated_Source\PSoC4/BLE_wpts.c ****                 locCharValue.connHandle = eventParam->connHandle;
ARM GAS  C:\Users\Petro\AppData\Local\Temp\cca5nTbz.s 			page 11


 487:.\Generated_Source\PSoC4/BLE_wpts.c ****                 locCharValue.charIndex = locCharIndex;
 488:.\Generated_Source\PSoC4/BLE_wpts.c ****                 locCharValue.value = &eventParam->handleValPair.value;
 489:.\Generated_Source\PSoC4/BLE_wpts.c ****                 /* Store value to database */
 490:.\Generated_Source\PSoC4/BLE_wpts.c ****                 gattErr = CyBle_GattsWriteAttributeValue(&eventParam->handleValPair, 0u,
 491:.\Generated_Source\PSoC4/BLE_wpts.c ****                             &eventParam->connHandle, CYBLE_GATT_DB_PEER_INITIATED);
 492:.\Generated_Source\PSoC4/BLE_wpts.c ****                 if(gattErr == CYBLE_GATT_ERR_NONE)
 493:.\Generated_Source\PSoC4/BLE_wpts.c ****                 {
 494:.\Generated_Source\PSoC4/BLE_wpts.c ****                     /* Characteristic value write request */
 495:.\Generated_Source\PSoC4/BLE_wpts.c ****                     if(eventParam->handleValPair.attrHandle == cyBle_wptss.charInfo[locCharIndex].c
 496:.\Generated_Source\PSoC4/BLE_wpts.c ****                     {
 497:.\Generated_Source\PSoC4/BLE_wpts.c ****                         CyBle_WptsApplCallback((uint32)CYBLE_EVT_WPTSS_WRITE_CHAR, &locCharValue);
 498:.\Generated_Source\PSoC4/BLE_wpts.c ****                     }
 499:.\Generated_Source\PSoC4/BLE_wpts.c ****                     else /* Client Characteristic Configuration descriptor write request */
 500:.\Generated_Source\PSoC4/BLE_wpts.c ****                     {
 501:.\Generated_Source\PSoC4/BLE_wpts.c ****                         /* Check characteristic properties for Notification */
 502:.\Generated_Source\PSoC4/BLE_wpts.c ****                         if(CYBLE_IS_NOTIFICATION_SUPPORTED(cyBle_wptss.charInfo[locCharIndex].charH
 503:.\Generated_Source\PSoC4/BLE_wpts.c ****                         {
 504:.\Generated_Source\PSoC4/BLE_wpts.c ****                             uint32 eventCode;
 505:.\Generated_Source\PSoC4/BLE_wpts.c ****                             if(CYBLE_IS_NOTIFICATION_ENABLED_IN_PTR(eventParam->handleValPair.value
 506:.\Generated_Source\PSoC4/BLE_wpts.c ****                             {
 507:.\Generated_Source\PSoC4/BLE_wpts.c ****                                 eventCode = (uint32)CYBLE_EVT_WPTSS_NOTIFICATION_ENABLED;
 508:.\Generated_Source\PSoC4/BLE_wpts.c ****                             }
 509:.\Generated_Source\PSoC4/BLE_wpts.c ****                             else
 510:.\Generated_Source\PSoC4/BLE_wpts.c ****                             {
 511:.\Generated_Source\PSoC4/BLE_wpts.c ****                                 eventCode = (uint32)CYBLE_EVT_WPTSS_NOTIFICATION_DISABLED;
 512:.\Generated_Source\PSoC4/BLE_wpts.c ****                             }
 513:.\Generated_Source\PSoC4/BLE_wpts.c ****                             CyBle_WptsApplCallback(eventCode, &locCharValue);
 514:.\Generated_Source\PSoC4/BLE_wpts.c ****                         }
 515:.\Generated_Source\PSoC4/BLE_wpts.c ****                         /* Check characteristic properties for Indication */
 516:.\Generated_Source\PSoC4/BLE_wpts.c ****                         if(CYBLE_IS_INDICATION_SUPPORTED(cyBle_wptss.charInfo[locCharIndex].charHan
 517:.\Generated_Source\PSoC4/BLE_wpts.c ****                         {
 518:.\Generated_Source\PSoC4/BLE_wpts.c ****                             uint32 eventCode;
 519:.\Generated_Source\PSoC4/BLE_wpts.c ****                             if(CYBLE_IS_INDICATION_ENABLED_IN_PTR(eventParam->handleValPair.value.v
 520:.\Generated_Source\PSoC4/BLE_wpts.c ****                             {
 521:.\Generated_Source\PSoC4/BLE_wpts.c ****                                 eventCode = (uint32)CYBLE_EVT_WPTSS_INDICATION_ENABLED;
 522:.\Generated_Source\PSoC4/BLE_wpts.c ****                             }
 523:.\Generated_Source\PSoC4/BLE_wpts.c ****                             else
 524:.\Generated_Source\PSoC4/BLE_wpts.c ****                             {
 525:.\Generated_Source\PSoC4/BLE_wpts.c ****                                 eventCode = (uint32)CYBLE_EVT_WPTSS_INDICATION_DISABLED;
 526:.\Generated_Source\PSoC4/BLE_wpts.c ****                             }
 527:.\Generated_Source\PSoC4/BLE_wpts.c ****                             CyBle_WptsApplCallback(eventCode, &locCharValue);
 528:.\Generated_Source\PSoC4/BLE_wpts.c ****                         }
 529:.\Generated_Source\PSoC4/BLE_wpts.c ****                     #if((CYBLE_GAP_ROLE_PERIPHERAL || CYBLE_GAP_ROLE_CENTRAL) && \
 530:.\Generated_Source\PSoC4/BLE_wpts.c ****                         (CYBLE_BONDING_REQUIREMENT == CYBLE_BONDING_YES))
 531:.\Generated_Source\PSoC4/BLE_wpts.c ****                         /* Set flag to store bonding data to flash */
 532:.\Generated_Source\PSoC4/BLE_wpts.c ****                         if(cyBle_peerBonding == CYBLE_GAP_BONDING)
 533:.\Generated_Source\PSoC4/BLE_wpts.c ****                         {
 534:.\Generated_Source\PSoC4/BLE_wpts.c ****                             cyBle_pendingFlashWrite |= CYBLE_PENDING_CCCD_FLASH_WRITE_BIT;
 535:.\Generated_Source\PSoC4/BLE_wpts.c ****                         }
 536:.\Generated_Source\PSoC4/BLE_wpts.c ****                     #endif /* (CYBLE_BONDING_REQUIREMENT == CYBLE_BONDING_YES) */
 537:.\Generated_Source\PSoC4/BLE_wpts.c **** 
 538:.\Generated_Source\PSoC4/BLE_wpts.c ****                     }
 539:.\Generated_Source\PSoC4/BLE_wpts.c ****                 }
 540:.\Generated_Source\PSoC4/BLE_wpts.c ****                 cyBle_eventHandlerFlag &= (uint8)~CYBLE_CALLBACK;
 541:.\Generated_Source\PSoC4/BLE_wpts.c ****                 locReqHandle = 1u;
 542:.\Generated_Source\PSoC4/BLE_wpts.c ****             }
 543:.\Generated_Source\PSoC4/BLE_wpts.c ****         }
ARM GAS  C:\Users\Petro\AppData\Local\Temp\cca5nTbz.s 			page 12


 544:.\Generated_Source\PSoC4/BLE_wpts.c ****     }
 545:.\Generated_Source\PSoC4/BLE_wpts.c ****     return (gattErr);
 546:.\Generated_Source\PSoC4/BLE_wpts.c **** }
 547:.\Generated_Source\PSoC4/BLE_wpts.c **** 
 548:.\Generated_Source\PSoC4/BLE_wpts.c **** 
 549:.\Generated_Source\PSoC4/BLE_wpts.c **** /******************************************************************************
 550:.\Generated_Source\PSoC4/BLE_wpts.c **** * Function Name: CyBle_WptssConfirmationEventHandler
 551:.\Generated_Source\PSoC4/BLE_wpts.c **** ***************************************************************************//**
 552:.\Generated_Source\PSoC4/BLE_wpts.c **** * 
 553:.\Generated_Source\PSoC4/BLE_wpts.c **** *  Handles a Value Confirmation request event from the BLE stack.
 554:.\Generated_Source\PSoC4/BLE_wpts.c **** * 
 555:.\Generated_Source\PSoC4/BLE_wpts.c **** *  *eventParam - The pointer to a structure of type CYBLE_CONN_HANDLE_T.
 556:.\Generated_Source\PSoC4/BLE_wpts.c **** * 
 557:.\Generated_Source\PSoC4/BLE_wpts.c **** * \return
 558:.\Generated_Source\PSoC4/BLE_wpts.c **** *  None.
 559:.\Generated_Source\PSoC4/BLE_wpts.c **** * 
 560:.\Generated_Source\PSoC4/BLE_wpts.c **** ******************************************************************************/
 561:.\Generated_Source\PSoC4/BLE_wpts.c **** void CyBle_WptssConfirmationEventHandler(const CYBLE_CONN_HANDLE_T *eventParam)
 562:.\Generated_Source\PSoC4/BLE_wpts.c **** {
 563:.\Generated_Source\PSoC4/BLE_wpts.c ****     CYBLE_WPTS_CHAR_INDEX_T locCharIndex;
 564:.\Generated_Source\PSoC4/BLE_wpts.c ****     CYBLE_WPTS_CHAR_VALUE_T locCharValue;
 565:.\Generated_Source\PSoC4/BLE_wpts.c ****     uint8 locReqHandle = 0u;
 566:.\Generated_Source\PSoC4/BLE_wpts.c **** 
 567:.\Generated_Source\PSoC4/BLE_wpts.c ****     if((CyBle_WptsApplCallback != NULL) && (cyBle_wptssReqHandle != CYBLE_GATT_INVALID_ATTR_HANDLE_
 568:.\Generated_Source\PSoC4/BLE_wpts.c ****     {
 569:.\Generated_Source\PSoC4/BLE_wpts.c ****         for(locCharIndex = CYBLE_WPTS_PRU_CONTROL; (locCharIndex < CYBLE_WPTS_CHAR_COUNT) && (locRe
 570:.\Generated_Source\PSoC4/BLE_wpts.c ****             locCharIndex++)
 571:.\Generated_Source\PSoC4/BLE_wpts.c ****         {
 572:.\Generated_Source\PSoC4/BLE_wpts.c ****             if(cyBle_wptssReqHandle == cyBle_wptss.charInfo[locCharIndex].charHandle)
 573:.\Generated_Source\PSoC4/BLE_wpts.c ****             {
 574:.\Generated_Source\PSoC4/BLE_wpts.c ****                 /* Fill in event data and inform Application about successfully confirmed indicatio
 575:.\Generated_Source\PSoC4/BLE_wpts.c ****                 locCharValue.connHandle = *eventParam;
 576:.\Generated_Source\PSoC4/BLE_wpts.c ****                 locCharValue.charIndex = locCharIndex;
 577:.\Generated_Source\PSoC4/BLE_wpts.c ****                 locCharValue.value = NULL;
 578:.\Generated_Source\PSoC4/BLE_wpts.c ****                 cyBle_eventHandlerFlag &= (uint8)~CYBLE_CALLBACK;
 579:.\Generated_Source\PSoC4/BLE_wpts.c ****                 cyBle_wptssReqHandle = CYBLE_GATT_INVALID_ATTR_HANDLE_VALUE;
 580:.\Generated_Source\PSoC4/BLE_wpts.c ****                 CyBle_WptsApplCallback((uint32)CYBLE_EVT_WPTSS_INDICATION_CONFIRMED, &locCharValue)
 581:.\Generated_Source\PSoC4/BLE_wpts.c ****                 locReqHandle = 1u;
 582:.\Generated_Source\PSoC4/BLE_wpts.c ****             }
 583:.\Generated_Source\PSoC4/BLE_wpts.c ****         }
 584:.\Generated_Source\PSoC4/BLE_wpts.c ****     }
 585:.\Generated_Source\PSoC4/BLE_wpts.c **** }
 586:.\Generated_Source\PSoC4/BLE_wpts.c **** 
 587:.\Generated_Source\PSoC4/BLE_wpts.c **** #endif /* CYBLE_WPTS_SERVER */
 588:.\Generated_Source\PSoC4/BLE_wpts.c **** 
 589:.\Generated_Source\PSoC4/BLE_wpts.c **** 
 590:.\Generated_Source\PSoC4/BLE_wpts.c **** #ifdef CYBLE_WPTS_CLIENT
 591:.\Generated_Source\PSoC4/BLE_wpts.c **** 
 592:.\Generated_Source\PSoC4/BLE_wpts.c **** 
 593:.\Generated_Source\PSoC4/BLE_wpts.c **** /******************************************************************************
 594:.\Generated_Source\PSoC4/BLE_wpts.c **** * Function Name: CyBle_WptscDiscovery
 595:.\Generated_Source\PSoC4/BLE_wpts.c **** ***************************************************************************//**
 596:.\Generated_Source\PSoC4/BLE_wpts.c **** * 
 597:.\Generated_Source\PSoC4/BLE_wpts.c **** *  This function discovers the PRU's WPT service and characteristics using the
 598:.\Generated_Source\PSoC4/BLE_wpts.c **** *  GATT Primary Service Handle, received through the WPT Service Data
 599:.\Generated_Source\PSoC4/BLE_wpts.c **** *  within the PRU advertisement payload, together with the handle offsets defined
 600:.\Generated_Source\PSoC4/BLE_wpts.c **** *  A4WP specification.
ARM GAS  C:\Users\Petro\AppData\Local\Temp\cca5nTbz.s 			page 13


 601:.\Generated_Source\PSoC4/BLE_wpts.c **** * 
 602:.\Generated_Source\PSoC4/BLE_wpts.c **** *  The PTU may perform service discovery using the CyBle_GattcStartDiscovery()
 603:.\Generated_Source\PSoC4/BLE_wpts.c **** *  API. This function may be used in response to Service Changed indication or to
 604:.\Generated_Source\PSoC4/BLE_wpts.c **** *  discover services other than the WPT service supported by the PRU.
 605:.\Generated_Source\PSoC4/BLE_wpts.c **** * 
 606:.\Generated_Source\PSoC4/BLE_wpts.c **** *  \param servHandle: GATT Primary Service Handle of the WPT service.
 607:.\Generated_Source\PSoC4/BLE_wpts.c **** * 
 608:.\Generated_Source\PSoC4/BLE_wpts.c **** * \return
 609:.\Generated_Source\PSoC4/BLE_wpts.c **** *  None
 610:.\Generated_Source\PSoC4/BLE_wpts.c **** * 
 611:.\Generated_Source\PSoC4/BLE_wpts.c **** ******************************************************************************/
 612:.\Generated_Source\PSoC4/BLE_wpts.c **** void CyBle_WptscDiscovery(CYBLE_GATT_DB_ATTR_HANDLE_T servHandle)
 613:.\Generated_Source\PSoC4/BLE_wpts.c **** {
  85              		.loc 1 613 0
  86              		.cfi_startproc
  87              	.LVL2:
  88 0000 10B5     		push	{r4, lr}
  89              		.cfi_def_cfa_offset 8
  90              		.cfi_offset 4, -8
  91              		.cfi_offset 14, -4
  92 0002 041C     		mov	r4, r0
 614:.\Generated_Source\PSoC4/BLE_wpts.c ****     /* Clear old data */
 615:.\Generated_Source\PSoC4/BLE_wpts.c ****     CyBle_WptsInit();
  93              		.loc 1 615 0
  94 0004 FFF7FEFF 		bl	CyBle_WptsInit
  95              	.LVL3:
 616:.\Generated_Source\PSoC4/BLE_wpts.c **** 
 617:.\Generated_Source\PSoC4/BLE_wpts.c ****     cyBle_wptsc.serviceHandle = servHandle;
  96              		.loc 1 617 0
  97 0008 084B     		ldr	r3, .L8
  98 000a 1C80     		strh	r4, [r3]
 618:.\Generated_Source\PSoC4/BLE_wpts.c ****     cyBle_wptsc.charInfo[CYBLE_WPTS_PRU_CONTROL].valueHandle = servHandle + CYBLE_WPTS_PRU_CONTROL_
  99              		.loc 1 618 0
 100 000c A21C     		add	r2, r4, #2
 101 000e 9A80     		strh	r2, [r3, #4]
 619:.\Generated_Source\PSoC4/BLE_wpts.c ****     cyBle_wptsc.charInfo[CYBLE_WPTS_PTU_STATIC_PAR].valueHandle = servHandle + CYBLE_WPTS_PTU_STATI
 102              		.loc 1 619 0
 103 0010 221D     		add	r2, r4, #4
 104 0012 9A81     		strh	r2, [r3, #12]
 620:.\Generated_Source\PSoC4/BLE_wpts.c ****     cyBle_wptsc.charInfo[CYBLE_WPTS_PRU_ALERT].valueHandle = servHandle + CYBLE_WPTS_PRU_ALERT_PAR_
 105              		.loc 1 620 0
 106 0014 A21D     		add	r2, r4, #6
 107 0016 9A82     		strh	r2, [r3, #20]
 621:.\Generated_Source\PSoC4/BLE_wpts.c ****     cyBle_wptsc.charInfo[CYBLE_WPTS_PRU_ALERT].descrHandle[CYBLE_WPTS_CCCD] = servHandle + CYBLE_WP
 108              		.loc 1 621 0
 109 0018 E21D     		add	r2, r4, #7
 110 001a 5A82     		strh	r2, [r3, #18]
 622:.\Generated_Source\PSoC4/BLE_wpts.c ****     cyBle_wptsc.charInfo[CYBLE_WPTS_PRU_STATIC_PAR].valueHandle = servHandle + CYBLE_WPTS_PRU_STATI
 111              		.loc 1 622 0
 112 001c 0232     		add	r2, r2, #2
 113 001e 9A83     		strh	r2, [r3, #28]
 623:.\Generated_Source\PSoC4/BLE_wpts.c ****     cyBle_wptsc.charInfo[CYBLE_WPTS_PRU_DYNAMIC_PAR].valueHandle = servHandle + CYBLE_WPTS_PRU_DYNA
 114              		.loc 1 623 0
 115 0020 0B34     		add	r4, r4, #11
 116 0022 9C84     		strh	r4, [r3, #36]
 624:.\Generated_Source\PSoC4/BLE_wpts.c **** 
 625:.\Generated_Source\PSoC4/BLE_wpts.c ****     CyBle_SetClientState(CYBLE_CLIENT_STATE_DISCOVERED);
ARM GAS  C:\Users\Petro\AppData\Local\Temp\cca5nTbz.s 			page 14


 117              		.loc 1 625 0
 118 0024 0522     		mov	r2, #5
 119 0026 024B     		ldr	r3, .L8+4
 120 0028 1A70     		strb	r2, [r3]
 626:.\Generated_Source\PSoC4/BLE_wpts.c **** }
 121              		.loc 1 626 0
 122              		@ sp needed
 123 002a 10BD     		pop	{r4, pc}
 124              	.L9:
 125              		.align	2
 126              	.L8:
 127 002c 00000000 		.word	cyBle_wptsc
 128 0030 00000000 		.word	cyBle_clientState
 129              		.cfi_endproc
 130              	.LFE4:
 131              		.size	CyBle_WptscDiscovery, .-CyBle_WptscDiscovery
 132              		.section	.text.CyBle_WptscDiscoverCharacteristicsEventHandler,"ax",%progbits
 133              		.align	2
 134              		.global	CyBle_WptscDiscoverCharacteristicsEventHandler
 135              		.code	16
 136              		.thumb_func
 137              		.type	CyBle_WptscDiscoverCharacteristicsEventHandler, %function
 138              	CyBle_WptscDiscoverCharacteristicsEventHandler:
 139              	.LFB5:
 627:.\Generated_Source\PSoC4/BLE_wpts.c **** 
 628:.\Generated_Source\PSoC4/BLE_wpts.c **** /******************************************************************************
 629:.\Generated_Source\PSoC4/BLE_wpts.c **** * Function Name: CyBle_WptscDiscoverCharacteristicsEventHandler
 630:.\Generated_Source\PSoC4/BLE_wpts.c **** ***************************************************************************//**
 631:.\Generated_Source\PSoC4/BLE_wpts.c **** * 
 632:.\Generated_Source\PSoC4/BLE_wpts.c **** *  This function is called on receiving a CYBLE_EVT_GATTC_READ_BY_TYPE_RSP
 633:.\Generated_Source\PSoC4/BLE_wpts.c **** *  event. Based on the service UUID, an appropriate data structure is populated
 634:.\Generated_Source\PSoC4/BLE_wpts.c **** *  using the data received as part of the callback.
 635:.\Generated_Source\PSoC4/BLE_wpts.c **** * 
 636:.\Generated_Source\PSoC4/BLE_wpts.c **** *  \param discCharInfo: The pointer to a characteristic information structure.
 637:.\Generated_Source\PSoC4/BLE_wpts.c **** * 
 638:.\Generated_Source\PSoC4/BLE_wpts.c **** * \return
 639:.\Generated_Source\PSoC4/BLE_wpts.c **** *  None
 640:.\Generated_Source\PSoC4/BLE_wpts.c **** * 
 641:.\Generated_Source\PSoC4/BLE_wpts.c **** ******************************************************************************/
 642:.\Generated_Source\PSoC4/BLE_wpts.c **** void CyBle_WptscDiscoverCharacteristicsEventHandler(const CYBLE_DISC_CHAR_INFO_T *discCharInfo)
 643:.\Generated_Source\PSoC4/BLE_wpts.c **** {
 140              		.loc 1 643 0
 141              		.cfi_startproc
 142              	.LVL4:
 143 0000 10B5     		push	{r4, lr}
 144              		.cfi_def_cfa_offset 8
 145              		.cfi_offset 4, -8
 146              		.cfi_offset 14, -4
 644:.\Generated_Source\PSoC4/BLE_wpts.c ****     static CYBLE_GATT_DB_ATTR_HANDLE_T *wptscLastEndHandle = NULL;
 645:.\Generated_Source\PSoC4/BLE_wpts.c **** 
 646:.\Generated_Source\PSoC4/BLE_wpts.c ****     /* Update last characteristic endHandle to declaration handle of this characteristic */
 647:.\Generated_Source\PSoC4/BLE_wpts.c ****     if(wptscLastEndHandle != NULL)
 147              		.loc 1 647 0
 148 0002 1D4B     		ldr	r3, .L14
 149 0004 9A68     		ldr	r2, [r3, #8]
 150 0006 002A     		cmp	r2, #0
 151 0008 05D0     		beq	.L11
ARM GAS  C:\Users\Petro\AppData\Local\Temp\cca5nTbz.s 			page 15


 648:.\Generated_Source\PSoC4/BLE_wpts.c ****     {
 649:.\Generated_Source\PSoC4/BLE_wpts.c ****         *wptscLastEndHandle = discCharInfo->charDeclHandle - 1u;
 152              		.loc 1 649 0
 153 000a 0388     		ldrh	r3, [r0]
 154 000c 013B     		sub	r3, r3, #1
 155 000e 1380     		strh	r3, [r2]
 650:.\Generated_Source\PSoC4/BLE_wpts.c ****         wptscLastEndHandle = NULL;
 156              		.loc 1 650 0
 157 0010 0022     		mov	r2, #0
 158 0012 194B     		ldr	r3, .L14
 159 0014 9A60     		str	r2, [r3, #8]
 160              	.L11:
 651:.\Generated_Source\PSoC4/BLE_wpts.c ****     }
 652:.\Generated_Source\PSoC4/BLE_wpts.c **** 
 653:.\Generated_Source\PSoC4/BLE_wpts.c ****     /* WPTS service has only characteristics with 128-bit UUIDs */
 654:.\Generated_Source\PSoC4/BLE_wpts.c ****     if(discCharInfo->uuidFormat == CYBLE_GATT_128_BIT_UUID_FORMAT)
 161              		.loc 1 654 0
 162 0016 837D     		ldrb	r3, [r0, #22]
 163 0018 022B     		cmp	r3, #2
 164 001a 1ED1     		bne	.L12
 165 001c 041C     		mov	r4, r0
 655:.\Generated_Source\PSoC4/BLE_wpts.c ****     {
 656:.\Generated_Source\PSoC4/BLE_wpts.c ****         /* Compare common part of characteristics 128-bit UUID (except first byte) */
 657:.\Generated_Source\PSoC4/BLE_wpts.c ****         if(memcmp(&cyBle_wptscCharUuid128[CYBLE_WPTS_PRU_CONTROL].value[1u],
 658:.\Generated_Source\PSoC4/BLE_wpts.c ****                   &discCharInfo->uuid.uuid128.value[1u], CYBLE_GATT_128_BIT_UUID_SIZE - 1u) == 0u)
 166              		.loc 1 658 0
 167 001e C11D     		add	r1, r0, #7
 657:.\Generated_Source\PSoC4/BLE_wpts.c ****                   &discCharInfo->uuid.uuid128.value[1u], CYBLE_GATT_128_BIT_UUID_SIZE - 1u) == 0u)
 168              		.loc 1 657 0
 169 0020 1648     		ldr	r0, .L14+4
 170              	.LVL5:
 171 0022 0130     		add	r0, r0, #1
 172 0024 0F22     		mov	r2, #15
 173 0026 FFF7FEFF 		bl	memcmp
 174              	.LVL6:
 175 002a 0028     		cmp	r0, #0
 176 002c 15D1     		bne	.L12
 659:.\Generated_Source\PSoC4/BLE_wpts.c ****         {
 660:.\Generated_Source\PSoC4/BLE_wpts.c ****             /* Check the range of the first byte to be between the first and last characteristic */
 661:.\Generated_Source\PSoC4/BLE_wpts.c ****             if((discCharInfo->uuid.uuid128.value[0u] >= cyBle_wptscCharUuid128[CYBLE_WPTS_PRU_CONTR
 177              		.loc 1 661 0
 178 002e A379     		ldrb	r3, [r4, #6]
 179 0030 662B     		cmp	r3, #102
 180 0032 12D9     		bls	.L12
 181              		.loc 1 661 0 is_stmt 0 discriminator 1
 182 0034 6B2B     		cmp	r3, #107
 183 0036 10D8     		bhi	.L12
 184              	.LBB2:
 662:.\Generated_Source\PSoC4/BLE_wpts.c ****                (discCharInfo->uuid.uuid128.value[0u] <= cyBle_wptscCharUuid128[CYBLE_WPTS_CHAR_COUN
 663:.\Generated_Source\PSoC4/BLE_wpts.c ****             {
 664:.\Generated_Source\PSoC4/BLE_wpts.c ****                 uint8 locCharIndex;
 665:.\Generated_Source\PSoC4/BLE_wpts.c ****                 locCharIndex = discCharInfo->uuid.uuid128.value[0u] -
 185              		.loc 1 665 0 is_stmt 1
 186 0038 673B     		sub	r3, r3, #103
 187 003a DBB2     		uxtb	r3, r3
 666:.\Generated_Source\PSoC4/BLE_wpts.c ****                                cyBle_wptscCharUuid128[CYBLE_WPTS_PRU_CONTROL].value[0u];
 667:.\Generated_Source\PSoC4/BLE_wpts.c ****                 /* Verify that characteristic handler is not assigned already */
ARM GAS  C:\Users\Petro\AppData\Local\Temp\cca5nTbz.s 			page 16


 668:.\Generated_Source\PSoC4/BLE_wpts.c ****                 if(cyBle_wptsc.charInfo[locCharIndex].valueHandle == CYBLE_GATT_INVALID_ATTR_HANDLE
 188              		.loc 1 668 0
 189 003c DA00     		lsl	r2, r3, #3
 190 003e 1049     		ldr	r1, .L14+8
 191 0040 8A18     		add	r2, r1, r2
 192 0042 9288     		ldrh	r2, [r2, #4]
 193 0044 002A     		cmp	r2, #0
 194 0046 08D1     		bne	.L12
 669:.\Generated_Source\PSoC4/BLE_wpts.c ****                 {
 670:.\Generated_Source\PSoC4/BLE_wpts.c ****                     cyBle_wptsc.charInfo[locCharIndex].valueHandle = discCharInfo->valueHandle;
 195              		.loc 1 670 0
 196 0048 A288     		ldrh	r2, [r4, #4]
 197 004a DB00     		lsl	r3, r3, #3
 198 004c CB18     		add	r3, r1, r3
 199 004e 9A80     		strh	r2, [r3, #4]
 671:.\Generated_Source\PSoC4/BLE_wpts.c ****                     cyBle_wptsc.charInfo[locCharIndex].properties = discCharInfo->properties;
 200              		.loc 1 671 0
 201 0050 A278     		ldrb	r2, [r4, #2]
 202 0052 1A72     		strb	r2, [r3, #8]
 672:.\Generated_Source\PSoC4/BLE_wpts.c ****                     wptscLastEndHandle = &cyBle_wptsc.charInfo[locCharIndex].endHandle;
 203              		.loc 1 672 0
 204 0054 0633     		add	r3, r3, #6
 205 0056 084A     		ldr	r2, .L14
 206 0058 9360     		str	r3, [r2, #8]
 207              	.LVL7:
 208              	.L12:
 209              	.LBE2:
 673:.\Generated_Source\PSoC4/BLE_wpts.c ****                 }
 674:.\Generated_Source\PSoC4/BLE_wpts.c ****             }
 675:.\Generated_Source\PSoC4/BLE_wpts.c ****         }
 676:.\Generated_Source\PSoC4/BLE_wpts.c ****     }
 677:.\Generated_Source\PSoC4/BLE_wpts.c **** 
 678:.\Generated_Source\PSoC4/BLE_wpts.c ****     /* Initialize characteristic endHandle to Service endHandle. Characteristic endHandle
 679:.\Generated_Source\PSoC4/BLE_wpts.c ****     * will be updated to the declaration handler of the following characteristic,
 680:.\Generated_Source\PSoC4/BLE_wpts.c ****     * in the following characteristic discovery procedure.
 681:.\Generated_Source\PSoC4/BLE_wpts.c ****     */
 682:.\Generated_Source\PSoC4/BLE_wpts.c ****     if(wptscLastEndHandle != NULL)
 210              		.loc 1 682 0
 211 005a 074B     		ldr	r3, .L14
 212 005c 9A68     		ldr	r2, [r3, #8]
 213 005e 002A     		cmp	r2, #0
 214 0060 08D0     		beq	.L10
 683:.\Generated_Source\PSoC4/BLE_wpts.c ****     {
 684:.\Generated_Source\PSoC4/BLE_wpts.c ****         *wptscLastEndHandle = cyBle_serverInfo[cyBle_disCount].range.endHandle;
 215              		.loc 1 684 0
 216 0062 084B     		ldr	r3, .L14+12
 217 0064 1B78     		ldrb	r3, [r3]
 218 0066 5900     		lsl	r1, r3, #1
 219 0068 CB18     		add	r3, r1, r3
 220 006a 5B00     		lsl	r3, r3, #1
 221 006c 0649     		ldr	r1, .L14+16
 222 006e CB18     		add	r3, r1, r3
 223 0070 5B88     		ldrh	r3, [r3, #2]
 224 0072 1380     		strh	r3, [r2]
 225              	.L10:
 685:.\Generated_Source\PSoC4/BLE_wpts.c ****     }
 686:.\Generated_Source\PSoC4/BLE_wpts.c **** }
ARM GAS  C:\Users\Petro\AppData\Local\Temp\cca5nTbz.s 			page 17


 226              		.loc 1 686 0
 227              		@ sp needed
 228 0074 10BD     		pop	{r4, pc}
 229              	.L15:
 230 0076 C046     		.align	2
 231              	.L14:
 232 0078 00000000 		.word	.LANCHOR0
 233 007c 00000000 		.word	.LANCHOR1
 234 0080 00000000 		.word	cyBle_wptsc
 235 0084 00000000 		.word	cyBle_disCount
 236 0088 00000000 		.word	cyBle_serverInfo
 237              		.cfi_endproc
 238              	.LFE5:
 239              		.size	CyBle_WptscDiscoverCharacteristicsEventHandler, .-CyBle_WptscDiscoverCharacteristicsEventHan
 240              		.section	.text.CyBle_WptscDiscoverCharDescriptorsEventHandler,"ax",%progbits
 241              		.align	2
 242              		.global	CyBle_WptscDiscoverCharDescriptorsEventHandler
 243              		.code	16
 244              		.thumb_func
 245              		.type	CyBle_WptscDiscoverCharDescriptorsEventHandler, %function
 246              	CyBle_WptscDiscoverCharDescriptorsEventHandler:
 247              	.LFB6:
 687:.\Generated_Source\PSoC4/BLE_wpts.c **** 
 688:.\Generated_Source\PSoC4/BLE_wpts.c **** 
 689:.\Generated_Source\PSoC4/BLE_wpts.c **** /******************************************************************************
 690:.\Generated_Source\PSoC4/BLE_wpts.c **** * Function Name: CyBle_WptscDiscoverCharDescriptorsEventHandler
 691:.\Generated_Source\PSoC4/BLE_wpts.c **** ***************************************************************************//**
 692:.\Generated_Source\PSoC4/BLE_wpts.c **** * 
 693:.\Generated_Source\PSoC4/BLE_wpts.c **** *  This function is called on receiving a CYBLE_EVT_GATTC_FIND_INFO_RSP event.
 694:.\Generated_Source\PSoC4/BLE_wpts.c **** *  Based on the descriptor UUID, an appropriate data structure is populated using
 695:.\Generated_Source\PSoC4/BLE_wpts.c **** *  the data received as part of the callback.
 696:.\Generated_Source\PSoC4/BLE_wpts.c **** * 
 697:.\Generated_Source\PSoC4/BLE_wpts.c **** *  \param discDescrInfo: The pointer to a descriptor information structure.
 698:.\Generated_Source\PSoC4/BLE_wpts.c **** * 
 699:.\Generated_Source\PSoC4/BLE_wpts.c **** * \return
 700:.\Generated_Source\PSoC4/BLE_wpts.c **** *  None.
 701:.\Generated_Source\PSoC4/BLE_wpts.c **** * 
 702:.\Generated_Source\PSoC4/BLE_wpts.c **** ******************************************************************************/
 703:.\Generated_Source\PSoC4/BLE_wpts.c **** void CyBle_WptscDiscoverCharDescriptorsEventHandler(const CYBLE_DISC_DESCR_INFO_T *discDescrInfo)
 704:.\Generated_Source\PSoC4/BLE_wpts.c **** {
 248              		.loc 1 704 0
 249              		.cfi_startproc
 250              	.LVL8:
 705:.\Generated_Source\PSoC4/BLE_wpts.c ****     if(discDescrInfo->uuid.uuid16 == CYBLE_UUID_CHAR_CLIENT_CONFIG)
 251              		.loc 1 705 0
 252 0000 8288     		ldrh	r2, [r0, #4]
 253 0002 054B     		ldr	r3, .L18
 254 0004 9A42     		cmp	r2, r3
 255 0006 06D1     		bne	.L16
 706:.\Generated_Source\PSoC4/BLE_wpts.c ****     {
 707:.\Generated_Source\PSoC4/BLE_wpts.c ****         if(cyBle_wptsc.charInfo[CYBLE_WPTS_PRU_ALERT].descrHandle[CYBLE_WPTS_CCCD] ==
 256              		.loc 1 707 0
 257 0008 044B     		ldr	r3, .L18+4
 258 000a 5B8A     		ldrh	r3, [r3, #18]
 259 000c 002B     		cmp	r3, #0
 260 000e 02D1     		bne	.L16
 708:.\Generated_Source\PSoC4/BLE_wpts.c ****             CYBLE_GATT_INVALID_ATTR_HANDLE_VALUE)
ARM GAS  C:\Users\Petro\AppData\Local\Temp\cca5nTbz.s 			page 18


 709:.\Generated_Source\PSoC4/BLE_wpts.c ****         {
 710:.\Generated_Source\PSoC4/BLE_wpts.c ****             cyBle_wptsc.charInfo[CYBLE_WPTS_PRU_ALERT].descrHandle[CYBLE_WPTS_CCCD] = discDescrInfo
 261              		.loc 1 710 0
 262 0010 4288     		ldrh	r2, [r0, #2]
 263 0012 024B     		ldr	r3, .L18+4
 264 0014 5A82     		strh	r2, [r3, #18]
 265              	.L16:
 711:.\Generated_Source\PSoC4/BLE_wpts.c ****         }
 712:.\Generated_Source\PSoC4/BLE_wpts.c ****     }
 713:.\Generated_Source\PSoC4/BLE_wpts.c **** }
 266              		.loc 1 713 0
 267              		@ sp needed
 268 0016 7047     		bx	lr
 269              	.L19:
 270              		.align	2
 271              	.L18:
 272 0018 02290000 		.word	10498
 273 001c 00000000 		.word	cyBle_wptsc
 274              		.cfi_endproc
 275              	.LFE6:
 276              		.size	CyBle_WptscDiscoverCharDescriptorsEventHandler, .-CyBle_WptscDiscoverCharDescriptorsEventHan
 277              		.section	.text.CyBle_WptscNotificationEventHandler,"ax",%progbits
 278              		.align	2
 279              		.global	CyBle_WptscNotificationEventHandler
 280              		.code	16
 281              		.thumb_func
 282              		.type	CyBle_WptscNotificationEventHandler, %function
 283              	CyBle_WptscNotificationEventHandler:
 284              	.LFB7:
 714:.\Generated_Source\PSoC4/BLE_wpts.c **** 
 715:.\Generated_Source\PSoC4/BLE_wpts.c **** 
 716:.\Generated_Source\PSoC4/BLE_wpts.c **** /******************************************************************************
 717:.\Generated_Source\PSoC4/BLE_wpts.c **** * Function Name: CyBle_WptscNotificationEventHandler
 718:.\Generated_Source\PSoC4/BLE_wpts.c **** ***************************************************************************//**
 719:.\Generated_Source\PSoC4/BLE_wpts.c **** * 
 720:.\Generated_Source\PSoC4/BLE_wpts.c **** *  Handles notification event for Wireless Power Transfer Service.
 721:.\Generated_Source\PSoC4/BLE_wpts.c **** * 
 722:.\Generated_Source\PSoC4/BLE_wpts.c **** *  \param eventParam:  The pointer to the data structure specified by an event.
 723:.\Generated_Source\PSoC4/BLE_wpts.c **** * 
 724:.\Generated_Source\PSoC4/BLE_wpts.c **** * \return
 725:.\Generated_Source\PSoC4/BLE_wpts.c **** *  None.
 726:.\Generated_Source\PSoC4/BLE_wpts.c **** * 
 727:.\Generated_Source\PSoC4/BLE_wpts.c **** ******************************************************************************/
 728:.\Generated_Source\PSoC4/BLE_wpts.c **** void CyBle_WptscNotificationEventHandler(CYBLE_GATTC_HANDLE_VALUE_NTF_PARAM_T *eventParam)
 729:.\Generated_Source\PSoC4/BLE_wpts.c **** {
 285              		.loc 1 729 0
 286              		.cfi_startproc
 287              	.LVL9:
 288 0000 10B5     		push	{r4, lr}
 289              		.cfi_def_cfa_offset 8
 290              		.cfi_offset 4, -8
 291              		.cfi_offset 14, -4
 292 0002 82B0     		sub	sp, sp, #8
 293              		.cfi_def_cfa_offset 16
 730:.\Generated_Source\PSoC4/BLE_wpts.c ****     CYBLE_WPTS_CHAR_INDEX_T locCharIndex;
 731:.\Generated_Source\PSoC4/BLE_wpts.c ****     CYBLE_WPTS_CHAR_VALUE_T notifValue;
 732:.\Generated_Source\PSoC4/BLE_wpts.c **** 
ARM GAS  C:\Users\Petro\AppData\Local\Temp\cca5nTbz.s 			page 19


 733:.\Generated_Source\PSoC4/BLE_wpts.c ****     if(CyBle_WptsApplCallback != NULL)
 294              		.loc 1 733 0
 295 0004 114B     		ldr	r3, .L26
 296 0006 5C68     		ldr	r4, [r3, #4]
 297 0008 002C     		cmp	r4, #0
 298 000a 19D1     		bne	.L25
 299 000c 1BE0     		b	.L20
 300              	.LVL10:
 301              	.L24:
 734:.\Generated_Source\PSoC4/BLE_wpts.c ****     {
 735:.\Generated_Source\PSoC4/BLE_wpts.c ****         for(locCharIndex = CYBLE_WPTS_PRU_CONTROL; locCharIndex < CYBLE_WPTS_CHAR_COUNT; locCharInd
 736:.\Generated_Source\PSoC4/BLE_wpts.c ****         {
 737:.\Generated_Source\PSoC4/BLE_wpts.c ****             if(cyBle_wptsc.charInfo[locCharIndex].valueHandle == eventParam->handleValPair.attrHand
 302              		.loc 1 737 0
 303 000e DA00     		lsl	r2, r3, #3
 304 0010 0F49     		ldr	r1, .L26+4
 305 0012 8A18     		add	r2, r1, r2
 306 0014 9188     		ldrh	r1, [r2, #4]
 307 0016 8289     		ldrh	r2, [r0, #12]
 308 0018 9142     		cmp	r1, r2
 309 001a 0ED1     		bne	.L23
 738:.\Generated_Source\PSoC4/BLE_wpts.c ****             {
 739:.\Generated_Source\PSoC4/BLE_wpts.c ****                 notifValue.connHandle = eventParam->connHandle;
 310              		.loc 1 739 0
 311 001c 0288     		ldrh	r2, [r0]
 312 001e 6946     		mov	r1, sp
 313 0020 0A80     		strh	r2, [r1]
 740:.\Generated_Source\PSoC4/BLE_wpts.c ****                 notifValue.charIndex = locCharIndex;
 314              		.loc 1 740 0
 315 0022 8B70     		strb	r3, [r1, #2]
 741:.\Generated_Source\PSoC4/BLE_wpts.c ****                 notifValue.value = &eventParam->handleValPair.value;
 316              		.loc 1 741 0
 317 0024 0430     		add	r0, r0, #4
 318              	.LVL11:
 319 0026 0190     		str	r0, [sp, #4]
 742:.\Generated_Source\PSoC4/BLE_wpts.c ****                 CyBle_WptsApplCallback((uint32)CYBLE_EVT_WPTSC_NOTIFICATION, &notifValue);
 320              		.loc 1 742 0
 321 0028 F020     		mov	r0, #240
 322              	.LVL12:
 323 002a FF30     		add	r0, r0, #255
 324 002c A047     		blx	r4
 325              	.LVL13:
 743:.\Generated_Source\PSoC4/BLE_wpts.c ****                 cyBle_eventHandlerFlag &= (uint8)~CYBLE_CALLBACK;
 326              		.loc 1 743 0
 327 002e 094A     		ldr	r2, .L26+8
 328 0030 1378     		ldrb	r3, [r2]
 329 0032 0121     		mov	r1, #1
 330 0034 8B43     		bic	r3, r1
 331 0036 1370     		strb	r3, [r2]
 744:.\Generated_Source\PSoC4/BLE_wpts.c ****                 break;
 332              		.loc 1 744 0
 333 0038 05E0     		b	.L20
 334              	.LVL14:
 335              	.L23:
 735:.\Generated_Source\PSoC4/BLE_wpts.c ****         {
 336              		.loc 1 735 0 discriminator 2
 337 003a 0133     		add	r3, r3, #1
ARM GAS  C:\Users\Petro\AppData\Local\Temp\cca5nTbz.s 			page 20


 338              	.LVL15:
 339 003c DBB2     		uxtb	r3, r3
 340              	.LVL16:
 341 003e 00E0     		b	.L21
 342              	.LVL17:
 343              	.L25:
 344 0040 0023     		mov	r3, #0
 345              	.L21:
 346              	.LVL18:
 735:.\Generated_Source\PSoC4/BLE_wpts.c ****         {
 347              		.loc 1 735 0 is_stmt 0 discriminator 1
 348 0042 042B     		cmp	r3, #4
 349 0044 E3D9     		bls	.L24
 350              	.LVL19:
 351              	.L20:
 745:.\Generated_Source\PSoC4/BLE_wpts.c ****             }
 746:.\Generated_Source\PSoC4/BLE_wpts.c ****         }
 747:.\Generated_Source\PSoC4/BLE_wpts.c ****     }
 748:.\Generated_Source\PSoC4/BLE_wpts.c **** }
 352              		.loc 1 748 0 is_stmt 1
 353 0046 02B0     		add	sp, sp, #8
 354              		@ sp needed
 355 0048 10BD     		pop	{r4, pc}
 356              	.L27:
 357 004a C046     		.align	2
 358              	.L26:
 359 004c 00000000 		.word	.LANCHOR0
 360 0050 00000000 		.word	cyBle_wptsc
 361 0054 00000000 		.word	cyBle_eventHandlerFlag
 362              		.cfi_endproc
 363              	.LFE7:
 364              		.size	CyBle_WptscNotificationEventHandler, .-CyBle_WptscNotificationEventHandler
 365              		.section	.text.CyBle_WptscIndicationEventHandler,"ax",%progbits
 366              		.align	2
 367              		.global	CyBle_WptscIndicationEventHandler
 368              		.code	16
 369              		.thumb_func
 370              		.type	CyBle_WptscIndicationEventHandler, %function
 371              	CyBle_WptscIndicationEventHandler:
 372              	.LFB8:
 749:.\Generated_Source\PSoC4/BLE_wpts.c **** 
 750:.\Generated_Source\PSoC4/BLE_wpts.c **** 
 751:.\Generated_Source\PSoC4/BLE_wpts.c **** /******************************************************************************
 752:.\Generated_Source\PSoC4/BLE_wpts.c **** * Function Name: CyBle_WptscIndicationEventHandler
 753:.\Generated_Source\PSoC4/BLE_wpts.c **** ***************************************************************************//**
 754:.\Generated_Source\PSoC4/BLE_wpts.c **** * 
 755:.\Generated_Source\PSoC4/BLE_wpts.c **** *  Handles an indication event for Wireless Power Transfer Service.
 756:.\Generated_Source\PSoC4/BLE_wpts.c **** * 
 757:.\Generated_Source\PSoC4/BLE_wpts.c **** *  \param eventParam: The pointer to the data structure specified by an event.
 758:.\Generated_Source\PSoC4/BLE_wpts.c **** * 
 759:.\Generated_Source\PSoC4/BLE_wpts.c **** * \return
 760:.\Generated_Source\PSoC4/BLE_wpts.c **** *  None.
 761:.\Generated_Source\PSoC4/BLE_wpts.c **** * 
 762:.\Generated_Source\PSoC4/BLE_wpts.c **** ******************************************************************************/
 763:.\Generated_Source\PSoC4/BLE_wpts.c **** void CyBle_WptscIndicationEventHandler(CYBLE_GATTC_HANDLE_VALUE_IND_PARAM_T *eventParam)
 764:.\Generated_Source\PSoC4/BLE_wpts.c **** {
 373              		.loc 1 764 0
ARM GAS  C:\Users\Petro\AppData\Local\Temp\cca5nTbz.s 			page 21


 374              		.cfi_startproc
 375              	.LVL20:
 376 0000 10B5     		push	{r4, lr}
 377              		.cfi_def_cfa_offset 8
 378              		.cfi_offset 4, -8
 379              		.cfi_offset 14, -4
 380 0002 82B0     		sub	sp, sp, #8
 381              		.cfi_def_cfa_offset 16
 765:.\Generated_Source\PSoC4/BLE_wpts.c ****     CYBLE_WPTS_CHAR_INDEX_T locCharIndex;
 766:.\Generated_Source\PSoC4/BLE_wpts.c ****     CYBLE_WPTS_CHAR_VALUE_T indicationValue;
 767:.\Generated_Source\PSoC4/BLE_wpts.c **** 
 768:.\Generated_Source\PSoC4/BLE_wpts.c ****     if(CyBle_WptsApplCallback != NULL)
 382              		.loc 1 768 0
 383 0004 114B     		ldr	r3, .L34
 384 0006 5C68     		ldr	r4, [r3, #4]
 385 0008 002C     		cmp	r4, #0
 386 000a 19D1     		bne	.L33
 387 000c 1BE0     		b	.L28
 388              	.LVL21:
 389              	.L32:
 769:.\Generated_Source\PSoC4/BLE_wpts.c ****     {
 770:.\Generated_Source\PSoC4/BLE_wpts.c ****         for(locCharIndex = CYBLE_WPTS_PRU_CONTROL; locCharIndex < CYBLE_WPTS_CHAR_COUNT; locCharInd
 771:.\Generated_Source\PSoC4/BLE_wpts.c ****         {
 772:.\Generated_Source\PSoC4/BLE_wpts.c ****             if(cyBle_wptsc.charInfo[locCharIndex].valueHandle == eventParam->handleValPair.attrHand
 390              		.loc 1 772 0
 391 000e DA00     		lsl	r2, r3, #3
 392 0010 0F49     		ldr	r1, .L34+4
 393 0012 8A18     		add	r2, r1, r2
 394 0014 9188     		ldrh	r1, [r2, #4]
 395 0016 8289     		ldrh	r2, [r0, #12]
 396 0018 9142     		cmp	r1, r2
 397 001a 0ED1     		bne	.L31
 773:.\Generated_Source\PSoC4/BLE_wpts.c ****             {
 774:.\Generated_Source\PSoC4/BLE_wpts.c ****                 indicationValue.connHandle = eventParam->connHandle;
 398              		.loc 1 774 0
 399 001c 0288     		ldrh	r2, [r0]
 400 001e 6946     		mov	r1, sp
 401 0020 0A80     		strh	r2, [r1]
 775:.\Generated_Source\PSoC4/BLE_wpts.c ****                 indicationValue.charIndex = locCharIndex;
 402              		.loc 1 775 0
 403 0022 8B70     		strb	r3, [r1, #2]
 776:.\Generated_Source\PSoC4/BLE_wpts.c ****                 indicationValue.value = &eventParam->handleValPair.value;
 404              		.loc 1 776 0
 405 0024 0430     		add	r0, r0, #4
 406              	.LVL22:
 407 0026 0190     		str	r0, [sp, #4]
 777:.\Generated_Source\PSoC4/BLE_wpts.c ****                 CyBle_WptsApplCallback((uint32) CYBLE_EVT_WPTSC_INDICATION, &indicationValue);
 408              		.loc 1 777 0
 409 0028 F820     		mov	r0, #248
 410              	.LVL23:
 411 002a 4000     		lsl	r0, r0, #1
 412 002c A047     		blx	r4
 413              	.LVL24:
 778:.\Generated_Source\PSoC4/BLE_wpts.c ****                 cyBle_eventHandlerFlag &= (uint8) ~CYBLE_CALLBACK;
 414              		.loc 1 778 0
 415 002e 094A     		ldr	r2, .L34+8
 416 0030 1378     		ldrb	r3, [r2]
ARM GAS  C:\Users\Petro\AppData\Local\Temp\cca5nTbz.s 			page 22


 417 0032 0121     		mov	r1, #1
 418 0034 8B43     		bic	r3, r1
 419 0036 1370     		strb	r3, [r2]
 779:.\Generated_Source\PSoC4/BLE_wpts.c ****                 break;
 420              		.loc 1 779 0
 421 0038 05E0     		b	.L28
 422              	.LVL25:
 423              	.L31:
 770:.\Generated_Source\PSoC4/BLE_wpts.c ****         {
 424              		.loc 1 770 0 discriminator 2
 425 003a 0133     		add	r3, r3, #1
 426              	.LVL26:
 427 003c DBB2     		uxtb	r3, r3
 428              	.LVL27:
 429 003e 00E0     		b	.L29
 430              	.LVL28:
 431              	.L33:
 432 0040 0023     		mov	r3, #0
 433              	.L29:
 434              	.LVL29:
 770:.\Generated_Source\PSoC4/BLE_wpts.c ****         {
 435              		.loc 1 770 0 is_stmt 0 discriminator 1
 436 0042 042B     		cmp	r3, #4
 437 0044 E3D9     		bls	.L32
 438              	.LVL30:
 439              	.L28:
 780:.\Generated_Source\PSoC4/BLE_wpts.c ****             }
 781:.\Generated_Source\PSoC4/BLE_wpts.c ****         }
 782:.\Generated_Source\PSoC4/BLE_wpts.c ****     }
 783:.\Generated_Source\PSoC4/BLE_wpts.c **** }
 440              		.loc 1 783 0 is_stmt 1
 441 0046 02B0     		add	sp, sp, #8
 442              		@ sp needed
 443 0048 10BD     		pop	{r4, pc}
 444              	.L35:
 445 004a C046     		.align	2
 446              	.L34:
 447 004c 00000000 		.word	.LANCHOR0
 448 0050 00000000 		.word	cyBle_wptsc
 449 0054 00000000 		.word	cyBle_eventHandlerFlag
 450              		.cfi_endproc
 451              	.LFE8:
 452              		.size	CyBle_WptscIndicationEventHandler, .-CyBle_WptscIndicationEventHandler
 453              		.section	.text.CyBle_WptscReadResponseEventHandler,"ax",%progbits
 454              		.align	2
 455              		.global	CyBle_WptscReadResponseEventHandler
 456              		.code	16
 457              		.thumb_func
 458              		.type	CyBle_WptscReadResponseEventHandler, %function
 459              	CyBle_WptscReadResponseEventHandler:
 460              	.LFB9:
 784:.\Generated_Source\PSoC4/BLE_wpts.c **** 
 785:.\Generated_Source\PSoC4/BLE_wpts.c **** 
 786:.\Generated_Source\PSoC4/BLE_wpts.c **** /******************************************************************************
 787:.\Generated_Source\PSoC4/BLE_wpts.c **** * Function Name: CyBle_WptscReadResponseEventHandler
 788:.\Generated_Source\PSoC4/BLE_wpts.c **** ***************************************************************************//**
 789:.\Generated_Source\PSoC4/BLE_wpts.c **** * 
ARM GAS  C:\Users\Petro\AppData\Local\Temp\cca5nTbz.s 			page 23


 790:.\Generated_Source\PSoC4/BLE_wpts.c **** *  Handles a Read Response event for the Wireless Power Transfer Service.
 791:.\Generated_Source\PSoC4/BLE_wpts.c **** * 
 792:.\Generated_Source\PSoC4/BLE_wpts.c **** *  \param eventParam: The pointer to the data structure specified by an event.
 793:.\Generated_Source\PSoC4/BLE_wpts.c **** * 
 794:.\Generated_Source\PSoC4/BLE_wpts.c **** * \return
 795:.\Generated_Source\PSoC4/BLE_wpts.c **** *  None.
 796:.\Generated_Source\PSoC4/BLE_wpts.c **** * 
 797:.\Generated_Source\PSoC4/BLE_wpts.c **** ******************************************************************************/
 798:.\Generated_Source\PSoC4/BLE_wpts.c **** void CyBle_WptscReadResponseEventHandler(CYBLE_GATTC_READ_RSP_PARAM_T *eventParam)
 799:.\Generated_Source\PSoC4/BLE_wpts.c **** {
 461              		.loc 1 799 0
 462              		.cfi_startproc
 463              	.LVL31:
 464 0000 30B5     		push	{r4, r5, lr}
 465              		.cfi_def_cfa_offset 12
 466              		.cfi_offset 4, -12
 467              		.cfi_offset 5, -8
 468              		.cfi_offset 14, -4
 469 0002 83B0     		sub	sp, sp, #12
 470              		.cfi_def_cfa_offset 24
 471              	.LVL32:
 800:.\Generated_Source\PSoC4/BLE_wpts.c ****     uint8 locReqHandle = 0u;
 801:.\Generated_Source\PSoC4/BLE_wpts.c ****     CYBLE_WPTS_CHAR_INDEX_T locCharIndex;
 802:.\Generated_Source\PSoC4/BLE_wpts.c **** 
 803:.\Generated_Source\PSoC4/BLE_wpts.c ****     if((CyBle_WptsApplCallback != NULL) && (cyBle_wptscReqHandle != CYBLE_GATT_INVALID_ATTR_HANDLE_
 472              		.loc 1 803 0
 473 0004 254B     		ldr	r3, .L44
 474 0006 5B68     		ldr	r3, [r3, #4]
 475 0008 002B     		cmp	r3, #0
 476 000a 44D0     		beq	.L36
 477              		.loc 1 803 0 is_stmt 0 discriminator 1
 478 000c 234B     		ldr	r3, .L44
 479 000e 1B88     		ldrh	r3, [r3]
 480 0010 002B     		cmp	r3, #0
 481 0012 32D1     		bne	.L43
 482 0014 3FE0     		b	.L36
 483              	.LVL33:
 484              	.L42:
 804:.\Generated_Source\PSoC4/BLE_wpts.c ****     {
 805:.\Generated_Source\PSoC4/BLE_wpts.c ****         for(locCharIndex = CYBLE_WPTS_PRU_CONTROL; (locCharIndex < CYBLE_WPTS_CHAR_COUNT) && (locRe
 806:.\Generated_Source\PSoC4/BLE_wpts.c ****             locCharIndex++)
 807:.\Generated_Source\PSoC4/BLE_wpts.c ****         {
 808:.\Generated_Source\PSoC4/BLE_wpts.c ****             if(cyBle_wptscReqHandle == cyBle_wptsc.charInfo[locCharIndex].valueHandle)
 485              		.loc 1 808 0 is_stmt 1
 486 0016 E300     		lsl	r3, r4, #3
 487 0018 214A     		ldr	r2, .L44+4
 488 001a D318     		add	r3, r2, r3
 489 001c 9B88     		ldrh	r3, [r3, #4]
 490 001e 1F4A     		ldr	r2, .L44
 491 0020 1288     		ldrh	r2, [r2]
 492 0022 9342     		cmp	r3, r2
 493 0024 0FD1     		bne	.L39
 494              	.LBB3:
 809:.\Generated_Source\PSoC4/BLE_wpts.c ****             {
 810:.\Generated_Source\PSoC4/BLE_wpts.c ****                 CYBLE_WPTS_CHAR_VALUE_T locCharValue;
 811:.\Generated_Source\PSoC4/BLE_wpts.c **** 
 812:.\Generated_Source\PSoC4/BLE_wpts.c ****                 locCharValue.connHandle = eventParam->connHandle;
ARM GAS  C:\Users\Petro\AppData\Local\Temp\cca5nTbz.s 			page 24


 495              		.loc 1 812 0
 496 0026 2B88     		ldrh	r3, [r5]
 497 0028 6A46     		mov	r2, sp
 498 002a 1380     		strh	r3, [r2]
 813:.\Generated_Source\PSoC4/BLE_wpts.c ****                 locCharValue.charIndex = locCharIndex;
 499              		.loc 1 813 0
 500 002c 9470     		strb	r4, [r2, #2]
 814:.\Generated_Source\PSoC4/BLE_wpts.c ****                 locCharValue.value = &eventParam->value;
 501              		.loc 1 814 0
 502 002e 2B1D     		add	r3, r5, #4
 503 0030 0193     		str	r3, [sp, #4]
 815:.\Generated_Source\PSoC4/BLE_wpts.c ****                 cyBle_wptscReqHandle = CYBLE_GATT_INVALID_ATTR_HANDLE_VALUE;
 504              		.loc 1 815 0
 505 0032 1A4B     		ldr	r3, .L44
 506 0034 0022     		mov	r2, #0
 507 0036 1A80     		strh	r2, [r3]
 816:.\Generated_Source\PSoC4/BLE_wpts.c ****                 CyBle_WptsApplCallback((uint32) CYBLE_EVT_WPTSC_READ_CHAR_RESPONSE, &locCharValue);
 508              		.loc 1 816 0
 509 0038 5B68     		ldr	r3, [r3, #4]
 510 003a F920     		mov	r0, #249
 511 003c 4000     		lsl	r0, r0, #1
 512 003e 6946     		mov	r1, sp
 513              	.LVL34:
 514 0040 9847     		blx	r3
 515              	.LVL35:
 817:.\Generated_Source\PSoC4/BLE_wpts.c ****                 locReqHandle = 1u;
 516              		.loc 1 817 0
 517 0042 0121     		mov	r1, #1
 518              	.LBE3:
 519 0044 16E0     		b	.L40
 520              	.LVL36:
 521              	.L39:
 818:.\Generated_Source\PSoC4/BLE_wpts.c ****             }
 819:.\Generated_Source\PSoC4/BLE_wpts.c ****             else if(cyBle_wptscReqHandle == cyBle_wptsc.charInfo[locCharIndex].descrHandle[CYBLE_WP
 522              		.loc 1 819 0
 523 0046 E300     		lsl	r3, r4, #3
 524 0048 1548     		ldr	r0, .L44+4
 525 004a C318     		add	r3, r0, r3
 526 004c 5B88     		ldrh	r3, [r3, #2]
 527 004e 9A42     		cmp	r2, r3
 528 0050 10D1     		bne	.L40
 529              	.LBB4:
 820:.\Generated_Source\PSoC4/BLE_wpts.c ****             {
 821:.\Generated_Source\PSoC4/BLE_wpts.c ****                 CYBLE_WPTS_DESCR_VALUE_T locDescrValue;
 822:.\Generated_Source\PSoC4/BLE_wpts.c **** 
 823:.\Generated_Source\PSoC4/BLE_wpts.c ****                 locDescrValue.connHandle = eventParam->connHandle;
 530              		.loc 1 823 0
 531 0052 2B88     		ldrh	r3, [r5]
 532 0054 6A46     		mov	r2, sp
 533 0056 1380     		strh	r3, [r2]
 824:.\Generated_Source\PSoC4/BLE_wpts.c ****                 locDescrValue.charIndex = locCharIndex;
 534              		.loc 1 824 0
 535 0058 6B46     		mov	r3, sp
 536 005a 9470     		strb	r4, [r2, #2]
 825:.\Generated_Source\PSoC4/BLE_wpts.c ****                 locDescrValue.descrIndex = CYBLE_WPTS_CCCD;
 537              		.loc 1 825 0
 538 005c 0022     		mov	r2, #0
ARM GAS  C:\Users\Petro\AppData\Local\Temp\cca5nTbz.s 			page 25


 539 005e DA70     		strb	r2, [r3, #3]
 826:.\Generated_Source\PSoC4/BLE_wpts.c ****                 locDescrValue.value = &eventParam->value;
 540              		.loc 1 826 0
 541 0060 2B1D     		add	r3, r5, #4
 542 0062 0193     		str	r3, [sp, #4]
 827:.\Generated_Source\PSoC4/BLE_wpts.c ****                 cyBle_wptscReqHandle = CYBLE_GATT_INVALID_ATTR_HANDLE_VALUE;
 543              		.loc 1 827 0
 544 0064 0D4B     		ldr	r3, .L44
 545 0066 1A80     		strh	r2, [r3]
 828:.\Generated_Source\PSoC4/BLE_wpts.c ****                 CyBle_WptsApplCallback((uint32) CYBLE_EVT_WPTSC_READ_DESCR_RESPONSE, &locDescrValue
 546              		.loc 1 828 0
 547 0068 5B68     		ldr	r3, [r3, #4]
 548 006a F420     		mov	r0, #244
 549 006c FF30     		add	r0, r0, #255
 550 006e 6946     		mov	r1, sp
 551              	.LVL37:
 552 0070 9847     		blx	r3
 553              	.LVL38:
 829:.\Generated_Source\PSoC4/BLE_wpts.c ****                 locReqHandle = 1u;
 554              		.loc 1 829 0
 555 0072 0121     		mov	r1, #1
 556              	.LVL39:
 557              	.L40:
 558              	.LBE4:
 806:.\Generated_Source\PSoC4/BLE_wpts.c ****         {
 559              		.loc 1 806 0
 560 0074 0134     		add	r4, r4, #1
 561              	.LVL40:
 562 0076 E4B2     		uxtb	r4, r4
 563              	.LVL41:
 564 0078 02E0     		b	.L38
 565              	.LVL42:
 566              	.L43:
 567 007a 051C     		mov	r5, r0
 568 007c 0024     		mov	r4, #0
 569 007e 0021     		mov	r1, #0
 570              	.LVL43:
 571              	.L38:
 805:.\Generated_Source\PSoC4/BLE_wpts.c ****             locCharIndex++)
 572              		.loc 1 805 0 discriminator 1
 573 0080 042C     		cmp	r4, #4
 574 0082 01D8     		bhi	.L41
 805:.\Generated_Source\PSoC4/BLE_wpts.c ****             locCharIndex++)
 575              		.loc 1 805 0 is_stmt 0 discriminator 2
 576 0084 0029     		cmp	r1, #0
 577 0086 C6D0     		beq	.L42
 578              	.L41:
 830:.\Generated_Source\PSoC4/BLE_wpts.c ****             }
 831:.\Generated_Source\PSoC4/BLE_wpts.c ****             else /* No more descriptors available */
 832:.\Generated_Source\PSoC4/BLE_wpts.c ****             {
 833:.\Generated_Source\PSoC4/BLE_wpts.c ****             }
 834:.\Generated_Source\PSoC4/BLE_wpts.c ****         }
 835:.\Generated_Source\PSoC4/BLE_wpts.c ****         if(locReqHandle != 0u)
 579              		.loc 1 835 0 is_stmt 1
 580 0088 0029     		cmp	r1, #0
 581 008a 04D0     		beq	.L36
 836:.\Generated_Source\PSoC4/BLE_wpts.c ****         {
ARM GAS  C:\Users\Petro\AppData\Local\Temp\cca5nTbz.s 			page 26


 837:.\Generated_Source\PSoC4/BLE_wpts.c ****             cyBle_eventHandlerFlag &= (uint8)~CYBLE_CALLBACK;
 582              		.loc 1 837 0
 583 008c 054A     		ldr	r2, .L44+8
 584 008e 1378     		ldrb	r3, [r2]
 585 0090 0121     		mov	r1, #1
 586              	.LVL44:
 587 0092 8B43     		bic	r3, r1
 588 0094 1370     		strb	r3, [r2]
 589              	.LVL45:
 590              	.L36:
 838:.\Generated_Source\PSoC4/BLE_wpts.c ****         }
 839:.\Generated_Source\PSoC4/BLE_wpts.c ****     }
 840:.\Generated_Source\PSoC4/BLE_wpts.c **** }
 591              		.loc 1 840 0
 592 0096 03B0     		add	sp, sp, #12
 593              		@ sp needed
 594 0098 30BD     		pop	{r4, r5, pc}
 595              	.L45:
 596 009a C046     		.align	2
 597              	.L44:
 598 009c 00000000 		.word	.LANCHOR0
 599 00a0 00000000 		.word	cyBle_wptsc
 600 00a4 00000000 		.word	cyBle_eventHandlerFlag
 601              		.cfi_endproc
 602              	.LFE9:
 603              		.size	CyBle_WptscReadResponseEventHandler, .-CyBle_WptscReadResponseEventHandler
 604              		.section	.text.CyBle_WptscWriteResponseEventHandler,"ax",%progbits
 605              		.align	2
 606              		.global	CyBle_WptscWriteResponseEventHandler
 607              		.code	16
 608              		.thumb_func
 609              		.type	CyBle_WptscWriteResponseEventHandler, %function
 610              	CyBle_WptscWriteResponseEventHandler:
 611              	.LFB10:
 841:.\Generated_Source\PSoC4/BLE_wpts.c **** 
 842:.\Generated_Source\PSoC4/BLE_wpts.c **** 
 843:.\Generated_Source\PSoC4/BLE_wpts.c **** /******************************************************************************
 844:.\Generated_Source\PSoC4/BLE_wpts.c **** * Function Name: CyBle_WptscWriteResponseEventHandler
 845:.\Generated_Source\PSoC4/BLE_wpts.c **** ***************************************************************************//**
 846:.\Generated_Source\PSoC4/BLE_wpts.c **** * 
 847:.\Generated_Source\PSoC4/BLE_wpts.c **** *  Handles a Write Response event for the Wireless Power Transfer Service.
 848:.\Generated_Source\PSoC4/BLE_wpts.c **** * 
 849:.\Generated_Source\PSoC4/BLE_wpts.c **** *  \param eventParam: The pointer to a data structure specified by an event.
 850:.\Generated_Source\PSoC4/BLE_wpts.c **** * 
 851:.\Generated_Source\PSoC4/BLE_wpts.c **** * \return
 852:.\Generated_Source\PSoC4/BLE_wpts.c **** *  None.
 853:.\Generated_Source\PSoC4/BLE_wpts.c **** * 
 854:.\Generated_Source\PSoC4/BLE_wpts.c **** ******************************************************************************/
 855:.\Generated_Source\PSoC4/BLE_wpts.c **** void CyBle_WptscWriteResponseEventHandler(const CYBLE_CONN_HANDLE_T *eventParam)
 856:.\Generated_Source\PSoC4/BLE_wpts.c **** {
 612              		.loc 1 856 0
 613              		.cfi_startproc
 614              	.LVL46:
 615 0000 30B5     		push	{r4, r5, lr}
 616              		.cfi_def_cfa_offset 12
 617              		.cfi_offset 4, -12
 618              		.cfi_offset 5, -8
ARM GAS  C:\Users\Petro\AppData\Local\Temp\cca5nTbz.s 			page 27


 619              		.cfi_offset 14, -4
 620 0002 83B0     		sub	sp, sp, #12
 621              		.cfi_def_cfa_offset 24
 622              	.LVL47:
 857:.\Generated_Source\PSoC4/BLE_wpts.c ****     uint8 locReqHandle = 0u;
 858:.\Generated_Source\PSoC4/BLE_wpts.c ****     CYBLE_WPTS_CHAR_INDEX_T locCharIndex;
 859:.\Generated_Source\PSoC4/BLE_wpts.c **** 
 860:.\Generated_Source\PSoC4/BLE_wpts.c ****     /* Check if service handler was registered and request handle is valid */
 861:.\Generated_Source\PSoC4/BLE_wpts.c ****     if((CyBle_WptsApplCallback != NULL) && (cyBle_wptscReqHandle != CYBLE_GATT_INVALID_ATTR_HANDLE_
 623              		.loc 1 861 0
 624 0004 274B     		ldr	r3, .L54
 625 0006 5B68     		ldr	r3, [r3, #4]
 626 0008 002B     		cmp	r3, #0
 627 000a 48D0     		beq	.L46
 628              		.loc 1 861 0 is_stmt 0 discriminator 1
 629 000c 254B     		ldr	r3, .L54
 630 000e 1B88     		ldrh	r3, [r3]
 631 0010 002B     		cmp	r3, #0
 632 0012 36D1     		bne	.L53
 633 0014 43E0     		b	.L46
 634              	.LVL48:
 635              	.L52:
 862:.\Generated_Source\PSoC4/BLE_wpts.c ****     {
 863:.\Generated_Source\PSoC4/BLE_wpts.c ****         for(locCharIndex = CYBLE_WPTS_PRU_CONTROL; (locCharIndex < CYBLE_WPTS_CHAR_COUNT) && (locRe
 864:.\Generated_Source\PSoC4/BLE_wpts.c ****             locCharIndex++)
 865:.\Generated_Source\PSoC4/BLE_wpts.c ****         {
 866:.\Generated_Source\PSoC4/BLE_wpts.c ****             if(cyBle_wptscReqHandle == cyBle_wptsc.charInfo[locCharIndex].valueHandle)
 636              		.loc 1 866 0 is_stmt 1
 637 0016 E300     		lsl	r3, r4, #3
 638 0018 234A     		ldr	r2, .L54+4
 639 001a D318     		add	r3, r2, r3
 640 001c 9B88     		ldrh	r3, [r3, #4]
 641 001e 214A     		ldr	r2, .L54
 642 0020 1288     		ldrh	r2, [r2]
 643 0022 9342     		cmp	r3, r2
 644 0024 11D1     		bne	.L49
 645              	.LBB5:
 867:.\Generated_Source\PSoC4/BLE_wpts.c ****             {
 868:.\Generated_Source\PSoC4/BLE_wpts.c ****                 CYBLE_WPTS_CHAR_VALUE_T locCharValue;
 869:.\Generated_Source\PSoC4/BLE_wpts.c **** 
 870:.\Generated_Source\PSoC4/BLE_wpts.c ****                 locCharValue.connHandle = *eventParam;
 646              		.loc 1 870 0
 647 0026 6846     		mov	r0, sp
 648 0028 291C     		mov	r1, r5
 649              	.LVL49:
 650 002a 0222     		mov	r2, #2
 651 002c FFF7FEFF 		bl	memcpy
 652              	.LVL50:
 871:.\Generated_Source\PSoC4/BLE_wpts.c ****                 locCharValue.charIndex = locCharIndex;
 653              		.loc 1 871 0
 654 0030 6B46     		mov	r3, sp
 655 0032 9C70     		strb	r4, [r3, #2]
 872:.\Generated_Source\PSoC4/BLE_wpts.c ****                 locCharValue.value = NULL;
 656              		.loc 1 872 0
 657 0034 0022     		mov	r2, #0
 658 0036 0192     		str	r2, [sp, #4]
 873:.\Generated_Source\PSoC4/BLE_wpts.c ****                 cyBle_wptscReqHandle = CYBLE_GATT_INVALID_ATTR_HANDLE_VALUE;
ARM GAS  C:\Users\Petro\AppData\Local\Temp\cca5nTbz.s 			page 28


 659              		.loc 1 873 0
 660 0038 1A4B     		ldr	r3, .L54
 661 003a 1A80     		strh	r2, [r3]
 874:.\Generated_Source\PSoC4/BLE_wpts.c ****                 CyBle_WptsApplCallback((uint32) CYBLE_EVT_WPTSC_WRITE_CHAR_RESPONSE, &locCharValue)
 662              		.loc 1 874 0
 663 003c 5B68     		ldr	r3, [r3, #4]
 664 003e F220     		mov	r0, #242
 665 0040 FF30     		add	r0, r0, #255
 666 0042 6946     		mov	r1, sp
 667 0044 9847     		blx	r3
 668              	.LVL51:
 875:.\Generated_Source\PSoC4/BLE_wpts.c ****                 locReqHandle = 1u;
 669              		.loc 1 875 0
 670 0046 0121     		mov	r1, #1
 671              	.LBE5:
 672 0048 18E0     		b	.L50
 673              	.LVL52:
 674              	.L49:
 876:.\Generated_Source\PSoC4/BLE_wpts.c ****             }
 877:.\Generated_Source\PSoC4/BLE_wpts.c ****             else if(cyBle_wptscReqHandle == cyBle_wptsc.charInfo[locCharIndex].descrHandle[CYBLE_WP
 675              		.loc 1 877 0
 676 004a E300     		lsl	r3, r4, #3
 677 004c 1648     		ldr	r0, .L54+4
 678 004e C318     		add	r3, r0, r3
 679 0050 5B88     		ldrh	r3, [r3, #2]
 680 0052 9A42     		cmp	r2, r3
 681 0054 12D1     		bne	.L50
 682              	.LBB6:
 878:.\Generated_Source\PSoC4/BLE_wpts.c ****             {
 879:.\Generated_Source\PSoC4/BLE_wpts.c ****                 CYBLE_WPTS_DESCR_VALUE_T locDescrValue;
 880:.\Generated_Source\PSoC4/BLE_wpts.c **** 
 881:.\Generated_Source\PSoC4/BLE_wpts.c ****                 locDescrValue.connHandle = *eventParam;
 683              		.loc 1 881 0
 684 0056 6846     		mov	r0, sp
 685 0058 291C     		mov	r1, r5
 686              	.LVL53:
 687 005a 0222     		mov	r2, #2
 688 005c FFF7FEFF 		bl	memcpy
 689              	.LVL54:
 882:.\Generated_Source\PSoC4/BLE_wpts.c ****                 locDescrValue.charIndex = locCharIndex;
 690              		.loc 1 882 0
 691 0060 6B46     		mov	r3, sp
 692 0062 9C70     		strb	r4, [r3, #2]
 883:.\Generated_Source\PSoC4/BLE_wpts.c ****                 locDescrValue.descrIndex = CYBLE_WPTS_CCCD;
 693              		.loc 1 883 0
 694 0064 0023     		mov	r3, #0
 695 0066 6A46     		mov	r2, sp
 696 0068 D370     		strb	r3, [r2, #3]
 884:.\Generated_Source\PSoC4/BLE_wpts.c ****                 locDescrValue.value = NULL;
 697              		.loc 1 884 0
 698 006a 0193     		str	r3, [sp, #4]
 885:.\Generated_Source\PSoC4/BLE_wpts.c ****                 cyBle_wptscReqHandle = CYBLE_GATT_INVALID_ATTR_HANDLE_VALUE;
 699              		.loc 1 885 0
 700 006c 0D4A     		ldr	r2, .L54
 701 006e 1380     		strh	r3, [r2]
 886:.\Generated_Source\PSoC4/BLE_wpts.c ****                 CyBle_WptsApplCallback((uint32) CYBLE_EVT_WPTSC_WRITE_DESCR_RESPONSE, &locDescrValu
 702              		.loc 1 886 0
ARM GAS  C:\Users\Petro\AppData\Local\Temp\cca5nTbz.s 			page 29


 703 0070 5368     		ldr	r3, [r2, #4]
 704 0072 FA20     		mov	r0, #250
 705 0074 4000     		lsl	r0, r0, #1
 706 0076 6946     		mov	r1, sp
 707 0078 9847     		blx	r3
 708              	.LVL55:
 887:.\Generated_Source\PSoC4/BLE_wpts.c ****                 locReqHandle = 1u;
 709              		.loc 1 887 0
 710 007a 0121     		mov	r1, #1
 711              	.LVL56:
 712              	.L50:
 713              	.LBE6:
 864:.\Generated_Source\PSoC4/BLE_wpts.c ****         {
 714              		.loc 1 864 0
 715 007c 0134     		add	r4, r4, #1
 716              	.LVL57:
 717 007e E4B2     		uxtb	r4, r4
 718              	.LVL58:
 719 0080 02E0     		b	.L48
 720              	.LVL59:
 721              	.L53:
 722 0082 051C     		mov	r5, r0
 723 0084 0024     		mov	r4, #0
 724 0086 0021     		mov	r1, #0
 725              	.LVL60:
 726              	.L48:
 863:.\Generated_Source\PSoC4/BLE_wpts.c ****             locCharIndex++)
 727              		.loc 1 863 0 discriminator 1
 728 0088 042C     		cmp	r4, #4
 729 008a 01D8     		bhi	.L51
 863:.\Generated_Source\PSoC4/BLE_wpts.c ****             locCharIndex++)
 730              		.loc 1 863 0 is_stmt 0 discriminator 2
 731 008c 0029     		cmp	r1, #0
 732 008e C2D0     		beq	.L52
 733              	.L51:
 888:.\Generated_Source\PSoC4/BLE_wpts.c ****             }
 889:.\Generated_Source\PSoC4/BLE_wpts.c ****             else /* No more descriptors available */
 890:.\Generated_Source\PSoC4/BLE_wpts.c ****             {
 891:.\Generated_Source\PSoC4/BLE_wpts.c ****             }
 892:.\Generated_Source\PSoC4/BLE_wpts.c ****         }
 893:.\Generated_Source\PSoC4/BLE_wpts.c ****         if(locReqHandle != 0u)
 734              		.loc 1 893 0 is_stmt 1
 735 0090 0029     		cmp	r1, #0
 736 0092 04D0     		beq	.L46
 894:.\Generated_Source\PSoC4/BLE_wpts.c ****         {
 895:.\Generated_Source\PSoC4/BLE_wpts.c ****             cyBle_eventHandlerFlag &= (uint8)~CYBLE_CALLBACK;
 737              		.loc 1 895 0
 738 0094 054A     		ldr	r2, .L54+8
 739 0096 1378     		ldrb	r3, [r2]
 740 0098 0121     		mov	r1, #1
 741              	.LVL61:
 742 009a 8B43     		bic	r3, r1
 743 009c 1370     		strb	r3, [r2]
 744              	.LVL62:
 745              	.L46:
 896:.\Generated_Source\PSoC4/BLE_wpts.c ****         }
 897:.\Generated_Source\PSoC4/BLE_wpts.c ****     }
ARM GAS  C:\Users\Petro\AppData\Local\Temp\cca5nTbz.s 			page 30


 898:.\Generated_Source\PSoC4/BLE_wpts.c **** }
 746              		.loc 1 898 0
 747 009e 03B0     		add	sp, sp, #12
 748              		@ sp needed
 749 00a0 30BD     		pop	{r4, r5, pc}
 750              	.L55:
 751 00a2 C046     		.align	2
 752              	.L54:
 753 00a4 00000000 		.word	.LANCHOR0
 754 00a8 00000000 		.word	cyBle_wptsc
 755 00ac 00000000 		.word	cyBle_eventHandlerFlag
 756              		.cfi_endproc
 757              	.LFE10:
 758              		.size	CyBle_WptscWriteResponseEventHandler, .-CyBle_WptscWriteResponseEventHandler
 759              		.section	.text.CyBle_WptscErrorResponseEventHandler,"ax",%progbits
 760              		.align	2
 761              		.global	CyBle_WptscErrorResponseEventHandler
 762              		.code	16
 763              		.thumb_func
 764              		.type	CyBle_WptscErrorResponseEventHandler, %function
 765              	CyBle_WptscErrorResponseEventHandler:
 766              	.LFB11:
 899:.\Generated_Source\PSoC4/BLE_wpts.c **** 
 900:.\Generated_Source\PSoC4/BLE_wpts.c **** 
 901:.\Generated_Source\PSoC4/BLE_wpts.c **** /******************************************************************************
 902:.\Generated_Source\PSoC4/BLE_wpts.c **** * Function Name: CyBle_WptscErrorResponseEventHandler
 903:.\Generated_Source\PSoC4/BLE_wpts.c **** ***************************************************************************//**
 904:.\Generated_Source\PSoC4/BLE_wpts.c **** * 
 905:.\Generated_Source\PSoC4/BLE_wpts.c **** *  Handles an Error Response event for the Wireless Power Transfer Service.
 906:.\Generated_Source\PSoC4/BLE_wpts.c **** * 
 907:.\Generated_Source\PSoC4/BLE_wpts.c **** *  \param eventParam: The pointer to a data structure specified by an event.
 908:.\Generated_Source\PSoC4/BLE_wpts.c **** * 
 909:.\Generated_Source\PSoC4/BLE_wpts.c **** * \return
 910:.\Generated_Source\PSoC4/BLE_wpts.c **** *  None.
 911:.\Generated_Source\PSoC4/BLE_wpts.c **** * 
 912:.\Generated_Source\PSoC4/BLE_wpts.c **** ******************************************************************************/
 913:.\Generated_Source\PSoC4/BLE_wpts.c **** void CyBle_WptscErrorResponseEventHandler(const CYBLE_GATTC_ERR_RSP_PARAM_T *eventParam)
 914:.\Generated_Source\PSoC4/BLE_wpts.c **** {
 767              		.loc 1 914 0
 768              		.cfi_startproc
 769              	.LVL63:
 915:.\Generated_Source\PSoC4/BLE_wpts.c ****     if((eventParam != NULL) && (eventParam->attrHandle == cyBle_wptscReqHandle))
 770              		.loc 1 915 0
 771 0000 0028     		cmp	r0, #0
 772 0002 07D0     		beq	.L56
 773              		.loc 1 915 0 is_stmt 0 discriminator 1
 774 0004 8288     		ldrh	r2, [r0, #4]
 775 0006 044B     		ldr	r3, .L58
 776 0008 1B88     		ldrh	r3, [r3]
 777 000a 9A42     		cmp	r2, r3
 778 000c 02D1     		bne	.L56
 916:.\Generated_Source\PSoC4/BLE_wpts.c ****     {
 917:.\Generated_Source\PSoC4/BLE_wpts.c ****         cyBle_wptscReqHandle = CYBLE_GATT_INVALID_ATTR_HANDLE_VALUE;
 779              		.loc 1 917 0 is_stmt 1
 780 000e 0022     		mov	r2, #0
 781 0010 014B     		ldr	r3, .L58
 782 0012 1A80     		strh	r2, [r3]
ARM GAS  C:\Users\Petro\AppData\Local\Temp\cca5nTbz.s 			page 31


 783              	.L56:
 918:.\Generated_Source\PSoC4/BLE_wpts.c ****     }
 919:.\Generated_Source\PSoC4/BLE_wpts.c **** }
 784              		.loc 1 919 0
 785              		@ sp needed
 786 0014 7047     		bx	lr
 787              	.L59:
 788 0016 C046     		.align	2
 789              	.L58:
 790 0018 00000000 		.word	.LANCHOR0
 791              		.cfi_endproc
 792              	.LFE11:
 793              		.size	CyBle_WptscErrorResponseEventHandler, .-CyBle_WptscErrorResponseEventHandler
 794              		.section	.text.CyBle_WptscSetCharacteristicValue,"ax",%progbits
 795              		.align	2
 796              		.global	CyBle_WptscSetCharacteristicValue
 797              		.code	16
 798              		.thumb_func
 799              		.type	CyBle_WptscSetCharacteristicValue, %function
 800              	CyBle_WptscSetCharacteristicValue:
 801              	.LFB12:
 920:.\Generated_Source\PSoC4/BLE_wpts.c **** 
 921:.\Generated_Source\PSoC4/BLE_wpts.c **** 
 922:.\Generated_Source\PSoC4/BLE_wpts.c **** /******************************************************************************
 923:.\Generated_Source\PSoC4/BLE_wpts.c **** * Function Name: CyBle_WptscSetCharacteristicValue
 924:.\Generated_Source\PSoC4/BLE_wpts.c **** ***************************************************************************//**
 925:.\Generated_Source\PSoC4/BLE_wpts.c **** * 
 926:.\Generated_Source\PSoC4/BLE_wpts.c **** *  Sends a request to set a characteristic value of the service, which is a value
 927:.\Generated_Source\PSoC4/BLE_wpts.c **** *  identified by charIndex, to the server device.
 928:.\Generated_Source\PSoC4/BLE_wpts.c **** * 
 929:.\Generated_Source\PSoC4/BLE_wpts.c **** *  \param connHandle:      The connection handle.
 930:.\Generated_Source\PSoC4/BLE_wpts.c **** *  \param charIndex:       The index of a service characteristic of type
 931:.\Generated_Source\PSoC4/BLE_wpts.c **** *                   CYBLE_WPTS_CHAR_INDEX_T.
 932:.\Generated_Source\PSoC4/BLE_wpts.c **** *  \param attrSize:        The size of the characteristic value attribute.
 933:.\Generated_Source\PSoC4/BLE_wpts.c **** *  \param attrValue:      The pointer to the characteristic value data that
 934:.\Generated_Source\PSoC4/BLE_wpts.c **** *                   should be send to the server device.
 935:.\Generated_Source\PSoC4/BLE_wpts.c **** * 
 936:.\Generated_Source\PSoC4/BLE_wpts.c **** * \return
 937:.\Generated_Source\PSoC4/BLE_wpts.c **** *  Return value is of type CYBLE_API_RESULT_T.
 938:.\Generated_Source\PSoC4/BLE_wpts.c **** *  * CYBLE_ERROR_OK - The request was sent successfully
 939:.\Generated_Source\PSoC4/BLE_wpts.c **** *  * CYBLE_ERROR_INVALID_PARAMETER - Validation of the input parameters failed
 940:.\Generated_Source\PSoC4/BLE_wpts.c **** *  * CYBLE_ERROR_MEMORY_ALLOCATION_FAILED - Memory allocation failed
 941:.\Generated_Source\PSoC4/BLE_wpts.c **** *  * CYBLE_ERROR_INVALID_STATE - Connection with the server is not established
 942:.\Generated_Source\PSoC4/BLE_wpts.c **** *  * CYBLE_ERROR_GATT_DB_INVALID_ATTR_HANDLE - The peer device doesn't have
 943:.\Generated_Source\PSoC4/BLE_wpts.c **** *                                               the particular characteristic
 944:.\Generated_Source\PSoC4/BLE_wpts.c **** *  * CYBLE_ERROR_INVALID_OPERATION - Operation is invalid for this
 945:.\Generated_Source\PSoC4/BLE_wpts.c **** *                                     characteristic
 946:.\Generated_Source\PSoC4/BLE_wpts.c **** *
 947:.\Generated_Source\PSoC4/BLE_wpts.c **** * \events
 948:.\Generated_Source\PSoC4/BLE_wpts.c **** *  In case of successful execution (return value = CYBLE_ERROR_OK)
 949:.\Generated_Source\PSoC4/BLE_wpts.c **** *  the next events can appear: \n
 950:.\Generated_Source\PSoC4/BLE_wpts.c **** *   If the WPTS service-specific callback is registered 
 951:.\Generated_Source\PSoC4/BLE_wpts.c **** *      (with CyBle_WptsRegisterAttrCallback):
 952:.\Generated_Source\PSoC4/BLE_wpts.c **** *  * CYBLE_EVT_WPTSC_WRITE_CHAR_RESPONSE - in case if the requested attribute is
 953:.\Generated_Source\PSoC4/BLE_wpts.c **** *                                successfully wrote on the peer device,
 954:.\Generated_Source\PSoC4/BLE_wpts.c **** *                                the details (char index, etc.) are 
 955:.\Generated_Source\PSoC4/BLE_wpts.c **** *                                provided with event parameter structure
ARM GAS  C:\Users\Petro\AppData\Local\Temp\cca5nTbz.s 			page 32


 956:.\Generated_Source\PSoC4/BLE_wpts.c **** *                                of type CYBLE_WPTS_CHAR_VALUE_T.
 957:.\Generated_Source\PSoC4/BLE_wpts.c **** *  .
 958:.\Generated_Source\PSoC4/BLE_wpts.c **** *   Otherwise (if the WPTS service-specific callback is not registered):
 959:.\Generated_Source\PSoC4/BLE_wpts.c **** *  * CYBLE_EVT_GATTC_WRITE_RSP - in case if the requested attribute is 
 960:.\Generated_Source\PSoC4/BLE_wpts.c **** *                                successfully wrote on the peer device.
 961:.\Generated_Source\PSoC4/BLE_wpts.c **** *  * CYBLE_EVT_GATTC_ERROR_RSP - in case if there some trouble with the 
 962:.\Generated_Source\PSoC4/BLE_wpts.c **** *                                requested attribute on the peer device,
 963:.\Generated_Source\PSoC4/BLE_wpts.c **** *                                the details are provided with event parameters 
 964:.\Generated_Source\PSoC4/BLE_wpts.c **** *                                structure (CYBLE_GATTC_ERR_RSP_PARAM_T).
 965:.\Generated_Source\PSoC4/BLE_wpts.c **** *
 966:.\Generated_Source\PSoC4/BLE_wpts.c **** ******************************************************************************/
 967:.\Generated_Source\PSoC4/BLE_wpts.c **** CYBLE_API_RESULT_T CyBle_WptscSetCharacteristicValue(CYBLE_CONN_HANDLE_T connHandle, CYBLE_WPTS_CHA
 968:.\Generated_Source\PSoC4/BLE_wpts.c ****     uint8 attrSize, uint8 * attrValue)
 969:.\Generated_Source\PSoC4/BLE_wpts.c **** {
 802              		.loc 1 969 0
 803              		.cfi_startproc
 804              	.LVL64:
 805 0000 10B5     		push	{r4, lr}
 806              		.cfi_def_cfa_offset 8
 807              		.cfi_offset 4, -8
 808              		.cfi_offset 14, -4
 809 0002 86B0     		sub	sp, sp, #24
 810              		.cfi_def_cfa_offset 32
 811 0004 01AC     		add	r4, sp, #4
 812 0006 2080     		strh	r0, [r4]
 970:.\Generated_Source\PSoC4/BLE_wpts.c ****     CYBLE_API_RESULT_T apiResult;
 971:.\Generated_Source\PSoC4/BLE_wpts.c ****     CYBLE_GATT_HANDLE_VALUE_PAIR_T writeReqParam;
 972:.\Generated_Source\PSoC4/BLE_wpts.c **** 
 973:.\Generated_Source\PSoC4/BLE_wpts.c ****     if(CyBle_GetClientState() != CYBLE_CLIENT_STATE_DISCOVERED)
 813              		.loc 1 973 0
 814 0008 1048     		ldr	r0, .L65
 815 000a 0078     		ldrb	r0, [r0]
 816 000c 0528     		cmp	r0, #5
 817 000e 15D1     		bne	.L62
 974:.\Generated_Source\PSoC4/BLE_wpts.c ****     {
 975:.\Generated_Source\PSoC4/BLE_wpts.c ****         apiResult = CYBLE_ERROR_INVALID_STATE;
 976:.\Generated_Source\PSoC4/BLE_wpts.c ****     }
 977:.\Generated_Source\PSoC4/BLE_wpts.c ****     else if(charIndex >= CYBLE_WPTS_CHAR_COUNT)
 818              		.loc 1 977 0
 819 0010 0429     		cmp	r1, #4
 820 0012 16D8     		bhi	.L63
 978:.\Generated_Source\PSoC4/BLE_wpts.c ****     {
 979:.\Generated_Source\PSoC4/BLE_wpts.c ****         apiResult = CYBLE_ERROR_INVALID_PARAMETER;
 980:.\Generated_Source\PSoC4/BLE_wpts.c ****     }
 981:.\Generated_Source\PSoC4/BLE_wpts.c ****     else if(cyBle_wptsc.charInfo[charIndex].valueHandle != CYBLE_GATT_INVALID_ATTR_HANDLE_VALUE)
 821              		.loc 1 981 0
 822 0014 C900     		lsl	r1, r1, #3
 823              	.LVL65:
 824 0016 0E48     		ldr	r0, .L65+4
 825 0018 4118     		add	r1, r0, r1
 826 001a 8888     		ldrh	r0, [r1, #4]
 827 001c 0028     		cmp	r0, #0
 828 001e 12D0     		beq	.L64
 982:.\Generated_Source\PSoC4/BLE_wpts.c ****     {
 983:.\Generated_Source\PSoC4/BLE_wpts.c ****         writeReqParam.attrHandle = cyBle_wptsc.charInfo[charIndex].valueHandle;
 829              		.loc 1 983 0
 830 0020 03A9     		add	r1, sp, #12
ARM GAS  C:\Users\Petro\AppData\Local\Temp\cca5nTbz.s 			page 33


 831 0022 0881     		strh	r0, [r1, #8]
 984:.\Generated_Source\PSoC4/BLE_wpts.c ****         writeReqParam.value.val = attrValue;
 832              		.loc 1 984 0
 833 0024 0393     		str	r3, [sp, #12]
 985:.\Generated_Source\PSoC4/BLE_wpts.c ****         writeReqParam.value.len = attrSize;
 834              		.loc 1 985 0
 835 0026 8A80     		strh	r2, [r1, #4]
 986:.\Generated_Source\PSoC4/BLE_wpts.c **** 
 987:.\Generated_Source\PSoC4/BLE_wpts.c ****         apiResult = CyBle_GattcWriteCharacteristicValue(connHandle, &writeReqParam);
 836              		.loc 1 987 0
 837 0028 0198     		ldr	r0, [sp, #4]
 838 002a FFF7FEFF 		bl	CyBle_GattcWriteCharacteristicValue
 839              	.LVL66:
 988:.\Generated_Source\PSoC4/BLE_wpts.c ****         /* Save handle to support service specific write response from device */
 989:.\Generated_Source\PSoC4/BLE_wpts.c ****         if(apiResult == CYBLE_ERROR_OK)
 840              		.loc 1 989 0
 841 002e 0028     		cmp	r0, #0
 842 0030 0AD1     		bne	.L61
 990:.\Generated_Source\PSoC4/BLE_wpts.c ****         {
 991:.\Generated_Source\PSoC4/BLE_wpts.c ****             cyBle_wptscReqHandle = writeReqParam.attrHandle;
 843              		.loc 1 991 0
 844 0032 03AB     		add	r3, sp, #12
 845 0034 1A89     		ldrh	r2, [r3, #8]
 846 0036 074B     		ldr	r3, .L65+8
 847 0038 1A80     		strh	r2, [r3]
 848 003a 05E0     		b	.L61
 849              	.LVL67:
 850              	.L62:
 975:.\Generated_Source\PSoC4/BLE_wpts.c ****     }
 851              		.loc 1 975 0
 852 003c 0420     		mov	r0, #4
 853 003e FF30     		add	r0, r0, #255
 854 0040 02E0     		b	.L61
 855              	.L63:
 979:.\Generated_Source\PSoC4/BLE_wpts.c ****     }
 856              		.loc 1 979 0
 857 0042 0120     		mov	r0, #1
 858 0044 00E0     		b	.L61
 859              	.LVL68:
 860              	.L64:
 992:.\Generated_Source\PSoC4/BLE_wpts.c ****         }
 993:.\Generated_Source\PSoC4/BLE_wpts.c ****     }
 994:.\Generated_Source\PSoC4/BLE_wpts.c ****     else
 995:.\Generated_Source\PSoC4/BLE_wpts.c ****     {
 996:.\Generated_Source\PSoC4/BLE_wpts.c ****         apiResult = CYBLE_ERROR_GATT_DB_INVALID_ATTR_HANDLE;
 861              		.loc 1 996 0
 862 0046 1320     		mov	r0, #19
 863              	.LVL69:
 864              	.L61:
 997:.\Generated_Source\PSoC4/BLE_wpts.c ****     }
 998:.\Generated_Source\PSoC4/BLE_wpts.c **** 
 999:.\Generated_Source\PSoC4/BLE_wpts.c ****     return (apiResult);
1000:.\Generated_Source\PSoC4/BLE_wpts.c **** }
 865              		.loc 1 1000 0
 866 0048 06B0     		add	sp, sp, #24
 867              		@ sp needed
 868 004a 10BD     		pop	{r4, pc}
ARM GAS  C:\Users\Petro\AppData\Local\Temp\cca5nTbz.s 			page 34


 869              	.L66:
 870              		.align	2
 871              	.L65:
 872 004c 00000000 		.word	cyBle_clientState
 873 0050 00000000 		.word	cyBle_wptsc
 874 0054 00000000 		.word	.LANCHOR0
 875              		.cfi_endproc
 876              	.LFE12:
 877              		.size	CyBle_WptscSetCharacteristicValue, .-CyBle_WptscSetCharacteristicValue
 878              		.section	.text.CyBle_WptscGetCharacteristicValue,"ax",%progbits
 879              		.align	2
 880              		.global	CyBle_WptscGetCharacteristicValue
 881              		.code	16
 882              		.thumb_func
 883              		.type	CyBle_WptscGetCharacteristicValue, %function
 884              	CyBle_WptscGetCharacteristicValue:
 885              	.LFB13:
1001:.\Generated_Source\PSoC4/BLE_wpts.c **** 
1002:.\Generated_Source\PSoC4/BLE_wpts.c **** 
1003:.\Generated_Source\PSoC4/BLE_wpts.c **** /******************************************************************************
1004:.\Generated_Source\PSoC4/BLE_wpts.c **** * Function Name: CyBle_WptscGetCharacteristicValue
1005:.\Generated_Source\PSoC4/BLE_wpts.c **** ***************************************************************************//**
1006:.\Generated_Source\PSoC4/BLE_wpts.c **** * 
1007:.\Generated_Source\PSoC4/BLE_wpts.c **** *  This function is used to read a characteristic value, which is a value
1008:.\Generated_Source\PSoC4/BLE_wpts.c **** *  identified by charIndex, from the server.
1009:.\Generated_Source\PSoC4/BLE_wpts.c **** * 
1010:.\Generated_Source\PSoC4/BLE_wpts.c **** *  \param connHandle:      The connection handle.
1011:.\Generated_Source\PSoC4/BLE_wpts.c **** *  \param charIndex:       The index of a service characteristic of type
1012:.\Generated_Source\PSoC4/BLE_wpts.c **** *                   CYBLE_WPTS_CHAR_INDEX_T.
1013:.\Generated_Source\PSoC4/BLE_wpts.c **** * 
1014:.\Generated_Source\PSoC4/BLE_wpts.c **** * \return
1015:.\Generated_Source\PSoC4/BLE_wpts.c **** *  Return value is of type CYBLE_API_RESULT_T.
1016:.\Generated_Source\PSoC4/BLE_wpts.c **** *  * CYBLE_ERROR_OK - The read request was sent successfully.
1017:.\Generated_Source\PSoC4/BLE_wpts.c **** *  * CYBLE_ERROR_INVALID_PARAMETER - Validation of the input parameters failed.
1018:.\Generated_Source\PSoC4/BLE_wpts.c **** *  * CYBLE_ERROR_GATT_DB_INVALID_ATTR_HANDLE - The peer device doesn't have
1019:.\Generated_Source\PSoC4/BLE_wpts.c **** *                                              the particular characteristic.
1020:.\Generated_Source\PSoC4/BLE_wpts.c **** *  * CYBLE_ERROR_MEMORY_ALLOCATION_FAILED - Memory allocation failed.
1021:.\Generated_Source\PSoC4/BLE_wpts.c **** *  * CYBLE_ERROR_INVALID_STATE - Connection with the server is not established.
1022:.\Generated_Source\PSoC4/BLE_wpts.c **** *  * CYBLE_ERROR_INVALID_OPERATION - Operation is invalid for this
1023:.\Generated_Source\PSoC4/BLE_wpts.c **** *                                    characteristic.
1024:.\Generated_Source\PSoC4/BLE_wpts.c **** *
1025:.\Generated_Source\PSoC4/BLE_wpts.c **** * \events
1026:.\Generated_Source\PSoC4/BLE_wpts.c **** *  In case of successful execution (return value = CYBLE_ERROR_OK)
1027:.\Generated_Source\PSoC4/BLE_wpts.c **** *  the next events can appear: \n
1028:.\Generated_Source\PSoC4/BLE_wpts.c **** *   If the WPTS service-specific callback is registered 
1029:.\Generated_Source\PSoC4/BLE_wpts.c **** *      (with CyBle_WptsRegisterAttrCallback):
1030:.\Generated_Source\PSoC4/BLE_wpts.c **** *  * CYBLE_EVT_WPTSC_READ_CHAR_RESPONSE - in case if the requested attribute is
1031:.\Generated_Source\PSoC4/BLE_wpts.c **** *                                successfully wrote on the peer device,
1032:.\Generated_Source\PSoC4/BLE_wpts.c **** *                                the details (char index , value, etc.) are 
1033:.\Generated_Source\PSoC4/BLE_wpts.c **** *                                provided with event parameter structure
1034:.\Generated_Source\PSoC4/BLE_wpts.c **** *                                of type CYBLE_WPTS_CHAR_VALUE_T.
1035:.\Generated_Source\PSoC4/BLE_wpts.c **** *  .
1036:.\Generated_Source\PSoC4/BLE_wpts.c **** *   Otherwise (if the WPTS service-specific callback is not registered):
1037:.\Generated_Source\PSoC4/BLE_wpts.c **** *  * CYBLE_EVT_GATTC_READ_RSP - in case if the requested attribute is 
1038:.\Generated_Source\PSoC4/BLE_wpts.c **** *                                successfully read on the peer device,
1039:.\Generated_Source\PSoC4/BLE_wpts.c **** *                                the details (handle, value, etc.) are 
1040:.\Generated_Source\PSoC4/BLE_wpts.c **** *                                provided with event parameters 
ARM GAS  C:\Users\Petro\AppData\Local\Temp\cca5nTbz.s 			page 35


1041:.\Generated_Source\PSoC4/BLE_wpts.c **** *                                structure (CYBLE_GATTC_READ_RSP_PARAM_T).
1042:.\Generated_Source\PSoC4/BLE_wpts.c **** *  * CYBLE_EVT_GATTC_ERROR_RSP - in case if there some trouble with the 
1043:.\Generated_Source\PSoC4/BLE_wpts.c **** *                                requested attribute on the peer device,
1044:.\Generated_Source\PSoC4/BLE_wpts.c **** *                                the details are provided with event parameters 
1045:.\Generated_Source\PSoC4/BLE_wpts.c **** *                                structure (CYBLE_GATTC_ERR_RSP_PARAM_T).
1046:.\Generated_Source\PSoC4/BLE_wpts.c **** *
1047:.\Generated_Source\PSoC4/BLE_wpts.c **** ******************************************************************************/
1048:.\Generated_Source\PSoC4/BLE_wpts.c **** CYBLE_API_RESULT_T CyBle_WptscGetCharacteristicValue(CYBLE_CONN_HANDLE_T connHandle, CYBLE_WPTS_CHA
1049:.\Generated_Source\PSoC4/BLE_wpts.c **** {
 886              		.loc 1 1049 0
 887              		.cfi_startproc
 888              	.LVL70:
 889 0000 10B5     		push	{r4, lr}
 890              		.cfi_def_cfa_offset 8
 891              		.cfi_offset 4, -8
 892              		.cfi_offset 14, -4
 893 0002 82B0     		sub	sp, sp, #8
 894              		.cfi_def_cfa_offset 16
 895 0004 01AB     		add	r3, sp, #4
 896 0006 1880     		strh	r0, [r3]
1050:.\Generated_Source\PSoC4/BLE_wpts.c ****     CYBLE_API_RESULT_T apiResult;
1051:.\Generated_Source\PSoC4/BLE_wpts.c **** 
1052:.\Generated_Source\PSoC4/BLE_wpts.c ****     if(CyBle_GetClientState() != CYBLE_CLIENT_STATE_DISCOVERED)
 897              		.loc 1 1052 0
 898 0008 104B     		ldr	r3, .L72
 899 000a 1B78     		ldrb	r3, [r3]
 900 000c 052B     		cmp	r3, #5
 901 000e 15D1     		bne	.L69
1053:.\Generated_Source\PSoC4/BLE_wpts.c ****     {
1054:.\Generated_Source\PSoC4/BLE_wpts.c ****         apiResult = CYBLE_ERROR_INVALID_STATE;
1055:.\Generated_Source\PSoC4/BLE_wpts.c ****     }
1056:.\Generated_Source\PSoC4/BLE_wpts.c ****     else if(charIndex >= CYBLE_WPTS_CHAR_COUNT)
 902              		.loc 1 1056 0
 903 0010 0429     		cmp	r1, #4
 904 0012 16D8     		bhi	.L70
1057:.\Generated_Source\PSoC4/BLE_wpts.c ****     {
1058:.\Generated_Source\PSoC4/BLE_wpts.c ****         apiResult = CYBLE_ERROR_INVALID_PARAMETER;
1059:.\Generated_Source\PSoC4/BLE_wpts.c ****     }
1060:.\Generated_Source\PSoC4/BLE_wpts.c ****     else if(cyBle_wptsc.charInfo[charIndex].valueHandle != CYBLE_GATT_INVALID_ATTR_HANDLE_VALUE)
 905              		.loc 1 1060 0
 906 0014 CB00     		lsl	r3, r1, #3
 907 0016 0E4A     		ldr	r2, .L72+4
 908 0018 D318     		add	r3, r2, r3
 909 001a 9B88     		ldrh	r3, [r3, #4]
 910 001c 002B     		cmp	r3, #0
 911 001e 12D0     		beq	.L71
 912 0020 0C1C     		mov	r4, r1
1061:.\Generated_Source\PSoC4/BLE_wpts.c ****     {
1062:.\Generated_Source\PSoC4/BLE_wpts.c ****         apiResult = CyBle_GattcReadCharacteristicValue(connHandle, cyBle_wptsc.charInfo[charIndex].
 913              		.loc 1 1062 0
 914 0022 0198     		ldr	r0, [sp, #4]
 915 0024 191C     		mov	r1, r3
 916              	.LVL71:
 917 0026 FFF7FEFF 		bl	CyBle_GattcReadCharacteristicValue
 918              	.LVL72:
1063:.\Generated_Source\PSoC4/BLE_wpts.c **** 
1064:.\Generated_Source\PSoC4/BLE_wpts.c ****         /* Save handle to support service specific read response from device */
ARM GAS  C:\Users\Petro\AppData\Local\Temp\cca5nTbz.s 			page 36


1065:.\Generated_Source\PSoC4/BLE_wpts.c ****         if(apiResult == CYBLE_ERROR_OK)
 919              		.loc 1 1065 0
 920 002a 0028     		cmp	r0, #0
 921 002c 0CD1     		bne	.L68
1066:.\Generated_Source\PSoC4/BLE_wpts.c ****         {
1067:.\Generated_Source\PSoC4/BLE_wpts.c ****             cyBle_wptscReqHandle = cyBle_wptsc.charInfo[charIndex].valueHandle;
 922              		.loc 1 1067 0
 923 002e E100     		lsl	r1, r4, #3
 924 0030 074C     		ldr	r4, .L72+4
 925 0032 6118     		add	r1, r4, r1
 926 0034 8A88     		ldrh	r2, [r1, #4]
 927 0036 074B     		ldr	r3, .L72+8
 928 0038 1A80     		strh	r2, [r3]
 929 003a 05E0     		b	.L68
 930              	.LVL73:
 931              	.L69:
1054:.\Generated_Source\PSoC4/BLE_wpts.c ****     }
 932              		.loc 1 1054 0
 933 003c 0420     		mov	r0, #4
 934 003e FF30     		add	r0, r0, #255
 935 0040 02E0     		b	.L68
 936              	.L70:
1058:.\Generated_Source\PSoC4/BLE_wpts.c ****     }
 937              		.loc 1 1058 0
 938 0042 0120     		mov	r0, #1
 939 0044 00E0     		b	.L68
 940              	.L71:
1068:.\Generated_Source\PSoC4/BLE_wpts.c ****         }
1069:.\Generated_Source\PSoC4/BLE_wpts.c ****     }
1070:.\Generated_Source\PSoC4/BLE_wpts.c ****     else
1071:.\Generated_Source\PSoC4/BLE_wpts.c ****     {
1072:.\Generated_Source\PSoC4/BLE_wpts.c ****         apiResult = CYBLE_ERROR_GATT_DB_INVALID_ATTR_HANDLE;
 941              		.loc 1 1072 0
 942 0046 1320     		mov	r0, #19
 943              	.LVL74:
 944              	.L68:
1073:.\Generated_Source\PSoC4/BLE_wpts.c ****     }
1074:.\Generated_Source\PSoC4/BLE_wpts.c **** 
1075:.\Generated_Source\PSoC4/BLE_wpts.c ****     return (apiResult);
1076:.\Generated_Source\PSoC4/BLE_wpts.c **** }
 945              		.loc 1 1076 0
 946 0048 02B0     		add	sp, sp, #8
 947              		@ sp needed
 948 004a 10BD     		pop	{r4, pc}
 949              	.L73:
 950              		.align	2
 951              	.L72:
 952 004c 00000000 		.word	cyBle_clientState
 953 0050 00000000 		.word	cyBle_wptsc
 954 0054 00000000 		.word	.LANCHOR0
 955              		.cfi_endproc
 956              	.LFE13:
 957              		.size	CyBle_WptscGetCharacteristicValue, .-CyBle_WptscGetCharacteristicValue
 958              		.section	.text.CyBle_WptscSetCharacteristicDescriptor,"ax",%progbits
 959              		.align	2
 960              		.global	CyBle_WptscSetCharacteristicDescriptor
 961              		.code	16
ARM GAS  C:\Users\Petro\AppData\Local\Temp\cca5nTbz.s 			page 37


 962              		.thumb_func
 963              		.type	CyBle_WptscSetCharacteristicDescriptor, %function
 964              	CyBle_WptscSetCharacteristicDescriptor:
 965              	.LFB14:
1077:.\Generated_Source\PSoC4/BLE_wpts.c **** 
1078:.\Generated_Source\PSoC4/BLE_wpts.c **** 
1079:.\Generated_Source\PSoC4/BLE_wpts.c **** /******************************************************************************
1080:.\Generated_Source\PSoC4/BLE_wpts.c **** * Function Name: CyBle_WptscSetCharacteristicDescriptor
1081:.\Generated_Source\PSoC4/BLE_wpts.c **** ***************************************************************************//**
1082:.\Generated_Source\PSoC4/BLE_wpts.c **** * 
1083:.\Generated_Source\PSoC4/BLE_wpts.c **** *  This function is used to write the characteristic descriptor to the server,
1084:.\Generated_Source\PSoC4/BLE_wpts.c **** *  which is identified by charIndex and descrIndex.
1085:.\Generated_Source\PSoC4/BLE_wpts.c **** * 
1086:.\Generated_Source\PSoC4/BLE_wpts.c **** *  \param connHandle:      The connection handle.
1087:.\Generated_Source\PSoC4/BLE_wpts.c **** *  \param charIndex:       The index of a service characteristic of type
1088:.\Generated_Source\PSoC4/BLE_wpts.c **** *                   CYBLE_WPTS_CHAR_INDEX_T.
1089:.\Generated_Source\PSoC4/BLE_wpts.c **** *  \param descrIndex:      The index of a service characteristic descriptor of type
1090:.\Generated_Source\PSoC4/BLE_wpts.c **** *                   CYBLE_WPTS_DESCR_INDEX_T.
1091:.\Generated_Source\PSoC4/BLE_wpts.c **** *  \param attrSize:        The size of the characteristic value attribute.
1092:.\Generated_Source\PSoC4/BLE_wpts.c **** *  \param attrValue:      The pointer to the characteristic descriptor value data that
1093:.\Generated_Source\PSoC4/BLE_wpts.c **** *                   should be sent to the server device.
1094:.\Generated_Source\PSoC4/BLE_wpts.c **** * 
1095:.\Generated_Source\PSoC4/BLE_wpts.c **** * \return
1096:.\Generated_Source\PSoC4/BLE_wpts.c **** *  A return value is of type CYBLE_API_RESULT_T.
1097:.\Generated_Source\PSoC4/BLE_wpts.c **** *  * CYBLE_ERROR_OK - The request was sent successfully.
1098:.\Generated_Source\PSoC4/BLE_wpts.c **** *  * CYBLE_ERROR_INVALID_PARAMETER - Validation of the input parameters failed.
1099:.\Generated_Source\PSoC4/BLE_wpts.c **** *  * CYBLE_ERROR_INVALID_STATE - The state is not valid.
1100:.\Generated_Source\PSoC4/BLE_wpts.c **** *  * CYBLE_ERROR_MEMORY_ALLOCATION_FAILED - Memory allocation failed.
1101:.\Generated_Source\PSoC4/BLE_wpts.c **** *  * CYBLE_ERROR_INVALID_OPERATION - This operation is not permitted on
1102:.\Generated_Source\PSoC4/BLE_wpts.c **** *                                    the specified attribute.
1103:.\Generated_Source\PSoC4/BLE_wpts.c **** *
1104:.\Generated_Source\PSoC4/BLE_wpts.c **** * \events
1105:.\Generated_Source\PSoC4/BLE_wpts.c **** *  In case of successful execution (return value = CYBLE_ERROR_OK)
1106:.\Generated_Source\PSoC4/BLE_wpts.c **** *  the next events can appear: \n
1107:.\Generated_Source\PSoC4/BLE_wpts.c **** *   If the WPTS service-specific callback is registered 
1108:.\Generated_Source\PSoC4/BLE_wpts.c **** *      (with CyBle_WptsRegisterAttrCallback):
1109:.\Generated_Source\PSoC4/BLE_wpts.c **** *  * CYBLE_EVT_WPTSC_WRITE_DESCR_RESPONSE - in case if the requested attribute is
1110:.\Generated_Source\PSoC4/BLE_wpts.c **** *                                successfully wrote on the peer device,
1111:.\Generated_Source\PSoC4/BLE_wpts.c **** *                                the details (char index, descr index etc.) are 
1112:.\Generated_Source\PSoC4/BLE_wpts.c **** *                                provided with event parameter structure
1113:.\Generated_Source\PSoC4/BLE_wpts.c **** *                                of type CYBLE_WPTS_DESCR_VALUE_T.
1114:.\Generated_Source\PSoC4/BLE_wpts.c **** *  .
1115:.\Generated_Source\PSoC4/BLE_wpts.c **** *   Otherwise (if the WPTS service-specific callback is not registered):
1116:.\Generated_Source\PSoC4/BLE_wpts.c **** *  * CYBLE_EVT_GATTC_WRITE_RSP - in case if the requested attribute is 
1117:.\Generated_Source\PSoC4/BLE_wpts.c **** *                                successfully wrote on the peer device.
1118:.\Generated_Source\PSoC4/BLE_wpts.c **** *  * CYBLE_EVT_GATTC_ERROR_RSP - in case if there some trouble with the 
1119:.\Generated_Source\PSoC4/BLE_wpts.c **** *                                requested attribute on the peer device,
1120:.\Generated_Source\PSoC4/BLE_wpts.c **** *                                the details are provided with event parameters 
1121:.\Generated_Source\PSoC4/BLE_wpts.c **** *                                structure (CYBLE_GATTC_ERR_RSP_PARAM_T).
1122:.\Generated_Source\PSoC4/BLE_wpts.c **** *
1123:.\Generated_Source\PSoC4/BLE_wpts.c **** ******************************************************************************/
1124:.\Generated_Source\PSoC4/BLE_wpts.c **** CYBLE_API_RESULT_T CyBle_WptscSetCharacteristicDescriptor(CYBLE_CONN_HANDLE_T connHandle,
1125:.\Generated_Source\PSoC4/BLE_wpts.c ****     CYBLE_WPTS_CHAR_INDEX_T charIndex, CYBLE_WPTS_DESCR_INDEX_T descrIndex, uint8 attrSize, uint8 *
1126:.\Generated_Source\PSoC4/BLE_wpts.c **** {
 966              		.loc 1 1126 0
 967              		.cfi_startproc
 968              	.LVL75:
ARM GAS  C:\Users\Petro\AppData\Local\Temp\cca5nTbz.s 			page 38


 969 0000 10B5     		push	{r4, lr}
 970              		.cfi_def_cfa_offset 8
 971              		.cfi_offset 4, -8
 972              		.cfi_offset 14, -4
 973 0002 86B0     		sub	sp, sp, #24
 974              		.cfi_def_cfa_offset 32
 975 0004 01AC     		add	r4, sp, #4
 976 0006 2080     		strh	r0, [r4]
1127:.\Generated_Source\PSoC4/BLE_wpts.c ****     CYBLE_API_RESULT_T apiResult;
1128:.\Generated_Source\PSoC4/BLE_wpts.c ****     CYBLE_GATTC_WRITE_REQ_T writeReqParam;
1129:.\Generated_Source\PSoC4/BLE_wpts.c **** 
1130:.\Generated_Source\PSoC4/BLE_wpts.c ****     if(CyBle_GetClientState() != CYBLE_CLIENT_STATE_DISCOVERED)
 977              		.loc 1 1130 0
 978 0008 1248     		ldr	r0, .L79
 979 000a 0078     		ldrb	r0, [r0]
 980 000c 0528     		cmp	r0, #5
 981 000e 18D1     		bne	.L76
1131:.\Generated_Source\PSoC4/BLE_wpts.c ****     {
1132:.\Generated_Source\PSoC4/BLE_wpts.c ****         apiResult = CYBLE_ERROR_INVALID_STATE;
1133:.\Generated_Source\PSoC4/BLE_wpts.c ****     }
1134:.\Generated_Source\PSoC4/BLE_wpts.c ****     else if((charIndex >= CYBLE_WPTS_CHAR_COUNT) || (descrIndex >= CYBLE_WPTS_DESCR_COUNT))
 982              		.loc 1 1134 0
 983 0010 0429     		cmp	r1, #4
 984 0012 19D8     		bhi	.L77
 985              		.loc 1 1134 0 is_stmt 0 discriminator 1
 986 0014 002A     		cmp	r2, #0
 987 0016 19D1     		bne	.L78
1135:.\Generated_Source\PSoC4/BLE_wpts.c ****     {
1136:.\Generated_Source\PSoC4/BLE_wpts.c ****         apiResult = CYBLE_ERROR_INVALID_PARAMETER;
1137:.\Generated_Source\PSoC4/BLE_wpts.c ****     }
1138:.\Generated_Source\PSoC4/BLE_wpts.c ****     else
1139:.\Generated_Source\PSoC4/BLE_wpts.c ****     {
1140:.\Generated_Source\PSoC4/BLE_wpts.c ****         /* Fill all fields of write request structure ... */
1141:.\Generated_Source\PSoC4/BLE_wpts.c ****         writeReqParam.attrHandle = cyBle_wptsc.charInfo[charIndex].descrHandle[descrIndex];
 988              		.loc 1 1141 0 is_stmt 1
 989 0018 8900     		lsl	r1, r1, #2
 990              	.LVL76:
 991 001a 8A18     		add	r2, r1, r2
 992              	.LVL77:
 993 001c 5200     		lsl	r2, r2, #1
 994 001e 0E49     		ldr	r1, .L79+4
 995 0020 8A18     		add	r2, r1, r2
 996 0022 5288     		ldrh	r2, [r2, #2]
 997 0024 03A9     		add	r1, sp, #12
 998 0026 0A81     		strh	r2, [r1, #8]
1142:.\Generated_Source\PSoC4/BLE_wpts.c ****         writeReqParam.value.val = attrValue;
 999              		.loc 1 1142 0
 1000 0028 089A     		ldr	r2, [sp, #32]
 1001 002a 0392     		str	r2, [sp, #12]
1143:.\Generated_Source\PSoC4/BLE_wpts.c ****         writeReqParam.value.len = attrSize;
 1002              		.loc 1 1143 0
 1003 002c 8B80     		strh	r3, [r1, #4]
1144:.\Generated_Source\PSoC4/BLE_wpts.c **** 
1145:.\Generated_Source\PSoC4/BLE_wpts.c ****         /* ... and send request to server's device. */
1146:.\Generated_Source\PSoC4/BLE_wpts.c ****         apiResult = CyBle_GattcWriteCharacteristicDescriptors(connHandle, &writeReqParam);
 1004              		.loc 1 1146 0
 1005 002e 0198     		ldr	r0, [sp, #4]
ARM GAS  C:\Users\Petro\AppData\Local\Temp\cca5nTbz.s 			page 39


 1006 0030 FFF7FEFF 		bl	CyBle_GattcWriteCharacteristicDescriptors
 1007              	.LVL78:
1147:.\Generated_Source\PSoC4/BLE_wpts.c **** 
1148:.\Generated_Source\PSoC4/BLE_wpts.c ****         /* Save handle to support service specific read response from device */
1149:.\Generated_Source\PSoC4/BLE_wpts.c ****         if(apiResult == CYBLE_ERROR_OK)
 1008              		.loc 1 1149 0
 1009 0034 0028     		cmp	r0, #0
 1010 0036 0AD1     		bne	.L75
1150:.\Generated_Source\PSoC4/BLE_wpts.c ****         {
1151:.\Generated_Source\PSoC4/BLE_wpts.c ****             cyBle_wptscReqHandle = writeReqParam.attrHandle;
 1011              		.loc 1 1151 0
 1012 0038 03AB     		add	r3, sp, #12
 1013 003a 1A89     		ldrh	r2, [r3, #8]
 1014 003c 074B     		ldr	r3, .L79+8
 1015 003e 1A80     		strh	r2, [r3]
 1016 0040 05E0     		b	.L75
 1017              	.LVL79:
 1018              	.L76:
1132:.\Generated_Source\PSoC4/BLE_wpts.c ****     }
 1019              		.loc 1 1132 0
 1020 0042 0420     		mov	r0, #4
 1021 0044 FF30     		add	r0, r0, #255
 1022 0046 02E0     		b	.L75
 1023              	.L77:
1136:.\Generated_Source\PSoC4/BLE_wpts.c ****     }
 1024              		.loc 1 1136 0
 1025 0048 0120     		mov	r0, #1
 1026 004a 00E0     		b	.L75
 1027              	.L78:
 1028 004c 0120     		mov	r0, #1
 1029              	.LVL80:
 1030              	.L75:
1152:.\Generated_Source\PSoC4/BLE_wpts.c ****         }
1153:.\Generated_Source\PSoC4/BLE_wpts.c ****     }
1154:.\Generated_Source\PSoC4/BLE_wpts.c **** 
1155:.\Generated_Source\PSoC4/BLE_wpts.c ****     return (apiResult);
1156:.\Generated_Source\PSoC4/BLE_wpts.c **** }
 1031              		.loc 1 1156 0
 1032 004e 06B0     		add	sp, sp, #24
 1033              		@ sp needed
 1034 0050 10BD     		pop	{r4, pc}
 1035              	.L80:
 1036 0052 C046     		.align	2
 1037              	.L79:
 1038 0054 00000000 		.word	cyBle_clientState
 1039 0058 00000000 		.word	cyBle_wptsc
 1040 005c 00000000 		.word	.LANCHOR0
 1041              		.cfi_endproc
 1042              	.LFE14:
 1043              		.size	CyBle_WptscSetCharacteristicDescriptor, .-CyBle_WptscSetCharacteristicDescriptor
 1044              		.section	.text.CyBle_WptscGetCharacteristicDescriptor,"ax",%progbits
 1045              		.align	2
 1046              		.global	CyBle_WptscGetCharacteristicDescriptor
 1047              		.code	16
 1048              		.thumb_func
 1049              		.type	CyBle_WptscGetCharacteristicDescriptor, %function
 1050              	CyBle_WptscGetCharacteristicDescriptor:
ARM GAS  C:\Users\Petro\AppData\Local\Temp\cca5nTbz.s 			page 40


 1051              	.LFB15:
1157:.\Generated_Source\PSoC4/BLE_wpts.c **** 
1158:.\Generated_Source\PSoC4/BLE_wpts.c **** 
1159:.\Generated_Source\PSoC4/BLE_wpts.c **** /******************************************************************************
1160:.\Generated_Source\PSoC4/BLE_wpts.c **** * Function Name: CyBle_WptscGetCharacteristicDescriptor
1161:.\Generated_Source\PSoC4/BLE_wpts.c **** ***************************************************************************//**
1162:.\Generated_Source\PSoC4/BLE_wpts.c **** * 
1163:.\Generated_Source\PSoC4/BLE_wpts.c **** *  Sends a request to get the characteristic descriptor of the specified
1164:.\Generated_Source\PSoC4/BLE_wpts.c **** *  characteristic of the service.
1165:.\Generated_Source\PSoC4/BLE_wpts.c **** * 
1166:.\Generated_Source\PSoC4/BLE_wpts.c **** *  \param connHandle:      The connection handle.
1167:.\Generated_Source\PSoC4/BLE_wpts.c **** *  \param charIndex:       The index of a service characteristic of type
1168:.\Generated_Source\PSoC4/BLE_wpts.c **** *                   CYBLE_WPTS_CHAR_INDEX_T.
1169:.\Generated_Source\PSoC4/BLE_wpts.c **** *  \param descrIndex:      The index of a service characteristic descriptor of type
1170:.\Generated_Source\PSoC4/BLE_wpts.c **** *                   CYBLE_WPTS_DESCR_INDEX_T.
1171:.\Generated_Source\PSoC4/BLE_wpts.c **** * 
1172:.\Generated_Source\PSoC4/BLE_wpts.c **** * \return
1173:.\Generated_Source\PSoC4/BLE_wpts.c **** *  * CYBLE_ERROR_OK - The request was sent successfully.
1174:.\Generated_Source\PSoC4/BLE_wpts.c **** *  * CYBLE_ERROR_INVALID_PARAMETER - Validation of the input parameters failed.
1175:.\Generated_Source\PSoC4/BLE_wpts.c **** *  * CYBLE_ERROR_INVALID_STATE - The state is not valid.
1176:.\Generated_Source\PSoC4/BLE_wpts.c **** *  * CYBLE_ERROR_MEMORY_ALLOCATION_FAILED - Memory allocation failed.
1177:.\Generated_Source\PSoC4/BLE_wpts.c **** *  * CYBLE_ERROR_INVALID_OPERATION - This operation is not permitted on
1178:.\Generated_Source\PSoC4/BLE_wpts.c **** *                                     the specified attribute.
1179:.\Generated_Source\PSoC4/BLE_wpts.c **** *
1180:.\Generated_Source\PSoC4/BLE_wpts.c **** * \events
1181:.\Generated_Source\PSoC4/BLE_wpts.c **** *  In case of successful execution (return value = CYBLE_ERROR_OK)
1182:.\Generated_Source\PSoC4/BLE_wpts.c **** *  the next events can appear: \n
1183:.\Generated_Source\PSoC4/BLE_wpts.c **** *  If the WPTS service-specific callback is registered 
1184:.\Generated_Source\PSoC4/BLE_wpts.c **** *      (with CyBle_WptsRegisterAttrCallback):
1185:.\Generated_Source\PSoC4/BLE_wpts.c **** *  * CYBLE_EVT_WPTSC_READ_DESCR_RESPONSE - in case if the requested attribute is
1186:.\Generated_Source\PSoC4/BLE_wpts.c **** *                                successfully wrote on the peer device,
1187:.\Generated_Source\PSoC4/BLE_wpts.c **** *                                the details (char index, descr index, value, etc.) 
1188:.\Generated_Source\PSoC4/BLE_wpts.c **** *                                are provided with event parameter structure
1189:.\Generated_Source\PSoC4/BLE_wpts.c **** *                                of type CYBLE_WPTS_DESCR_VALUE_T. 
1190:.\Generated_Source\PSoC4/BLE_wpts.c **** *  .
1191:.\Generated_Source\PSoC4/BLE_wpts.c **** *  Otherwise (if the WPTS service-specific callback is not registered):
1192:.\Generated_Source\PSoC4/BLE_wpts.c **** *  * CYBLE_EVT_GATTC_READ_RSP - in case if the requested attribute is 
1193:.\Generated_Source\PSoC4/BLE_wpts.c **** *                                successfully read on the peer device,
1194:.\Generated_Source\PSoC4/BLE_wpts.c **** *                                the details (handle, value, etc.) are 
1195:.\Generated_Source\PSoC4/BLE_wpts.c **** *                                provided with event parameters 
1196:.\Generated_Source\PSoC4/BLE_wpts.c **** *                                structure (CYBLE_GATTC_READ_RSP_PARAM_T).
1197:.\Generated_Source\PSoC4/BLE_wpts.c **** *  * CYBLE_EVT_GATTC_ERROR_RSP - in case if there some trouble with the 
1198:.\Generated_Source\PSoC4/BLE_wpts.c **** *                                requested attribute on the peer device,
1199:.\Generated_Source\PSoC4/BLE_wpts.c **** *                                the details are provided with event parameters 
1200:.\Generated_Source\PSoC4/BLE_wpts.c **** *                                structure (CYBLE_GATTC_ERR_RSP_PARAM_T).
1201:.\Generated_Source\PSoC4/BLE_wpts.c **** *
1202:.\Generated_Source\PSoC4/BLE_wpts.c **** ******************************************************************************/
1203:.\Generated_Source\PSoC4/BLE_wpts.c **** CYBLE_API_RESULT_T CyBle_WptscGetCharacteristicDescriptor(CYBLE_CONN_HANDLE_T connHandle,
1204:.\Generated_Source\PSoC4/BLE_wpts.c ****     CYBLE_WPTS_CHAR_INDEX_T charIndex, CYBLE_WPTS_DESCR_INDEX_T descrIndex)
1205:.\Generated_Source\PSoC4/BLE_wpts.c **** {
 1052              		.loc 1 1205 0
 1053              		.cfi_startproc
 1054              	.LVL81:
 1055 0000 30B5     		push	{r4, r5, lr}
 1056              		.cfi_def_cfa_offset 12
 1057              		.cfi_offset 4, -12
 1058              		.cfi_offset 5, -8
ARM GAS  C:\Users\Petro\AppData\Local\Temp\cca5nTbz.s 			page 41


 1059              		.cfi_offset 14, -4
 1060 0002 83B0     		sub	sp, sp, #12
 1061              		.cfi_def_cfa_offset 24
 1062 0004 01AB     		add	r3, sp, #4
 1063 0006 1880     		strh	r0, [r3]
1206:.\Generated_Source\PSoC4/BLE_wpts.c ****     CYBLE_API_RESULT_T apiResult;
1207:.\Generated_Source\PSoC4/BLE_wpts.c **** 
1208:.\Generated_Source\PSoC4/BLE_wpts.c ****     if(CyBle_GetClientState() != CYBLE_CLIENT_STATE_DISCOVERED)
 1064              		.loc 1 1208 0
 1065 0008 124B     		ldr	r3, .L86
 1066 000a 1B78     		ldrb	r3, [r3]
 1067 000c 052B     		cmp	r3, #5
 1068 000e 19D1     		bne	.L83
1209:.\Generated_Source\PSoC4/BLE_wpts.c ****     {
1210:.\Generated_Source\PSoC4/BLE_wpts.c ****         apiResult = CYBLE_ERROR_INVALID_STATE;
1211:.\Generated_Source\PSoC4/BLE_wpts.c ****     }
1212:.\Generated_Source\PSoC4/BLE_wpts.c ****     else if((charIndex >= CYBLE_WPTS_CHAR_COUNT) || (descrIndex >= CYBLE_WPTS_DESCR_COUNT))
 1069              		.loc 1 1212 0
 1070 0010 0429     		cmp	r1, #4
 1071 0012 1AD8     		bhi	.L84
 1072              		.loc 1 1212 0 is_stmt 0 discriminator 1
 1073 0014 002A     		cmp	r2, #0
 1074 0016 1AD1     		bne	.L85
 1075 0018 141C     		mov	r4, r2
 1076 001a 0D1C     		mov	r5, r1
1213:.\Generated_Source\PSoC4/BLE_wpts.c ****     {
1214:.\Generated_Source\PSoC4/BLE_wpts.c ****         apiResult = CYBLE_ERROR_INVALID_PARAMETER;
1215:.\Generated_Source\PSoC4/BLE_wpts.c ****     }
1216:.\Generated_Source\PSoC4/BLE_wpts.c ****     else
1217:.\Generated_Source\PSoC4/BLE_wpts.c ****     {
1218:.\Generated_Source\PSoC4/BLE_wpts.c ****         apiResult = CyBle_GattcReadCharacteristicDescriptors(connHandle,
 1077              		.loc 1 1218 0 is_stmt 1
 1078 001c 8B00     		lsl	r3, r1, #2
 1079 001e 9B18     		add	r3, r3, r2
 1080 0020 5B00     		lsl	r3, r3, #1
 1081 0022 0D4A     		ldr	r2, .L86+4
 1082              	.LVL82:
 1083 0024 D318     		add	r3, r2, r3
 1084 0026 5988     		ldrh	r1, [r3, #2]
 1085              	.LVL83:
 1086 0028 0198     		ldr	r0, [sp, #4]
 1087 002a FFF7FEFF 		bl	CyBle_GattcReadCharacteristicDescriptors
 1088              	.LVL84:
1219:.\Generated_Source\PSoC4/BLE_wpts.c ****                                                     cyBle_wptsc.charInfo[charIndex].descrHandle[des
1220:.\Generated_Source\PSoC4/BLE_wpts.c **** 
1221:.\Generated_Source\PSoC4/BLE_wpts.c ****         /* Save handle to support service specific read response from device */
1222:.\Generated_Source\PSoC4/BLE_wpts.c ****         if(apiResult == CYBLE_ERROR_OK)
 1089              		.loc 1 1222 0
 1090 002e 0028     		cmp	r0, #0
 1091 0030 0ED1     		bne	.L82
1223:.\Generated_Source\PSoC4/BLE_wpts.c ****         {
1224:.\Generated_Source\PSoC4/BLE_wpts.c ****             cyBle_wptscReqHandle = cyBle_wptsc.charInfo[charIndex].descrHandle[descrIndex];
 1092              		.loc 1 1224 0
 1093 0032 A900     		lsl	r1, r5, #2
 1094 0034 0B19     		add	r3, r1, r4
 1095 0036 5A00     		lsl	r2, r3, #1
 1096 0038 074B     		ldr	r3, .L86+4
ARM GAS  C:\Users\Petro\AppData\Local\Temp\cca5nTbz.s 			page 42


 1097 003a 9B18     		add	r3, r3, r2
 1098 003c 5A88     		ldrh	r2, [r3, #2]
 1099 003e 074B     		ldr	r3, .L86+8
 1100 0040 1A80     		strh	r2, [r3]
 1101 0042 05E0     		b	.L82
 1102              	.LVL85:
 1103              	.L83:
1210:.\Generated_Source\PSoC4/BLE_wpts.c ****     }
 1104              		.loc 1 1210 0
 1105 0044 0420     		mov	r0, #4
 1106 0046 FF30     		add	r0, r0, #255
 1107 0048 02E0     		b	.L82
 1108              	.L84:
1214:.\Generated_Source\PSoC4/BLE_wpts.c ****     }
 1109              		.loc 1 1214 0
 1110 004a 0120     		mov	r0, #1
 1111 004c 00E0     		b	.L82
 1112              	.L85:
 1113 004e 0120     		mov	r0, #1
 1114              	.LVL86:
 1115              	.L82:
1225:.\Generated_Source\PSoC4/BLE_wpts.c ****         }
1226:.\Generated_Source\PSoC4/BLE_wpts.c ****     }
1227:.\Generated_Source\PSoC4/BLE_wpts.c **** 
1228:.\Generated_Source\PSoC4/BLE_wpts.c ****     return (apiResult);
1229:.\Generated_Source\PSoC4/BLE_wpts.c **** }
 1116              		.loc 1 1229 0
 1117 0050 03B0     		add	sp, sp, #12
 1118              		@ sp needed
 1119 0052 30BD     		pop	{r4, r5, pc}
 1120              	.L87:
 1121              		.align	2
 1122              	.L86:
 1123 0054 00000000 		.word	cyBle_clientState
 1124 0058 00000000 		.word	cyBle_wptsc
 1125 005c 00000000 		.word	.LANCHOR0
 1126              		.cfi_endproc
 1127              	.LFE15:
 1128              		.size	CyBle_WptscGetCharacteristicDescriptor, .-CyBle_WptscGetCharacteristicDescriptor
 1129              		.global	cyBle_wptscCharUuid128
 1130              		.comm	cyBle_wptsc,42,4
 1131              		.section	.rodata
 1132              		.align	2
 1133              		.set	.LANCHOR1,. + 0
 1134              		.type	cyBle_wptscCharUuid128, %object
 1135              		.size	cyBle_wptscCharUuid128, 80
 1136              	cyBle_wptscCharUuid128:
 1137 0000 67       		.byte	103
 1138 0001 9A       		.byte	-102
 1139 0002 0C       		.byte	12
 1140 0003 20       		.byte	32
 1141 0004 00       		.byte	0
 1142 0005 08       		.byte	8
 1143 0006 96       		.byte	-106
 1144 0007 9E       		.byte	-98
 1145 0008 E2       		.byte	-30
 1146 0009 11       		.byte	17
ARM GAS  C:\Users\Petro\AppData\Local\Temp\cca5nTbz.s 			page 43


 1147 000a 46       		.byte	70
 1148 000b A1       		.byte	-95
 1149 000c 70       		.byte	112
 1150 000d E6       		.byte	-26
 1151 000e 55       		.byte	85
 1152 000f 64       		.byte	100
 1153 0010 68       		.byte	104
 1154 0011 9A       		.byte	-102
 1155 0012 0C       		.byte	12
 1156 0013 20       		.byte	32
 1157 0014 00       		.byte	0
 1158 0015 08       		.byte	8
 1159 0016 96       		.byte	-106
 1160 0017 9E       		.byte	-98
 1161 0018 E2       		.byte	-30
 1162 0019 11       		.byte	17
 1163 001a 46       		.byte	70
 1164 001b A1       		.byte	-95
 1165 001c 70       		.byte	112
 1166 001d E6       		.byte	-26
 1167 001e 55       		.byte	85
 1168 001f 64       		.byte	100
 1169 0020 69       		.byte	105
 1170 0021 9A       		.byte	-102
 1171 0022 0C       		.byte	12
 1172 0023 20       		.byte	32
 1173 0024 00       		.byte	0
 1174 0025 08       		.byte	8
 1175 0026 96       		.byte	-106
 1176 0027 9E       		.byte	-98
 1177 0028 E2       		.byte	-30
 1178 0029 11       		.byte	17
 1179 002a 46       		.byte	70
 1180 002b A1       		.byte	-95
 1181 002c 70       		.byte	112
 1182 002d E6       		.byte	-26
 1183 002e 55       		.byte	85
 1184 002f 64       		.byte	100
 1185 0030 6A       		.byte	106
 1186 0031 9A       		.byte	-102
 1187 0032 0C       		.byte	12
 1188 0033 20       		.byte	32
 1189 0034 00       		.byte	0
 1190 0035 08       		.byte	8
 1191 0036 96       		.byte	-106
 1192 0037 9E       		.byte	-98
 1193 0038 E2       		.byte	-30
 1194 0039 11       		.byte	17
 1195 003a 46       		.byte	70
 1196 003b A1       		.byte	-95
 1197 003c 70       		.byte	112
 1198 003d E6       		.byte	-26
 1199 003e 55       		.byte	85
 1200 003f 64       		.byte	100
 1201 0040 6B       		.byte	107
 1202 0041 9A       		.byte	-102
 1203 0042 0C       		.byte	12
ARM GAS  C:\Users\Petro\AppData\Local\Temp\cca5nTbz.s 			page 44


 1204 0043 20       		.byte	32
 1205 0044 00       		.byte	0
 1206 0045 08       		.byte	8
 1207 0046 96       		.byte	-106
 1208 0047 9E       		.byte	-98
 1209 0048 E2       		.byte	-30
 1210 0049 11       		.byte	17
 1211 004a 46       		.byte	70
 1212 004b A1       		.byte	-95
 1213 004c 70       		.byte	112
 1214 004d E6       		.byte	-26
 1215 004e 55       		.byte	85
 1216 004f 64       		.byte	100
 1217              		.bss
 1218              		.align	2
 1219              		.set	.LANCHOR0,. + 0
 1220              		.type	cyBle_wptscReqHandle, %object
 1221              		.size	cyBle_wptscReqHandle, 2
 1222              	cyBle_wptscReqHandle:
 1223 0000 0000     		.space	2
 1224 0002 0000     		.space	2
 1225              		.type	CyBle_WptsApplCallback, %object
 1226              		.size	CyBle_WptsApplCallback, 4
 1227              	CyBle_WptsApplCallback:
 1228 0004 00000000 		.space	4
 1229              		.type	wptscLastEndHandle.6146, %object
 1230              		.size	wptscLastEndHandle.6146, 4
 1231              	wptscLastEndHandle.6146:
 1232 0008 00000000 		.space	4
 1233              		.text
 1234              	.Letext0:
 1235              		.file 2 ".\\Generated_Source\\PSoC4\\cytypes.h"
 1236              		.file 3 "c:\\program files (x86)\\cypress\\psoc creator\\3.3\\psoc creator\\import\\gnu\\arm\\4.9.
 1237              		.file 4 ".\\Generated_Source\\PSoC4\\BLE_Stack.h"
 1238              		.file 5 ".\\Generated_Source\\PSoC4\\BLE_StackGatt.h"
 1239              		.file 6 ".\\Generated_Source\\PSoC4\\BLE_StackGattClient.h"
 1240              		.file 7 ".\\Generated_Source\\PSoC4\\BLE.h"
 1241              		.file 8 ".\\Generated_Source\\PSoC4\\BLE_gatt.h"
 1242              		.file 9 ".\\Generated_Source\\PSoC4\\BLE_wpts.h"
 1243              		.file 10 ".\\Generated_Source\\PSoC4\\BLE_eventHandler.h"
 1244              		.file 11 "c:\\program files (x86)\\cypress\\psoc creator\\3.3\\psoc creator\\import\\gnu\\arm\\4.9
 1245              		.section	.debug_info,"",%progbits
 1246              	.Ldebug_info0:
 1247 0000 78170000 		.4byte	0x1778
 1248 0004 0400     		.2byte	0x4
 1249 0006 00000000 		.4byte	.Ldebug_abbrev0
 1250 000a 04       		.byte	0x4
 1251 000b 01       		.uleb128 0x1
 1252 000c 3D1D0000 		.4byte	.LASF538
 1253 0010 01       		.byte	0x1
 1254 0011 BE1C0000 		.4byte	.LASF539
 1255 0015 E81A0000 		.4byte	.LASF540
 1256 0019 00000000 		.4byte	.Ldebug_ranges0+0
 1257 001d 00000000 		.4byte	0
 1258 0021 00000000 		.4byte	.Ldebug_line0
 1259 0025 02       		.uleb128 0x2
 1260 0026 01       		.byte	0x1
ARM GAS  C:\Users\Petro\AppData\Local\Temp\cca5nTbz.s 			page 45


 1261 0027 06       		.byte	0x6
 1262 0028 450E0000 		.4byte	.LASF0
 1263 002c 02       		.uleb128 0x2
 1264 002d 01       		.byte	0x1
 1265 002e 08       		.byte	0x8
 1266 002f 7D0F0000 		.4byte	.LASF1
 1267 0033 02       		.uleb128 0x2
 1268 0034 02       		.byte	0x2
 1269 0035 05       		.byte	0x5
 1270 0036 0B340000 		.4byte	.LASF2
 1271 003a 02       		.uleb128 0x2
 1272 003b 02       		.byte	0x2
 1273 003c 07       		.byte	0x7
 1274 003d 3E3B0000 		.4byte	.LASF3
 1275 0041 02       		.uleb128 0x2
 1276 0042 04       		.byte	0x4
 1277 0043 05       		.byte	0x5
 1278 0044 0D0B0000 		.4byte	.LASF4
 1279 0048 02       		.uleb128 0x2
 1280 0049 04       		.byte	0x4
 1281 004a 07       		.byte	0x7
 1282 004b F91B0000 		.4byte	.LASF5
 1283 004f 02       		.uleb128 0x2
 1284 0050 08       		.byte	0x8
 1285 0051 05       		.byte	0x5
 1286 0052 0D200000 		.4byte	.LASF6
 1287 0056 02       		.uleb128 0x2
 1288 0057 08       		.byte	0x8
 1289 0058 07       		.byte	0x7
 1290 0059 362C0000 		.4byte	.LASF7
 1291 005d 03       		.uleb128 0x3
 1292 005e 04       		.byte	0x4
 1293 005f 05       		.byte	0x5
 1294 0060 696E7400 		.ascii	"int\000"
 1295 0064 02       		.uleb128 0x2
 1296 0065 04       		.byte	0x4
 1297 0066 07       		.byte	0x7
 1298 0067 BC240000 		.4byte	.LASF8
 1299 006b 04       		.uleb128 0x4
 1300 006c 91330000 		.4byte	.LASF9
 1301 0070 02       		.byte	0x2
 1302 0071 3801     		.2byte	0x138
 1303 0073 2C000000 		.4byte	0x2c
 1304 0077 04       		.uleb128 0x4
 1305 0078 CB3D0000 		.4byte	.LASF10
 1306 007c 02       		.byte	0x2
 1307 007d 3901     		.2byte	0x139
 1308 007f 3A000000 		.4byte	0x3a
 1309 0083 04       		.uleb128 0x4
 1310 0084 41030000 		.4byte	.LASF11
 1311 0088 02       		.byte	0x2
 1312 0089 3A01     		.2byte	0x13a
 1313 008b 48000000 		.4byte	0x48
 1314 008f 02       		.uleb128 0x2
 1315 0090 04       		.byte	0x4
 1316 0091 04       		.byte	0x4
 1317 0092 3E230000 		.4byte	.LASF12
ARM GAS  C:\Users\Petro\AppData\Local\Temp\cca5nTbz.s 			page 46


 1318 0096 02       		.uleb128 0x2
 1319 0097 08       		.byte	0x8
 1320 0098 04       		.byte	0x4
 1321 0099 36210000 		.4byte	.LASF13
 1322 009d 02       		.uleb128 0x2
 1323 009e 01       		.byte	0x1
 1324 009f 08       		.byte	0x8
 1325 00a0 4F120000 		.4byte	.LASF14
 1326 00a4 05       		.uleb128 0x5
 1327 00a5 6B000000 		.4byte	0x6b
 1328 00a9 06       		.uleb128 0x6
 1329 00aa 8B000000 		.4byte	.LASF15
 1330 00ae 03       		.byte	0x3
 1331 00af D4       		.byte	0xd4
 1332 00b0 64000000 		.4byte	0x64
 1333 00b4 02       		.uleb128 0x2
 1334 00b5 04       		.byte	0x4
 1335 00b6 07       		.byte	0x7
 1336 00b7 92000000 		.4byte	.LASF16
 1337 00bb 07       		.uleb128 0x7
 1338 00bc 04       		.byte	0x4
 1339 00bd 08       		.uleb128 0x8
 1340 00be 01       		.byte	0x1
 1341 00bf 04       		.byte	0x4
 1342 00c0 A4       		.byte	0xa4
 1343 00c1 42020000 		.4byte	0x242
 1344 00c5 09       		.uleb128 0x9
 1345 00c6 A4120000 		.4byte	.LASF17
 1346 00ca 00       		.sleb128 0
 1347 00cb 09       		.uleb128 0x9
 1348 00cc 0E0C0000 		.4byte	.LASF18
 1349 00d0 01       		.sleb128 1
 1350 00d1 09       		.uleb128 0x9
 1351 00d2 6B2C0000 		.4byte	.LASF19
 1352 00d6 02       		.sleb128 2
 1353 00d7 09       		.uleb128 0x9
 1354 00d8 D40E0000 		.4byte	.LASF20
 1355 00dc 03       		.sleb128 3
 1356 00dd 09       		.uleb128 0x9
 1357 00de 223C0000 		.4byte	.LASF21
 1358 00e2 04       		.sleb128 4
 1359 00e3 09       		.uleb128 0x9
 1360 00e4 ED390000 		.4byte	.LASF22
 1361 00e8 05       		.sleb128 5
 1362 00e9 09       		.uleb128 0x9
 1363 00ea 4C360000 		.4byte	.LASF23
 1364 00ee 20       		.sleb128 32
 1365 00ef 09       		.uleb128 0x9
 1366 00f0 55080000 		.4byte	.LASF24
 1367 00f4 21       		.sleb128 33
 1368 00f5 09       		.uleb128 0x9
 1369 00f6 921F0000 		.4byte	.LASF25
 1370 00fa 22       		.sleb128 34
 1371 00fb 09       		.uleb128 0x9
 1372 00fc C6270000 		.4byte	.LASF26
 1373 0100 23       		.sleb128 35
 1374 0101 09       		.uleb128 0x9
ARM GAS  C:\Users\Petro\AppData\Local\Temp\cca5nTbz.s 			page 47


 1375 0102 4E1A0000 		.4byte	.LASF27
 1376 0106 24       		.sleb128 36
 1377 0107 09       		.uleb128 0x9
 1378 0108 B11A0000 		.4byte	.LASF28
 1379 010c 25       		.sleb128 37
 1380 010d 09       		.uleb128 0x9
 1381 010e E0320000 		.4byte	.LASF29
 1382 0112 26       		.sleb128 38
 1383 0113 09       		.uleb128 0x9
 1384 0114 87020000 		.4byte	.LASF30
 1385 0118 27       		.sleb128 39
 1386 0119 09       		.uleb128 0x9
 1387 011a 443D0000 		.4byte	.LASF31
 1388 011e 28       		.sleb128 40
 1389 011f 09       		.uleb128 0x9
 1390 0120 742A0000 		.4byte	.LASF32
 1391 0124 29       		.sleb128 41
 1392 0125 09       		.uleb128 0x9
 1393 0126 961E0000 		.4byte	.LASF33
 1394 012a 2A       		.sleb128 42
 1395 012b 09       		.uleb128 0x9
 1396 012c 0A270000 		.4byte	.LASF34
 1397 0130 2B       		.sleb128 43
 1398 0131 09       		.uleb128 0x9
 1399 0132 2D3A0000 		.4byte	.LASF35
 1400 0136 2C       		.sleb128 44
 1401 0137 09       		.uleb128 0x9
 1402 0138 E0340000 		.4byte	.LASF36
 1403 013c C000     		.sleb128 64
 1404 013e 09       		.uleb128 0x9
 1405 013f C9020000 		.4byte	.LASF37
 1406 0143 C100     		.sleb128 65
 1407 0145 09       		.uleb128 0x9
 1408 0146 373C0000 		.4byte	.LASF38
 1409 014a C200     		.sleb128 66
 1410 014c 09       		.uleb128 0x9
 1411 014d DE2A0000 		.4byte	.LASF39
 1412 0151 C300     		.sleb128 67
 1413 0153 09       		.uleb128 0x9
 1414 0154 8B0F0000 		.4byte	.LASF40
 1415 0158 C400     		.sleb128 68
 1416 015a 09       		.uleb128 0x9
 1417 015b 330F0000 		.4byte	.LASF41
 1418 015f C500     		.sleb128 69
 1419 0161 09       		.uleb128 0x9
 1420 0162 96300000 		.4byte	.LASF42
 1421 0166 C600     		.sleb128 70
 1422 0168 09       		.uleb128 0x9
 1423 0169 78300000 		.4byte	.LASF43
 1424 016d C700     		.sleb128 71
 1425 016f 09       		.uleb128 0x9
 1426 0170 E1110000 		.4byte	.LASF44
 1427 0174 C800     		.sleb128 72
 1428 0176 09       		.uleb128 0x9
 1429 0177 52280000 		.4byte	.LASF45
 1430 017b C900     		.sleb128 73
 1431 017d 09       		.uleb128 0x9
ARM GAS  C:\Users\Petro\AppData\Local\Temp\cca5nTbz.s 			page 48


 1432 017e 4D130000 		.4byte	.LASF46
 1433 0182 CA00     		.sleb128 74
 1434 0184 09       		.uleb128 0x9
 1435 0185 85120000 		.4byte	.LASF47
 1436 0189 CB00     		.sleb128 75
 1437 018b 09       		.uleb128 0x9
 1438 018c 6E270000 		.4byte	.LASF48
 1439 0190 CC00     		.sleb128 76
 1440 0192 09       		.uleb128 0x9
 1441 0193 15320000 		.4byte	.LASF49
 1442 0197 CD00     		.sleb128 77
 1443 0199 09       		.uleb128 0x9
 1444 019a B50A0000 		.4byte	.LASF50
 1445 019e CE00     		.sleb128 78
 1446 01a0 09       		.uleb128 0x9
 1447 01a1 C9240000 		.4byte	.LASF51
 1448 01a5 CF00     		.sleb128 79
 1449 01a7 09       		.uleb128 0x9
 1450 01a8 2D360000 		.4byte	.LASF52
 1451 01ac D000     		.sleb128 80
 1452 01ae 09       		.uleb128 0x9
 1453 01af C8130000 		.4byte	.LASF53
 1454 01b3 D100     		.sleb128 81
 1455 01b5 09       		.uleb128 0x9
 1456 01b6 34080000 		.4byte	.LASF54
 1457 01ba D200     		.sleb128 82
 1458 01bc 09       		.uleb128 0x9
 1459 01bd 6D390000 		.4byte	.LASF55
 1460 01c1 D300     		.sleb128 83
 1461 01c3 09       		.uleb128 0x9
 1462 01c4 863D0000 		.4byte	.LASF56
 1463 01c8 D400     		.sleb128 84
 1464 01ca 09       		.uleb128 0x9
 1465 01cb 9D060000 		.4byte	.LASF57
 1466 01cf D500     		.sleb128 85
 1467 01d1 09       		.uleb128 0x9
 1468 01d2 E2140000 		.4byte	.LASF58
 1469 01d6 D600     		.sleb128 86
 1470 01d8 09       		.uleb128 0x9
 1471 01d9 EA230000 		.4byte	.LASF59
 1472 01dd D700     		.sleb128 87
 1473 01df 09       		.uleb128 0x9
 1474 01e0 933A0000 		.4byte	.LASF60
 1475 01e4 F000     		.sleb128 112
 1476 01e6 09       		.uleb128 0x9
 1477 01e7 0D190000 		.4byte	.LASF61
 1478 01eb F100     		.sleb128 113
 1479 01ed 09       		.uleb128 0x9
 1480 01ee 930D0000 		.4byte	.LASF62
 1481 01f2 F200     		.sleb128 114
 1482 01f4 09       		.uleb128 0x9
 1483 01f5 0F360000 		.4byte	.LASF63
 1484 01f9 F300     		.sleb128 115
 1485 01fb 09       		.uleb128 0x9
 1486 01fc BF280000 		.4byte	.LASF64
 1487 0200 F400     		.sleb128 116
 1488 0202 09       		.uleb128 0x9
ARM GAS  C:\Users\Petro\AppData\Local\Temp\cca5nTbz.s 			page 49


 1489 0203 131F0000 		.4byte	.LASF65
 1490 0207 F500     		.sleb128 117
 1491 0209 09       		.uleb128 0x9
 1492 020a C0110000 		.4byte	.LASF66
 1493 020e F600     		.sleb128 118
 1494 0210 09       		.uleb128 0x9
 1495 0211 2D2D0000 		.4byte	.LASF67
 1496 0215 F700     		.sleb128 119
 1497 0217 09       		.uleb128 0x9
 1498 0218 C1060000 		.4byte	.LASF68
 1499 021c F800     		.sleb128 120
 1500 021e 09       		.uleb128 0x9
 1501 021f D8100000 		.4byte	.LASF69
 1502 0223 F900     		.sleb128 121
 1503 0225 09       		.uleb128 0x9
 1504 0226 7B3C0000 		.4byte	.LASF70
 1505 022a FA00     		.sleb128 122
 1506 022c 09       		.uleb128 0x9
 1507 022d 82210000 		.4byte	.LASF71
 1508 0231 FA01     		.sleb128 250
 1509 0233 09       		.uleb128 0x9
 1510 0234 90380000 		.4byte	.LASF72
 1511 0238 FB01     		.sleb128 251
 1512 023a 09       		.uleb128 0x9
 1513 023b FC260000 		.4byte	.LASF73
 1514 023f FF01     		.sleb128 255
 1515 0241 00       		.byte	0
 1516 0242 0A       		.uleb128 0xa
 1517 0243 02       		.byte	0x2
 1518 0244 04       		.byte	0x4
 1519 0245 0C02     		.2byte	0x20c
 1520 0247 F9020000 		.4byte	0x2f9
 1521 024b 09       		.uleb128 0x9
 1522 024c ED0E0000 		.4byte	.LASF74
 1523 0250 00       		.sleb128 0
 1524 0251 09       		.uleb128 0x9
 1525 0252 00160000 		.4byte	.LASF75
 1526 0256 01       		.sleb128 1
 1527 0257 09       		.uleb128 0x9
 1528 0258 043C0000 		.4byte	.LASF76
 1529 025c 02       		.sleb128 2
 1530 025d 09       		.uleb128 0x9
 1531 025e 70170000 		.4byte	.LASF77
 1532 0262 03       		.sleb128 3
 1533 0263 09       		.uleb128 0x9
 1534 0264 671B0000 		.4byte	.LASF78
 1535 0268 04       		.sleb128 4
 1536 0269 09       		.uleb128 0x9
 1537 026a EE200000 		.4byte	.LASF79
 1538 026e 05       		.sleb128 5
 1539 026f 09       		.uleb128 0x9
 1540 0270 18380000 		.4byte	.LASF80
 1541 0274 06       		.sleb128 6
 1542 0275 09       		.uleb128 0x9
 1543 0276 30130000 		.4byte	.LASF81
 1544 027a 07       		.sleb128 7
 1545 027b 09       		.uleb128 0x9
ARM GAS  C:\Users\Petro\AppData\Local\Temp\cca5nTbz.s 			page 50


 1546 027c CD220000 		.4byte	.LASF82
 1547 0280 08       		.sleb128 8
 1548 0281 09       		.uleb128 0x9
 1549 0282 08370000 		.4byte	.LASF83
 1550 0286 09       		.sleb128 9
 1551 0287 09       		.uleb128 0x9
 1552 0288 F63D0000 		.4byte	.LASF84
 1553 028c 0A       		.sleb128 10
 1554 028d 09       		.uleb128 0x9
 1555 028e CB080000 		.4byte	.LASF85
 1556 0292 0B       		.sleb128 11
 1557 0293 09       		.uleb128 0x9
 1558 0294 D6390000 		.4byte	.LASF86
 1559 0298 0C       		.sleb128 12
 1560 0299 09       		.uleb128 0x9
 1561 029a 3E260000 		.4byte	.LASF87
 1562 029e 0D       		.sleb128 13
 1563 029f 09       		.uleb128 0x9
 1564 02a0 041D0000 		.4byte	.LASF88
 1565 02a4 0E       		.sleb128 14
 1566 02a5 09       		.uleb128 0x9
 1567 02a6 C9200000 		.4byte	.LASF89
 1568 02aa 0F       		.sleb128 15
 1569 02ab 09       		.uleb128 0x9
 1570 02ac DA050000 		.4byte	.LASF90
 1571 02b0 10       		.sleb128 16
 1572 02b1 09       		.uleb128 0x9
 1573 02b2 A9220000 		.4byte	.LASF91
 1574 02b6 11       		.sleb128 17
 1575 02b7 09       		.uleb128 0x9
 1576 02b8 210C0000 		.4byte	.LASF92
 1577 02bc 12       		.sleb128 18
 1578 02bd 09       		.uleb128 0x9
 1579 02be 1D0E0000 		.4byte	.LASF93
 1580 02c2 13       		.sleb128 19
 1581 02c3 09       		.uleb128 0x9
 1582 02c4 3D210000 		.4byte	.LASF94
 1583 02c8 27       		.sleb128 39
 1584 02c9 09       		.uleb128 0x9
 1585 02ca 9F230000 		.4byte	.LASF95
 1586 02ce 28       		.sleb128 40
 1587 02cf 09       		.uleb128 0x9
 1588 02d0 5B060000 		.4byte	.LASF96
 1589 02d4 29       		.sleb128 41
 1590 02d5 09       		.uleb128 0x9
 1591 02d6 DA180000 		.4byte	.LASF97
 1592 02da FF01     		.sleb128 255
 1593 02dc 09       		.uleb128 0x9
 1594 02dd 05280000 		.4byte	.LASF98
 1595 02e1 8002     		.sleb128 256
 1596 02e3 09       		.uleb128 0x9
 1597 02e4 EC270000 		.4byte	.LASF99
 1598 02e8 8102     		.sleb128 257
 1599 02ea 09       		.uleb128 0x9
 1600 02eb E70C0000 		.4byte	.LASF100
 1601 02ef 8202     		.sleb128 258
 1602 02f1 09       		.uleb128 0x9
ARM GAS  C:\Users\Petro\AppData\Local\Temp\cca5nTbz.s 			page 51


 1603 02f2 F72C0000 		.4byte	.LASF101
 1604 02f6 8302     		.sleb128 259
 1605 02f8 00       		.byte	0
 1606 02f9 04       		.uleb128 0x4
 1607 02fa AF380000 		.4byte	.LASF102
 1608 02fe 04       		.byte	0x4
 1609 02ff 6902     		.2byte	0x269
 1610 0301 42020000 		.4byte	0x242
 1611 0305 0B       		.uleb128 0xb
 1612 0306 6B000000 		.4byte	0x6b
 1613 030a 15030000 		.4byte	0x315
 1614 030e 0C       		.uleb128 0xc
 1615 030f B4000000 		.4byte	0xb4
 1616 0313 0F       		.byte	0xf
 1617 0314 00       		.byte	0
 1618 0315 0D       		.uleb128 0xd
 1619 0316 04       		.byte	0x4
 1620 0317 6B000000 		.4byte	0x6b
 1621 031b 08       		.uleb128 0x8
 1622 031c 01       		.byte	0x1
 1623 031d 05       		.byte	0x5
 1624 031e 4E       		.byte	0x4e
 1625 031f D5030000 		.4byte	0x3d5
 1626 0323 09       		.uleb128 0x9
 1627 0324 EB150000 		.4byte	.LASF103
 1628 0328 01       		.sleb128 1
 1629 0329 09       		.uleb128 0x9
 1630 032a 17130000 		.4byte	.LASF104
 1631 032e 02       		.sleb128 2
 1632 032f 09       		.uleb128 0x9
 1633 0330 3F0A0000 		.4byte	.LASF105
 1634 0334 03       		.sleb128 3
 1635 0335 09       		.uleb128 0x9
 1636 0336 BB0E0000 		.4byte	.LASF106
 1637 033a 04       		.sleb128 4
 1638 033b 09       		.uleb128 0x9
 1639 033c 2D2B0000 		.4byte	.LASF107
 1640 0340 05       		.sleb128 5
 1641 0341 09       		.uleb128 0x9
 1642 0342 8A290000 		.4byte	.LASF108
 1643 0346 06       		.sleb128 6
 1644 0347 09       		.uleb128 0x9
 1645 0348 EC0B0000 		.4byte	.LASF109
 1646 034c 07       		.sleb128 7
 1647 034d 09       		.uleb128 0x9
 1648 034e A3280000 		.4byte	.LASF110
 1649 0352 08       		.sleb128 8
 1650 0353 09       		.uleb128 0x9
 1651 0354 B2070000 		.4byte	.LASF111
 1652 0358 09       		.sleb128 9
 1653 0359 09       		.uleb128 0x9
 1654 035a 0B1C0000 		.4byte	.LASF112
 1655 035e 0A       		.sleb128 10
 1656 035f 09       		.uleb128 0x9
 1657 0360 FB370000 		.4byte	.LASF113
 1658 0364 0B       		.sleb128 11
 1659 0365 09       		.uleb128 0x9
ARM GAS  C:\Users\Petro\AppData\Local\Temp\cca5nTbz.s 			page 52


 1660 0366 432F0000 		.4byte	.LASF114
 1661 036a 0C       		.sleb128 12
 1662 036b 09       		.uleb128 0x9
 1663 036c C70D0000 		.4byte	.LASF115
 1664 0370 0D       		.sleb128 13
 1665 0371 09       		.uleb128 0x9
 1666 0372 1E280000 		.4byte	.LASF116
 1667 0376 0E       		.sleb128 14
 1668 0377 09       		.uleb128 0x9
 1669 0378 1A070000 		.4byte	.LASF117
 1670 037c 0F       		.sleb128 15
 1671 037d 09       		.uleb128 0x9
 1672 037e A53B0000 		.4byte	.LASF118
 1673 0382 10       		.sleb128 16
 1674 0383 09       		.uleb128 0x9
 1675 0384 4A1B0000 		.4byte	.LASF119
 1676 0388 11       		.sleb128 17
 1677 0389 09       		.uleb128 0x9
 1678 038a F6330000 		.4byte	.LASF120
 1679 038e 12       		.sleb128 18
 1680 038f 09       		.uleb128 0x9
 1681 0390 70120000 		.4byte	.LASF121
 1682 0394 13       		.sleb128 19
 1683 0395 09       		.uleb128 0x9
 1684 0396 2C030000 		.4byte	.LASF122
 1685 039a D200     		.sleb128 82
 1686 039c 09       		.uleb128 0x9
 1687 039d 97050000 		.4byte	.LASF123
 1688 03a1 16       		.sleb128 22
 1689 03a2 09       		.uleb128 0x9
 1690 03a3 63260000 		.4byte	.LASF124
 1691 03a7 17       		.sleb128 23
 1692 03a8 09       		.uleb128 0x9
 1693 03a9 513A0000 		.4byte	.LASF125
 1694 03ad 18       		.sleb128 24
 1695 03ae 09       		.uleb128 0x9
 1696 03af BD180000 		.4byte	.LASF126
 1697 03b3 19       		.sleb128 25
 1698 03b4 09       		.uleb128 0x9
 1699 03b5 A21C0000 		.4byte	.LASF127
 1700 03b9 1B       		.sleb128 27
 1701 03ba 09       		.uleb128 0x9
 1702 03bb CD0F0000 		.4byte	.LASF128
 1703 03bf 1D       		.sleb128 29
 1704 03c0 09       		.uleb128 0x9
 1705 03c1 1A010000 		.4byte	.LASF129
 1706 03c5 1E       		.sleb128 30
 1707 03c6 09       		.uleb128 0x9
 1708 03c7 0F180000 		.4byte	.LASF130
 1709 03cb D201     		.sleb128 210
 1710 03cd 09       		.uleb128 0x9
 1711 03ce DC2C0000 		.4byte	.LASF131
 1712 03d2 FF01     		.sleb128 255
 1713 03d4 00       		.byte	0
 1714 03d5 06       		.uleb128 0x6
 1715 03d6 710B0000 		.4byte	.LASF132
 1716 03da 05       		.byte	0x5
ARM GAS  C:\Users\Petro\AppData\Local\Temp\cca5nTbz.s 			page 53


 1717 03db A6       		.byte	0xa6
 1718 03dc 1B030000 		.4byte	0x31b
 1719 03e0 08       		.uleb128 0x8
 1720 03e1 01       		.byte	0x1
 1721 03e2 05       		.byte	0x5
 1722 03e3 AA       		.byte	0xaa
 1723 03e4 D3040000 		.4byte	0x4d3
 1724 03e8 09       		.uleb128 0x9
 1725 03e9 4C2D0000 		.4byte	.LASF133
 1726 03ed 00       		.sleb128 0
 1727 03ee 09       		.uleb128 0x9
 1728 03ef 4D2C0000 		.4byte	.LASF134
 1729 03f3 01       		.sleb128 1
 1730 03f4 09       		.uleb128 0x9
 1731 03f5 31050000 		.4byte	.LASF135
 1732 03f9 02       		.sleb128 2
 1733 03fa 09       		.uleb128 0x9
 1734 03fb 0F3B0000 		.4byte	.LASF136
 1735 03ff 03       		.sleb128 3
 1736 0400 09       		.uleb128 0x9
 1737 0401 CC0C0000 		.4byte	.LASF137
 1738 0405 04       		.sleb128 4
 1739 0406 09       		.uleb128 0x9
 1740 0407 E8240000 		.4byte	.LASF138
 1741 040b 05       		.sleb128 5
 1742 040c 09       		.uleb128 0x9
 1743 040d BB340000 		.4byte	.LASF139
 1744 0411 06       		.sleb128 6
 1745 0412 09       		.uleb128 0x9
 1746 0413 85280000 		.4byte	.LASF140
 1747 0417 07       		.sleb128 7
 1748 0418 09       		.uleb128 0x9
 1749 0419 37240000 		.4byte	.LASF141
 1750 041d 08       		.sleb128 8
 1751 041e 09       		.uleb128 0x9
 1752 041f A1200000 		.4byte	.LASF142
 1753 0423 09       		.sleb128 9
 1754 0424 09       		.uleb128 0x9
 1755 0425 A5260000 		.4byte	.LASF143
 1756 0429 0A       		.sleb128 10
 1757 042a 09       		.uleb128 0x9
 1758 042b 41140000 		.4byte	.LASF144
 1759 042f 0B       		.sleb128 11
 1760 0430 09       		.uleb128 0x9
 1761 0431 A0210000 		.4byte	.LASF145
 1762 0435 0C       		.sleb128 12
 1763 0436 09       		.uleb128 0x9
 1764 0437 E00D0000 		.4byte	.LASF146
 1765 043b 0D       		.sleb128 13
 1766 043c 09       		.uleb128 0x9
 1767 043d D6120000 		.4byte	.LASF147
 1768 0441 0E       		.sleb128 14
 1769 0442 09       		.uleb128 0x9
 1770 0443 513B0000 		.4byte	.LASF148
 1771 0447 0F       		.sleb128 15
 1772 0448 09       		.uleb128 0x9
 1773 0449 B4050000 		.4byte	.LASF149
ARM GAS  C:\Users\Petro\AppData\Local\Temp\cca5nTbz.s 			page 54


 1774 044d 10       		.sleb128 16
 1775 044e 09       		.uleb128 0x9
 1776 044f 53050000 		.4byte	.LASF150
 1777 0453 11       		.sleb128 17
 1778 0454 09       		.uleb128 0x9
 1779 0455 E7130000 		.4byte	.LASF151
 1780 0459 8001     		.sleb128 128
 1781 045b 09       		.uleb128 0x9
 1782 045c 021A0000 		.4byte	.LASF152
 1783 0460 8001     		.sleb128 128
 1784 0462 09       		.uleb128 0x9
 1785 0463 67340000 		.4byte	.LASF153
 1786 0467 8001     		.sleb128 128
 1787 0469 09       		.uleb128 0x9
 1788 046a B32E0000 		.4byte	.LASF154
 1789 046e 8001     		.sleb128 128
 1790 0470 09       		.uleb128 0x9
 1791 0471 BF250000 		.4byte	.LASF155
 1792 0475 8001     		.sleb128 128
 1793 0477 09       		.uleb128 0x9
 1794 0478 B01B0000 		.4byte	.LASF156
 1795 047c 8001     		.sleb128 128
 1796 047e 09       		.uleb128 0x9
 1797 047f BB120000 		.4byte	.LASF157
 1798 0483 8001     		.sleb128 128
 1799 0485 09       		.uleb128 0x9
 1800 0486 6F180000 		.4byte	.LASF158
 1801 048a 8101     		.sleb128 129
 1802 048c 09       		.uleb128 0x9
 1803 048d 24310000 		.4byte	.LASF159
 1804 0491 8101     		.sleb128 129
 1805 0493 09       		.uleb128 0x9
 1806 0494 70000000 		.4byte	.LASF160
 1807 0498 8101     		.sleb128 129
 1808 049a 09       		.uleb128 0x9
 1809 049b AA370000 		.4byte	.LASF161
 1810 049f A001     		.sleb128 160
 1811 04a1 09       		.uleb128 0x9
 1812 04a2 CB1D0000 		.4byte	.LASF162
 1813 04a6 A001     		.sleb128 160
 1814 04a8 09       		.uleb128 0x9
 1815 04a9 8D090000 		.4byte	.LASF163
 1816 04ad A101     		.sleb128 161
 1817 04af 09       		.uleb128 0x9
 1818 04b0 E2360000 		.4byte	.LASF164
 1819 04b4 A201     		.sleb128 162
 1820 04b6 09       		.uleb128 0x9
 1821 04b7 43150000 		.4byte	.LASF165
 1822 04bb A301     		.sleb128 163
 1823 04bd 09       		.uleb128 0x9
 1824 04be 090F0000 		.4byte	.LASF166
 1825 04c2 FD01     		.sleb128 253
 1826 04c4 09       		.uleb128 0x9
 1827 04c5 F5210000 		.4byte	.LASF167
 1828 04c9 FE01     		.sleb128 254
 1829 04cb 09       		.uleb128 0x9
 1830 04cc 3D290000 		.4byte	.LASF168
ARM GAS  C:\Users\Petro\AppData\Local\Temp\cca5nTbz.s 			page 55


 1831 04d0 FF01     		.sleb128 255
 1832 04d2 00       		.byte	0
 1833 04d3 04       		.uleb128 0x4
 1834 04d4 7A2E0000 		.4byte	.LASF169
 1835 04d8 05       		.byte	0x5
 1836 04d9 5901     		.2byte	0x159
 1837 04db E0030000 		.4byte	0x3e0
 1838 04df 04       		.uleb128 0x4
 1839 04e0 E21E0000 		.4byte	.LASF170
 1840 04e4 05       		.byte	0x5
 1841 04e5 6701     		.2byte	0x167
 1842 04e7 77000000 		.4byte	0x77
 1843 04eb 0E       		.uleb128 0xe
 1844 04ec 10       		.byte	0x10
 1845 04ed 05       		.byte	0x5
 1846 04ee 6C01     		.2byte	0x16c
 1847 04f0 02050000 		.4byte	0x502
 1848 04f4 0F       		.uleb128 0xf
 1849 04f5 602D0000 		.4byte	.LASF176
 1850 04f9 05       		.byte	0x5
 1851 04fa 6E01     		.2byte	0x16e
 1852 04fc 05030000 		.4byte	0x305
 1853 0500 00       		.byte	0
 1854 0501 00       		.byte	0
 1855 0502 04       		.uleb128 0x4
 1856 0503 2D1D0000 		.4byte	.LASF171
 1857 0507 05       		.byte	0x5
 1858 0508 6F01     		.2byte	0x16f
 1859 050a EB040000 		.4byte	0x4eb
 1860 050e 10       		.uleb128 0x10
 1861 050f 10       		.byte	0x10
 1862 0510 05       		.byte	0x5
 1863 0511 7401     		.2byte	0x174
 1864 0513 30050000 		.4byte	0x530
 1865 0517 11       		.uleb128 0x11
 1866 0518 E72D0000 		.4byte	.LASF172
 1867 051c 05       		.byte	0x5
 1868 051d 7701     		.2byte	0x177
 1869 051f DF040000 		.4byte	0x4df
 1870 0523 11       		.uleb128 0x11
 1871 0524 912A0000 		.4byte	.LASF173
 1872 0528 05       		.byte	0x5
 1873 0529 7B01     		.2byte	0x17b
 1874 052b 02050000 		.4byte	0x502
 1875 052f 00       		.byte	0
 1876 0530 04       		.uleb128 0x4
 1877 0531 353E0000 		.4byte	.LASF174
 1878 0535 05       		.byte	0x5
 1879 0536 7E01     		.2byte	0x17e
 1880 0538 0E050000 		.4byte	0x50e
 1881 053c 04       		.uleb128 0x4
 1882 053d 112D0000 		.4byte	.LASF175
 1883 0541 05       		.byte	0x5
 1884 0542 8801     		.2byte	0x188
 1885 0544 77000000 		.4byte	0x77
 1886 0548 0E       		.uleb128 0xe
 1887 0549 02       		.byte	0x2
ARM GAS  C:\Users\Petro\AppData\Local\Temp\cca5nTbz.s 			page 56


 1888 054a 05       		.byte	0x5
 1889 054b 9201     		.2byte	0x192
 1890 054d 6C050000 		.4byte	0x56c
 1891 0551 0F       		.uleb128 0xf
 1892 0552 5F090000 		.4byte	.LASF177
 1893 0556 05       		.byte	0x5
 1894 0557 9901     		.2byte	0x199
 1895 0559 6B000000 		.4byte	0x6b
 1896 055d 00       		.byte	0
 1897 055e 0F       		.uleb128 0xf
 1898 055f FE3B0000 		.4byte	.LASF178
 1899 0563 05       		.byte	0x5
 1900 0564 9F01     		.2byte	0x19f
 1901 0566 6B000000 		.4byte	0x6b
 1902 056a 01       		.byte	0x1
 1903 056b 00       		.byte	0
 1904 056c 04       		.uleb128 0x4
 1905 056d 94080000 		.4byte	.LASF179
 1906 0571 05       		.byte	0x5
 1907 0572 A101     		.2byte	0x1a1
 1908 0574 48050000 		.4byte	0x548
 1909 0578 0E       		.uleb128 0xe
 1910 0579 08       		.byte	0x8
 1911 057a 05       		.byte	0x5
 1912 057b BD01     		.2byte	0x1bd
 1913 057d A9050000 		.4byte	0x5a9
 1914 0581 12       		.uleb128 0x12
 1915 0582 76616C00 		.ascii	"val\000"
 1916 0586 05       		.byte	0x5
 1917 0587 C001     		.2byte	0x1c0
 1918 0589 15030000 		.4byte	0x315
 1919 058d 00       		.byte	0
 1920 058e 12       		.uleb128 0x12
 1921 058f 6C656E00 		.ascii	"len\000"
 1922 0593 05       		.byte	0x5
 1923 0594 C301     		.2byte	0x1c3
 1924 0596 77000000 		.4byte	0x77
 1925 059a 04       		.byte	0x4
 1926 059b 0F       		.uleb128 0xf
 1927 059c 9B3B0000 		.4byte	.LASF180
 1928 05a0 05       		.byte	0x5
 1929 05a1 CA01     		.2byte	0x1ca
 1930 05a3 77000000 		.4byte	0x77
 1931 05a7 06       		.byte	0x6
 1932 05a8 00       		.byte	0
 1933 05a9 04       		.uleb128 0x4
 1934 05aa E4060000 		.4byte	.LASF181
 1935 05ae 05       		.byte	0x5
 1936 05af CC01     		.2byte	0x1cc
 1937 05b1 78050000 		.4byte	0x578
 1938 05b5 0E       		.uleb128 0xe
 1939 05b6 0C       		.byte	0xc
 1940 05b7 05       		.byte	0x5
 1941 05b8 CF01     		.2byte	0x1cf
 1942 05ba D9050000 		.4byte	0x5d9
 1943 05be 0F       		.uleb128 0xf
 1944 05bf 602D0000 		.4byte	.LASF176
ARM GAS  C:\Users\Petro\AppData\Local\Temp\cca5nTbz.s 			page 57


 1945 05c3 05       		.byte	0x5
 1946 05c4 D201     		.2byte	0x1d2
 1947 05c6 A9050000 		.4byte	0x5a9
 1948 05ca 00       		.byte	0
 1949 05cb 0F       		.uleb128 0xf
 1950 05cc 6C240000 		.4byte	.LASF182
 1951 05d0 05       		.byte	0x5
 1952 05d1 D501     		.2byte	0x1d5
 1953 05d3 3C050000 		.4byte	0x53c
 1954 05d7 08       		.byte	0x8
 1955 05d8 00       		.byte	0
 1956 05d9 04       		.uleb128 0x4
 1957 05da 350D0000 		.4byte	.LASF183
 1958 05de 05       		.byte	0x5
 1959 05df D701     		.2byte	0x1d7
 1960 05e1 B5050000 		.4byte	0x5b5
 1961 05e5 0E       		.uleb128 0xe
 1962 05e6 04       		.byte	0x4
 1963 05e7 05       		.byte	0x5
 1964 05e8 DA01     		.2byte	0x1da
 1965 05ea 09060000 		.4byte	0x609
 1966 05ee 0F       		.uleb128 0xf
 1967 05ef D2190000 		.4byte	.LASF184
 1968 05f3 05       		.byte	0x5
 1969 05f4 DD01     		.2byte	0x1dd
 1970 05f6 3C050000 		.4byte	0x53c
 1971 05fa 00       		.byte	0
 1972 05fb 0F       		.uleb128 0xf
 1973 05fc 62370000 		.4byte	.LASF185
 1974 0600 05       		.byte	0x5
 1975 0601 E001     		.2byte	0x1e0
 1976 0603 3C050000 		.4byte	0x53c
 1977 0607 02       		.byte	0x2
 1978 0608 00       		.byte	0
 1979 0609 04       		.uleb128 0x4
 1980 060a FA340000 		.4byte	.LASF186
 1981 060e 05       		.byte	0x5
 1982 060f E201     		.2byte	0x1e2
 1983 0611 E5050000 		.4byte	0x5e5
 1984 0615 13       		.uleb128 0x13
 1985 0616 08       		.byte	0x8
 1986 0617 06       		.byte	0x6
 1987 0618 2D       		.byte	0x2d
 1988 0619 4E060000 		.4byte	0x64e
 1989 061d 14       		.uleb128 0x14
 1990 061e AB2F0000 		.4byte	.LASF187
 1991 0622 06       		.byte	0x6
 1992 0623 30       		.byte	0x30
 1993 0624 6C050000 		.4byte	0x56c
 1994 0628 00       		.byte	0
 1995 0629 14       		.uleb128 0x14
 1996 062a EE210000 		.4byte	.LASF188
 1997 062e 06       		.byte	0x6
 1998 062f 33       		.byte	0x33
 1999 0630 D5030000 		.4byte	0x3d5
 2000 0634 02       		.byte	0x2
 2001 0635 14       		.uleb128 0x14
ARM GAS  C:\Users\Petro\AppData\Local\Temp\cca5nTbz.s 			page 58


 2002 0636 6C240000 		.4byte	.LASF182
 2003 063a 06       		.byte	0x6
 2004 063b 36       		.byte	0x36
 2005 063c 3C050000 		.4byte	0x53c
 2006 0640 04       		.byte	0x4
 2007 0641 14       		.uleb128 0x14
 2008 0642 86110000 		.4byte	.LASF189
 2009 0646 06       		.byte	0x6
 2010 0647 39       		.byte	0x39
 2011 0648 D3040000 		.4byte	0x4d3
 2012 064c 06       		.byte	0x6
 2013 064d 00       		.byte	0
 2014 064e 06       		.uleb128 0x6
 2015 064f 5E2E0000 		.4byte	.LASF190
 2016 0653 06       		.byte	0x6
 2017 0654 3B       		.byte	0x3b
 2018 0655 15060000 		.4byte	0x615
 2019 0659 06       		.uleb128 0x6
 2020 065a 9E0A0000 		.4byte	.LASF191
 2021 065e 06       		.byte	0x6
 2022 065f 55       		.byte	0x55
 2023 0660 3C050000 		.4byte	0x53c
 2024 0664 06       		.uleb128 0x6
 2025 0665 AF0D0000 		.4byte	.LASF192
 2026 0669 06       		.byte	0x6
 2027 066a 77       		.byte	0x77
 2028 066b D9050000 		.4byte	0x5d9
 2029 066f 13       		.uleb128 0x13
 2030 0670 0C       		.byte	0xc
 2031 0671 06       		.byte	0x6
 2032 0672 7D       		.byte	0x7d
 2033 0673 90060000 		.4byte	0x690
 2034 0677 14       		.uleb128 0x14
 2035 0678 AB2F0000 		.4byte	.LASF187
 2036 067c 06       		.byte	0x6
 2037 067d 80       		.byte	0x80
 2038 067e 6C050000 		.4byte	0x56c
 2039 0682 00       		.byte	0
 2040 0683 14       		.uleb128 0x14
 2041 0684 602D0000 		.4byte	.LASF176
 2042 0688 06       		.byte	0x6
 2043 0689 83       		.byte	0x83
 2044 068a A9050000 		.4byte	0x5a9
 2045 068e 04       		.byte	0x4
 2046 068f 00       		.byte	0
 2047 0690 06       		.uleb128 0x6
 2048 0691 3C350000 		.4byte	.LASF193
 2049 0695 06       		.byte	0x6
 2050 0696 85       		.byte	0x85
 2051 0697 6F060000 		.4byte	0x66f
 2052 069b 13       		.uleb128 0x13
 2053 069c 10       		.byte	0x10
 2054 069d 06       		.byte	0x6
 2055 069e 88       		.byte	0x88
 2056 069f BC060000 		.4byte	0x6bc
 2057 06a3 14       		.uleb128 0x14
 2058 06a4 AB2F0000 		.4byte	.LASF187
ARM GAS  C:\Users\Petro\AppData\Local\Temp\cca5nTbz.s 			page 59


 2059 06a8 06       		.byte	0x6
 2060 06a9 8B       		.byte	0x8b
 2061 06aa 6C050000 		.4byte	0x56c
 2062 06ae 00       		.byte	0
 2063 06af 14       		.uleb128 0x14
 2064 06b0 15340000 		.4byte	.LASF194
 2065 06b4 06       		.byte	0x6
 2066 06b5 8E       		.byte	0x8e
 2067 06b6 D9050000 		.4byte	0x5d9
 2068 06ba 04       		.byte	0x4
 2069 06bb 00       		.byte	0
 2070 06bc 06       		.uleb128 0x6
 2071 06bd 0F080000 		.4byte	.LASF195
 2072 06c1 06       		.byte	0x6
 2073 06c2 90       		.byte	0x90
 2074 06c3 9B060000 		.4byte	0x69b
 2075 06c7 06       		.uleb128 0x6
 2076 06c8 A62D0000 		.4byte	.LASF196
 2077 06cc 06       		.byte	0x6
 2078 06cd 93       		.byte	0x93
 2079 06ce BC060000 		.4byte	0x6bc
 2080 06d2 04       		.uleb128 0x4
 2081 06d3 CE070000 		.4byte	.LASF197
 2082 06d7 07       		.byte	0x7
 2083 06d8 3C01     		.2byte	0x13c
 2084 06da DE060000 		.4byte	0x6de
 2085 06de 0D       		.uleb128 0xd
 2086 06df 04       		.byte	0x4
 2087 06e0 E4060000 		.4byte	0x6e4
 2088 06e4 15       		.uleb128 0x15
 2089 06e5 F4060000 		.4byte	0x6f4
 2090 06e9 16       		.uleb128 0x16
 2091 06ea 83000000 		.4byte	0x83
 2092 06ee 16       		.uleb128 0x16
 2093 06ef BB000000 		.4byte	0xbb
 2094 06f3 00       		.byte	0
 2095 06f4 13       		.uleb128 0x13
 2096 06f5 06       		.byte	0x6
 2097 06f6 08       		.byte	0x8
 2098 06f7 4F       		.byte	0x4f
 2099 06f8 15070000 		.4byte	0x715
 2100 06fc 14       		.uleb128 0x14
 2101 06fd 61340000 		.4byte	.LASF198
 2102 0701 08       		.byte	0x8
 2103 0702 51       		.byte	0x51
 2104 0703 09060000 		.4byte	0x609
 2105 0707 00       		.byte	0
 2106 0708 14       		.uleb128 0x14
 2107 0709 B7240000 		.4byte	.LASF199
 2108 070d 08       		.byte	0x8
 2109 070e 52       		.byte	0x52
 2110 070f 77000000 		.4byte	0x77
 2111 0713 04       		.byte	0x4
 2112 0714 00       		.byte	0
 2113 0715 06       		.uleb128 0x6
 2114 0716 A8250000 		.4byte	.LASF200
 2115 071a 08       		.byte	0x8
ARM GAS  C:\Users\Petro\AppData\Local\Temp\cca5nTbz.s 			page 60


 2116 071b 53       		.byte	0x53
 2117 071c F4060000 		.4byte	0x6f4
 2118 0720 13       		.uleb128 0x13
 2119 0721 18       		.byte	0x18
 2120 0722 08       		.byte	0x8
 2121 0723 66       		.byte	0x66
 2122 0724 65070000 		.4byte	0x765
 2123 0728 14       		.uleb128 0x14
 2124 0729 CD2C0000 		.4byte	.LASF201
 2125 072d 08       		.byte	0x8
 2126 072e 68       		.byte	0x68
 2127 072f 3C050000 		.4byte	0x53c
 2128 0733 00       		.byte	0
 2129 0734 14       		.uleb128 0x14
 2130 0735 B62F0000 		.4byte	.LASF202
 2131 0739 08       		.byte	0x8
 2132 073a 69       		.byte	0x69
 2133 073b 6B000000 		.4byte	0x6b
 2134 073f 02       		.byte	0x2
 2135 0740 14       		.uleb128 0x14
 2136 0741 A33E0000 		.4byte	.LASF203
 2137 0745 08       		.byte	0x8
 2138 0746 6A       		.byte	0x6a
 2139 0747 3C050000 		.4byte	0x53c
 2140 074b 04       		.byte	0x4
 2141 074c 14       		.uleb128 0x14
 2142 074d B7240000 		.4byte	.LASF199
 2143 0751 08       		.byte	0x8
 2144 0752 6B       		.byte	0x6b
 2145 0753 30050000 		.4byte	0x530
 2146 0757 06       		.byte	0x6
 2147 0758 14       		.uleb128 0x14
 2148 0759 90110000 		.4byte	.LASF204
 2149 075d 08       		.byte	0x8
 2150 075e 6C       		.byte	0x6c
 2151 075f 6B000000 		.4byte	0x6b
 2152 0763 16       		.byte	0x16
 2153 0764 00       		.byte	0
 2154 0765 06       		.uleb128 0x6
 2155 0766 73290000 		.4byte	.LASF205
 2156 076a 08       		.byte	0x8
 2157 076b 6D       		.byte	0x6d
 2158 076c 20070000 		.4byte	0x720
 2159 0770 13       		.uleb128 0x13
 2160 0771 16       		.byte	0x16
 2161 0772 08       		.byte	0x8
 2162 0773 7A       		.byte	0x7a
 2163 0774 A9070000 		.4byte	0x7a9
 2164 0778 14       		.uleb128 0x14
 2165 0779 AB2F0000 		.4byte	.LASF187
 2166 077d 08       		.byte	0x8
 2167 077e 7C       		.byte	0x7c
 2168 077f 6C050000 		.4byte	0x56c
 2169 0783 00       		.byte	0
 2170 0784 14       		.uleb128 0x14
 2171 0785 53090000 		.4byte	.LASF206
 2172 0789 08       		.byte	0x8
ARM GAS  C:\Users\Petro\AppData\Local\Temp\cca5nTbz.s 			page 61


 2173 078a 7D       		.byte	0x7d
 2174 078b 3C050000 		.4byte	0x53c
 2175 078f 02       		.byte	0x2
 2176 0790 14       		.uleb128 0x14
 2177 0791 B7240000 		.4byte	.LASF199
 2178 0795 08       		.byte	0x8
 2179 0796 7E       		.byte	0x7e
 2180 0797 30050000 		.4byte	0x530
 2181 079b 04       		.byte	0x4
 2182 079c 14       		.uleb128 0x14
 2183 079d 90110000 		.4byte	.LASF204
 2184 07a1 08       		.byte	0x8
 2185 07a2 7F       		.byte	0x7f
 2186 07a3 6B000000 		.4byte	0x6b
 2187 07a7 14       		.byte	0x14
 2188 07a8 00       		.byte	0
 2189 07a9 06       		.uleb128 0x6
 2190 07aa BA190000 		.4byte	.LASF207
 2191 07ae 08       		.byte	0x8
 2192 07af 80       		.byte	0x80
 2193 07b0 70070000 		.4byte	0x770
 2194 07b4 08       		.uleb128 0x8
 2195 07b5 01       		.byte	0x1
 2196 07b6 09       		.byte	0x9
 2197 07b7 21       		.byte	0x21
 2198 07b8 E1070000 		.4byte	0x7e1
 2199 07bc 09       		.uleb128 0x9
 2200 07bd 3B280000 		.4byte	.LASF208
 2201 07c1 00       		.sleb128 0
 2202 07c2 09       		.uleb128 0x9
 2203 07c3 B32C0000 		.4byte	.LASF209
 2204 07c7 01       		.sleb128 1
 2205 07c8 09       		.uleb128 0x9
 2206 07c9 48030000 		.4byte	.LASF210
 2207 07cd 02       		.sleb128 2
 2208 07ce 09       		.uleb128 0x9
 2209 07cf 06230000 		.4byte	.LASF211
 2210 07d3 03       		.sleb128 3
 2211 07d4 09       		.uleb128 0x9
 2212 07d5 073D0000 		.4byte	.LASF212
 2213 07d9 04       		.sleb128 4
 2214 07da 09       		.uleb128 0x9
 2215 07db F70A0000 		.4byte	.LASF213
 2216 07df 05       		.sleb128 5
 2217 07e0 00       		.byte	0
 2218 07e1 06       		.uleb128 0x6
 2219 07e2 B9330000 		.4byte	.LASF214
 2220 07e6 09       		.byte	0x9
 2221 07e7 28       		.byte	0x28
 2222 07e8 B4070000 		.4byte	0x7b4
 2223 07ec 08       		.uleb128 0x8
 2224 07ed 01       		.byte	0x1
 2225 07ee 09       		.byte	0x9
 2226 07ef 2C       		.byte	0x2c
 2227 07f0 01080000 		.4byte	0x801
 2228 07f4 09       		.uleb128 0x9
 2229 07f5 89360000 		.4byte	.LASF215
ARM GAS  C:\Users\Petro\AppData\Local\Temp\cca5nTbz.s 			page 62


 2230 07f9 00       		.sleb128 0
 2231 07fa 09       		.uleb128 0x9
 2232 07fb 65150000 		.4byte	.LASF216
 2233 07ff 01       		.sleb128 1
 2234 0800 00       		.byte	0
 2235 0801 06       		.uleb128 0x6
 2236 0802 70360000 		.4byte	.LASF217
 2237 0806 09       		.byte	0x9
 2238 0807 2F       		.byte	0x2f
 2239 0808 EC070000 		.4byte	0x7ec
 2240 080c 0B       		.uleb128 0xb
 2241 080d 3C050000 		.4byte	0x53c
 2242 0811 1C080000 		.4byte	0x81c
 2243 0815 0C       		.uleb128 0xc
 2244 0816 B4000000 		.4byte	0xb4
 2245 081a 00       		.byte	0
 2246 081b 00       		.byte	0
 2247 081c 13       		.uleb128 0x13
 2248 081d 08       		.byte	0x8
 2249 081e 09       		.byte	0x9
 2250 081f 39       		.byte	0x39
 2251 0820 49080000 		.4byte	0x849
 2252 0824 14       		.uleb128 0x14
 2253 0825 AB2F0000 		.4byte	.LASF187
 2254 0829 09       		.byte	0x9
 2255 082a 3B       		.byte	0x3b
 2256 082b 6C050000 		.4byte	0x56c
 2257 082f 00       		.byte	0
 2258 0830 14       		.uleb128 0x14
 2259 0831 DF3A0000 		.4byte	.LASF218
 2260 0835 09       		.byte	0x9
 2261 0836 3C       		.byte	0x3c
 2262 0837 E1070000 		.4byte	0x7e1
 2263 083b 02       		.byte	0x2
 2264 083c 14       		.uleb128 0x14
 2265 083d 602D0000 		.4byte	.LASF176
 2266 0841 09       		.byte	0x9
 2267 0842 3D       		.byte	0x3d
 2268 0843 49080000 		.4byte	0x849
 2269 0847 04       		.byte	0x4
 2270 0848 00       		.byte	0
 2271 0849 0D       		.uleb128 0xd
 2272 084a 04       		.byte	0x4
 2273 084b A9050000 		.4byte	0x5a9
 2274 084f 06       		.uleb128 0x6
 2275 0850 820C0000 		.4byte	.LASF219
 2276 0854 09       		.byte	0x9
 2277 0855 3E       		.byte	0x3e
 2278 0856 1C080000 		.4byte	0x81c
 2279 085a 13       		.uleb128 0x13
 2280 085b 08       		.byte	0x8
 2281 085c 09       		.byte	0x9
 2282 085d 41       		.byte	0x41
 2283 085e 93080000 		.4byte	0x893
 2284 0862 14       		.uleb128 0x14
 2285 0863 AB2F0000 		.4byte	.LASF187
 2286 0867 09       		.byte	0x9
ARM GAS  C:\Users\Petro\AppData\Local\Temp\cca5nTbz.s 			page 63


 2287 0868 43       		.byte	0x43
 2288 0869 6C050000 		.4byte	0x56c
 2289 086d 00       		.byte	0
 2290 086e 14       		.uleb128 0x14
 2291 086f DF3A0000 		.4byte	.LASF218
 2292 0873 09       		.byte	0x9
 2293 0874 44       		.byte	0x44
 2294 0875 E1070000 		.4byte	0x7e1
 2295 0879 02       		.byte	0x2
 2296 087a 14       		.uleb128 0x14
 2297 087b 61240000 		.4byte	.LASF220
 2298 087f 09       		.byte	0x9
 2299 0880 45       		.byte	0x45
 2300 0881 01080000 		.4byte	0x801
 2301 0885 03       		.byte	0x3
 2302 0886 14       		.uleb128 0x14
 2303 0887 602D0000 		.4byte	.LASF176
 2304 088b 09       		.byte	0x9
 2305 088c 46       		.byte	0x46
 2306 088d 49080000 		.4byte	0x849
 2307 0891 04       		.byte	0x4
 2308 0892 00       		.byte	0
 2309 0893 06       		.uleb128 0x6
 2310 0894 90220000 		.4byte	.LASF221
 2311 0898 09       		.byte	0x9
 2312 0899 47       		.byte	0x47
 2313 089a 5A080000 		.4byte	0x85a
 2314 089e 13       		.uleb128 0x13
 2315 089f 08       		.byte	0x8
 2316 08a0 09       		.byte	0x9
 2317 08a1 59       		.byte	0x59
 2318 08a2 D7080000 		.4byte	0x8d7
 2319 08a6 14       		.uleb128 0x14
 2320 08a7 53090000 		.4byte	.LASF206
 2321 08ab 09       		.byte	0x9
 2322 08ac 5B       		.byte	0x5b
 2323 08ad 0C080000 		.4byte	0x80c
 2324 08b1 00       		.byte	0
 2325 08b2 14       		.uleb128 0x14
 2326 08b3 A33E0000 		.4byte	.LASF203
 2327 08b7 09       		.byte	0x9
 2328 08b8 5C       		.byte	0x5c
 2329 08b9 3C050000 		.4byte	0x53c
 2330 08bd 02       		.byte	0x2
 2331 08be 14       		.uleb128 0x14
 2332 08bf 62370000 		.4byte	.LASF185
 2333 08c3 09       		.byte	0x9
 2334 08c4 5D       		.byte	0x5d
 2335 08c5 3C050000 		.4byte	0x53c
 2336 08c9 04       		.byte	0x4
 2337 08ca 14       		.uleb128 0x14
 2338 08cb B62F0000 		.4byte	.LASF202
 2339 08cf 09       		.byte	0x9
 2340 08d0 5E       		.byte	0x5e
 2341 08d1 6B000000 		.4byte	0x6b
 2342 08d5 06       		.byte	0x6
 2343 08d6 00       		.byte	0
ARM GAS  C:\Users\Petro\AppData\Local\Temp\cca5nTbz.s 			page 64


 2344 08d7 06       		.uleb128 0x6
 2345 08d8 160B0000 		.4byte	.LASF222
 2346 08dc 09       		.byte	0x9
 2347 08dd 5F       		.byte	0x5f
 2348 08de 9E080000 		.4byte	0x89e
 2349 08e2 13       		.uleb128 0x13
 2350 08e3 2A       		.byte	0x2a
 2351 08e4 09       		.byte	0x9
 2352 08e5 62       		.byte	0x62
 2353 08e6 03090000 		.4byte	0x903
 2354 08ea 14       		.uleb128 0x14
 2355 08eb 9A0C0000 		.4byte	.LASF223
 2356 08ef 09       		.byte	0x9
 2357 08f0 65       		.byte	0x65
 2358 08f1 3C050000 		.4byte	0x53c
 2359 08f5 00       		.byte	0
 2360 08f6 14       		.uleb128 0x14
 2361 08f7 0F380000 		.4byte	.LASF224
 2362 08fb 09       		.byte	0x9
 2363 08fc 67       		.byte	0x67
 2364 08fd 03090000 		.4byte	0x903
 2365 0901 02       		.byte	0x2
 2366 0902 00       		.byte	0
 2367 0903 0B       		.uleb128 0xb
 2368 0904 D7080000 		.4byte	0x8d7
 2369 0908 13090000 		.4byte	0x913
 2370 090c 0C       		.uleb128 0xc
 2371 090d B4000000 		.4byte	0xb4
 2372 0911 04       		.byte	0x4
 2373 0912 00       		.byte	0
 2374 0913 06       		.uleb128 0x6
 2375 0914 401A0000 		.4byte	.LASF225
 2376 0918 09       		.byte	0x9
 2377 0919 68       		.byte	0x68
 2378 091a E2080000 		.4byte	0x8e2
 2379 091e 08       		.uleb128 0x8
 2380 091f 02       		.byte	0x2
 2381 0920 0A       		.byte	0xa
 2382 0921 9D       		.byte	0x9d
 2383 0922 13100000 		.4byte	0x1013
 2384 0926 09       		.uleb128 0x9
 2385 0927 01260000 		.4byte	.LASF226
 2386 092b 8002     		.sleb128 256
 2387 092d 09       		.uleb128 0x9
 2388 092e 9F3C0000 		.4byte	.LASF227
 2389 0932 8102     		.sleb128 257
 2390 0934 09       		.uleb128 0x9
 2391 0935 CA0B0000 		.4byte	.LASF228
 2392 0939 8202     		.sleb128 258
 2393 093b 09       		.uleb128 0x9
 2394 093c 553C0000 		.4byte	.LASF229
 2395 0940 8302     		.sleb128 259
 2396 0942 09       		.uleb128 0x9
 2397 0943 132C0000 		.4byte	.LASF230
 2398 0947 8402     		.sleb128 260
 2399 0949 09       		.uleb128 0x9
 2400 094a 3D340000 		.4byte	.LASF231
ARM GAS  C:\Users\Petro\AppData\Local\Temp\cca5nTbz.s 			page 65


 2401 094e 8502     		.sleb128 261
 2402 0950 09       		.uleb128 0x9
 2403 0951 6B110000 		.4byte	.LASF232
 2404 0955 8602     		.sleb128 262
 2405 0957 09       		.uleb128 0x9
 2406 0958 9C350000 		.4byte	.LASF233
 2407 095c 8702     		.sleb128 263
 2408 095e 09       		.uleb128 0x9
 2409 095f E93A0000 		.4byte	.LASF234
 2410 0963 8802     		.sleb128 264
 2411 0965 09       		.uleb128 0x9
 2412 0966 77060000 		.4byte	.LASF235
 2413 096a 8902     		.sleb128 265
 2414 096c 09       		.uleb128 0x9
 2415 096d 5D030000 		.4byte	.LASF236
 2416 0971 8A02     		.sleb128 266
 2417 0973 09       		.uleb128 0x9
 2418 0974 D32E0000 		.4byte	.LASF237
 2419 0978 8B02     		.sleb128 267
 2420 097a 09       		.uleb128 0x9
 2421 097b 4D200000 		.4byte	.LASF238
 2422 097f 8C02     		.sleb128 268
 2423 0981 09       		.uleb128 0x9
 2424 0982 BC2A0000 		.4byte	.LASF239
 2425 0986 8D02     		.sleb128 269
 2426 0988 09       		.uleb128 0x9
 2427 0989 2C040000 		.4byte	.LASF240
 2428 098d 8E02     		.sleb128 270
 2429 098f 09       		.uleb128 0x9
 2430 0990 5E010000 		.4byte	.LASF241
 2431 0994 8F02     		.sleb128 271
 2432 0996 09       		.uleb128 0x9
 2433 0997 6C080000 		.4byte	.LASF242
 2434 099b 9002     		.sleb128 272
 2435 099d 09       		.uleb128 0x9
 2436 099e 0B390000 		.4byte	.LASF243
 2437 09a2 9102     		.sleb128 273
 2438 09a4 09       		.uleb128 0x9
 2439 09a5 08120000 		.4byte	.LASF244
 2440 09a9 9202     		.sleb128 274
 2441 09ab 09       		.uleb128 0x9
 2442 09ac 632F0000 		.4byte	.LASF245
 2443 09b0 9302     		.sleb128 275
 2444 09b2 09       		.uleb128 0x9
 2445 09b3 6F040000 		.4byte	.LASF246
 2446 09b7 9402     		.sleb128 276
 2447 09b9 09       		.uleb128 0x9
 2448 09ba 50330000 		.4byte	.LASF247
 2449 09be 9502     		.sleb128 277
 2450 09c0 09       		.uleb128 0x9
 2451 09c1 4E0B0000 		.4byte	.LASF248
 2452 09c5 9602     		.sleb128 278
 2453 09c7 09       		.uleb128 0x9
 2454 09c8 D23D0000 		.4byte	.LASF249
 2455 09cc 9702     		.sleb128 279
 2456 09ce 09       		.uleb128 0x9
 2457 09cf 13240000 		.4byte	.LASF250
ARM GAS  C:\Users\Petro\AppData\Local\Temp\cca5nTbz.s 			page 66


 2458 09d3 9802     		.sleb128 280
 2459 09d5 09       		.uleb128 0x9
 2460 09d6 38160000 		.4byte	.LASF251
 2461 09da 9902     		.sleb128 281
 2462 09dc 09       		.uleb128 0x9
 2463 09dd 59350000 		.4byte	.LASF252
 2464 09e1 9A02     		.sleb128 282
 2465 09e3 09       		.uleb128 0x9
 2466 09e4 29270000 		.4byte	.LASF253
 2467 09e8 9B02     		.sleb128 283
 2468 09ea 09       		.uleb128 0x9
 2469 09eb 643E0000 		.4byte	.LASF254
 2470 09ef 9C02     		.sleb128 284
 2471 09f1 09       		.uleb128 0x9
 2472 09f2 E4350000 		.4byte	.LASF255
 2473 09f6 9D02     		.sleb128 285
 2474 09f8 09       		.uleb128 0x9
 2475 09f9 D32B0000 		.4byte	.LASF256
 2476 09fd 9E02     		.sleb128 286
 2477 09ff 09       		.uleb128 0x9
 2478 0a00 E21C0000 		.4byte	.LASF257
 2479 0a04 9F02     		.sleb128 287
 2480 0a06 09       		.uleb128 0x9
 2481 0a07 33190000 		.4byte	.LASF258
 2482 0a0b A002     		.sleb128 288
 2483 0a0d 09       		.uleb128 0x9
 2484 0a0e 0E050000 		.4byte	.LASF259
 2485 0a12 A102     		.sleb128 289
 2486 0a14 09       		.uleb128 0x9
 2487 0a15 8D2B0000 		.4byte	.LASF260
 2488 0a19 A202     		.sleb128 290
 2489 0a1b 09       		.uleb128 0x9
 2490 0a1c EF1D0000 		.4byte	.LASF261
 2491 0a20 A302     		.sleb128 291
 2492 0a22 09       		.uleb128 0x9
 2493 0a23 C12F0000 		.4byte	.LASF262
 2494 0a27 A402     		.sleb128 292
 2495 0a29 09       		.uleb128 0x9
 2496 0a2a 582A0000 		.4byte	.LASF263
 2497 0a2e A502     		.sleb128 293
 2498 0a30 09       		.uleb128 0x9
 2499 0a31 6C370000 		.4byte	.LASF264
 2500 0a35 A602     		.sleb128 294
 2501 0a37 09       		.uleb128 0x9
 2502 0a38 980E0000 		.4byte	.LASF265
 2503 0a3c A702     		.sleb128 295
 2504 0a3e 09       		.uleb128 0x9
 2505 0a3f 78350000 		.4byte	.LASF266
 2506 0a43 A802     		.sleb128 296
 2507 0a45 09       		.uleb128 0x9
 2508 0a46 4D180000 		.4byte	.LASF267
 2509 0a4a A902     		.sleb128 297
 2510 0a4c 09       		.uleb128 0x9
 2511 0a4d 440C0000 		.4byte	.LASF268
 2512 0a51 AA02     		.sleb128 298
 2513 0a53 09       		.uleb128 0x9
 2514 0a54 A9030000 		.4byte	.LASF269
ARM GAS  C:\Users\Petro\AppData\Local\Temp\cca5nTbz.s 			page 67


 2515 0a58 AB02     		.sleb128 299
 2516 0a5a 09       		.uleb128 0x9
 2517 0a5b CD030000 		.4byte	.LASF270
 2518 0a5f AC02     		.sleb128 300
 2519 0a61 09       		.uleb128 0x9
 2520 0a62 9B000000 		.4byte	.LASF271
 2521 0a66 AD02     		.sleb128 301
 2522 0a68 09       		.uleb128 0x9
 2523 0a69 510E0000 		.4byte	.LASF272
 2524 0a6d AE02     		.sleb128 302
 2525 0a6f 09       		.uleb128 0x9
 2526 0a70 C13C0000 		.4byte	.LASF273
 2527 0a74 AF02     		.sleb128 303
 2528 0a76 09       		.uleb128 0x9
 2529 0a77 74070000 		.4byte	.LASF274
 2530 0a7b B002     		.sleb128 304
 2531 0a7d 09       		.uleb128 0x9
 2532 0a7e 38250000 		.4byte	.LASF275
 2533 0a82 B102     		.sleb128 305
 2534 0a84 09       		.uleb128 0x9
 2535 0a85 08330000 		.4byte	.LASF276
 2536 0a89 B202     		.sleb128 306
 2537 0a8b 09       		.uleb128 0x9
 2538 0a8c C7150000 		.4byte	.LASF277
 2539 0a90 B302     		.sleb128 307
 2540 0a92 09       		.uleb128 0x9
 2541 0a93 80260000 		.4byte	.LASF278
 2542 0a97 B402     		.sleb128 308
 2543 0a99 09       		.uleb128 0x9
 2544 0a9a F5170000 		.4byte	.LASF279
 2545 0a9e B502     		.sleb128 309
 2546 0aa0 09       		.uleb128 0x9
 2547 0aa1 96070000 		.4byte	.LASF280
 2548 0aa5 B602     		.sleb128 310
 2549 0aa7 09       		.uleb128 0x9
 2550 0aa8 65020000 		.4byte	.LASF281
 2551 0aac B702     		.sleb128 311
 2552 0aae 09       		.uleb128 0x9
 2553 0aaf B1090000 		.4byte	.LASF282
 2554 0ab3 B802     		.sleb128 312
 2555 0ab5 09       		.uleb128 0x9
 2556 0ab6 822D0000 		.4byte	.LASF283
 2557 0aba B902     		.sleb128 313
 2558 0abc 09       		.uleb128 0x9
 2559 0abd 23340000 		.4byte	.LASF284
 2560 0ac1 BA02     		.sleb128 314
 2561 0ac3 09       		.uleb128 0x9
 2562 0ac4 31090000 		.4byte	.LASF285
 2563 0ac8 BB02     		.sleb128 315
 2564 0aca 09       		.uleb128 0x9
 2565 0acb DD280000 		.4byte	.LASF286
 2566 0acf BC02     		.sleb128 316
 2567 0ad1 09       		.uleb128 0x9
 2568 0ad2 6D380000 		.4byte	.LASF287
 2569 0ad6 BD02     		.sleb128 317
 2570 0ad8 09       		.uleb128 0x9
 2571 0ad9 13210000 		.4byte	.LASF288
ARM GAS  C:\Users\Petro\AppData\Local\Temp\cca5nTbz.s 			page 68


 2572 0add BE02     		.sleb128 318
 2573 0adf 09       		.uleb128 0x9
 2574 0ae0 E7380000 		.4byte	.LASF289
 2575 0ae4 BF02     		.sleb128 319
 2576 0ae6 09       		.uleb128 0x9
 2577 0ae7 68090000 		.4byte	.LASF290
 2578 0aeb C002     		.sleb128 320
 2579 0aed 09       		.uleb128 0x9
 2580 0aee FB100000 		.4byte	.LASF291
 2581 0af2 C102     		.sleb128 321
 2582 0af4 09       		.uleb128 0x9
 2583 0af5 B93A0000 		.4byte	.LASF292
 2584 0af9 C202     		.sleb128 322
 2585 0afb 09       		.uleb128 0x9
 2586 0afc 2E390000 		.4byte	.LASF293
 2587 0b00 C302     		.sleb128 323
 2588 0b02 09       		.uleb128 0x9
 2589 0b03 BD000000 		.4byte	.LASF294
 2590 0b07 C402     		.sleb128 324
 2591 0b09 09       		.uleb128 0x9
 2592 0b0a 9E340000 		.4byte	.LASF295
 2593 0b0e C502     		.sleb128 325
 2594 0b10 09       		.uleb128 0x9
 2595 0b11 BF1E0000 		.4byte	.LASF296
 2596 0b15 C602     		.sleb128 326
 2597 0b17 09       		.uleb128 0x9
 2598 0b18 6D330000 		.4byte	.LASF297
 2599 0b1c C702     		.sleb128 327
 2600 0b1e 09       		.uleb128 0x9
 2601 0b1f DD300000 		.4byte	.LASF298
 2602 0b23 C802     		.sleb128 328
 2603 0b25 09       		.uleb128 0x9
 2604 0b26 10020000 		.4byte	.LASF299
 2605 0b2a C902     		.sleb128 329
 2606 0b2c 09       		.uleb128 0x9
 2607 0b2d E62F0000 		.4byte	.LASF300
 2608 0b31 CA02     		.sleb128 330
 2609 0b33 09       		.uleb128 0x9
 2610 0b34 F70F0000 		.4byte	.LASF301
 2611 0b38 CB02     		.sleb128 331
 2612 0b3a 09       		.uleb128 0x9
 2613 0b3b 580A0000 		.4byte	.LASF302
 2614 0b3f CC02     		.sleb128 332
 2615 0b41 09       		.uleb128 0x9
 2616 0b42 1C0A0000 		.4byte	.LASF303
 2617 0b46 CD02     		.sleb128 333
 2618 0b48 09       		.uleb128 0x9
 2619 0b49 A90F0000 		.4byte	.LASF304
 2620 0b4d CE02     		.sleb128 334
 2621 0b4f 09       		.uleb128 0x9
 2622 0b50 D01F0000 		.4byte	.LASF305
 2623 0b54 CF02     		.sleb128 335
 2624 0b56 09       		.uleb128 0x9
 2625 0b57 DC3B0000 		.4byte	.LASF306
 2626 0b5b D002     		.sleb128 336
 2627 0b5d 09       		.uleb128 0x9
 2628 0b5e 04150000 		.4byte	.LASF307
ARM GAS  C:\Users\Petro\AppData\Local\Temp\cca5nTbz.s 			page 69


 2629 0b62 D102     		.sleb128 337
 2630 0b64 09       		.uleb128 0x9
 2631 0b65 662D0000 		.4byte	.LASF308
 2632 0b69 D202     		.sleb128 338
 2633 0b6b 09       		.uleb128 0x9
 2634 0b6c 6B280000 		.4byte	.LASF309
 2635 0b70 D302     		.sleb128 339
 2636 0b72 09       		.uleb128 0x9
 2637 0b73 A8010000 		.4byte	.LASF310
 2638 0b77 D402     		.sleb128 340
 2639 0b79 09       		.uleb128 0x9
 2640 0b7a 731E0000 		.4byte	.LASF311
 2641 0b7e D502     		.sleb128 341
 2642 0b80 09       		.uleb128 0x9
 2643 0b81 D8000000 		.4byte	.LASF312
 2644 0b85 D602     		.sleb128 342
 2645 0b87 09       		.uleb128 0x9
 2646 0b88 D30A0000 		.4byte	.LASF313
 2647 0b8c D702     		.sleb128 343
 2648 0b8e 09       		.uleb128 0x9
 2649 0b8f 8E390000 		.4byte	.LASF314
 2650 0b93 D802     		.sleb128 344
 2651 0b95 09       		.uleb128 0x9
 2652 0b96 C6170000 		.4byte	.LASF315
 2653 0b9a D902     		.sleb128 345
 2654 0b9c 09       		.uleb128 0x9
 2655 0b9d C9160000 		.4byte	.LASF316
 2656 0ba1 DA02     		.sleb128 346
 2657 0ba3 09       		.uleb128 0x9
 2658 0ba4 F7060000 		.4byte	.LASF317
 2659 0ba8 DB02     		.sleb128 347
 2660 0baa 09       		.uleb128 0x9
 2661 0bab 32380000 		.4byte	.LASF318
 2662 0baf DC02     		.sleb128 348
 2663 0bb1 09       		.uleb128 0x9
 2664 0bb2 68220000 		.4byte	.LASF319
 2665 0bb6 DD02     		.sleb128 349
 2666 0bb8 09       		.uleb128 0x9
 2667 0bb9 341F0000 		.4byte	.LASF320
 2668 0bbd DE02     		.sleb128 350
 2669 0bbf 09       		.uleb128 0x9
 2670 0bc0 EB080000 		.4byte	.LASF321
 2671 0bc4 DF02     		.sleb128 351
 2672 0bc6 09       		.uleb128 0x9
 2673 0bc7 DF070000 		.4byte	.LASF322
 2674 0bcb E002     		.sleb128 352
 2675 0bcd 09       		.uleb128 0x9
 2676 0bce CA010000 		.4byte	.LASF323
 2677 0bd2 E102     		.sleb128 353
 2678 0bd4 09       		.uleb128 0x9
 2679 0bd5 EF1E0000 		.4byte	.LASF324
 2680 0bd9 E202     		.sleb128 354
 2681 0bdb 09       		.uleb128 0x9
 2682 0bdc A73D0000 		.4byte	.LASF325
 2683 0be0 E302     		.sleb128 355
 2684 0be2 09       		.uleb128 0x9
 2685 0be3 7B190000 		.4byte	.LASF326
ARM GAS  C:\Users\Petro\AppData\Local\Temp\cca5nTbz.s 			page 70


 2686 0be7 E402     		.sleb128 356
 2687 0be9 09       		.uleb128 0x9
 2688 0bea EF160000 		.4byte	.LASF327
 2689 0bee E502     		.sleb128 357
 2690 0bf0 09       		.uleb128 0x9
 2691 0bf1 13250000 		.4byte	.LASF328
 2692 0bf5 E602     		.sleb128 358
 2693 0bf7 09       		.uleb128 0x9
 2694 0bf8 B61F0000 		.4byte	.LASF329
 2695 0bfc E702     		.sleb128 359
 2696 0bfe 09       		.uleb128 0x9
 2697 0bff 422E0000 		.4byte	.LASF330
 2698 0c03 E802     		.sleb128 360
 2699 0c05 09       		.uleb128 0x9
 2700 0c06 0A040000 		.4byte	.LASF331
 2701 0c0a E902     		.sleb128 361
 2702 0c0c 09       		.uleb128 0x9
 2703 0c0d 7D2C0000 		.4byte	.LASF332
 2704 0c11 EA02     		.sleb128 362
 2705 0c13 09       		.uleb128 0x9
 2706 0c14 63140000 		.4byte	.LASF333
 2707 0c18 EB02     		.sleb128 363
 2708 0c1a 09       		.uleb128 0x9
 2709 0c1b 351E0000 		.4byte	.LASF334
 2710 0c1f EC02     		.sleb128 364
 2711 0c21 09       		.uleb128 0x9
 2712 0c22 131E0000 		.4byte	.LASF335
 2713 0c26 ED02     		.sleb128 365
 2714 0c28 09       		.uleb128 0x9
 2715 0c29 2F320000 		.4byte	.LASF336
 2716 0c2d EE02     		.sleb128 366
 2717 0c2f 09       		.uleb128 0x9
 2718 0c30 07030000 		.4byte	.LASF337
 2719 0c34 EF02     		.sleb128 367
 2720 0c36 09       		.uleb128 0x9
 2721 0c37 2D120000 		.4byte	.LASF338
 2722 0c3b F002     		.sleb128 368
 2723 0c3d 09       		.uleb128 0x9
 2724 0c3e 5F210000 		.4byte	.LASF339
 2725 0c42 F102     		.sleb128 369
 2726 0c44 09       		.uleb128 0x9
 2727 0c45 81250000 		.4byte	.LASF340
 2728 0c49 F202     		.sleb128 370
 2729 0c4b 09       		.uleb128 0x9
 2730 0c4c FB310000 		.4byte	.LASF341
 2731 0c50 F302     		.sleb128 371
 2732 0c52 09       		.uleb128 0x9
 2733 0c53 20230000 		.4byte	.LASF342
 2734 0c57 F402     		.sleb128 372
 2735 0c59 09       		.uleb128 0x9
 2736 0c5a EB220000 		.4byte	.LASF343
 2737 0c5e F502     		.sleb128 373
 2738 0c60 09       		.uleb128 0x9
 2739 0c61 83230000 		.4byte	.LASF344
 2740 0c65 F602     		.sleb128 374
 2741 0c67 09       		.uleb128 0x9
 2742 0c68 1E160000 		.4byte	.LASF345
ARM GAS  C:\Users\Petro\AppData\Local\Temp\cca5nTbz.s 			page 71


 2743 0c6c F702     		.sleb128 375
 2744 0c6e 09       		.uleb128 0x9
 2745 0c6f 540D0000 		.4byte	.LASF346
 2746 0c73 F802     		.sleb128 376
 2747 0c75 09       		.uleb128 0x9
 2748 0c76 19350000 		.4byte	.LASF347
 2749 0c7a F902     		.sleb128 377
 2750 0c7c 09       		.uleb128 0x9
 2751 0c7d 8E1A0000 		.4byte	.LASF348
 2752 0c81 FA02     		.sleb128 378
 2753 0c83 09       		.uleb128 0x9
 2754 0c84 D4090000 		.4byte	.LASF349
 2755 0c88 FB02     		.sleb128 379
 2756 0c8a 09       		.uleb128 0x9
 2757 0c8b C2350000 		.4byte	.LASF350
 2758 0c8f FC02     		.sleb128 380
 2759 0c91 09       		.uleb128 0x9
 2760 0c92 902E0000 		.4byte	.LASF351
 2761 0c96 FD02     		.sleb128 381
 2762 0c98 09       		.uleb128 0x9
 2763 0c99 EF2B0000 		.4byte	.LASF352
 2764 0c9d FE02     		.sleb128 382
 2765 0c9f 09       		.uleb128 0x9
 2766 0ca0 6E200000 		.4byte	.LASF353
 2767 0ca4 FF02     		.sleb128 383
 2768 0ca6 09       		.uleb128 0x9
 2769 0ca7 35020000 		.4byte	.LASF354
 2770 0cab 8003     		.sleb128 384
 2771 0cad 09       		.uleb128 0x9
 2772 0cae 59290000 		.4byte	.LASF355
 2773 0cb2 8103     		.sleb128 385
 2774 0cb4 09       		.uleb128 0x9
 2775 0cb5 C23B0000 		.4byte	.LASF356
 2776 0cb9 8203     		.sleb128 386
 2777 0cbb 09       		.uleb128 0x9
 2778 0cbc 8E370000 		.4byte	.LASF357
 2779 0cc0 8303     		.sleb128 387
 2780 0cc2 09       		.uleb128 0x9
 2781 0cc3 53320000 		.4byte	.LASF358
 2782 0cc7 8403     		.sleb128 388
 2783 0cc9 09       		.uleb128 0x9
 2784 0cca E4020000 		.4byte	.LASF359
 2785 0cce 8503     		.sleb128 389
 2786 0cd0 09       		.uleb128 0x9
 2787 0cd1 F4120000 		.4byte	.LASF360
 2788 0cd5 8603     		.sleb128 390
 2789 0cd7 09       		.uleb128 0x9
 2790 0cd8 49390000 		.4byte	.LASF361
 2791 0cdc 8703     		.sleb128 391
 2792 0cde 09       		.uleb128 0x9
 2793 0cdf AF3E0000 		.4byte	.LASF362
 2794 0ce3 8803     		.sleb128 392
 2795 0ce5 09       		.uleb128 0x9
 2796 0ce6 C4230000 		.4byte	.LASF363
 2797 0cea 8903     		.sleb128 393
 2798 0cec 09       		.uleb128 0x9
 2799 0ced 663D0000 		.4byte	.LASF364
ARM GAS  C:\Users\Petro\AppData\Local\Temp\cca5nTbz.s 			page 72


 2800 0cf1 8A03     		.sleb128 394
 2801 0cf3 09       		.uleb128 0x9
 2802 0cf4 61230000 		.4byte	.LASF365
 2803 0cf8 8B03     		.sleb128 395
 2804 0cfa 09       		.uleb128 0x9
 2805 0cfb 050E0000 		.4byte	.LASF366
 2806 0cff 8C03     		.sleb128 396
 2807 0d01 09       		.uleb128 0x9
 2808 0d02 CB1A0000 		.4byte	.LASF367
 2809 0d06 8D03     		.sleb128 397
 2810 0d08 09       		.uleb128 0x9
 2811 0d09 2B180000 		.4byte	.LASF368
 2812 0d0d 8E03     		.sleb128 398
 2813 0d0f 09       		.uleb128 0x9
 2814 0d10 760D0000 		.4byte	.LASF369
 2815 0d14 8F03     		.sleb128 399
 2816 0d16 09       		.uleb128 0x9
 2817 0d17 01310000 		.4byte	.LASF370
 2818 0d1b 9003     		.sleb128 400
 2819 0d1d 09       		.uleb128 0x9
 2820 0d1e D51B0000 		.4byte	.LASF371
 2821 0d22 9103     		.sleb128 401
 2822 0d24 09       		.uleb128 0x9
 2823 0d25 122A0000 		.4byte	.LASF372
 2824 0d29 9203     		.sleb128 402
 2825 0d2b 09       		.uleb128 0x9
 2826 0d2c AE040000 		.4byte	.LASF373
 2827 0d30 9303     		.sleb128 403
 2828 0d32 09       		.uleb128 0x9
 2829 0d33 1E150000 		.4byte	.LASF374
 2830 0d37 9403     		.sleb128 404
 2831 0d39 09       		.uleb128 0x9
 2832 0d3a 81160000 		.4byte	.LASF375
 2833 0d3e 9503     		.sleb128 405
 2834 0d40 09       		.uleb128 0x9
 2835 0d41 1D3F0000 		.4byte	.LASF376
 2836 0d45 9603     		.sleb128 406
 2837 0d47 09       		.uleb128 0x9
 2838 0d48 C1290000 		.4byte	.LASF377
 2839 0d4c 9703     		.sleb128 407
 2840 0d4e 09       		.uleb128 0x9
 2841 0d4f 362A0000 		.4byte	.LASF378
 2842 0d53 9803     		.sleb128 408
 2843 0d55 09       		.uleb128 0x9
 2844 0d56 A8080000 		.4byte	.LASF379
 2845 0d5a 9903     		.sleb128 409
 2846 0d5c 09       		.uleb128 0x9
 2847 0d5d 95170000 		.4byte	.LASF380
 2848 0d61 9A03     		.sleb128 410
 2849 0d63 09       		.uleb128 0x9
 2850 0d64 BD310000 		.4byte	.LASF381
 2851 0d68 9B03     		.sleb128 411
 2852 0d6a 09       		.uleb128 0x9
 2853 0d6b A80C0000 		.4byte	.LASF382
 2854 0d6f 9C03     		.sleb128 412
 2855 0d71 09       		.uleb128 0x9
 2856 0d72 4B000000 		.4byte	.LASF383
ARM GAS  C:\Users\Petro\AppData\Local\Temp\cca5nTbz.s 			page 73


 2857 0d76 9D03     		.sleb128 413
 2858 0d78 09       		.uleb128 0x9
 2859 0d79 1D370000 		.4byte	.LASF384
 2860 0d7d 9E03     		.sleb128 414
 2861 0d7f 09       		.uleb128 0x9
 2862 0d80 6B130000 		.4byte	.LASF385
 2863 0d84 9F03     		.sleb128 415
 2864 0d86 09       		.uleb128 0x9
 2865 0d87 D43E0000 		.4byte	.LASF386
 2866 0d8b A003     		.sleb128 416
 2867 0d8d 09       		.uleb128 0x9
 2868 0d8e 41060000 		.4byte	.LASF387
 2869 0d92 A103     		.sleb128 417
 2870 0d94 09       		.uleb128 0x9
 2871 0d95 F11F0000 		.4byte	.LASF388
 2872 0d99 A203     		.sleb128 418
 2873 0d9b 09       		.uleb128 0x9
 2874 0d9c 893E0000 		.4byte	.LASF389
 2875 0da0 A303     		.sleb128 419
 2876 0da2 09       		.uleb128 0x9
 2877 0da3 97330000 		.4byte	.LASF390
 2878 0da7 A403     		.sleb128 420
 2879 0da9 09       		.uleb128 0x9
 2880 0daa C8260000 		.4byte	.LASF391
 2881 0dae A503     		.sleb128 421
 2882 0db0 09       		.uleb128 0x9
 2883 0db1 00290000 		.4byte	.LASF392
 2884 0db5 A603     		.sleb128 422
 2885 0db7 09       		.uleb128 0x9
 2886 0db8 093A0000 		.4byte	.LASF393
 2887 0dbc A703     		.sleb128 423
 2888 0dbe 09       		.uleb128 0x9
 2889 0dbf 1F1C0000 		.4byte	.LASF394
 2890 0dc3 A803     		.sleb128 424
 2891 0dc5 09       		.uleb128 0x9
 2892 0dc6 52170000 		.4byte	.LASF395
 2893 0dca A903     		.sleb128 425
 2894 0dcc 09       		.uleb128 0x9
 2895 0dcd 46220000 		.4byte	.LASF396
 2896 0dd1 AA03     		.sleb128 426
 2897 0dd3 09       		.uleb128 0x9
 2898 0dd4 A6020000 		.4byte	.LASF397
 2899 0dd8 AB03     		.sleb128 427
 2900 0dda 09       		.uleb128 0x9
 2901 0ddb 112F0000 		.4byte	.LASF398
 2902 0ddf AC03     		.sleb128 428
 2903 0de1 09       		.uleb128 0x9
 2904 0de2 E7030000 		.4byte	.LASF399
 2905 0de6 AD03     		.sleb128 429
 2906 0de8 09       		.uleb128 0x9
 2907 0de9 462B0000 		.4byte	.LASF400
 2908 0ded AE03     		.sleb128 430
 2909 0def 09       		.uleb128 0x9
 2910 0df0 7A0A0000 		.4byte	.LASF401
 2911 0df4 AF03     		.sleb128 431
 2912 0df6 09       		.uleb128 0x9
 2913 0df7 290B0000 		.4byte	.LASF402
ARM GAS  C:\Users\Petro\AppData\Local\Temp\cca5nTbz.s 			page 74


 2914 0dfb B003     		.sleb128 432
 2915 0dfd 09       		.uleb128 0x9
 2916 0dfe E1310000 		.4byte	.LASF403
 2917 0e02 B103     		.sleb128 433
 2918 0e04 09       		.uleb128 0x9
 2919 0e05 37070000 		.4byte	.LASF404
 2920 0e09 B203     		.sleb128 434
 2921 0e0b 09       		.uleb128 0x9
 2922 0e0c CB2D0000 		.4byte	.LASF405
 2923 0e10 B303     		.sleb128 435
 2924 0e12 09       		.uleb128 0x9
 2925 0e13 B12B0000 		.4byte	.LASF406
 2926 0e17 B403     		.sleb128 436
 2927 0e19 09       		.uleb128 0x9
 2928 0e1a EA180000 		.4byte	.LASF407
 2929 0e1e B503     		.sleb128 437
 2930 0e20 09       		.uleb128 0x9
 2931 0e21 783B0000 		.4byte	.LASF408
 2932 0e25 B603     		.sleb128 438
 2933 0e27 09       		.uleb128 0x9
 2934 0e28 22220000 		.4byte	.LASF409
 2935 0e2c B703     		.sleb128 439
 2936 0e2e 09       		.uleb128 0x9
 2937 0e2f 992A0000 		.4byte	.LASF410
 2938 0e33 B803     		.sleb128 440
 2939 0e35 09       		.uleb128 0x9
 2940 0e36 3D1C0000 		.4byte	.LASF411
 2941 0e3a B903     		.sleb128 441
 2942 0e3c 09       		.uleb128 0x9
 2943 0e3d B7300000 		.4byte	.LASF412
 2944 0e41 BA03     		.sleb128 442
 2945 0e43 09       		.uleb128 0x9
 2946 0e44 581E0000 		.4byte	.LASF413
 2947 0e48 BB03     		.sleb128 443
 2948 0e4a 09       		.uleb128 0x9
 2949 0e4b 621C0000 		.4byte	.LASF414
 2950 0e4f BC03     		.sleb128 444
 2951 0e51 09       		.uleb128 0x9
 2952 0e52 51070000 		.4byte	.LASF415
 2953 0e56 BD03     		.sleb128 445
 2954 0e58 09       		.uleb128 0x9
 2955 0e59 820B0000 		.4byte	.LASF416
 2956 0e5d BE03     		.sleb128 446
 2957 0e5f 09       		.uleb128 0x9
 2958 0e60 6A1A0000 		.4byte	.LASF417
 2959 0e64 BF03     		.sleb128 447
 2960 0e66 09       		.uleb128 0x9
 2961 0e67 D1330000 		.4byte	.LASF418
 2962 0e6b C003     		.sleb128 448
 2963 0e6d 09       		.uleb128 0x9
 2964 0e6e 103E0000 		.4byte	.LASF419
 2965 0e72 C103     		.sleb128 449
 2966 0e74 09       		.uleb128 0x9
 2967 0e75 8A1B0000 		.4byte	.LASF420
 2968 0e79 C203     		.sleb128 450
 2969 0e7b 09       		.uleb128 0x9
 2970 0e7c 5A0F0000 		.4byte	.LASF421
ARM GAS  C:\Users\Petro\AppData\Local\Temp\cca5nTbz.s 			page 75


 2971 0e80 C303     		.sleb128 451
 2972 0e82 09       		.uleb128 0x9
 2973 0e83 13170000 		.4byte	.LASF422
 2974 0e87 C403     		.sleb128 452
 2975 0e89 09       		.uleb128 0x9
 2976 0e8a EA290000 		.4byte	.LASF423
 2977 0e8e C503     		.sleb128 453
 2978 0e90 09       		.uleb128 0x9
 2979 0e91 54040000 		.4byte	.LASF424
 2980 0e95 C603     		.sleb128 454
 2981 0e97 09       		.uleb128 0x9
 2982 0e98 99320000 		.4byte	.LASF425
 2983 0e9c C703     		.sleb128 455
 2984 0e9e 09       		.uleb128 0x9
 2985 0e9f 47100000 		.4byte	.LASF426
 2986 0ea3 C803     		.sleb128 456
 2987 0ea5 09       		.uleb128 0x9
 2988 0ea6 6F1F0000 		.4byte	.LASF427
 2989 0eaa C903     		.sleb128 457
 2990 0eac 09       		.uleb128 0x9
 2991 0ead 5D160000 		.4byte	.LASF428
 2992 0eb1 CA03     		.sleb128 458
 2993 0eb3 09       		.uleb128 0x9
 2994 0eb4 B2390000 		.4byte	.LASF429
 2995 0eb8 CB03     		.sleb128 459
 2996 0eba 09       		.uleb128 0x9
 2997 0ebb 84030000 		.4byte	.LASF430
 2998 0ebf CC03     		.sleb128 460
 2999 0ec1 09       		.uleb128 0x9
 3000 0ec2 FB000000 		.4byte	.LASF431
 3001 0ec6 CD03     		.sleb128 461
 3002 0ec8 09       		.uleb128 0x9
 3003 0ec9 8E130000 		.4byte	.LASF432
 3004 0ecd CE03     		.sleb128 462
 3005 0ecf 09       		.uleb128 0x9
 3006 0ed0 9B110000 		.4byte	.LASF433
 3007 0ed4 CF03     		.sleb128 463
 3008 0ed6 09       		.uleb128 0x9
 3009 0ed7 5B250000 		.4byte	.LASF434
 3010 0edb D003     		.sleb128 464
 3011 0edd 09       		.uleb128 0x9
 3012 0ede D3370000 		.4byte	.LASF435
 3013 0ee2 D103     		.sleb128 465
 3014 0ee4 09       		.uleb128 0x9
 3015 0ee5 44230000 		.4byte	.LASF436
 3016 0ee9 D203     		.sleb128 466
 3017 0eeb 09       		.uleb128 0x9
 3018 0eec 99310000 		.4byte	.LASF437
 3019 0ef0 D303     		.sleb128 467
 3020 0ef2 09       		.uleb128 0x9
 3021 0ef3 C2380000 		.4byte	.LASF438
 3022 0ef7 D403     		.sleb128 468
 3023 0ef9 09       		.uleb128 0x9
 3024 0efa EA040000 		.4byte	.LASF439
 3025 0efe D503     		.sleb128 469
 3026 0f00 09       		.uleb128 0x9
 3027 0f01 74310000 		.4byte	.LASF440
ARM GAS  C:\Users\Petro\AppData\Local\Temp\cca5nTbz.s 			page 76


 3028 0f05 D603     		.sleb128 470
 3029 0f07 09       		.uleb128 0x9
 3030 0f08 54120000 		.4byte	.LASF441
 3031 0f0c D703     		.sleb128 471
 3032 0f0e 09       		.uleb128 0x9
 3033 0f0f 2B200000 		.4byte	.LASF442
 3034 0f13 D803     		.sleb128 472
 3035 0f15 09       		.uleb128 0x9
 3036 0f16 0A300000 		.4byte	.LASF443
 3037 0f1a D903     		.sleb128 473
 3038 0f1c 09       		.uleb128 0x9
 3039 0f1d A5160000 		.4byte	.LASF444
 3040 0f21 DA03     		.sleb128 474
 3041 0f23 09       		.uleb128 0x9
 3042 0f24 99360000 		.4byte	.LASF445
 3043 0f28 DB03     		.sleb128 475
 3044 0f2a 09       		.uleb128 0x9
 3045 0f2b AB140000 		.4byte	.LASF446
 3046 0f2f DC03     		.sleb128 476
 3047 0f31 09       		.uleb128 0x9
 3048 0f32 A60B0000 		.4byte	.LASF447
 3049 0f36 DD03     		.sleb128 477
 3050 0f38 09       		.uleb128 0x9
 3051 0f39 092B0000 		.4byte	.LASF448
 3052 0f3d DE03     		.sleb128 478
 3053 0f3f 09       		.uleb128 0x9
 3054 0f40 56190000 		.4byte	.LASF449
 3055 0f44 DF03     		.sleb128 479
 3056 0f46 09       		.uleb128 0x9
 3057 0f47 1C0D0000 		.4byte	.LASF450
 3058 0f4b E003     		.sleb128 480
 3059 0f4d 09       		.uleb128 0x9
 3060 0f4e A0190000 		.4byte	.LASF451
 3061 0f52 E103     		.sleb128 481
 3062 0f54 09       		.uleb128 0x9
 3063 0f55 08090000 		.4byte	.LASF452
 3064 0f59 E203     		.sleb128 482
 3065 0f5b 09       		.uleb128 0x9
 3066 0f5c 77240000 		.4byte	.LASF453
 3067 0f60 E303     		.sleb128 483
 3068 0f62 09       		.uleb128 0x9
 3069 0f63 29000000 		.4byte	.LASF454
 3070 0f67 E403     		.sleb128 484
 3071 0f69 09       		.uleb128 0x9
 3072 0f6a 88270000 		.4byte	.LASF455
 3073 0f6e E503     		.sleb128 485
 3074 0f70 09       		.uleb128 0x9
 3075 0f71 3F370000 		.4byte	.LASF456
 3076 0f75 E603     		.sleb128 486
 3077 0f77 09       		.uleb128 0x9
 3078 0f78 8A040000 		.4byte	.LASF457
 3079 0f7c E703     		.sleb128 487
 3080 0f7e 09       		.uleb128 0x9
 3081 0f7f 5A300000 		.4byte	.LASF458
 3082 0f83 E803     		.sleb128 488
 3083 0f85 09       		.uleb128 0x9
 3084 0f86 C9210000 		.4byte	.LASF459
ARM GAS  C:\Users\Petro\AppData\Local\Temp\cca5nTbz.s 			page 77


 3085 0f8a E903     		.sleb128 489
 3086 0f8c 09       		.uleb128 0x9
 3087 0f8d 7C150000 		.4byte	.LASF460
 3088 0f91 EA03     		.sleb128 490
 3089 0f93 09       		.uleb128 0x9
 3090 0f94 7F1C0000 		.4byte	.LASF461
 3091 0f98 EB03     		.sleb128 491
 3092 0f9a 09       		.uleb128 0x9
 3093 0f9b B4100000 		.4byte	.LASF462
 3094 0f9f EC03     		.sleb128 492
 3095 0fa1 09       		.uleb128 0x9
 3096 0fa2 F83E0000 		.4byte	.LASF463
 3097 0fa6 ED03     		.sleb128 493
 3098 0fa8 09       		.uleb128 0x9
 3099 0fa9 37170000 		.4byte	.LASF464
 3100 0fad EE03     		.sleb128 494
 3101 0faf 09       		.uleb128 0x9
 3102 0fb0 41010000 		.4byte	.LASF465
 3103 0fb4 EF03     		.sleb128 495
 3104 0fb6 09       		.uleb128 0x9
 3105 0fb7 AB270000 		.4byte	.LASF466
 3106 0fbb F003     		.sleb128 496
 3107 0fbd 09       		.uleb128 0x9
 3108 0fbe 93240000 		.4byte	.LASF467
 3109 0fc2 F103     		.sleb128 497
 3110 0fc4 09       		.uleb128 0x9
 3111 0fc5 9A180000 		.4byte	.LASF468
 3112 0fc9 F203     		.sleb128 498
 3113 0fcb 09       		.uleb128 0x9
 3114 0fcc 2C330000 		.4byte	.LASF469
 3115 0fd0 F303     		.sleb128 499
 3116 0fd2 09       		.uleb128 0x9
 3117 0fd3 6E3A0000 		.4byte	.LASF470
 3118 0fd7 F403     		.sleb128 500
 3119 0fd9 09       		.uleb128 0x9
 3120 0fda 86010000 		.4byte	.LASF471
 3121 0fde F503     		.sleb128 501
 3122 0fe0 09       		.uleb128 0x9
 3123 0fe1 6A2B0000 		.4byte	.LASF472
 3124 0fe5 F603     		.sleb128 502
 3125 0fe7 09       		.uleb128 0x9
 3126 0fe8 1D140000 		.4byte	.LASF473
 3127 0fec F703     		.sleb128 503
 3128 0fee 09       		.uleb128 0x9
 3129 0fef 24260000 		.4byte	.LASF474
 3130 0ff3 F803     		.sleb128 504
 3131 0ff5 09       		.uleb128 0x9
 3132 0ff6 E53C0000 		.4byte	.LASF475
 3133 0ffa F903     		.sleb128 505
 3134 0ffc 09       		.uleb128 0x9
 3135 0ffd 62100000 		.4byte	.LASF476
 3136 1001 FA03     		.sleb128 506
 3137 1003 09       		.uleb128 0x9
 3138 1004 740E0000 		.4byte	.LASF477
 3139 1008 FB03     		.sleb128 507
 3140 100a 09       		.uleb128 0x9
 3141 100b 23290000 		.4byte	.LASF478
ARM GAS  C:\Users\Petro\AppData\Local\Temp\cca5nTbz.s 			page 78


 3142 100f 80C003   		.sleb128 57344
 3143 1012 00       		.byte	0
 3144 1013 0A       		.uleb128 0xa
 3145 1014 01       		.byte	0x1
 3146 1015 0A       		.byte	0xa
 3147 1016 5007     		.2byte	0x750
 3148 1018 53100000 		.4byte	0x1053
 3149 101c 09       		.uleb128 0x9
 3150 101d F42E0000 		.4byte	.LASF479
 3151 1021 00       		.sleb128 0
 3152 1022 09       		.uleb128 0x9
 3153 1023 87140000 		.4byte	.LASF480
 3154 1027 01       		.sleb128 1
 3155 1028 09       		.uleb128 0x9
 3156 1029 75320000 		.4byte	.LASF481
 3157 102d 02       		.sleb128 2
 3158 102e 09       		.uleb128 0x9
 3159 102f 1D060000 		.4byte	.LASF482
 3160 1033 03       		.sleb128 3
 3161 1034 09       		.uleb128 0x9
 3162 1035 4F310000 		.4byte	.LASF483
 3163 1039 04       		.sleb128 4
 3164 103a 09       		.uleb128 0x9
 3165 103b 2D300000 		.4byte	.LASF484
 3166 103f 05       		.sleb128 5
 3167 1040 09       		.uleb128 0x9
 3168 1041 4D270000 		.4byte	.LASF485
 3169 1045 06       		.sleb128 6
 3170 1046 09       		.uleb128 0x9
 3171 1047 1C100000 		.4byte	.LASF486
 3172 104b 07       		.sleb128 7
 3173 104c 09       		.uleb128 0x9
 3174 104d 4F1F0000 		.4byte	.LASF487
 3175 1051 08       		.sleb128 8
 3176 1052 00       		.byte	0
 3177 1053 04       		.uleb128 0x4
 3178 1054 AC290000 		.4byte	.LASF488
 3179 1058 0A       		.byte	0xa
 3180 1059 5A07     		.2byte	0x75a
 3181 105b 13100000 		.4byte	0x1013
 3182 105f 0A       		.uleb128 0xa
 3183 1060 01       		.byte	0x1
 3184 1061 0A       		.byte	0xa
 3185 1062 7707     		.2byte	0x777
 3186 1064 81100000 		.4byte	0x1081
 3187 1068 09       		.uleb128 0x9
 3188 1069 4B300000 		.4byte	.LASF489
 3189 106d 00       		.sleb128 0
 3190 106e 09       		.uleb128 0x9
 3191 106f 301A0000 		.4byte	.LASF490
 3192 1073 01       		.sleb128 1
 3193 1074 09       		.uleb128 0x9
 3194 1075 1B200000 		.4byte	.LASF491
 3195 1079 02       		.sleb128 2
 3196 107a 09       		.uleb128 0x9
 3197 107b FE350000 		.4byte	.LASF492
 3198 107f 03       		.sleb128 3
ARM GAS  C:\Users\Petro\AppData\Local\Temp\cca5nTbz.s 			page 79


 3199 1080 00       		.byte	0
 3200 1081 17       		.uleb128 0x17
 3201 1082 92200000 		.4byte	.LASF493
 3202 1086 01       		.byte	0x1
 3203 1087 3C       		.byte	0x3c
 3204 1088 00000000 		.4byte	.LFB2
 3205 108c 1C000000 		.4byte	.LFE2-.LFB2
 3206 1090 01       		.uleb128 0x1
 3207 1091 9C       		.byte	0x9c
 3208 1092 B5100000 		.4byte	0x10b5
 3209 1096 18       		.uleb128 0x18
 3210 1097 12000000 		.4byte	.LVL0
 3211 109b AD160000 		.4byte	0x16ad
 3212 109f 19       		.uleb128 0x19
 3213 10a0 01       		.uleb128 0x1
 3214 10a1 52       		.byte	0x52
 3215 10a2 02       		.uleb128 0x2
 3216 10a3 08       		.byte	0x8
 3217 10a4 2A       		.byte	0x2a
 3218 10a5 19       		.uleb128 0x19
 3219 10a6 01       		.uleb128 0x1
 3220 10a7 51       		.byte	0x51
 3221 10a8 01       		.uleb128 0x1
 3222 10a9 30       		.byte	0x30
 3223 10aa 19       		.uleb128 0x19
 3224 10ab 01       		.uleb128 0x1
 3225 10ac 50       		.byte	0x50
 3226 10ad 05       		.uleb128 0x5
 3227 10ae 03       		.byte	0x3
 3228 10af 00000000 		.4byte	cyBle_wptsc
 3229 10b3 00       		.byte	0
 3230 10b4 00       		.byte	0
 3231 10b5 17       		.uleb128 0x17
 3232 10b6 78050000 		.4byte	.LASF494
 3233 10ba 01       		.byte	0x1
 3234 10bb 68       		.byte	0x68
 3235 10bc 00000000 		.4byte	.LFB3
 3236 10c0 0C000000 		.4byte	.LFE3-.LFB3
 3237 10c4 01       		.uleb128 0x1
 3238 10c5 9C       		.byte	0x9c
 3239 10c6 D8100000 		.4byte	0x10d8
 3240 10ca 1A       		.uleb128 0x1a
 3241 10cb 670C0000 		.4byte	.LASF496
 3242 10cf 01       		.byte	0x1
 3243 10d0 68       		.byte	0x68
 3244 10d1 D2060000 		.4byte	0x6d2
 3245 10d5 01       		.uleb128 0x1
 3246 10d6 50       		.byte	0x50
 3247 10d7 00       		.byte	0
 3248 10d8 1B       		.uleb128 0x1b
 3249 10d9 08060000 		.4byte	.LASF495
 3250 10dd 01       		.byte	0x1
 3251 10de 6402     		.2byte	0x264
 3252 10e0 00000000 		.4byte	.LFB4
 3253 10e4 34000000 		.4byte	.LFE4-.LFB4
 3254 10e8 01       		.uleb128 0x1
 3255 10e9 9C       		.byte	0x9c
ARM GAS  C:\Users\Petro\AppData\Local\Temp\cca5nTbz.s 			page 80


 3256 10ea 08110000 		.4byte	0x1108
 3257 10ee 1C       		.uleb128 0x1c
 3258 10ef F6250000 		.4byte	.LASF497
 3259 10f3 01       		.byte	0x1
 3260 10f4 6402     		.2byte	0x264
 3261 10f6 3C050000 		.4byte	0x53c
 3262 10fa 00000000 		.4byte	.LLST0
 3263 10fe 1D       		.uleb128 0x1d
 3264 10ff 08000000 		.4byte	.LVL3
 3265 1103 81100000 		.4byte	0x1081
 3266 1107 00       		.byte	0
 3267 1108 1B       		.uleb128 0x1b
 3268 1109 EE2D0000 		.4byte	.LASF498
 3269 110d 01       		.byte	0x1
 3270 110e 8202     		.2byte	0x282
 3271 1110 00000000 		.4byte	.LFB5
 3272 1114 8C000000 		.4byte	.LFE5-.LFB5
 3273 1118 01       		.uleb128 0x1
 3274 1119 9C       		.byte	0x9c
 3275 111a 79110000 		.4byte	0x1179
 3276 111e 1C       		.uleb128 0x1c
 3277 111f D5140000 		.4byte	.LASF499
 3278 1123 01       		.byte	0x1
 3279 1124 8202     		.2byte	0x282
 3280 1126 79110000 		.4byte	0x1179
 3281 112a 21000000 		.4byte	.LLST1
 3282 112e 1E       		.uleb128 0x1e
 3283 112f A02C0000 		.4byte	.LASF504
 3284 1133 01       		.byte	0x1
 3285 1134 8402     		.2byte	0x284
 3286 1136 84110000 		.4byte	0x1184
 3287 113a 05       		.uleb128 0x5
 3288 113b 03       		.byte	0x3
 3289 113c 08000000 		.4byte	wptscLastEndHandle.6146
 3290 1140 1F       		.uleb128 0x1f
 3291 1141 38000000 		.4byte	.LBB2
 3292 1145 22000000 		.4byte	.LBE2-.LBB2
 3293 1149 5A110000 		.4byte	0x115a
 3294 114d 20       		.uleb128 0x20
 3295 114e FC2A0000 		.4byte	.LASF505
 3296 1152 01       		.byte	0x1
 3297 1153 9802     		.2byte	0x298
 3298 1155 6B000000 		.4byte	0x6b
 3299 1159 00       		.byte	0
 3300 115a 18       		.uleb128 0x18
 3301 115b 2A000000 		.4byte	.LVL6
 3302 115f CA160000 		.4byte	0x16ca
 3303 1163 19       		.uleb128 0x19
 3304 1164 01       		.uleb128 0x1
 3305 1165 52       		.byte	0x52
 3306 1166 01       		.uleb128 0x1
 3307 1167 3F       		.byte	0x3f
 3308 1168 19       		.uleb128 0x19
 3309 1169 01       		.uleb128 0x1
 3310 116a 51       		.byte	0x51
 3311 116b 02       		.uleb128 0x2
 3312 116c 74       		.byte	0x74
ARM GAS  C:\Users\Petro\AppData\Local\Temp\cca5nTbz.s 			page 81


 3313 116d 07       		.sleb128 7
 3314 116e 19       		.uleb128 0x19
 3315 116f 01       		.uleb128 0x1
 3316 1170 50       		.byte	0x50
 3317 1171 05       		.uleb128 0x5
 3318 1172 03       		.byte	0x3
 3319 1173 01000000 		.4byte	.LANCHOR1+1
 3320 1177 00       		.byte	0
 3321 1178 00       		.byte	0
 3322 1179 0D       		.uleb128 0xd
 3323 117a 04       		.byte	0x4
 3324 117b 7F110000 		.4byte	0x117f
 3325 117f 21       		.uleb128 0x21
 3326 1180 65070000 		.4byte	0x765
 3327 1184 0D       		.uleb128 0xd
 3328 1185 04       		.byte	0x4
 3329 1186 3C050000 		.4byte	0x53c
 3330 118a 1B       		.uleb128 0x1b
 3331 118b 85100000 		.4byte	.LASF500
 3332 118f 01       		.byte	0x1
 3333 1190 BF02     		.2byte	0x2bf
 3334 1192 00000000 		.4byte	.LFB6
 3335 1196 20000000 		.4byte	.LFE6-.LFB6
 3336 119a 01       		.uleb128 0x1
 3337 119b 9C       		.byte	0x9c
 3338 119c AF110000 		.4byte	0x11af
 3339 11a0 22       		.uleb128 0x22
 3340 11a1 740C0000 		.4byte	.LASF501
 3341 11a5 01       		.byte	0x1
 3342 11a6 BF02     		.2byte	0x2bf
 3343 11a8 AF110000 		.4byte	0x11af
 3344 11ac 01       		.uleb128 0x1
 3345 11ad 50       		.byte	0x50
 3346 11ae 00       		.byte	0
 3347 11af 0D       		.uleb128 0xd
 3348 11b0 04       		.byte	0x4
 3349 11b1 B5110000 		.4byte	0x11b5
 3350 11b5 21       		.uleb128 0x21
 3351 11b6 A9070000 		.4byte	0x7a9
 3352 11ba 1B       		.uleb128 0x1b
 3353 11bb DE190000 		.4byte	.LASF502
 3354 11bf 01       		.byte	0x1
 3355 11c0 D802     		.2byte	0x2d8
 3356 11c2 00000000 		.4byte	.LFB7
 3357 11c6 58000000 		.4byte	.LFE7-.LFB7
 3358 11ca 01       		.uleb128 0x1
 3359 11cb 9C       		.byte	0x9c
 3360 11cc 13120000 		.4byte	0x1213
 3361 11d0 1C       		.uleb128 0x1c
 3362 11d1 5A020000 		.4byte	.LASF503
 3363 11d5 01       		.byte	0x1
 3364 11d6 D802     		.2byte	0x2d8
 3365 11d8 13120000 		.4byte	0x1213
 3366 11dc 4D000000 		.4byte	.LLST2
 3367 11e0 23       		.uleb128 0x23
 3368 11e1 FC2A0000 		.4byte	.LASF505
 3369 11e5 01       		.byte	0x1
ARM GAS  C:\Users\Petro\AppData\Local\Temp\cca5nTbz.s 			page 82


 3370 11e6 DA02     		.2byte	0x2da
 3371 11e8 E1070000 		.4byte	0x7e1
 3372 11ec A4000000 		.4byte	.LLST3
 3373 11f0 1E       		.uleb128 0x1e
 3374 11f1 36010000 		.4byte	.LASF506
 3375 11f5 01       		.byte	0x1
 3376 11f6 DB02     		.2byte	0x2db
 3377 11f8 4F080000 		.4byte	0x84f
 3378 11fc 02       		.uleb128 0x2
 3379 11fd 91       		.byte	0x91
 3380 11fe 70       		.sleb128 -16
 3381 11ff 24       		.uleb128 0x24
 3382 1200 2E000000 		.4byte	.LVL13
 3383 1204 19       		.uleb128 0x19
 3384 1205 01       		.uleb128 0x1
 3385 1206 51       		.byte	0x51
 3386 1207 02       		.uleb128 0x2
 3387 1208 7D       		.byte	0x7d
 3388 1209 00       		.sleb128 0
 3389 120a 19       		.uleb128 0x19
 3390 120b 01       		.uleb128 0x1
 3391 120c 50       		.byte	0x50
 3392 120d 03       		.uleb128 0x3
 3393 120e 0A       		.byte	0xa
 3394 120f EF01     		.2byte	0x1ef
 3395 1211 00       		.byte	0
 3396 1212 00       		.byte	0
 3397 1213 0D       		.uleb128 0xd
 3398 1214 04       		.byte	0x4
 3399 1215 BC060000 		.4byte	0x6bc
 3400 1219 1B       		.uleb128 0x1b
 3401 121a 223D0000 		.4byte	.LASF507
 3402 121e 01       		.byte	0x1
 3403 121f FB02     		.2byte	0x2fb
 3404 1221 00000000 		.4byte	.LFB8
 3405 1225 58000000 		.4byte	.LFE8-.LFB8
 3406 1229 01       		.uleb128 0x1
 3407 122a 9C       		.byte	0x9c
 3408 122b 72120000 		.4byte	0x1272
 3409 122f 1C       		.uleb128 0x1c
 3410 1230 5A020000 		.4byte	.LASF503
 3411 1234 01       		.byte	0x1
 3412 1235 FB02     		.2byte	0x2fb
 3413 1237 72120000 		.4byte	0x1272
 3414 123b D8000000 		.4byte	.LLST4
 3415 123f 23       		.uleb128 0x23
 3416 1240 FC2A0000 		.4byte	.LASF505
 3417 1244 01       		.byte	0x1
 3418 1245 FD02     		.2byte	0x2fd
 3419 1247 E1070000 		.4byte	0x7e1
 3420 124b 2F010000 		.4byte	.LLST5
 3421 124f 1E       		.uleb128 0x1e
 3422 1250 332F0000 		.4byte	.LASF508
 3423 1254 01       		.byte	0x1
 3424 1255 FE02     		.2byte	0x2fe
 3425 1257 4F080000 		.4byte	0x84f
 3426 125b 02       		.uleb128 0x2
ARM GAS  C:\Users\Petro\AppData\Local\Temp\cca5nTbz.s 			page 83


 3427 125c 91       		.byte	0x91
 3428 125d 70       		.sleb128 -16
 3429 125e 24       		.uleb128 0x24
 3430 125f 2E000000 		.4byte	.LVL24
 3431 1263 19       		.uleb128 0x19
 3432 1264 01       		.uleb128 0x1
 3433 1265 51       		.byte	0x51
 3434 1266 02       		.uleb128 0x2
 3435 1267 7D       		.byte	0x7d
 3436 1268 00       		.sleb128 0
 3437 1269 19       		.uleb128 0x19
 3438 126a 01       		.uleb128 0x1
 3439 126b 50       		.byte	0x50
 3440 126c 03       		.uleb128 0x3
 3441 126d 0A       		.byte	0xa
 3442 126e F001     		.2byte	0x1f0
 3443 1270 00       		.byte	0
 3444 1271 00       		.byte	0
 3445 1272 0D       		.uleb128 0xd
 3446 1273 04       		.byte	0x4
 3447 1274 C7060000 		.4byte	0x6c7
 3448 1278 1B       		.uleb128 0x1b
 3449 1279 20110000 		.4byte	.LASF509
 3450 127d 01       		.byte	0x1
 3451 127e 1E03     		.2byte	0x31e
 3452 1280 00000000 		.4byte	.LFB9
 3453 1284 A8000000 		.4byte	.LFE9-.LFB9
 3454 1288 01       		.uleb128 0x1
 3455 1289 9C       		.byte	0x9c
 3456 128a 1B130000 		.4byte	0x131b
 3457 128e 1C       		.uleb128 0x1c
 3458 128f 5A020000 		.4byte	.LASF503
 3459 1293 01       		.byte	0x1
 3460 1294 1E03     		.2byte	0x31e
 3461 1296 1B130000 		.4byte	0x131b
 3462 129a 63010000 		.4byte	.LLST6
 3463 129e 23       		.uleb128 0x23
 3464 129f DD290000 		.4byte	.LASF510
 3465 12a3 01       		.byte	0x1
 3466 12a4 2003     		.2byte	0x320
 3467 12a6 6B000000 		.4byte	0x6b
 3468 12aa A5010000 		.4byte	.LLST7
 3469 12ae 23       		.uleb128 0x23
 3470 12af FC2A0000 		.4byte	.LASF505
 3471 12b3 01       		.byte	0x1
 3472 12b4 2103     		.2byte	0x321
 3473 12b6 E1070000 		.4byte	0x7e1
 3474 12ba 09020000 		.4byte	.LLST8
 3475 12be 1F       		.uleb128 0x1f
 3476 12bf 26000000 		.4byte	.LBB3
 3477 12c3 1E000000 		.4byte	.LBE3-.LBB3
 3478 12c7 EE120000 		.4byte	0x12ee
 3479 12cb 1E       		.uleb128 0x1e
 3480 12cc FC0E0000 		.4byte	.LASF511
 3481 12d0 01       		.byte	0x1
 3482 12d1 2A03     		.2byte	0x32a
 3483 12d3 4F080000 		.4byte	0x84f
ARM GAS  C:\Users\Petro\AppData\Local\Temp\cca5nTbz.s 			page 84


 3484 12d7 02       		.uleb128 0x2
 3485 12d8 91       		.byte	0x91
 3486 12d9 68       		.sleb128 -24
 3487 12da 24       		.uleb128 0x24
 3488 12db 42000000 		.4byte	.LVL35
 3489 12df 19       		.uleb128 0x19
 3490 12e0 01       		.uleb128 0x1
 3491 12e1 51       		.byte	0x51
 3492 12e2 02       		.uleb128 0x2
 3493 12e3 7D       		.byte	0x7d
 3494 12e4 00       		.sleb128 0
 3495 12e5 19       		.uleb128 0x19
 3496 12e6 01       		.uleb128 0x1
 3497 12e7 50       		.byte	0x50
 3498 12e8 03       		.uleb128 0x3
 3499 12e9 0A       		.byte	0xa
 3500 12ea F201     		.2byte	0x1f2
 3501 12ec 00       		.byte	0
 3502 12ed 00       		.byte	0
 3503 12ee 25       		.uleb128 0x25
 3504 12ef 52000000 		.4byte	.LBB4
 3505 12f3 22000000 		.4byte	.LBE4-.LBB4
 3506 12f7 1E       		.uleb128 0x1e
 3507 12f8 E90F0000 		.4byte	.LASF512
 3508 12fc 01       		.byte	0x1
 3509 12fd 3503     		.2byte	0x335
 3510 12ff 93080000 		.4byte	0x893
 3511 1303 02       		.uleb128 0x2
 3512 1304 91       		.byte	0x91
 3513 1305 68       		.sleb128 -24
 3514 1306 24       		.uleb128 0x24
 3515 1307 72000000 		.4byte	.LVL38
 3516 130b 19       		.uleb128 0x19
 3517 130c 01       		.uleb128 0x1
 3518 130d 51       		.byte	0x51
 3519 130e 02       		.uleb128 0x2
 3520 130f 7D       		.byte	0x7d
 3521 1310 00       		.sleb128 0
 3522 1311 19       		.uleb128 0x19
 3523 1312 01       		.uleb128 0x1
 3524 1313 50       		.byte	0x50
 3525 1314 03       		.uleb128 0x3
 3526 1315 0A       		.byte	0xa
 3527 1316 F301     		.2byte	0x1f3
 3528 1318 00       		.byte	0
 3529 1319 00       		.byte	0
 3530 131a 00       		.byte	0
 3531 131b 0D       		.uleb128 0xd
 3532 131c 04       		.byte	0x4
 3533 131d 90060000 		.4byte	0x690
 3534 1321 1B       		.uleb128 0x1b
 3535 1322 A2150000 		.4byte	.LASF513
 3536 1326 01       		.byte	0x1
 3537 1327 5703     		.2byte	0x357
 3538 1329 00000000 		.4byte	.LFB10
 3539 132d B0000000 		.4byte	.LFE10-.LFB10
 3540 1331 01       		.uleb128 0x1
ARM GAS  C:\Users\Petro\AppData\Local\Temp\cca5nTbz.s 			page 85


 3541 1332 9C       		.byte	0x9c
 3542 1333 02140000 		.4byte	0x1402
 3543 1337 1C       		.uleb128 0x1c
 3544 1338 5A020000 		.4byte	.LASF503
 3545 133c 01       		.byte	0x1
 3546 133d 5703     		.2byte	0x357
 3547 133f 02140000 		.4byte	0x1402
 3548 1343 32020000 		.4byte	.LLST9
 3549 1347 23       		.uleb128 0x23
 3550 1348 DD290000 		.4byte	.LASF510
 3551 134c 01       		.byte	0x1
 3552 134d 5903     		.2byte	0x359
 3553 134f 6B000000 		.4byte	0x6b
 3554 1353 74020000 		.4byte	.LLST10
 3555 1357 23       		.uleb128 0x23
 3556 1358 FC2A0000 		.4byte	.LASF505
 3557 135c 01       		.byte	0x1
 3558 135d 5A03     		.2byte	0x35a
 3559 135f E1070000 		.4byte	0x7e1
 3560 1363 D8020000 		.4byte	.LLST11
 3561 1367 1F       		.uleb128 0x1f
 3562 1368 26000000 		.4byte	.LBB5
 3563 136c 22000000 		.4byte	.LBE5-.LBB5
 3564 1370 B6130000 		.4byte	0x13b6
 3565 1374 1E       		.uleb128 0x1e
 3566 1375 FC0E0000 		.4byte	.LASF511
 3567 1379 01       		.byte	0x1
 3568 137a 6403     		.2byte	0x364
 3569 137c 4F080000 		.4byte	0x84f
 3570 1380 02       		.uleb128 0x2
 3571 1381 91       		.byte	0x91
 3572 1382 68       		.sleb128 -24
 3573 1383 26       		.uleb128 0x26
 3574 1384 30000000 		.4byte	.LVL50
 3575 1388 F0160000 		.4byte	0x16f0
 3576 138c A2130000 		.4byte	0x13a2
 3577 1390 19       		.uleb128 0x19
 3578 1391 01       		.uleb128 0x1
 3579 1392 52       		.byte	0x52
 3580 1393 01       		.uleb128 0x1
 3581 1394 32       		.byte	0x32
 3582 1395 19       		.uleb128 0x19
 3583 1396 01       		.uleb128 0x1
 3584 1397 51       		.byte	0x51
 3585 1398 02       		.uleb128 0x2
 3586 1399 75       		.byte	0x75
 3587 139a 00       		.sleb128 0
 3588 139b 19       		.uleb128 0x19
 3589 139c 01       		.uleb128 0x1
 3590 139d 50       		.byte	0x50
 3591 139e 02       		.uleb128 0x2
 3592 139f 7D       		.byte	0x7d
 3593 13a0 00       		.sleb128 0
 3594 13a1 00       		.byte	0
 3595 13a2 24       		.uleb128 0x24
 3596 13a3 46000000 		.4byte	.LVL51
 3597 13a7 19       		.uleb128 0x19
ARM GAS  C:\Users\Petro\AppData\Local\Temp\cca5nTbz.s 			page 86


 3598 13a8 01       		.uleb128 0x1
 3599 13a9 51       		.byte	0x51
 3600 13aa 02       		.uleb128 0x2
 3601 13ab 7D       		.byte	0x7d
 3602 13ac 00       		.sleb128 0
 3603 13ad 19       		.uleb128 0x19
 3604 13ae 01       		.uleb128 0x1
 3605 13af 50       		.byte	0x50
 3606 13b0 03       		.uleb128 0x3
 3607 13b1 0A       		.byte	0xa
 3608 13b2 F101     		.2byte	0x1f1
 3609 13b4 00       		.byte	0
 3610 13b5 00       		.byte	0
 3611 13b6 25       		.uleb128 0x25
 3612 13b7 56000000 		.4byte	.LBB6
 3613 13bb 26000000 		.4byte	.LBE6-.LBB6
 3614 13bf 1E       		.uleb128 0x1e
 3615 13c0 E90F0000 		.4byte	.LASF512
 3616 13c4 01       		.byte	0x1
 3617 13c5 6F03     		.2byte	0x36f
 3618 13c7 93080000 		.4byte	0x893
 3619 13cb 02       		.uleb128 0x2
 3620 13cc 91       		.byte	0x91
 3621 13cd 68       		.sleb128 -24
 3622 13ce 26       		.uleb128 0x26
 3623 13cf 60000000 		.4byte	.LVL54
 3624 13d3 F0160000 		.4byte	0x16f0
 3625 13d7 ED130000 		.4byte	0x13ed
 3626 13db 19       		.uleb128 0x19
 3627 13dc 01       		.uleb128 0x1
 3628 13dd 52       		.byte	0x52
 3629 13de 01       		.uleb128 0x1
 3630 13df 32       		.byte	0x32
 3631 13e0 19       		.uleb128 0x19
 3632 13e1 01       		.uleb128 0x1
 3633 13e2 51       		.byte	0x51
 3634 13e3 02       		.uleb128 0x2
 3635 13e4 75       		.byte	0x75
 3636 13e5 00       		.sleb128 0
 3637 13e6 19       		.uleb128 0x19
 3638 13e7 01       		.uleb128 0x1
 3639 13e8 50       		.byte	0x50
 3640 13e9 02       		.uleb128 0x2
 3641 13ea 7D       		.byte	0x7d
 3642 13eb 00       		.sleb128 0
 3643 13ec 00       		.byte	0
 3644 13ed 24       		.uleb128 0x24
 3645 13ee 7A000000 		.4byte	.LVL55
 3646 13f2 19       		.uleb128 0x19
 3647 13f3 01       		.uleb128 0x1
 3648 13f4 51       		.byte	0x51
 3649 13f5 02       		.uleb128 0x2
 3650 13f6 7D       		.byte	0x7d
 3651 13f7 00       		.sleb128 0
 3652 13f8 19       		.uleb128 0x19
 3653 13f9 01       		.uleb128 0x1
 3654 13fa 50       		.byte	0x50
ARM GAS  C:\Users\Petro\AppData\Local\Temp\cca5nTbz.s 			page 87


 3655 13fb 03       		.uleb128 0x3
 3656 13fc 0A       		.byte	0xa
 3657 13fd F401     		.2byte	0x1f4
 3658 13ff 00       		.byte	0
 3659 1400 00       		.byte	0
 3660 1401 00       		.byte	0
 3661 1402 0D       		.uleb128 0xd
 3662 1403 04       		.byte	0x4
 3663 1404 08140000 		.4byte	0x1408
 3664 1408 21       		.uleb128 0x21
 3665 1409 6C050000 		.4byte	0x56c
 3666 140d 1B       		.uleb128 0x1b
 3667 140e 1D2E0000 		.4byte	.LASF514
 3668 1412 01       		.byte	0x1
 3669 1413 9103     		.2byte	0x391
 3670 1415 00000000 		.4byte	.LFB11
 3671 1419 1C000000 		.4byte	.LFE11-.LFB11
 3672 141d 01       		.uleb128 0x1
 3673 141e 9C       		.byte	0x9c
 3674 141f 32140000 		.4byte	0x1432
 3675 1423 22       		.uleb128 0x22
 3676 1424 5A020000 		.4byte	.LASF503
 3677 1428 01       		.byte	0x1
 3678 1429 9103     		.2byte	0x391
 3679 142b 32140000 		.4byte	0x1432
 3680 142f 01       		.uleb128 0x1
 3681 1430 50       		.byte	0x50
 3682 1431 00       		.byte	0
 3683 1432 0D       		.uleb128 0xd
 3684 1433 04       		.byte	0x4
 3685 1434 38140000 		.4byte	0x1438
 3686 1438 21       		.uleb128 0x21
 3687 1439 4E060000 		.4byte	0x64e
 3688 143d 27       		.uleb128 0x27
 3689 143e 423E0000 		.4byte	.LASF519
 3690 1442 01       		.byte	0x1
 3691 1443 C703     		.2byte	0x3c7
 3692 1445 F9020000 		.4byte	0x2f9
 3693 1449 00000000 		.4byte	.LFB12
 3694 144d 58000000 		.4byte	.LFE12-.LFB12
 3695 1451 01       		.uleb128 0x1
 3696 1452 9C       		.byte	0x9c
 3697 1453 C6140000 		.4byte	0x14c6
 3698 1457 22       		.uleb128 0x22
 3699 1458 AB2F0000 		.4byte	.LASF187
 3700 145c 01       		.byte	0x1
 3701 145d C703     		.2byte	0x3c7
 3702 145f 6C050000 		.4byte	0x56c
 3703 1463 02       		.uleb128 0x2
 3704 1464 91       		.byte	0x91
 3705 1465 64       		.sleb128 -28
 3706 1466 1C       		.uleb128 0x1c
 3707 1467 DF3A0000 		.4byte	.LASF218
 3708 146b 01       		.byte	0x1
 3709 146c C703     		.2byte	0x3c7
 3710 146e E1070000 		.4byte	0x7e1
 3711 1472 01030000 		.4byte	.LLST12
ARM GAS  C:\Users\Petro\AppData\Local\Temp\cca5nTbz.s 			page 88


 3712 1476 1C       		.uleb128 0x1c
 3713 1477 ED250000 		.4byte	.LASF515
 3714 147b 01       		.byte	0x1
 3715 147c C803     		.2byte	0x3c8
 3716 147e 6B000000 		.4byte	0x6b
 3717 1482 3B030000 		.4byte	.LLST13
 3718 1486 1C       		.uleb128 0x1c
 3719 1487 EB170000 		.4byte	.LASF516
 3720 148b 01       		.byte	0x1
 3721 148c C803     		.2byte	0x3c8
 3722 148e 15030000 		.4byte	0x315
 3723 1492 75030000 		.4byte	.LLST14
 3724 1496 23       		.uleb128 0x23
 3725 1497 45310000 		.4byte	.LASF517
 3726 149b 01       		.byte	0x1
 3727 149c CA03     		.2byte	0x3ca
 3728 149e F9020000 		.4byte	0x2f9
 3729 14a2 AF030000 		.4byte	.LLST15
 3730 14a6 1E       		.uleb128 0x1e
 3731 14a7 B8170000 		.4byte	.LASF518
 3732 14ab 01       		.byte	0x1
 3733 14ac CB03     		.2byte	0x3cb
 3734 14ae D9050000 		.4byte	0x5d9
 3735 14b2 02       		.uleb128 0x2
 3736 14b3 91       		.byte	0x91
 3737 14b4 6C       		.sleb128 -20
 3738 14b5 18       		.uleb128 0x18
 3739 14b6 2E000000 		.4byte	.LVL66
 3740 14ba 0D170000 		.4byte	0x170d
 3741 14be 19       		.uleb128 0x19
 3742 14bf 01       		.uleb128 0x1
 3743 14c0 51       		.byte	0x51
 3744 14c1 02       		.uleb128 0x2
 3745 14c2 91       		.byte	0x91
 3746 14c3 6C       		.sleb128 -20
 3747 14c4 00       		.byte	0
 3748 14c5 00       		.byte	0
 3749 14c6 27       		.uleb128 0x27
 3750 14c7 892F0000 		.4byte	.LASF520
 3751 14cb 01       		.byte	0x1
 3752 14cc 1804     		.2byte	0x418
 3753 14ce F9020000 		.4byte	0x2f9
 3754 14d2 00000000 		.4byte	.LFB13
 3755 14d6 58000000 		.4byte	.LFE13-.LFB13
 3756 14da 01       		.uleb128 0x1
 3757 14db 9C       		.byte	0x9c
 3758 14dc 19150000 		.4byte	0x1519
 3759 14e0 22       		.uleb128 0x22
 3760 14e1 AB2F0000 		.4byte	.LASF187
 3761 14e5 01       		.byte	0x1
 3762 14e6 1804     		.2byte	0x418
 3763 14e8 6C050000 		.4byte	0x56c
 3764 14ec 02       		.uleb128 0x2
 3765 14ed 91       		.byte	0x91
 3766 14ee 74       		.sleb128 -12
 3767 14ef 1C       		.uleb128 0x1c
 3768 14f0 DF3A0000 		.4byte	.LASF218
ARM GAS  C:\Users\Petro\AppData\Local\Temp\cca5nTbz.s 			page 89


 3769 14f4 01       		.byte	0x1
 3770 14f5 1804     		.2byte	0x418
 3771 14f7 E1070000 		.4byte	0x7e1
 3772 14fb CD030000 		.4byte	.LLST16
 3773 14ff 23       		.uleb128 0x23
 3774 1500 45310000 		.4byte	.LASF517
 3775 1504 01       		.byte	0x1
 3776 1505 1A04     		.2byte	0x41a
 3777 1507 F9020000 		.4byte	0x2f9
 3778 150b 07040000 		.4byte	.LLST17
 3779 150f 1D       		.uleb128 0x1d
 3780 1510 2A000000 		.4byte	.LVL72
 3781 1514 2E170000 		.4byte	0x172e
 3782 1518 00       		.byte	0
 3783 1519 27       		.uleb128 0x27
 3784 151a 44110000 		.4byte	.LASF521
 3785 151e 01       		.byte	0x1
 3786 151f 6404     		.2byte	0x464
 3787 1521 F9020000 		.4byte	0x2f9
 3788 1525 00000000 		.4byte	.LFB14
 3789 1529 60000000 		.4byte	.LFE14-.LFB14
 3790 152d 01       		.uleb128 0x1
 3791 152e 9C       		.byte	0x9c
 3792 152f B1150000 		.4byte	0x15b1
 3793 1533 22       		.uleb128 0x22
 3794 1534 AB2F0000 		.4byte	.LASF187
 3795 1538 01       		.byte	0x1
 3796 1539 6404     		.2byte	0x464
 3797 153b 6C050000 		.4byte	0x56c
 3798 153f 02       		.uleb128 0x2
 3799 1540 91       		.byte	0x91
 3800 1541 64       		.sleb128 -28
 3801 1542 1C       		.uleb128 0x1c
 3802 1543 DF3A0000 		.4byte	.LASF218
 3803 1547 01       		.byte	0x1
 3804 1548 6504     		.2byte	0x465
 3805 154a E1070000 		.4byte	0x7e1
 3806 154e 25040000 		.4byte	.LLST18
 3807 1552 1C       		.uleb128 0x1c
 3808 1553 61240000 		.4byte	.LASF220
 3809 1557 01       		.byte	0x1
 3810 1558 6504     		.2byte	0x465
 3811 155a 01080000 		.4byte	0x801
 3812 155e 5F040000 		.4byte	.LLST19
 3813 1562 1C       		.uleb128 0x1c
 3814 1563 ED250000 		.4byte	.LASF515
 3815 1567 01       		.byte	0x1
 3816 1568 6504     		.2byte	0x465
 3817 156a 6B000000 		.4byte	0x6b
 3818 156e 99040000 		.4byte	.LLST20
 3819 1572 22       		.uleb128 0x22
 3820 1573 EB170000 		.4byte	.LASF516
 3821 1577 01       		.byte	0x1
 3822 1578 6504     		.2byte	0x465
 3823 157a 15030000 		.4byte	0x315
 3824 157e 02       		.uleb128 0x2
 3825 157f 91       		.byte	0x91
ARM GAS  C:\Users\Petro\AppData\Local\Temp\cca5nTbz.s 			page 90


 3826 1580 00       		.sleb128 0
 3827 1581 23       		.uleb128 0x23
 3828 1582 45310000 		.4byte	.LASF517
 3829 1586 01       		.byte	0x1
 3830 1587 6704     		.2byte	0x467
 3831 1589 F9020000 		.4byte	0x2f9
 3832 158d D3040000 		.4byte	.LLST21
 3833 1591 1E       		.uleb128 0x1e
 3834 1592 B8170000 		.4byte	.LASF518
 3835 1596 01       		.byte	0x1
 3836 1597 6804     		.2byte	0x468
 3837 1599 64060000 		.4byte	0x664
 3838 159d 02       		.uleb128 0x2
 3839 159e 91       		.byte	0x91
 3840 159f 6C       		.sleb128 -20
 3841 15a0 18       		.uleb128 0x18
 3842 15a1 34000000 		.4byte	.LVL78
 3843 15a5 49170000 		.4byte	0x1749
 3844 15a9 19       		.uleb128 0x19
 3845 15aa 01       		.uleb128 0x1
 3846 15ab 51       		.byte	0x51
 3847 15ac 02       		.uleb128 0x2
 3848 15ad 91       		.byte	0x91
 3849 15ae 6C       		.sleb128 -20
 3850 15af 00       		.byte	0
 3851 15b0 00       		.byte	0
 3852 15b1 27       		.uleb128 0x27
 3853 15b2 BB360000 		.4byte	.LASF522
 3854 15b6 01       		.byte	0x1
 3855 15b7 B304     		.2byte	0x4b3
 3856 15b9 F9020000 		.4byte	0x2f9
 3857 15bd 00000000 		.4byte	.LFB15
 3858 15c1 60000000 		.4byte	.LFE15-.LFB15
 3859 15c5 01       		.uleb128 0x1
 3860 15c6 9C       		.byte	0x9c
 3861 15c7 14160000 		.4byte	0x1614
 3862 15cb 22       		.uleb128 0x22
 3863 15cc AB2F0000 		.4byte	.LASF187
 3864 15d0 01       		.byte	0x1
 3865 15d1 B304     		.2byte	0x4b3
 3866 15d3 6C050000 		.4byte	0x56c
 3867 15d7 02       		.uleb128 0x2
 3868 15d8 91       		.byte	0x91
 3869 15d9 6C       		.sleb128 -20
 3870 15da 1C       		.uleb128 0x1c
 3871 15db DF3A0000 		.4byte	.LASF218
 3872 15df 01       		.byte	0x1
 3873 15e0 B404     		.2byte	0x4b4
 3874 15e2 E1070000 		.4byte	0x7e1
 3875 15e6 F1040000 		.4byte	.LLST22
 3876 15ea 1C       		.uleb128 0x1c
 3877 15eb 61240000 		.4byte	.LASF220
 3878 15ef 01       		.byte	0x1
 3879 15f0 B404     		.2byte	0x4b4
 3880 15f2 01080000 		.4byte	0x801
 3881 15f6 2B050000 		.4byte	.LLST23
 3882 15fa 23       		.uleb128 0x23
ARM GAS  C:\Users\Petro\AppData\Local\Temp\cca5nTbz.s 			page 91


 3883 15fb 45310000 		.4byte	.LASF517
 3884 15ff 01       		.byte	0x1
 3885 1600 B604     		.2byte	0x4b6
 3886 1602 F9020000 		.4byte	0x2f9
 3887 1606 65050000 		.4byte	.LLST24
 3888 160a 1D       		.uleb128 0x1d
 3889 160b 2E000000 		.4byte	.LVL84
 3890 160f 64170000 		.4byte	0x1764
 3891 1613 00       		.byte	0
 3892 1614 28       		.uleb128 0x28
 3893 1615 FA070000 		.4byte	.LASF523
 3894 1619 01       		.byte	0x1
 3895 161a 1D       		.byte	0x1d
 3896 161b 3C050000 		.4byte	0x53c
 3897 161f 05       		.uleb128 0x5
 3898 1620 03       		.byte	0x3
 3899 1621 00000000 		.4byte	cyBle_wptscReqHandle
 3900 1625 28       		.uleb128 0x28
 3901 1626 D3040000 		.4byte	.LASF524
 3902 162a 01       		.byte	0x1
 3903 162b 2F       		.byte	0x2f
 3904 162c D2060000 		.4byte	0x6d2
 3905 1630 05       		.uleb128 0x5
 3906 1631 03       		.byte	0x3
 3907 1632 04000000 		.4byte	CyBle_WptsApplCallback
 3908 1636 29       		.uleb128 0x29
 3909 1637 B1130000 		.4byte	.LASF525
 3910 163b 07       		.byte	0x7
 3911 163c CE01     		.2byte	0x1ce
 3912 163e A4000000 		.4byte	0xa4
 3913 1642 2A       		.uleb128 0x2a
 3914 1643 323B0000 		.4byte	.LASF526
 3915 1647 01       		.byte	0x1
 3916 1648 1C       		.byte	0x1c
 3917 1649 13090000 		.4byte	0x913
 3918 164d 05       		.uleb128 0x5
 3919 164e 03       		.byte	0x3
 3920 164f 00000000 		.4byte	cyBle_wptsc
 3921 1653 0B       		.uleb128 0xb
 3922 1654 02050000 		.4byte	0x502
 3923 1658 63160000 		.4byte	0x1663
 3924 165c 0C       		.uleb128 0xc
 3925 165d B4000000 		.4byte	0xb4
 3926 1661 04       		.byte	0x4
 3927 1662 00       		.byte	0
 3928 1663 2A       		.uleb128 0x2a
 3929 1664 56380000 		.4byte	.LASF527
 3930 1668 01       		.byte	0x1
 3931 1669 20       		.byte	0x20
 3932 166a 74160000 		.4byte	0x1674
 3933 166e 05       		.uleb128 0x5
 3934 166f 03       		.byte	0x3
 3935 1670 00000000 		.4byte	cyBle_wptscCharUuid128
 3936 1674 21       		.uleb128 0x21
 3937 1675 53160000 		.4byte	0x1653
 3938 1679 29       		.uleb128 0x29
 3939 167a 0A0D0000 		.4byte	.LASF528
ARM GAS  C:\Users\Petro\AppData\Local\Temp\cca5nTbz.s 			page 92


 3940 167e 0A       		.byte	0xa
 3941 167f 3F09     		.2byte	0x93f
 3942 1681 53100000 		.4byte	0x1053
 3943 1685 29       		.uleb128 0x29
 3944 1686 22090000 		.4byte	.LASF529
 3945 168a 0A       		.byte	0xa
 3946 168b 4009     		.2byte	0x940
 3947 168d 6B000000 		.4byte	0x6b
 3948 1691 0B       		.uleb128 0xb
 3949 1692 15070000 		.4byte	0x715
 3950 1696 A1160000 		.4byte	0x16a1
 3951 169a 0C       		.uleb128 0xc
 3952 169b B4000000 		.4byte	0xb4
 3953 169f 02       		.byte	0x2
 3954 16a0 00       		.byte	0
 3955 16a1 29       		.uleb128 0x29
 3956 16a2 EB260000 		.4byte	.LASF530
 3957 16a6 0A       		.byte	0xa
 3958 16a7 4209     		.2byte	0x942
 3959 16a9 91160000 		.4byte	0x1691
 3960 16ad 2B       		.uleb128 0x2b
 3961 16ae 5C2F0000 		.4byte	.LASF531
 3962 16b2 BB000000 		.4byte	0xbb
 3963 16b6 CA160000 		.4byte	0x16ca
 3964 16ba 16       		.uleb128 0x16
 3965 16bb BB000000 		.4byte	0xbb
 3966 16bf 16       		.uleb128 0x16
 3967 16c0 5D000000 		.4byte	0x5d
 3968 16c4 16       		.uleb128 0x16
 3969 16c5 B4000000 		.4byte	0xb4
 3970 16c9 00       		.byte	0
 3971 16ca 2C       		.uleb128 0x2c
 3972 16cb CE140000 		.4byte	.LASF533
 3973 16cf 0B       		.byte	0xb
 3974 16d0 16       		.byte	0x16
 3975 16d1 5D000000 		.4byte	0x5d
 3976 16d5 E9160000 		.4byte	0x16e9
 3977 16d9 16       		.uleb128 0x16
 3978 16da E9160000 		.4byte	0x16e9
 3979 16de 16       		.uleb128 0x16
 3980 16df E9160000 		.4byte	0x16e9
 3981 16e3 16       		.uleb128 0x16
 3982 16e4 A9000000 		.4byte	0xa9
 3983 16e8 00       		.byte	0
 3984 16e9 0D       		.uleb128 0xd
 3985 16ea 04       		.byte	0x4
 3986 16eb EF160000 		.4byte	0x16ef
 3987 16ef 2D       		.uleb128 0x2d
 3988 16f0 2B       		.uleb128 0x2b
 3989 16f1 0C210000 		.4byte	.LASF532
 3990 16f5 BB000000 		.4byte	0xbb
 3991 16f9 0D170000 		.4byte	0x170d
 3992 16fd 16       		.uleb128 0x16
 3993 16fe BB000000 		.4byte	0xbb
 3994 1702 16       		.uleb128 0x16
 3995 1703 E9160000 		.4byte	0x16e9
 3996 1707 16       		.uleb128 0x16
ARM GAS  C:\Users\Petro\AppData\Local\Temp\cca5nTbz.s 			page 93


 3997 1708 B4000000 		.4byte	0xb4
 3998 170c 00       		.byte	0
 3999 170d 2E       		.uleb128 0x2e
 4000 170e F8090000 		.4byte	.LASF534
 4001 1712 06       		.byte	0x6
 4002 1713 BD03     		.2byte	0x3bd
 4003 1715 F9020000 		.4byte	0x2f9
 4004 1719 28170000 		.4byte	0x1728
 4005 171d 16       		.uleb128 0x16
 4006 171e 6C050000 		.4byte	0x56c
 4007 1722 16       		.uleb128 0x16
 4008 1723 28170000 		.4byte	0x1728
 4009 1727 00       		.byte	0
 4010 1728 0D       		.uleb128 0xd
 4011 1729 04       		.byte	0x4
 4012 172a 64060000 		.4byte	0x664
 4013 172e 2E       		.uleb128 0x2e
 4014 172f ED010000 		.4byte	.LASF535
 4015 1733 06       		.byte	0x6
 4016 1734 AB02     		.2byte	0x2ab
 4017 1736 F9020000 		.4byte	0x2f9
 4018 173a 49170000 		.4byte	0x1749
 4019 173e 16       		.uleb128 0x16
 4020 173f 6C050000 		.4byte	0x56c
 4021 1743 16       		.uleb128 0x16
 4022 1744 59060000 		.4byte	0x659
 4023 1748 00       		.byte	0
 4024 1749 2E       		.uleb128 0x2e
 4025 174a B6320000 		.4byte	.LASF536
 4026 174e 06       		.byte	0x6
 4027 174f F304     		.2byte	0x4f3
 4028 1751 F9020000 		.4byte	0x2f9
 4029 1755 64170000 		.4byte	0x1764
 4030 1759 16       		.uleb128 0x16
 4031 175a 6C050000 		.4byte	0x56c
 4032 175e 16       		.uleb128 0x16
 4033 175f 28170000 		.4byte	0x1728
 4034 1763 00       		.byte	0
 4035 1764 2F       		.uleb128 0x2f
 4036 1765 00000000 		.4byte	.LASF537
 4037 1769 06       		.byte	0x6
 4038 176a 8C04     		.2byte	0x48c
 4039 176c F9020000 		.4byte	0x2f9
 4040 1770 16       		.uleb128 0x16
 4041 1771 6C050000 		.4byte	0x56c
 4042 1775 16       		.uleb128 0x16
 4043 1776 59060000 		.4byte	0x659
 4044 177a 00       		.byte	0
 4045 177b 00       		.byte	0
 4046              		.section	.debug_abbrev,"",%progbits
 4047              	.Ldebug_abbrev0:
 4048 0000 01       		.uleb128 0x1
 4049 0001 11       		.uleb128 0x11
 4050 0002 01       		.byte	0x1
 4051 0003 25       		.uleb128 0x25
 4052 0004 0E       		.uleb128 0xe
 4053 0005 13       		.uleb128 0x13
ARM GAS  C:\Users\Petro\AppData\Local\Temp\cca5nTbz.s 			page 94


 4054 0006 0B       		.uleb128 0xb
 4055 0007 03       		.uleb128 0x3
 4056 0008 0E       		.uleb128 0xe
 4057 0009 1B       		.uleb128 0x1b
 4058 000a 0E       		.uleb128 0xe
 4059 000b 55       		.uleb128 0x55
 4060 000c 17       		.uleb128 0x17
 4061 000d 11       		.uleb128 0x11
 4062 000e 01       		.uleb128 0x1
 4063 000f 10       		.uleb128 0x10
 4064 0010 17       		.uleb128 0x17
 4065 0011 00       		.byte	0
 4066 0012 00       		.byte	0
 4067 0013 02       		.uleb128 0x2
 4068 0014 24       		.uleb128 0x24
 4069 0015 00       		.byte	0
 4070 0016 0B       		.uleb128 0xb
 4071 0017 0B       		.uleb128 0xb
 4072 0018 3E       		.uleb128 0x3e
 4073 0019 0B       		.uleb128 0xb
 4074 001a 03       		.uleb128 0x3
 4075 001b 0E       		.uleb128 0xe
 4076 001c 00       		.byte	0
 4077 001d 00       		.byte	0
 4078 001e 03       		.uleb128 0x3
 4079 001f 24       		.uleb128 0x24
 4080 0020 00       		.byte	0
 4081 0021 0B       		.uleb128 0xb
 4082 0022 0B       		.uleb128 0xb
 4083 0023 3E       		.uleb128 0x3e
 4084 0024 0B       		.uleb128 0xb
 4085 0025 03       		.uleb128 0x3
 4086 0026 08       		.uleb128 0x8
 4087 0027 00       		.byte	0
 4088 0028 00       		.byte	0
 4089 0029 04       		.uleb128 0x4
 4090 002a 16       		.uleb128 0x16
 4091 002b 00       		.byte	0
 4092 002c 03       		.uleb128 0x3
 4093 002d 0E       		.uleb128 0xe
 4094 002e 3A       		.uleb128 0x3a
 4095 002f 0B       		.uleb128 0xb
 4096 0030 3B       		.uleb128 0x3b
 4097 0031 05       		.uleb128 0x5
 4098 0032 49       		.uleb128 0x49
 4099 0033 13       		.uleb128 0x13
 4100 0034 00       		.byte	0
 4101 0035 00       		.byte	0
 4102 0036 05       		.uleb128 0x5
 4103 0037 35       		.uleb128 0x35
 4104 0038 00       		.byte	0
 4105 0039 49       		.uleb128 0x49
 4106 003a 13       		.uleb128 0x13
 4107 003b 00       		.byte	0
 4108 003c 00       		.byte	0
 4109 003d 06       		.uleb128 0x6
 4110 003e 16       		.uleb128 0x16
ARM GAS  C:\Users\Petro\AppData\Local\Temp\cca5nTbz.s 			page 95


 4111 003f 00       		.byte	0
 4112 0040 03       		.uleb128 0x3
 4113 0041 0E       		.uleb128 0xe
 4114 0042 3A       		.uleb128 0x3a
 4115 0043 0B       		.uleb128 0xb
 4116 0044 3B       		.uleb128 0x3b
 4117 0045 0B       		.uleb128 0xb
 4118 0046 49       		.uleb128 0x49
 4119 0047 13       		.uleb128 0x13
 4120 0048 00       		.byte	0
 4121 0049 00       		.byte	0
 4122 004a 07       		.uleb128 0x7
 4123 004b 0F       		.uleb128 0xf
 4124 004c 00       		.byte	0
 4125 004d 0B       		.uleb128 0xb
 4126 004e 0B       		.uleb128 0xb
 4127 004f 00       		.byte	0
 4128 0050 00       		.byte	0
 4129 0051 08       		.uleb128 0x8
 4130 0052 04       		.uleb128 0x4
 4131 0053 01       		.byte	0x1
 4132 0054 0B       		.uleb128 0xb
 4133 0055 0B       		.uleb128 0xb
 4134 0056 3A       		.uleb128 0x3a
 4135 0057 0B       		.uleb128 0xb
 4136 0058 3B       		.uleb128 0x3b
 4137 0059 0B       		.uleb128 0xb
 4138 005a 01       		.uleb128 0x1
 4139 005b 13       		.uleb128 0x13
 4140 005c 00       		.byte	0
 4141 005d 00       		.byte	0
 4142 005e 09       		.uleb128 0x9
 4143 005f 28       		.uleb128 0x28
 4144 0060 00       		.byte	0
 4145 0061 03       		.uleb128 0x3
 4146 0062 0E       		.uleb128 0xe
 4147 0063 1C       		.uleb128 0x1c
 4148 0064 0D       		.uleb128 0xd
 4149 0065 00       		.byte	0
 4150 0066 00       		.byte	0
 4151 0067 0A       		.uleb128 0xa
 4152 0068 04       		.uleb128 0x4
 4153 0069 01       		.byte	0x1
 4154 006a 0B       		.uleb128 0xb
 4155 006b 0B       		.uleb128 0xb
 4156 006c 3A       		.uleb128 0x3a
 4157 006d 0B       		.uleb128 0xb
 4158 006e 3B       		.uleb128 0x3b
 4159 006f 05       		.uleb128 0x5
 4160 0070 01       		.uleb128 0x1
 4161 0071 13       		.uleb128 0x13
 4162 0072 00       		.byte	0
 4163 0073 00       		.byte	0
 4164 0074 0B       		.uleb128 0xb
 4165 0075 01       		.uleb128 0x1
 4166 0076 01       		.byte	0x1
 4167 0077 49       		.uleb128 0x49
ARM GAS  C:\Users\Petro\AppData\Local\Temp\cca5nTbz.s 			page 96


 4168 0078 13       		.uleb128 0x13
 4169 0079 01       		.uleb128 0x1
 4170 007a 13       		.uleb128 0x13
 4171 007b 00       		.byte	0
 4172 007c 00       		.byte	0
 4173 007d 0C       		.uleb128 0xc
 4174 007e 21       		.uleb128 0x21
 4175 007f 00       		.byte	0
 4176 0080 49       		.uleb128 0x49
 4177 0081 13       		.uleb128 0x13
 4178 0082 2F       		.uleb128 0x2f
 4179 0083 0B       		.uleb128 0xb
 4180 0084 00       		.byte	0
 4181 0085 00       		.byte	0
 4182 0086 0D       		.uleb128 0xd
 4183 0087 0F       		.uleb128 0xf
 4184 0088 00       		.byte	0
 4185 0089 0B       		.uleb128 0xb
 4186 008a 0B       		.uleb128 0xb
 4187 008b 49       		.uleb128 0x49
 4188 008c 13       		.uleb128 0x13
 4189 008d 00       		.byte	0
 4190 008e 00       		.byte	0
 4191 008f 0E       		.uleb128 0xe
 4192 0090 13       		.uleb128 0x13
 4193 0091 01       		.byte	0x1
 4194 0092 0B       		.uleb128 0xb
 4195 0093 0B       		.uleb128 0xb
 4196 0094 3A       		.uleb128 0x3a
 4197 0095 0B       		.uleb128 0xb
 4198 0096 3B       		.uleb128 0x3b
 4199 0097 05       		.uleb128 0x5
 4200 0098 01       		.uleb128 0x1
 4201 0099 13       		.uleb128 0x13
 4202 009a 00       		.byte	0
 4203 009b 00       		.byte	0
 4204 009c 0F       		.uleb128 0xf
 4205 009d 0D       		.uleb128 0xd
 4206 009e 00       		.byte	0
 4207 009f 03       		.uleb128 0x3
 4208 00a0 0E       		.uleb128 0xe
 4209 00a1 3A       		.uleb128 0x3a
 4210 00a2 0B       		.uleb128 0xb
 4211 00a3 3B       		.uleb128 0x3b
 4212 00a4 05       		.uleb128 0x5
 4213 00a5 49       		.uleb128 0x49
 4214 00a6 13       		.uleb128 0x13
 4215 00a7 38       		.uleb128 0x38
 4216 00a8 0B       		.uleb128 0xb
 4217 00a9 00       		.byte	0
 4218 00aa 00       		.byte	0
 4219 00ab 10       		.uleb128 0x10
 4220 00ac 17       		.uleb128 0x17
 4221 00ad 01       		.byte	0x1
 4222 00ae 0B       		.uleb128 0xb
 4223 00af 0B       		.uleb128 0xb
 4224 00b0 3A       		.uleb128 0x3a
ARM GAS  C:\Users\Petro\AppData\Local\Temp\cca5nTbz.s 			page 97


 4225 00b1 0B       		.uleb128 0xb
 4226 00b2 3B       		.uleb128 0x3b
 4227 00b3 05       		.uleb128 0x5
 4228 00b4 01       		.uleb128 0x1
 4229 00b5 13       		.uleb128 0x13
 4230 00b6 00       		.byte	0
 4231 00b7 00       		.byte	0
 4232 00b8 11       		.uleb128 0x11
 4233 00b9 0D       		.uleb128 0xd
 4234 00ba 00       		.byte	0
 4235 00bb 03       		.uleb128 0x3
 4236 00bc 0E       		.uleb128 0xe
 4237 00bd 3A       		.uleb128 0x3a
 4238 00be 0B       		.uleb128 0xb
 4239 00bf 3B       		.uleb128 0x3b
 4240 00c0 05       		.uleb128 0x5
 4241 00c1 49       		.uleb128 0x49
 4242 00c2 13       		.uleb128 0x13
 4243 00c3 00       		.byte	0
 4244 00c4 00       		.byte	0
 4245 00c5 12       		.uleb128 0x12
 4246 00c6 0D       		.uleb128 0xd
 4247 00c7 00       		.byte	0
 4248 00c8 03       		.uleb128 0x3
 4249 00c9 08       		.uleb128 0x8
 4250 00ca 3A       		.uleb128 0x3a
 4251 00cb 0B       		.uleb128 0xb
 4252 00cc 3B       		.uleb128 0x3b
 4253 00cd 05       		.uleb128 0x5
 4254 00ce 49       		.uleb128 0x49
 4255 00cf 13       		.uleb128 0x13
 4256 00d0 38       		.uleb128 0x38
 4257 00d1 0B       		.uleb128 0xb
 4258 00d2 00       		.byte	0
 4259 00d3 00       		.byte	0
 4260 00d4 13       		.uleb128 0x13
 4261 00d5 13       		.uleb128 0x13
 4262 00d6 01       		.byte	0x1
 4263 00d7 0B       		.uleb128 0xb
 4264 00d8 0B       		.uleb128 0xb
 4265 00d9 3A       		.uleb128 0x3a
 4266 00da 0B       		.uleb128 0xb
 4267 00db 3B       		.uleb128 0x3b
 4268 00dc 0B       		.uleb128 0xb
 4269 00dd 01       		.uleb128 0x1
 4270 00de 13       		.uleb128 0x13
 4271 00df 00       		.byte	0
 4272 00e0 00       		.byte	0
 4273 00e1 14       		.uleb128 0x14
 4274 00e2 0D       		.uleb128 0xd
 4275 00e3 00       		.byte	0
 4276 00e4 03       		.uleb128 0x3
 4277 00e5 0E       		.uleb128 0xe
 4278 00e6 3A       		.uleb128 0x3a
 4279 00e7 0B       		.uleb128 0xb
 4280 00e8 3B       		.uleb128 0x3b
 4281 00e9 0B       		.uleb128 0xb
ARM GAS  C:\Users\Petro\AppData\Local\Temp\cca5nTbz.s 			page 98


 4282 00ea 49       		.uleb128 0x49
 4283 00eb 13       		.uleb128 0x13
 4284 00ec 38       		.uleb128 0x38
 4285 00ed 0B       		.uleb128 0xb
 4286 00ee 00       		.byte	0
 4287 00ef 00       		.byte	0
 4288 00f0 15       		.uleb128 0x15
 4289 00f1 15       		.uleb128 0x15
 4290 00f2 01       		.byte	0x1
 4291 00f3 27       		.uleb128 0x27
 4292 00f4 19       		.uleb128 0x19
 4293 00f5 01       		.uleb128 0x1
 4294 00f6 13       		.uleb128 0x13
 4295 00f7 00       		.byte	0
 4296 00f8 00       		.byte	0
 4297 00f9 16       		.uleb128 0x16
 4298 00fa 05       		.uleb128 0x5
 4299 00fb 00       		.byte	0
 4300 00fc 49       		.uleb128 0x49
 4301 00fd 13       		.uleb128 0x13
 4302 00fe 00       		.byte	0
 4303 00ff 00       		.byte	0
 4304 0100 17       		.uleb128 0x17
 4305 0101 2E       		.uleb128 0x2e
 4306 0102 01       		.byte	0x1
 4307 0103 3F       		.uleb128 0x3f
 4308 0104 19       		.uleb128 0x19
 4309 0105 03       		.uleb128 0x3
 4310 0106 0E       		.uleb128 0xe
 4311 0107 3A       		.uleb128 0x3a
 4312 0108 0B       		.uleb128 0xb
 4313 0109 3B       		.uleb128 0x3b
 4314 010a 0B       		.uleb128 0xb
 4315 010b 27       		.uleb128 0x27
 4316 010c 19       		.uleb128 0x19
 4317 010d 11       		.uleb128 0x11
 4318 010e 01       		.uleb128 0x1
 4319 010f 12       		.uleb128 0x12
 4320 0110 06       		.uleb128 0x6
 4321 0111 40       		.uleb128 0x40
 4322 0112 18       		.uleb128 0x18
 4323 0113 9742     		.uleb128 0x2117
 4324 0115 19       		.uleb128 0x19
 4325 0116 01       		.uleb128 0x1
 4326 0117 13       		.uleb128 0x13
 4327 0118 00       		.byte	0
 4328 0119 00       		.byte	0
 4329 011a 18       		.uleb128 0x18
 4330 011b 898201   		.uleb128 0x4109
 4331 011e 01       		.byte	0x1
 4332 011f 11       		.uleb128 0x11
 4333 0120 01       		.uleb128 0x1
 4334 0121 31       		.uleb128 0x31
 4335 0122 13       		.uleb128 0x13
 4336 0123 00       		.byte	0
 4337 0124 00       		.byte	0
 4338 0125 19       		.uleb128 0x19
ARM GAS  C:\Users\Petro\AppData\Local\Temp\cca5nTbz.s 			page 99


 4339 0126 8A8201   		.uleb128 0x410a
 4340 0129 00       		.byte	0
 4341 012a 02       		.uleb128 0x2
 4342 012b 18       		.uleb128 0x18
 4343 012c 9142     		.uleb128 0x2111
 4344 012e 18       		.uleb128 0x18
 4345 012f 00       		.byte	0
 4346 0130 00       		.byte	0
 4347 0131 1A       		.uleb128 0x1a
 4348 0132 05       		.uleb128 0x5
 4349 0133 00       		.byte	0
 4350 0134 03       		.uleb128 0x3
 4351 0135 0E       		.uleb128 0xe
 4352 0136 3A       		.uleb128 0x3a
 4353 0137 0B       		.uleb128 0xb
 4354 0138 3B       		.uleb128 0x3b
 4355 0139 0B       		.uleb128 0xb
 4356 013a 49       		.uleb128 0x49
 4357 013b 13       		.uleb128 0x13
 4358 013c 02       		.uleb128 0x2
 4359 013d 18       		.uleb128 0x18
 4360 013e 00       		.byte	0
 4361 013f 00       		.byte	0
 4362 0140 1B       		.uleb128 0x1b
 4363 0141 2E       		.uleb128 0x2e
 4364 0142 01       		.byte	0x1
 4365 0143 3F       		.uleb128 0x3f
 4366 0144 19       		.uleb128 0x19
 4367 0145 03       		.uleb128 0x3
 4368 0146 0E       		.uleb128 0xe
 4369 0147 3A       		.uleb128 0x3a
 4370 0148 0B       		.uleb128 0xb
 4371 0149 3B       		.uleb128 0x3b
 4372 014a 05       		.uleb128 0x5
 4373 014b 27       		.uleb128 0x27
 4374 014c 19       		.uleb128 0x19
 4375 014d 11       		.uleb128 0x11
 4376 014e 01       		.uleb128 0x1
 4377 014f 12       		.uleb128 0x12
 4378 0150 06       		.uleb128 0x6
 4379 0151 40       		.uleb128 0x40
 4380 0152 18       		.uleb128 0x18
 4381 0153 9742     		.uleb128 0x2117
 4382 0155 19       		.uleb128 0x19
 4383 0156 01       		.uleb128 0x1
 4384 0157 13       		.uleb128 0x13
 4385 0158 00       		.byte	0
 4386 0159 00       		.byte	0
 4387 015a 1C       		.uleb128 0x1c
 4388 015b 05       		.uleb128 0x5
 4389 015c 00       		.byte	0
 4390 015d 03       		.uleb128 0x3
 4391 015e 0E       		.uleb128 0xe
 4392 015f 3A       		.uleb128 0x3a
 4393 0160 0B       		.uleb128 0xb
 4394 0161 3B       		.uleb128 0x3b
 4395 0162 05       		.uleb128 0x5
ARM GAS  C:\Users\Petro\AppData\Local\Temp\cca5nTbz.s 			page 100


 4396 0163 49       		.uleb128 0x49
 4397 0164 13       		.uleb128 0x13
 4398 0165 02       		.uleb128 0x2
 4399 0166 17       		.uleb128 0x17
 4400 0167 00       		.byte	0
 4401 0168 00       		.byte	0
 4402 0169 1D       		.uleb128 0x1d
 4403 016a 898201   		.uleb128 0x4109
 4404 016d 00       		.byte	0
 4405 016e 11       		.uleb128 0x11
 4406 016f 01       		.uleb128 0x1
 4407 0170 31       		.uleb128 0x31
 4408 0171 13       		.uleb128 0x13
 4409 0172 00       		.byte	0
 4410 0173 00       		.byte	0
 4411 0174 1E       		.uleb128 0x1e
 4412 0175 34       		.uleb128 0x34
 4413 0176 00       		.byte	0
 4414 0177 03       		.uleb128 0x3
 4415 0178 0E       		.uleb128 0xe
 4416 0179 3A       		.uleb128 0x3a
 4417 017a 0B       		.uleb128 0xb
 4418 017b 3B       		.uleb128 0x3b
 4419 017c 05       		.uleb128 0x5
 4420 017d 49       		.uleb128 0x49
 4421 017e 13       		.uleb128 0x13
 4422 017f 02       		.uleb128 0x2
 4423 0180 18       		.uleb128 0x18
 4424 0181 00       		.byte	0
 4425 0182 00       		.byte	0
 4426 0183 1F       		.uleb128 0x1f
 4427 0184 0B       		.uleb128 0xb
 4428 0185 01       		.byte	0x1
 4429 0186 11       		.uleb128 0x11
 4430 0187 01       		.uleb128 0x1
 4431 0188 12       		.uleb128 0x12
 4432 0189 06       		.uleb128 0x6
 4433 018a 01       		.uleb128 0x1
 4434 018b 13       		.uleb128 0x13
 4435 018c 00       		.byte	0
 4436 018d 00       		.byte	0
 4437 018e 20       		.uleb128 0x20
 4438 018f 34       		.uleb128 0x34
 4439 0190 00       		.byte	0
 4440 0191 03       		.uleb128 0x3
 4441 0192 0E       		.uleb128 0xe
 4442 0193 3A       		.uleb128 0x3a
 4443 0194 0B       		.uleb128 0xb
 4444 0195 3B       		.uleb128 0x3b
 4445 0196 05       		.uleb128 0x5
 4446 0197 49       		.uleb128 0x49
 4447 0198 13       		.uleb128 0x13
 4448 0199 00       		.byte	0
 4449 019a 00       		.byte	0
 4450 019b 21       		.uleb128 0x21
 4451 019c 26       		.uleb128 0x26
 4452 019d 00       		.byte	0
ARM GAS  C:\Users\Petro\AppData\Local\Temp\cca5nTbz.s 			page 101


 4453 019e 49       		.uleb128 0x49
 4454 019f 13       		.uleb128 0x13
 4455 01a0 00       		.byte	0
 4456 01a1 00       		.byte	0
 4457 01a2 22       		.uleb128 0x22
 4458 01a3 05       		.uleb128 0x5
 4459 01a4 00       		.byte	0
 4460 01a5 03       		.uleb128 0x3
 4461 01a6 0E       		.uleb128 0xe
 4462 01a7 3A       		.uleb128 0x3a
 4463 01a8 0B       		.uleb128 0xb
 4464 01a9 3B       		.uleb128 0x3b
 4465 01aa 05       		.uleb128 0x5
 4466 01ab 49       		.uleb128 0x49
 4467 01ac 13       		.uleb128 0x13
 4468 01ad 02       		.uleb128 0x2
 4469 01ae 18       		.uleb128 0x18
 4470 01af 00       		.byte	0
 4471 01b0 00       		.byte	0
 4472 01b1 23       		.uleb128 0x23
 4473 01b2 34       		.uleb128 0x34
 4474 01b3 00       		.byte	0
 4475 01b4 03       		.uleb128 0x3
 4476 01b5 0E       		.uleb128 0xe
 4477 01b6 3A       		.uleb128 0x3a
 4478 01b7 0B       		.uleb128 0xb
 4479 01b8 3B       		.uleb128 0x3b
 4480 01b9 05       		.uleb128 0x5
 4481 01ba 49       		.uleb128 0x49
 4482 01bb 13       		.uleb128 0x13
 4483 01bc 02       		.uleb128 0x2
 4484 01bd 17       		.uleb128 0x17
 4485 01be 00       		.byte	0
 4486 01bf 00       		.byte	0
 4487 01c0 24       		.uleb128 0x24
 4488 01c1 898201   		.uleb128 0x4109
 4489 01c4 01       		.byte	0x1
 4490 01c5 11       		.uleb128 0x11
 4491 01c6 01       		.uleb128 0x1
 4492 01c7 00       		.byte	0
 4493 01c8 00       		.byte	0
 4494 01c9 25       		.uleb128 0x25
 4495 01ca 0B       		.uleb128 0xb
 4496 01cb 01       		.byte	0x1
 4497 01cc 11       		.uleb128 0x11
 4498 01cd 01       		.uleb128 0x1
 4499 01ce 12       		.uleb128 0x12
 4500 01cf 06       		.uleb128 0x6
 4501 01d0 00       		.byte	0
 4502 01d1 00       		.byte	0
 4503 01d2 26       		.uleb128 0x26
 4504 01d3 898201   		.uleb128 0x4109
 4505 01d6 01       		.byte	0x1
 4506 01d7 11       		.uleb128 0x11
 4507 01d8 01       		.uleb128 0x1
 4508 01d9 31       		.uleb128 0x31
 4509 01da 13       		.uleb128 0x13
ARM GAS  C:\Users\Petro\AppData\Local\Temp\cca5nTbz.s 			page 102


 4510 01db 01       		.uleb128 0x1
 4511 01dc 13       		.uleb128 0x13
 4512 01dd 00       		.byte	0
 4513 01de 00       		.byte	0
 4514 01df 27       		.uleb128 0x27
 4515 01e0 2E       		.uleb128 0x2e
 4516 01e1 01       		.byte	0x1
 4517 01e2 3F       		.uleb128 0x3f
 4518 01e3 19       		.uleb128 0x19
 4519 01e4 03       		.uleb128 0x3
 4520 01e5 0E       		.uleb128 0xe
 4521 01e6 3A       		.uleb128 0x3a
 4522 01e7 0B       		.uleb128 0xb
 4523 01e8 3B       		.uleb128 0x3b
 4524 01e9 05       		.uleb128 0x5
 4525 01ea 27       		.uleb128 0x27
 4526 01eb 19       		.uleb128 0x19
 4527 01ec 49       		.uleb128 0x49
 4528 01ed 13       		.uleb128 0x13
 4529 01ee 11       		.uleb128 0x11
 4530 01ef 01       		.uleb128 0x1
 4531 01f0 12       		.uleb128 0x12
 4532 01f1 06       		.uleb128 0x6
 4533 01f2 40       		.uleb128 0x40
 4534 01f3 18       		.uleb128 0x18
 4535 01f4 9742     		.uleb128 0x2117
 4536 01f6 19       		.uleb128 0x19
 4537 01f7 01       		.uleb128 0x1
 4538 01f8 13       		.uleb128 0x13
 4539 01f9 00       		.byte	0
 4540 01fa 00       		.byte	0
 4541 01fb 28       		.uleb128 0x28
 4542 01fc 34       		.uleb128 0x34
 4543 01fd 00       		.byte	0
 4544 01fe 03       		.uleb128 0x3
 4545 01ff 0E       		.uleb128 0xe
 4546 0200 3A       		.uleb128 0x3a
 4547 0201 0B       		.uleb128 0xb
 4548 0202 3B       		.uleb128 0x3b
 4549 0203 0B       		.uleb128 0xb
 4550 0204 49       		.uleb128 0x49
 4551 0205 13       		.uleb128 0x13
 4552 0206 02       		.uleb128 0x2
 4553 0207 18       		.uleb128 0x18
 4554 0208 00       		.byte	0
 4555 0209 00       		.byte	0
 4556 020a 29       		.uleb128 0x29
 4557 020b 34       		.uleb128 0x34
 4558 020c 00       		.byte	0
 4559 020d 03       		.uleb128 0x3
 4560 020e 0E       		.uleb128 0xe
 4561 020f 3A       		.uleb128 0x3a
 4562 0210 0B       		.uleb128 0xb
 4563 0211 3B       		.uleb128 0x3b
 4564 0212 05       		.uleb128 0x5
 4565 0213 49       		.uleb128 0x49
 4566 0214 13       		.uleb128 0x13
ARM GAS  C:\Users\Petro\AppData\Local\Temp\cca5nTbz.s 			page 103


 4567 0215 3F       		.uleb128 0x3f
 4568 0216 19       		.uleb128 0x19
 4569 0217 3C       		.uleb128 0x3c
 4570 0218 19       		.uleb128 0x19
 4571 0219 00       		.byte	0
 4572 021a 00       		.byte	0
 4573 021b 2A       		.uleb128 0x2a
 4574 021c 34       		.uleb128 0x34
 4575 021d 00       		.byte	0
 4576 021e 03       		.uleb128 0x3
 4577 021f 0E       		.uleb128 0xe
 4578 0220 3A       		.uleb128 0x3a
 4579 0221 0B       		.uleb128 0xb
 4580 0222 3B       		.uleb128 0x3b
 4581 0223 0B       		.uleb128 0xb
 4582 0224 49       		.uleb128 0x49
 4583 0225 13       		.uleb128 0x13
 4584 0226 3F       		.uleb128 0x3f
 4585 0227 19       		.uleb128 0x19
 4586 0228 02       		.uleb128 0x2
 4587 0229 18       		.uleb128 0x18
 4588 022a 00       		.byte	0
 4589 022b 00       		.byte	0
 4590 022c 2B       		.uleb128 0x2b
 4591 022d 2E       		.uleb128 0x2e
 4592 022e 01       		.byte	0x1
 4593 022f 3F       		.uleb128 0x3f
 4594 0230 19       		.uleb128 0x19
 4595 0231 03       		.uleb128 0x3
 4596 0232 0E       		.uleb128 0xe
 4597 0233 27       		.uleb128 0x27
 4598 0234 19       		.uleb128 0x19
 4599 0235 49       		.uleb128 0x49
 4600 0236 13       		.uleb128 0x13
 4601 0237 34       		.uleb128 0x34
 4602 0238 19       		.uleb128 0x19
 4603 0239 3C       		.uleb128 0x3c
 4604 023a 19       		.uleb128 0x19
 4605 023b 01       		.uleb128 0x1
 4606 023c 13       		.uleb128 0x13
 4607 023d 00       		.byte	0
 4608 023e 00       		.byte	0
 4609 023f 2C       		.uleb128 0x2c
 4610 0240 2E       		.uleb128 0x2e
 4611 0241 01       		.byte	0x1
 4612 0242 3F       		.uleb128 0x3f
 4613 0243 19       		.uleb128 0x19
 4614 0244 03       		.uleb128 0x3
 4615 0245 0E       		.uleb128 0xe
 4616 0246 3A       		.uleb128 0x3a
 4617 0247 0B       		.uleb128 0xb
 4618 0248 3B       		.uleb128 0x3b
 4619 0249 0B       		.uleb128 0xb
 4620 024a 27       		.uleb128 0x27
 4621 024b 19       		.uleb128 0x19
 4622 024c 49       		.uleb128 0x49
 4623 024d 13       		.uleb128 0x13
ARM GAS  C:\Users\Petro\AppData\Local\Temp\cca5nTbz.s 			page 104


 4624 024e 3C       		.uleb128 0x3c
 4625 024f 19       		.uleb128 0x19
 4626 0250 01       		.uleb128 0x1
 4627 0251 13       		.uleb128 0x13
 4628 0252 00       		.byte	0
 4629 0253 00       		.byte	0
 4630 0254 2D       		.uleb128 0x2d
 4631 0255 26       		.uleb128 0x26
 4632 0256 00       		.byte	0
 4633 0257 00       		.byte	0
 4634 0258 00       		.byte	0
 4635 0259 2E       		.uleb128 0x2e
 4636 025a 2E       		.uleb128 0x2e
 4637 025b 01       		.byte	0x1
 4638 025c 3F       		.uleb128 0x3f
 4639 025d 19       		.uleb128 0x19
 4640 025e 03       		.uleb128 0x3
 4641 025f 0E       		.uleb128 0xe
 4642 0260 3A       		.uleb128 0x3a
 4643 0261 0B       		.uleb128 0xb
 4644 0262 3B       		.uleb128 0x3b
 4645 0263 05       		.uleb128 0x5
 4646 0264 27       		.uleb128 0x27
 4647 0265 19       		.uleb128 0x19
 4648 0266 49       		.uleb128 0x49
 4649 0267 13       		.uleb128 0x13
 4650 0268 3C       		.uleb128 0x3c
 4651 0269 19       		.uleb128 0x19
 4652 026a 01       		.uleb128 0x1
 4653 026b 13       		.uleb128 0x13
 4654 026c 00       		.byte	0
 4655 026d 00       		.byte	0
 4656 026e 2F       		.uleb128 0x2f
 4657 026f 2E       		.uleb128 0x2e
 4658 0270 01       		.byte	0x1
 4659 0271 3F       		.uleb128 0x3f
 4660 0272 19       		.uleb128 0x19
 4661 0273 03       		.uleb128 0x3
 4662 0274 0E       		.uleb128 0xe
 4663 0275 3A       		.uleb128 0x3a
 4664 0276 0B       		.uleb128 0xb
 4665 0277 3B       		.uleb128 0x3b
 4666 0278 05       		.uleb128 0x5
 4667 0279 27       		.uleb128 0x27
 4668 027a 19       		.uleb128 0x19
 4669 027b 49       		.uleb128 0x49
 4670 027c 13       		.uleb128 0x13
 4671 027d 3C       		.uleb128 0x3c
 4672 027e 19       		.uleb128 0x19
 4673 027f 00       		.byte	0
 4674 0280 00       		.byte	0
 4675 0281 00       		.byte	0
 4676              		.section	.debug_loc,"",%progbits
 4677              	.Ldebug_loc0:
 4678              	.LLST0:
 4679 0000 00000000 		.4byte	.LVL2
 4680 0004 07000000 		.4byte	.LVL3-1
ARM GAS  C:\Users\Petro\AppData\Local\Temp\cca5nTbz.s 			page 105


 4681 0008 0100     		.2byte	0x1
 4682 000a 50       		.byte	0x50
 4683 000b 07000000 		.4byte	.LVL3-1
 4684 000f 34000000 		.4byte	.LFE4
 4685 0013 0400     		.2byte	0x4
 4686 0015 F3       		.byte	0xf3
 4687 0016 01       		.uleb128 0x1
 4688 0017 50       		.byte	0x50
 4689 0018 9F       		.byte	0x9f
 4690 0019 00000000 		.4byte	0
 4691 001d 00000000 		.4byte	0
 4692              	.LLST1:
 4693 0021 00000000 		.4byte	.LVL4
 4694 0025 22000000 		.4byte	.LVL5
 4695 0029 0100     		.2byte	0x1
 4696 002b 50       		.byte	0x50
 4697 002c 22000000 		.4byte	.LVL5
 4698 0030 5A000000 		.4byte	.LVL7
 4699 0034 0100     		.2byte	0x1
 4700 0036 54       		.byte	0x54
 4701 0037 5A000000 		.4byte	.LVL7
 4702 003b 8C000000 		.4byte	.LFE5
 4703 003f 0400     		.2byte	0x4
 4704 0041 F3       		.byte	0xf3
 4705 0042 01       		.uleb128 0x1
 4706 0043 50       		.byte	0x50
 4707 0044 9F       		.byte	0x9f
 4708 0045 00000000 		.4byte	0
 4709 0049 00000000 		.4byte	0
 4710              	.LLST2:
 4711 004d 00000000 		.4byte	.LVL9
 4712 0051 26000000 		.4byte	.LVL11
 4713 0055 0100     		.2byte	0x1
 4714 0057 50       		.byte	0x50
 4715 0058 26000000 		.4byte	.LVL11
 4716 005c 2A000000 		.4byte	.LVL12
 4717 0060 0300     		.2byte	0x3
 4718 0062 70       		.byte	0x70
 4719 0063 7C       		.sleb128 -4
 4720 0064 9F       		.byte	0x9f
 4721 0065 2A000000 		.4byte	.LVL12
 4722 0069 2D000000 		.4byte	.LVL13-1
 4723 006d 0600     		.2byte	0x6
 4724 006f 91       		.byte	0x91
 4725 0070 74       		.sleb128 -12
 4726 0071 06       		.byte	0x6
 4727 0072 34       		.byte	0x34
 4728 0073 1C       		.byte	0x1c
 4729 0074 9F       		.byte	0x9f
 4730 0075 2D000000 		.4byte	.LVL13-1
 4731 0079 3A000000 		.4byte	.LVL14
 4732 007d 0400     		.2byte	0x4
 4733 007f F3       		.byte	0xf3
 4734 0080 01       		.uleb128 0x1
 4735 0081 50       		.byte	0x50
 4736 0082 9F       		.byte	0x9f
 4737 0083 3A000000 		.4byte	.LVL14
ARM GAS  C:\Users\Petro\AppData\Local\Temp\cca5nTbz.s 			page 106


 4738 0087 46000000 		.4byte	.LVL19
 4739 008b 0100     		.2byte	0x1
 4740 008d 50       		.byte	0x50
 4741 008e 46000000 		.4byte	.LVL19
 4742 0092 58000000 		.4byte	.LFE7
 4743 0096 0400     		.2byte	0x4
 4744 0098 F3       		.byte	0xf3
 4745 0099 01       		.uleb128 0x1
 4746 009a 50       		.byte	0x50
 4747 009b 9F       		.byte	0x9f
 4748 009c 00000000 		.4byte	0
 4749 00a0 00000000 		.4byte	0
 4750              	.LLST3:
 4751 00a4 0E000000 		.4byte	.LVL10
 4752 00a8 2D000000 		.4byte	.LVL13-1
 4753 00ac 0100     		.2byte	0x1
 4754 00ae 53       		.byte	0x53
 4755 00af 3A000000 		.4byte	.LVL14
 4756 00b3 3C000000 		.4byte	.LVL15
 4757 00b7 0100     		.2byte	0x1
 4758 00b9 53       		.byte	0x53
 4759 00ba 3E000000 		.4byte	.LVL16
 4760 00be 40000000 		.4byte	.LVL17
 4761 00c2 0100     		.2byte	0x1
 4762 00c4 53       		.byte	0x53
 4763 00c5 42000000 		.4byte	.LVL18
 4764 00c9 46000000 		.4byte	.LVL19
 4765 00cd 0100     		.2byte	0x1
 4766 00cf 53       		.byte	0x53
 4767 00d0 00000000 		.4byte	0
 4768 00d4 00000000 		.4byte	0
 4769              	.LLST4:
 4770 00d8 00000000 		.4byte	.LVL20
 4771 00dc 26000000 		.4byte	.LVL22
 4772 00e0 0100     		.2byte	0x1
 4773 00e2 50       		.byte	0x50
 4774 00e3 26000000 		.4byte	.LVL22
 4775 00e7 2A000000 		.4byte	.LVL23
 4776 00eb 0300     		.2byte	0x3
 4777 00ed 70       		.byte	0x70
 4778 00ee 7C       		.sleb128 -4
 4779 00ef 9F       		.byte	0x9f
 4780 00f0 2A000000 		.4byte	.LVL23
 4781 00f4 2D000000 		.4byte	.LVL24-1
 4782 00f8 0600     		.2byte	0x6
 4783 00fa 91       		.byte	0x91
 4784 00fb 74       		.sleb128 -12
 4785 00fc 06       		.byte	0x6
 4786 00fd 34       		.byte	0x34
 4787 00fe 1C       		.byte	0x1c
 4788 00ff 9F       		.byte	0x9f
 4789 0100 2D000000 		.4byte	.LVL24-1
 4790 0104 3A000000 		.4byte	.LVL25
 4791 0108 0400     		.2byte	0x4
 4792 010a F3       		.byte	0xf3
 4793 010b 01       		.uleb128 0x1
 4794 010c 50       		.byte	0x50
ARM GAS  C:\Users\Petro\AppData\Local\Temp\cca5nTbz.s 			page 107


 4795 010d 9F       		.byte	0x9f
 4796 010e 3A000000 		.4byte	.LVL25
 4797 0112 46000000 		.4byte	.LVL30
 4798 0116 0100     		.2byte	0x1
 4799 0118 50       		.byte	0x50
 4800 0119 46000000 		.4byte	.LVL30
 4801 011d 58000000 		.4byte	.LFE8
 4802 0121 0400     		.2byte	0x4
 4803 0123 F3       		.byte	0xf3
 4804 0124 01       		.uleb128 0x1
 4805 0125 50       		.byte	0x50
 4806 0126 9F       		.byte	0x9f
 4807 0127 00000000 		.4byte	0
 4808 012b 00000000 		.4byte	0
 4809              	.LLST5:
 4810 012f 0E000000 		.4byte	.LVL21
 4811 0133 2D000000 		.4byte	.LVL24-1
 4812 0137 0100     		.2byte	0x1
 4813 0139 53       		.byte	0x53
 4814 013a 3A000000 		.4byte	.LVL25
 4815 013e 3C000000 		.4byte	.LVL26
 4816 0142 0100     		.2byte	0x1
 4817 0144 53       		.byte	0x53
 4818 0145 3E000000 		.4byte	.LVL27
 4819 0149 40000000 		.4byte	.LVL28
 4820 014d 0100     		.2byte	0x1
 4821 014f 53       		.byte	0x53
 4822 0150 42000000 		.4byte	.LVL29
 4823 0154 46000000 		.4byte	.LVL30
 4824 0158 0100     		.2byte	0x1
 4825 015a 53       		.byte	0x53
 4826 015b 00000000 		.4byte	0
 4827 015f 00000000 		.4byte	0
 4828              	.LLST6:
 4829 0163 00000000 		.4byte	.LVL31
 4830 0167 16000000 		.4byte	.LVL33
 4831 016b 0100     		.2byte	0x1
 4832 016d 50       		.byte	0x50
 4833 016e 16000000 		.4byte	.LVL33
 4834 0172 7A000000 		.4byte	.LVL42
 4835 0176 0100     		.2byte	0x1
 4836 0178 55       		.byte	0x55
 4837 0179 7A000000 		.4byte	.LVL42
 4838 017d 80000000 		.4byte	.LVL43
 4839 0181 0100     		.2byte	0x1
 4840 0183 50       		.byte	0x50
 4841 0184 80000000 		.4byte	.LVL43
 4842 0188 96000000 		.4byte	.LVL45
 4843 018c 0100     		.2byte	0x1
 4844 018e 55       		.byte	0x55
 4845 018f 96000000 		.4byte	.LVL45
 4846 0193 A8000000 		.4byte	.LFE9
 4847 0197 0400     		.2byte	0x4
 4848 0199 F3       		.byte	0xf3
 4849 019a 01       		.uleb128 0x1
 4850 019b 50       		.byte	0x50
 4851 019c 9F       		.byte	0x9f
ARM GAS  C:\Users\Petro\AppData\Local\Temp\cca5nTbz.s 			page 108


 4852 019d 00000000 		.4byte	0
 4853 01a1 00000000 		.4byte	0
 4854              	.LLST7:
 4855 01a5 04000000 		.4byte	.LVL32
 4856 01a9 16000000 		.4byte	.LVL33
 4857 01ad 0200     		.2byte	0x2
 4858 01af 30       		.byte	0x30
 4859 01b0 9F       		.byte	0x9f
 4860 01b1 16000000 		.4byte	.LVL33
 4861 01b5 40000000 		.4byte	.LVL34
 4862 01b9 0100     		.2byte	0x1
 4863 01bb 51       		.byte	0x51
 4864 01bc 42000000 		.4byte	.LVL35
 4865 01c0 46000000 		.4byte	.LVL36
 4866 01c4 0200     		.2byte	0x2
 4867 01c6 31       		.byte	0x31
 4868 01c7 9F       		.byte	0x9f
 4869 01c8 46000000 		.4byte	.LVL36
 4870 01cc 70000000 		.4byte	.LVL37
 4871 01d0 0100     		.2byte	0x1
 4872 01d2 51       		.byte	0x51
 4873 01d3 72000000 		.4byte	.LVL38
 4874 01d7 74000000 		.4byte	.LVL39
 4875 01db 0200     		.2byte	0x2
 4876 01dd 31       		.byte	0x31
 4877 01de 9F       		.byte	0x9f
 4878 01df 74000000 		.4byte	.LVL39
 4879 01e3 7A000000 		.4byte	.LVL42
 4880 01e7 0100     		.2byte	0x1
 4881 01e9 51       		.byte	0x51
 4882 01ea 7A000000 		.4byte	.LVL42
 4883 01ee 80000000 		.4byte	.LVL43
 4884 01f2 0200     		.2byte	0x2
 4885 01f4 30       		.byte	0x30
 4886 01f5 9F       		.byte	0x9f
 4887 01f6 80000000 		.4byte	.LVL43
 4888 01fa 92000000 		.4byte	.LVL44
 4889 01fe 0100     		.2byte	0x1
 4890 0200 51       		.byte	0x51
 4891 0201 00000000 		.4byte	0
 4892 0205 00000000 		.4byte	0
 4893              	.LLST8:
 4894 0209 16000000 		.4byte	.LVL33
 4895 020d 76000000 		.4byte	.LVL40
 4896 0211 0100     		.2byte	0x1
 4897 0213 54       		.byte	0x54
 4898 0214 78000000 		.4byte	.LVL41
 4899 0218 7A000000 		.4byte	.LVL42
 4900 021c 0100     		.2byte	0x1
 4901 021e 54       		.byte	0x54
 4902 021f 80000000 		.4byte	.LVL43
 4903 0223 96000000 		.4byte	.LVL45
 4904 0227 0100     		.2byte	0x1
 4905 0229 54       		.byte	0x54
 4906 022a 00000000 		.4byte	0
 4907 022e 00000000 		.4byte	0
 4908              	.LLST9:
ARM GAS  C:\Users\Petro\AppData\Local\Temp\cca5nTbz.s 			page 109


 4909 0232 00000000 		.4byte	.LVL46
 4910 0236 16000000 		.4byte	.LVL48
 4911 023a 0100     		.2byte	0x1
 4912 023c 50       		.byte	0x50
 4913 023d 16000000 		.4byte	.LVL48
 4914 0241 82000000 		.4byte	.LVL59
 4915 0245 0100     		.2byte	0x1
 4916 0247 55       		.byte	0x55
 4917 0248 82000000 		.4byte	.LVL59
 4918 024c 88000000 		.4byte	.LVL60
 4919 0250 0100     		.2byte	0x1
 4920 0252 50       		.byte	0x50
 4921 0253 88000000 		.4byte	.LVL60
 4922 0257 9E000000 		.4byte	.LVL62
 4923 025b 0100     		.2byte	0x1
 4924 025d 55       		.byte	0x55
 4925 025e 9E000000 		.4byte	.LVL62
 4926 0262 B0000000 		.4byte	.LFE10
 4927 0266 0400     		.2byte	0x4
 4928 0268 F3       		.byte	0xf3
 4929 0269 01       		.uleb128 0x1
 4930 026a 50       		.byte	0x50
 4931 026b 9F       		.byte	0x9f
 4932 026c 00000000 		.4byte	0
 4933 0270 00000000 		.4byte	0
 4934              	.LLST10:
 4935 0274 04000000 		.4byte	.LVL47
 4936 0278 16000000 		.4byte	.LVL48
 4937 027c 0200     		.2byte	0x2
 4938 027e 30       		.byte	0x30
 4939 027f 9F       		.byte	0x9f
 4940 0280 16000000 		.4byte	.LVL48
 4941 0284 2A000000 		.4byte	.LVL49
 4942 0288 0100     		.2byte	0x1
 4943 028a 51       		.byte	0x51
 4944 028b 46000000 		.4byte	.LVL51
 4945 028f 4A000000 		.4byte	.LVL52
 4946 0293 0200     		.2byte	0x2
 4947 0295 31       		.byte	0x31
 4948 0296 9F       		.byte	0x9f
 4949 0297 4A000000 		.4byte	.LVL52
 4950 029b 5A000000 		.4byte	.LVL53
 4951 029f 0100     		.2byte	0x1
 4952 02a1 51       		.byte	0x51
 4953 02a2 7A000000 		.4byte	.LVL55
 4954 02a6 7C000000 		.4byte	.LVL56
 4955 02aa 0200     		.2byte	0x2
 4956 02ac 31       		.byte	0x31
 4957 02ad 9F       		.byte	0x9f
 4958 02ae 7C000000 		.4byte	.LVL56
 4959 02b2 82000000 		.4byte	.LVL59
 4960 02b6 0100     		.2byte	0x1
 4961 02b8 51       		.byte	0x51
 4962 02b9 82000000 		.4byte	.LVL59
 4963 02bd 88000000 		.4byte	.LVL60
 4964 02c1 0200     		.2byte	0x2
 4965 02c3 30       		.byte	0x30
ARM GAS  C:\Users\Petro\AppData\Local\Temp\cca5nTbz.s 			page 110


 4966 02c4 9F       		.byte	0x9f
 4967 02c5 88000000 		.4byte	.LVL60
 4968 02c9 9A000000 		.4byte	.LVL61
 4969 02cd 0100     		.2byte	0x1
 4970 02cf 51       		.byte	0x51
 4971 02d0 00000000 		.4byte	0
 4972 02d4 00000000 		.4byte	0
 4973              	.LLST11:
 4974 02d8 16000000 		.4byte	.LVL48
 4975 02dc 7E000000 		.4byte	.LVL57
 4976 02e0 0100     		.2byte	0x1
 4977 02e2 54       		.byte	0x54
 4978 02e3 80000000 		.4byte	.LVL58
 4979 02e7 82000000 		.4byte	.LVL59
 4980 02eb 0100     		.2byte	0x1
 4981 02ed 54       		.byte	0x54
 4982 02ee 88000000 		.4byte	.LVL60
 4983 02f2 9E000000 		.4byte	.LVL62
 4984 02f6 0100     		.2byte	0x1
 4985 02f8 54       		.byte	0x54
 4986 02f9 00000000 		.4byte	0
 4987 02fd 00000000 		.4byte	0
 4988              	.LLST12:
 4989 0301 00000000 		.4byte	.LVL64
 4990 0305 16000000 		.4byte	.LVL65
 4991 0309 0100     		.2byte	0x1
 4992 030b 51       		.byte	0x51
 4993 030c 16000000 		.4byte	.LVL65
 4994 0310 3C000000 		.4byte	.LVL67
 4995 0314 0400     		.2byte	0x4
 4996 0316 F3       		.byte	0xf3
 4997 0317 01       		.uleb128 0x1
 4998 0318 51       		.byte	0x51
 4999 0319 9F       		.byte	0x9f
 5000 031a 3C000000 		.4byte	.LVL67
 5001 031e 46000000 		.4byte	.LVL68
 5002 0322 0100     		.2byte	0x1
 5003 0324 51       		.byte	0x51
 5004 0325 46000000 		.4byte	.LVL68
 5005 0329 58000000 		.4byte	.LFE12
 5006 032d 0400     		.2byte	0x4
 5007 032f F3       		.byte	0xf3
 5008 0330 01       		.uleb128 0x1
 5009 0331 51       		.byte	0x51
 5010 0332 9F       		.byte	0x9f
 5011 0333 00000000 		.4byte	0
 5012 0337 00000000 		.4byte	0
 5013              	.LLST13:
 5014 033b 00000000 		.4byte	.LVL64
 5015 033f 2D000000 		.4byte	.LVL66-1
 5016 0343 0100     		.2byte	0x1
 5017 0345 52       		.byte	0x52
 5018 0346 2D000000 		.4byte	.LVL66-1
 5019 034a 3C000000 		.4byte	.LVL67
 5020 034e 0400     		.2byte	0x4
 5021 0350 F3       		.byte	0xf3
 5022 0351 01       		.uleb128 0x1
ARM GAS  C:\Users\Petro\AppData\Local\Temp\cca5nTbz.s 			page 111


 5023 0352 52       		.byte	0x52
 5024 0353 9F       		.byte	0x9f
 5025 0354 3C000000 		.4byte	.LVL67
 5026 0358 48000000 		.4byte	.LVL69
 5027 035c 0100     		.2byte	0x1
 5028 035e 52       		.byte	0x52
 5029 035f 48000000 		.4byte	.LVL69
 5030 0363 58000000 		.4byte	.LFE12
 5031 0367 0400     		.2byte	0x4
 5032 0369 F3       		.byte	0xf3
 5033 036a 01       		.uleb128 0x1
 5034 036b 52       		.byte	0x52
 5035 036c 9F       		.byte	0x9f
 5036 036d 00000000 		.4byte	0
 5037 0371 00000000 		.4byte	0
 5038              	.LLST14:
 5039 0375 00000000 		.4byte	.LVL64
 5040 0379 2D000000 		.4byte	.LVL66-1
 5041 037d 0100     		.2byte	0x1
 5042 037f 53       		.byte	0x53
 5043 0380 2D000000 		.4byte	.LVL66-1
 5044 0384 3C000000 		.4byte	.LVL67
 5045 0388 0400     		.2byte	0x4
 5046 038a F3       		.byte	0xf3
 5047 038b 01       		.uleb128 0x1
 5048 038c 53       		.byte	0x53
 5049 038d 9F       		.byte	0x9f
 5050 038e 3C000000 		.4byte	.LVL67
 5051 0392 48000000 		.4byte	.LVL69
 5052 0396 0100     		.2byte	0x1
 5053 0398 53       		.byte	0x53
 5054 0399 48000000 		.4byte	.LVL69
 5055 039d 58000000 		.4byte	.LFE12
 5056 03a1 0400     		.2byte	0x4
 5057 03a3 F3       		.byte	0xf3
 5058 03a4 01       		.uleb128 0x1
 5059 03a5 53       		.byte	0x53
 5060 03a6 9F       		.byte	0x9f
 5061 03a7 00000000 		.4byte	0
 5062 03ab 00000000 		.4byte	0
 5063              	.LLST15:
 5064 03af 2E000000 		.4byte	.LVL66
 5065 03b3 3C000000 		.4byte	.LVL67
 5066 03b7 0100     		.2byte	0x1
 5067 03b9 50       		.byte	0x50
 5068 03ba 48000000 		.4byte	.LVL69
 5069 03be 58000000 		.4byte	.LFE12
 5070 03c2 0100     		.2byte	0x1
 5071 03c4 50       		.byte	0x50
 5072 03c5 00000000 		.4byte	0
 5073 03c9 00000000 		.4byte	0
 5074              	.LLST16:
 5075 03cd 00000000 		.4byte	.LVL70
 5076 03d1 26000000 		.4byte	.LVL71
 5077 03d5 0100     		.2byte	0x1
 5078 03d7 51       		.byte	0x51
 5079 03d8 26000000 		.4byte	.LVL71
ARM GAS  C:\Users\Petro\AppData\Local\Temp\cca5nTbz.s 			page 112


 5080 03dc 3C000000 		.4byte	.LVL73
 5081 03e0 0400     		.2byte	0x4
 5082 03e2 F3       		.byte	0xf3
 5083 03e3 01       		.uleb128 0x1
 5084 03e4 51       		.byte	0x51
 5085 03e5 9F       		.byte	0x9f
 5086 03e6 3C000000 		.4byte	.LVL73
 5087 03ea 48000000 		.4byte	.LVL74
 5088 03ee 0100     		.2byte	0x1
 5089 03f0 51       		.byte	0x51
 5090 03f1 48000000 		.4byte	.LVL74
 5091 03f5 58000000 		.4byte	.LFE13
 5092 03f9 0400     		.2byte	0x4
 5093 03fb F3       		.byte	0xf3
 5094 03fc 01       		.uleb128 0x1
 5095 03fd 51       		.byte	0x51
 5096 03fe 9F       		.byte	0x9f
 5097 03ff 00000000 		.4byte	0
 5098 0403 00000000 		.4byte	0
 5099              	.LLST17:
 5100 0407 2A000000 		.4byte	.LVL72
 5101 040b 3C000000 		.4byte	.LVL73
 5102 040f 0100     		.2byte	0x1
 5103 0411 50       		.byte	0x50
 5104 0412 48000000 		.4byte	.LVL74
 5105 0416 58000000 		.4byte	.LFE13
 5106 041a 0100     		.2byte	0x1
 5107 041c 50       		.byte	0x50
 5108 041d 00000000 		.4byte	0
 5109 0421 00000000 		.4byte	0
 5110              	.LLST18:
 5111 0425 00000000 		.4byte	.LVL75
 5112 0429 1A000000 		.4byte	.LVL76
 5113 042d 0100     		.2byte	0x1
 5114 042f 51       		.byte	0x51
 5115 0430 1A000000 		.4byte	.LVL76
 5116 0434 42000000 		.4byte	.LVL79
 5117 0438 0400     		.2byte	0x4
 5118 043a F3       		.byte	0xf3
 5119 043b 01       		.uleb128 0x1
 5120 043c 51       		.byte	0x51
 5121 043d 9F       		.byte	0x9f
 5122 043e 42000000 		.4byte	.LVL79
 5123 0442 4E000000 		.4byte	.LVL80
 5124 0446 0100     		.2byte	0x1
 5125 0448 51       		.byte	0x51
 5126 0449 4E000000 		.4byte	.LVL80
 5127 044d 60000000 		.4byte	.LFE14
 5128 0451 0400     		.2byte	0x4
 5129 0453 F3       		.byte	0xf3
 5130 0454 01       		.uleb128 0x1
 5131 0455 51       		.byte	0x51
 5132 0456 9F       		.byte	0x9f
 5133 0457 00000000 		.4byte	0
 5134 045b 00000000 		.4byte	0
 5135              	.LLST19:
 5136 045f 00000000 		.4byte	.LVL75
ARM GAS  C:\Users\Petro\AppData\Local\Temp\cca5nTbz.s 			page 113


 5137 0463 1C000000 		.4byte	.LVL77
 5138 0467 0100     		.2byte	0x1
 5139 0469 52       		.byte	0x52
 5140 046a 1C000000 		.4byte	.LVL77
 5141 046e 42000000 		.4byte	.LVL79
 5142 0472 0400     		.2byte	0x4
 5143 0474 F3       		.byte	0xf3
 5144 0475 01       		.uleb128 0x1
 5145 0476 52       		.byte	0x52
 5146 0477 9F       		.byte	0x9f
 5147 0478 42000000 		.4byte	.LVL79
 5148 047c 4E000000 		.4byte	.LVL80
 5149 0480 0100     		.2byte	0x1
 5150 0482 52       		.byte	0x52
 5151 0483 4E000000 		.4byte	.LVL80
 5152 0487 60000000 		.4byte	.LFE14
 5153 048b 0400     		.2byte	0x4
 5154 048d F3       		.byte	0xf3
 5155 048e 01       		.uleb128 0x1
 5156 048f 52       		.byte	0x52
 5157 0490 9F       		.byte	0x9f
 5158 0491 00000000 		.4byte	0
 5159 0495 00000000 		.4byte	0
 5160              	.LLST20:
 5161 0499 00000000 		.4byte	.LVL75
 5162 049d 33000000 		.4byte	.LVL78-1
 5163 04a1 0100     		.2byte	0x1
 5164 04a3 53       		.byte	0x53
 5165 04a4 33000000 		.4byte	.LVL78-1
 5166 04a8 42000000 		.4byte	.LVL79
 5167 04ac 0400     		.2byte	0x4
 5168 04ae F3       		.byte	0xf3
 5169 04af 01       		.uleb128 0x1
 5170 04b0 53       		.byte	0x53
 5171 04b1 9F       		.byte	0x9f
 5172 04b2 42000000 		.4byte	.LVL79
 5173 04b6 4E000000 		.4byte	.LVL80
 5174 04ba 0100     		.2byte	0x1
 5175 04bc 53       		.byte	0x53
 5176 04bd 4E000000 		.4byte	.LVL80
 5177 04c1 60000000 		.4byte	.LFE14
 5178 04c5 0400     		.2byte	0x4
 5179 04c7 F3       		.byte	0xf3
 5180 04c8 01       		.uleb128 0x1
 5181 04c9 53       		.byte	0x53
 5182 04ca 9F       		.byte	0x9f
 5183 04cb 00000000 		.4byte	0
 5184 04cf 00000000 		.4byte	0
 5185              	.LLST21:
 5186 04d3 34000000 		.4byte	.LVL78
 5187 04d7 42000000 		.4byte	.LVL79
 5188 04db 0100     		.2byte	0x1
 5189 04dd 50       		.byte	0x50
 5190 04de 4E000000 		.4byte	.LVL80
 5191 04e2 60000000 		.4byte	.LFE14
 5192 04e6 0100     		.2byte	0x1
 5193 04e8 50       		.byte	0x50
ARM GAS  C:\Users\Petro\AppData\Local\Temp\cca5nTbz.s 			page 114


 5194 04e9 00000000 		.4byte	0
 5195 04ed 00000000 		.4byte	0
 5196              	.LLST22:
 5197 04f1 00000000 		.4byte	.LVL81
 5198 04f5 28000000 		.4byte	.LVL83
 5199 04f9 0100     		.2byte	0x1
 5200 04fb 51       		.byte	0x51
 5201 04fc 28000000 		.4byte	.LVL83
 5202 0500 44000000 		.4byte	.LVL85
 5203 0504 0400     		.2byte	0x4
 5204 0506 F3       		.byte	0xf3
 5205 0507 01       		.uleb128 0x1
 5206 0508 51       		.byte	0x51
 5207 0509 9F       		.byte	0x9f
 5208 050a 44000000 		.4byte	.LVL85
 5209 050e 50000000 		.4byte	.LVL86
 5210 0512 0100     		.2byte	0x1
 5211 0514 51       		.byte	0x51
 5212 0515 50000000 		.4byte	.LVL86
 5213 0519 60000000 		.4byte	.LFE15
 5214 051d 0400     		.2byte	0x4
 5215 051f F3       		.byte	0xf3
 5216 0520 01       		.uleb128 0x1
 5217 0521 51       		.byte	0x51
 5218 0522 9F       		.byte	0x9f
 5219 0523 00000000 		.4byte	0
 5220 0527 00000000 		.4byte	0
 5221              	.LLST23:
 5222 052b 00000000 		.4byte	.LVL81
 5223 052f 24000000 		.4byte	.LVL82
 5224 0533 0100     		.2byte	0x1
 5225 0535 52       		.byte	0x52
 5226 0536 24000000 		.4byte	.LVL82
 5227 053a 44000000 		.4byte	.LVL85
 5228 053e 0400     		.2byte	0x4
 5229 0540 F3       		.byte	0xf3
 5230 0541 01       		.uleb128 0x1
 5231 0542 52       		.byte	0x52
 5232 0543 9F       		.byte	0x9f
 5233 0544 44000000 		.4byte	.LVL85
 5234 0548 50000000 		.4byte	.LVL86
 5235 054c 0100     		.2byte	0x1
 5236 054e 52       		.byte	0x52
 5237 054f 50000000 		.4byte	.LVL86
 5238 0553 60000000 		.4byte	.LFE15
 5239 0557 0400     		.2byte	0x4
 5240 0559 F3       		.byte	0xf3
 5241 055a 01       		.uleb128 0x1
 5242 055b 52       		.byte	0x52
 5243 055c 9F       		.byte	0x9f
 5244 055d 00000000 		.4byte	0
 5245 0561 00000000 		.4byte	0
 5246              	.LLST24:
 5247 0565 2E000000 		.4byte	.LVL84
 5248 0569 44000000 		.4byte	.LVL85
 5249 056d 0100     		.2byte	0x1
 5250 056f 50       		.byte	0x50
ARM GAS  C:\Users\Petro\AppData\Local\Temp\cca5nTbz.s 			page 115


 5251 0570 50000000 		.4byte	.LVL86
 5252 0574 60000000 		.4byte	.LFE15
 5253 0578 0100     		.2byte	0x1
 5254 057a 50       		.byte	0x50
 5255 057b 00000000 		.4byte	0
 5256 057f 00000000 		.4byte	0
 5257              		.section	.debug_aranges,"",%progbits
 5258 0000 84000000 		.4byte	0x84
 5259 0004 0200     		.2byte	0x2
 5260 0006 00000000 		.4byte	.Ldebug_info0
 5261 000a 04       		.byte	0x4
 5262 000b 00       		.byte	0
 5263 000c 0000     		.2byte	0
 5264 000e 0000     		.2byte	0
 5265 0010 00000000 		.4byte	.LFB2
 5266 0014 1C000000 		.4byte	.LFE2-.LFB2
 5267 0018 00000000 		.4byte	.LFB3
 5268 001c 0C000000 		.4byte	.LFE3-.LFB3
 5269 0020 00000000 		.4byte	.LFB4
 5270 0024 34000000 		.4byte	.LFE4-.LFB4
 5271 0028 00000000 		.4byte	.LFB5
 5272 002c 8C000000 		.4byte	.LFE5-.LFB5
 5273 0030 00000000 		.4byte	.LFB6
 5274 0034 20000000 		.4byte	.LFE6-.LFB6
 5275 0038 00000000 		.4byte	.LFB7
 5276 003c 58000000 		.4byte	.LFE7-.LFB7
 5277 0040 00000000 		.4byte	.LFB8
 5278 0044 58000000 		.4byte	.LFE8-.LFB8
 5279 0048 00000000 		.4byte	.LFB9
 5280 004c A8000000 		.4byte	.LFE9-.LFB9
 5281 0050 00000000 		.4byte	.LFB10
 5282 0054 B0000000 		.4byte	.LFE10-.LFB10
 5283 0058 00000000 		.4byte	.LFB11
 5284 005c 1C000000 		.4byte	.LFE11-.LFB11
 5285 0060 00000000 		.4byte	.LFB12
 5286 0064 58000000 		.4byte	.LFE12-.LFB12
 5287 0068 00000000 		.4byte	.LFB13
 5288 006c 58000000 		.4byte	.LFE13-.LFB13
 5289 0070 00000000 		.4byte	.LFB14
 5290 0074 60000000 		.4byte	.LFE14-.LFB14
 5291 0078 00000000 		.4byte	.LFB15
 5292 007c 60000000 		.4byte	.LFE15-.LFB15
 5293 0080 00000000 		.4byte	0
 5294 0084 00000000 		.4byte	0
 5295              		.section	.debug_ranges,"",%progbits
 5296              	.Ldebug_ranges0:
 5297 0000 00000000 		.4byte	.LFB2
 5298 0004 1C000000 		.4byte	.LFE2
 5299 0008 00000000 		.4byte	.LFB3
 5300 000c 0C000000 		.4byte	.LFE3
 5301 0010 00000000 		.4byte	.LFB4
 5302 0014 34000000 		.4byte	.LFE4
 5303 0018 00000000 		.4byte	.LFB5
 5304 001c 8C000000 		.4byte	.LFE5
 5305 0020 00000000 		.4byte	.LFB6
 5306 0024 20000000 		.4byte	.LFE6
 5307 0028 00000000 		.4byte	.LFB7
ARM GAS  C:\Users\Petro\AppData\Local\Temp\cca5nTbz.s 			page 116


 5308 002c 58000000 		.4byte	.LFE7
 5309 0030 00000000 		.4byte	.LFB8
 5310 0034 58000000 		.4byte	.LFE8
 5311 0038 00000000 		.4byte	.LFB9
 5312 003c A8000000 		.4byte	.LFE9
 5313 0040 00000000 		.4byte	.LFB10
 5314 0044 B0000000 		.4byte	.LFE10
 5315 0048 00000000 		.4byte	.LFB11
 5316 004c 1C000000 		.4byte	.LFE11
 5317 0050 00000000 		.4byte	.LFB12
 5318 0054 58000000 		.4byte	.LFE12
 5319 0058 00000000 		.4byte	.LFB13
 5320 005c 58000000 		.4byte	.LFE13
 5321 0060 00000000 		.4byte	.LFB14
 5322 0064 60000000 		.4byte	.LFE14
 5323 0068 00000000 		.4byte	.LFB15
 5324 006c 60000000 		.4byte	.LFE15
 5325 0070 00000000 		.4byte	0
 5326 0074 00000000 		.4byte	0
 5327              		.section	.debug_line,"",%progbits
 5328              	.Ldebug_line0:
 5329 0000 9F030000 		.section	.debug_str,"MS",%progbits,1
 5329      0200B301 
 5329      00000201 
 5329      FB0E0D00 
 5329      01010101 
 5330              	.LASF537:
 5331 0000 4379426C 		.ascii	"CyBle_GattcReadCharacteristicDescriptors\000"
 5331      655F4761 
 5331      74746352 
 5331      65616443 
 5331      68617261 
 5332              	.LASF454:
 5333 0029 4359424C 		.ascii	"CYBLE_EVT_UDSC_READ_CHAR_RESPONSE\000"
 5333      455F4556 
 5333      545F5544 
 5333      53435F52 
 5333      4541445F 
 5334              	.LASF383:
 5335 004b 4359424C 		.ascii	"CYBLE_EVT_HTSS_NOTIFICATION_DISABLED\000"
 5335      455F4556 
 5335      545F4854 
 5335      53535F4E 
 5335      4F544946 
 5336              	.LASF160:
 5337 0070 4359424C 		.ascii	"CYBLE_GATT_ERR_INVALID_CRC\000"
 5337      455F4741 
 5337      54545F45 
 5337      52525F49 
 5337      4E56414C 
 5338              	.LASF15:
 5339 008b 73697A65 		.ascii	"size_t\000"
 5339      5F7400
 5340              	.LASF16:
 5341 0092 73697A65 		.ascii	"sizetype\000"
 5341      74797065 
 5341      00
ARM GAS  C:\Users\Petro\AppData\Local\Temp\cca5nTbz.s 			page 117


 5342              	.LASF271:
 5343 009b 4359424C 		.ascii	"CYBLE_EVT_BCSC_READ_CHAR_RESPONSE\000"
 5343      455F4556 
 5343      545F4243 
 5343      53435F52 
 5343      4541445F 
 5344              	.LASF294:
 5345 00bd 4359424C 		.ascii	"CYBLE_EVT_CGMSC_INDICATION\000"
 5345      455F4556 
 5345      545F4347 
 5345      4D53435F 
 5345      494E4449 
 5346              	.LASF312:
 5347 00d8 4359424C 		.ascii	"CYBLE_EVT_CPSC_READ_DESCR_RESPONSE\000"
 5347      455F4556 
 5347      545F4350 
 5347      53435F52 
 5347      4541445F 
 5348              	.LASF431:
 5349 00fb 4359424C 		.ascii	"CYBLE_EVT_RTUSS_WRITE_CHAR_CMD\000"
 5349      455F4556 
 5349      545F5254 
 5349      5553535F 
 5349      57524954 
 5350              	.LASF129:
 5351 011a 4359424C 		.ascii	"CYBLE_GATT_HANDLE_VALUE_CNF\000"
 5351      455F4741 
 5351      54545F48 
 5351      414E444C 
 5351      455F5641 
 5352              	.LASF506:
 5353 0136 6E6F7469 		.ascii	"notifValue\000"
 5353      6656616C 
 5353      756500
 5354              	.LASF465:
 5355 0141 4359424C 		.ascii	"CYBLE_EVT_WPTSC_NOTIFICATION\000"
 5355      455F4556 
 5355      545F5750 
 5355      5453435F 
 5355      4E4F5449 
 5356              	.LASF241:
 5357 015e 4359424C 		.ascii	"CYBLE_EVT_GATTC_INCL_DISCOVERY_COMPLETE\000"
 5357      455F4556 
 5357      545F4741 
 5357      5454435F 
 5357      494E434C 
 5358              	.LASF471:
 5359 0186 4359424C 		.ascii	"CYBLE_EVT_WSSS_INDICATION_ENABLED\000"
 5359      455F4556 
 5359      545F5753 
 5359      53535F49 
 5359      4E444943 
 5360              	.LASF310:
 5361 01a8 4359424C 		.ascii	"CYBLE_EVT_CPSC_READ_CHAR_RESPONSE\000"
 5361      455F4556 
 5361      545F4350 
 5361      53435F52 
ARM GAS  C:\Users\Petro\AppData\Local\Temp\cca5nTbz.s 			page 118


 5361      4541445F 
 5362              	.LASF323:
 5363 01ca 4359424C 		.ascii	"CYBLE_EVT_CSCSC_READ_CHAR_RESPONSE\000"
 5363      455F4556 
 5363      545F4353 
 5363      4353435F 
 5363      52454144 
 5364              	.LASF535:
 5365 01ed 4379426C 		.ascii	"CyBle_GattcReadCharacteristicValue\000"
 5365      655F4761 
 5365      74746352 
 5365      65616443 
 5365      68617261 
 5366              	.LASF299:
 5367 0210 4359424C 		.ascii	"CYBLE_EVT_CGMSC_WRITE_DESCR_RESPONSE\000"
 5367      455F4556 
 5367      545F4347 
 5367      4D53435F 
 5367      57524954 
 5368              	.LASF354:
 5369 0235 4359424C 		.ascii	"CYBLE_EVT_GLSS_NOTIFICATION_DISABLED\000"
 5369      455F4556 
 5369      545F474C 
 5369      53535F4E 
 5369      4F544946 
 5370              	.LASF503:
 5371 025a 6576656E 		.ascii	"eventParam\000"
 5371      74506172 
 5371      616D00
 5372              	.LASF281:
 5373 0265 4359424C 		.ascii	"CYBLE_EVT_BLSC_READ_CHAR_RESPONSE\000"
 5373      455F4556 
 5373      545F424C 
 5373      53435F52 
 5373      4541445F 
 5374              	.LASF30:
 5375 0287 4359424C 		.ascii	"CYBLE_EVT_GAP_DEVICE_CONNECTED\000"
 5375      455F4556 
 5375      545F4741 
 5375      505F4445 
 5375      56494345 
 5376              	.LASF397:
 5377 02a6 4359424C 		.ascii	"CYBLE_EVT_LLSC_WRITE_CHAR_RESPONSE\000"
 5377      455F4556 
 5377      545F4C4C 
 5377      53435F57 
 5377      52495445 
 5378              	.LASF37:
 5379 02c9 4359424C 		.ascii	"CYBLE_EVT_GATT_CONNECT_IND\000"
 5379      455F4556 
 5379      545F4741 
 5379      54545F43 
 5379      4F4E4E45 
 5380              	.LASF359:
 5381 02e4 4359424C 		.ascii	"CYBLE_EVT_GLSC_WRITE_CHAR_RESPONSE\000"
 5381      455F4556 
 5381      545F474C 
ARM GAS  C:\Users\Petro\AppData\Local\Temp\cca5nTbz.s 			page 119


 5381      53435F57 
 5381      52495445 
 5382              	.LASF337:
 5383 0307 4359424C 		.ascii	"CYBLE_EVT_ESSS_NOTIFICATION_DISABLED\000"
 5383      455F4556 
 5383      545F4553 
 5383      53535F4E 
 5383      4F544946 
 5384              	.LASF122:
 5385 032c 4359424C 		.ascii	"CYBLE_GATT_WRITE_CMD\000"
 5385      455F4741 
 5385      54545F57 
 5385      52495445 
 5385      5F434D44 
 5386              	.LASF11:
 5387 0341 75696E74 		.ascii	"uint32\000"
 5387      333200
 5388              	.LASF210:
 5389 0348 4359424C 		.ascii	"CYBLE_WPTS_PRU_ALERT\000"
 5389      455F5750 
 5389      54535F50 
 5389      52555F41 
 5389      4C455254 
 5390              	.LASF236:
 5391 035d 4359424C 		.ascii	"CYBLE_EVT_GATTC_DESCR_DISCOVERY_FAILED\000"
 5391      455F4556 
 5391      545F4741 
 5391      5454435F 
 5391      44455343 
 5392              	.LASF430:
 5393 0384 4359424C 		.ascii	"CYBLE_EVT_RSCSC_WRITE_DESCR_RESPONSE\000"
 5393      455F4556 
 5393      545F5253 
 5393      4353435F 
 5393      57524954 
 5394              	.LASF269:
 5395 03a9 4359424C 		.ascii	"CYBLE_EVT_BCSS_INDICATION_CONFIRMED\000"
 5395      455F4556 
 5395      545F4243 
 5395      53535F49 
 5395      4E444943 
 5396              	.LASF270:
 5397 03cd 4359424C 		.ascii	"CYBLE_EVT_BCSC_INDICATION\000"
 5397      455F4556 
 5397      545F4243 
 5397      53435F49 
 5397      4E444943 
 5398              	.LASF399:
 5399 03e7 4359424C 		.ascii	"CYBLE_EVT_LNSS_INDICATION_DISABLED\000"
 5399      455F4556 
 5399      545F4C4E 
 5399      53535F49 
 5399      4E444943 
 5400              	.LASF331:
 5401 040a 4359424C 		.ascii	"CYBLE_EVT_CTSC_READ_CHAR_RESPONSE\000"
 5401      455F4556 
 5401      545F4354 
ARM GAS  C:\Users\Petro\AppData\Local\Temp\cca5nTbz.s 			page 120


 5401      53435F52 
 5401      4541445F 
 5402              	.LASF240:
 5403 042c 4359424C 		.ascii	"CYBLE_EVT_GATTC_SRVC_DISCOVERY_COMPLETE\000"
 5403      455F4556 
 5403      545F4741 
 5403      5454435F 
 5403      53525643 
 5404              	.LASF424:
 5405 0454 4359424C 		.ascii	"CYBLE_EVT_RSCSS_CHAR_WRITE\000"
 5405      455F4556 
 5405      545F5253 
 5405      4353535F 
 5405      43484152 
 5406              	.LASF246:
 5407 046f 4359424C 		.ascii	"CYBLE_EVT_ANCSS_WRITE_CHAR\000"
 5407      455F4556 
 5407      545F414E 
 5407      4353535F 
 5407      57524954 
 5408              	.LASF457:
 5409 048a 4359424C 		.ascii	"CYBLE_EVT_UDSC_WRITE_DESCR_RESPONSE\000"
 5409      455F4556 
 5409      545F5544 
 5409      53435F57 
 5409      52495445 
 5410              	.LASF373:
 5411 04ae 4359424C 		.ascii	"CYBLE_EVT_HIDSC_WRITE_DESCR_RESPONSE\000"
 5411      455F4556 
 5411      545F4849 
 5411      4453435F 
 5411      57524954 
 5412              	.LASF524:
 5413 04d3 4379426C 		.ascii	"CyBle_WptsApplCallback\000"
 5413      655F5770 
 5413      74734170 
 5413      706C4361 
 5413      6C6C6261 
 5414              	.LASF439:
 5415 04ea 4359424C 		.ascii	"CYBLE_EVT_TPSS_NOTIFICATION_ENABLED\000"
 5415      455F4556 
 5415      545F5450 
 5415      53535F4E 
 5415      4F544946 
 5416              	.LASF259:
 5417 050e 4359424C 		.ascii	"CYBLE_EVT_ANSC_READ_DESCR_RESPONSE\000"
 5417      455F4556 
 5417      545F414E 
 5417      53435F52 
 5417      4541445F 
 5418              	.LASF135:
 5419 0531 4359424C 		.ascii	"CYBLE_GATT_ERR_READ_NOT_PERMITTED\000"
 5419      455F4741 
 5419      54545F45 
 5419      52525F52 
 5419      4541445F 
 5420              	.LASF150:
ARM GAS  C:\Users\Petro\AppData\Local\Temp\cca5nTbz.s 			page 121


 5421 0553 4359424C 		.ascii	"CYBLE_GATT_ERR_INSUFFICIENT_RESOURCE\000"
 5421      455F4741 
 5421      54545F45 
 5421      52525F49 
 5421      4E535546 
 5422              	.LASF494:
 5423 0578 4379426C 		.ascii	"CyBle_WptsRegisterAttrCallback\000"
 5423      655F5770 
 5423      74735265 
 5423      67697374 
 5423      65724174 
 5424              	.LASF123:
 5425 0597 4359424C 		.ascii	"CYBLE_GATT_PREPARE_WRITE_REQ\000"
 5425      455F4741 
 5425      54545F50 
 5425      52455041 
 5425      52455F57 
 5426              	.LASF149:
 5427 05b4 4359424C 		.ascii	"CYBLE_GATT_ERR_UNSUPPORTED_GROUP_TYPE\000"
 5427      455F4741 
 5427      54545F45 
 5427      52525F55 
 5427      4E535550 
 5428              	.LASF90:
 5429 05da 4359424C 		.ascii	"CYBLE_ERROR_L2CAP_CONNECTION_ENTITY_NOT_FOUND\000"
 5429      455F4552 
 5429      524F525F 
 5429      4C324341 
 5429      505F434F 
 5430              	.LASF495:
 5431 0608 4379426C 		.ascii	"CyBle_WptscDiscovery\000"
 5431      655F5770 
 5431      74736344 
 5431      6973636F 
 5431      76657279 
 5432              	.LASF482:
 5433 061d 4359424C 		.ascii	"CYBLE_CLIENT_STATE_CHAR_DISCOVERING\000"
 5433      455F434C 
 5433      49454E54 
 5433      5F535441 
 5433      54455F43 
 5434              	.LASF387:
 5435 0641 4359424C 		.ascii	"CYBLE_EVT_HTSS_CHAR_WRITE\000"
 5435      455F4556 
 5435      545F4854 
 5435      53535F43 
 5435      4841525F 
 5436              	.LASF96:
 5437 065b 4359424C 		.ascii	"CYBLE_ERROR_MIC_AUTH_FAILED\000"
 5437      455F4552 
 5437      524F525F 
 5437      4D49435F 
 5437      41555448 
 5438              	.LASF235:
 5439 0677 4359424C 		.ascii	"CYBLE_EVT_GATTC_CHAR_DISCOVERY_FAILED\000"
 5439      455F4556 
 5439      545F4741 
ARM GAS  C:\Users\Petro\AppData\Local\Temp\cca5nTbz.s 			page 122


 5439      5454435F 
 5439      43484152 
 5440              	.LASF57:
 5441 069d 4359424C 		.ascii	"CYBLE_EVT_GATTS_DATA_SIGNED_CMD_REQ\000"
 5441      455F4556 
 5441      545F4741 
 5441      5454535F 
 5441      44415441 
 5442              	.LASF68:
 5443 06c1 4359424C 		.ascii	"CYBLE_EVT_L2CAP_CBFC_RX_CREDIT_IND\000"
 5443      455F4556 
 5443      545F4C32 
 5443      4341505F 
 5443      43424643 
 5444              	.LASF181:
 5445 06e4 4359424C 		.ascii	"CYBLE_GATT_VALUE_T\000"
 5445      455F4741 
 5445      54545F56 
 5445      414C5545 
 5445      5F5400
 5446              	.LASF317:
 5447 06f7 4359424C 		.ascii	"CYBLE_EVT_CSCSS_INDICATION_ENABLED\000"
 5447      455F4556 
 5447      545F4353 
 5447      4353535F 
 5447      494E4449 
 5448              	.LASF117:
 5449 071a 4359424C 		.ascii	"CYBLE_GATT_READ_MULTIPLE_RSP\000"
 5449      455F4741 
 5449      54545F52 
 5449      4541445F 
 5449      4D554C54 
 5450              	.LASF404:
 5451 0737 4359424C 		.ascii	"CYBLE_EVT_LNSC_INDICATION\000"
 5451      455F4556 
 5451      545F4C4E 
 5451      53435F49 
 5451      4E444943 
 5452              	.LASF415:
 5453 0751 4359424C 		.ascii	"CYBLE_EVT_PASSC_READ_CHAR_RESPONSE\000"
 5453      455F4556 
 5453      545F5041 
 5453      5353435F 
 5453      52454144 
 5454              	.LASF274:
 5455 0774 4359424C 		.ascii	"CYBLE_EVT_BLSS_INDICATION_ENABLED\000"
 5455      455F4556 
 5455      545F424C 
 5455      53535F49 
 5455      4E444943 
 5456              	.LASF280:
 5457 0796 4359424C 		.ascii	"CYBLE_EVT_BLSC_NOTIFICATION\000"
 5457      455F4556 
 5457      545F424C 
 5457      53435F4E 
 5457      4F544946 
 5458              	.LASF111:
ARM GAS  C:\Users\Petro\AppData\Local\Temp\cca5nTbz.s 			page 123


 5459 07b2 4359424C 		.ascii	"CYBLE_GATT_READ_BY_TYPE_RSP\000"
 5459      455F4741 
 5459      54545F52 
 5459      4541445F 
 5459      42595F54 
 5460              	.LASF197:
 5461 07ce 4359424C 		.ascii	"CYBLE_CALLBACK_T\000"
 5461      455F4341 
 5461      4C4C4241 
 5461      434B5F54 
 5461      00
 5462              	.LASF322:
 5463 07df 4359424C 		.ascii	"CYBLE_EVT_CSCSC_INDICATION\000"
 5463      455F4556 
 5463      545F4353 
 5463      4353435F 
 5463      494E4449 
 5464              	.LASF523:
 5465 07fa 6379426C 		.ascii	"cyBle_wptscReqHandle\000"
 5465      655F7770 
 5465      74736352 
 5465      65714861 
 5465      6E646C65 
 5466              	.LASF195:
 5467 080f 4359424C 		.ascii	"CYBLE_GATTC_HANDLE_VALUE_NTF_PARAM_T\000"
 5467      455F4741 
 5467      5454435F 
 5467      48414E44 
 5467      4C455F56 
 5468              	.LASF54:
 5469 0834 4359424C 		.ascii	"CYBLE_EVT_GATTC_HANDLE_VALUE_NTF\000"
 5469      455F4556 
 5469      545F4741 
 5469      5454435F 
 5469      48414E44 
 5470              	.LASF24:
 5471 0855 4359424C 		.ascii	"CYBLE_EVT_GAP_AUTH_REQ\000"
 5471      455F4556 
 5471      545F4741 
 5471      505F4155 
 5471      54485F52 
 5472              	.LASF242:
 5473 086c 4359424C 		.ascii	"CYBLE_EVT_GATTC_CHAR_DISCOVERY_COMPLETE\000"
 5473      455F4556 
 5473      545F4741 
 5473      5454435F 
 5473      43484152 
 5474              	.LASF179:
 5475 0894 4359424C 		.ascii	"CYBLE_CONN_HANDLE_T\000"
 5475      455F434F 
 5475      4E4E5F48 
 5475      414E444C 
 5475      455F5400 
 5476              	.LASF379:
 5477 08a8 4359424C 		.ascii	"CYBLE_EVT_HRSC_WRITE_CHAR_RESPONSE\000"
 5477      455F4556 
 5477      545F4852 
ARM GAS  C:\Users\Petro\AppData\Local\Temp\cca5nTbz.s 			page 124


 5477      53435F57 
 5477      52495445 
 5478              	.LASF85:
 5479 08cb 4359424C 		.ascii	"CYBLE_ERROR_BT_ON_NOT_COMPLETED\000"
 5479      455F4552 
 5479      524F525F 
 5479      42545F4F 
 5479      4E5F4E4F 
 5480              	.LASF321:
 5481 08eb 4359424C 		.ascii	"CYBLE_EVT_CSCSC_NOTIFICATION\000"
 5481      455F4556 
 5481      545F4353 
 5481      4353435F 
 5481      4E4F5449 
 5482              	.LASF452:
 5483 0908 4359424C 		.ascii	"CYBLE_EVT_UDSC_INDICATION\000"
 5483      455F4556 
 5483      545F5544 
 5483      53435F49 
 5483      4E444943 
 5484              	.LASF529:
 5485 0922 6379426C 		.ascii	"cyBle_disCount\000"
 5485      655F6469 
 5485      73436F75 
 5485      6E7400
 5486              	.LASF285:
 5487 0931 4359424C 		.ascii	"CYBLE_EVT_BMSC_READ_CHAR_RESPONSE\000"
 5487      455F4556 
 5487      545F424D 
 5487      53435F52 
 5487      4541445F 
 5488              	.LASF206:
 5489 0953 64657363 		.ascii	"descrHandle\000"
 5489      7248616E 
 5489      646C6500 
 5490              	.LASF177:
 5491 095f 62644861 		.ascii	"bdHandle\000"
 5491      6E646C65 
 5491      00
 5492              	.LASF290:
 5493 0968 4359424C 		.ascii	"CYBLE_EVT_CGMSS_INDICATION_CONFIRMED\000"
 5493      455F4556 
 5493      545F4347 
 5493      4D53535F 
 5493      494E4449 
 5494              	.LASF163:
 5495 098d 4359424C 		.ascii	"CYBLE_GATT_ERR_ANCS_INVALID_COMMAND\000"
 5495      455F4741 
 5495      54545F45 
 5495      52525F41 
 5495      4E43535F 
 5496              	.LASF282:
 5497 09b1 4359424C 		.ascii	"CYBLE_EVT_BLSC_READ_DESCR_RESPONSE\000"
 5497      455F4556 
 5497      545F424C 
 5497      53435F52 
 5497      4541445F 
ARM GAS  C:\Users\Petro\AppData\Local\Temp\cca5nTbz.s 			page 125


 5498              	.LASF349:
 5499 09d4 4359424C 		.ascii	"CYBLE_EVT_ESSC_WRITE_DESCR_RESPONSE\000"
 5499      455F4556 
 5499      545F4553 
 5499      53435F57 
 5499      52495445 
 5500              	.LASF534:
 5501 09f8 4379426C 		.ascii	"CyBle_GattcWriteCharacteristicValue\000"
 5501      655F4761 
 5501      74746357 
 5501      72697465 
 5501      43686172 
 5502              	.LASF303:
 5503 0a1c 4359424C 		.ascii	"CYBLE_EVT_CPSS_INDICATION_DISABLED\000"
 5503      455F4556 
 5503      545F4350 
 5503      53535F49 
 5503      4E444943 
 5504              	.LASF105:
 5505 0a3f 4359424C 		.ascii	"CYBLE_GATT_XCHNG_MTU_RSP\000"
 5505      455F4741 
 5505      54545F58 
 5505      43484E47 
 5505      5F4D5455 
 5506              	.LASF302:
 5507 0a58 4359424C 		.ascii	"CYBLE_EVT_CPSS_INDICATION_ENABLED\000"
 5507      455F4556 
 5507      545F4350 
 5507      53535F49 
 5507      4E444943 
 5508              	.LASF401:
 5509 0a7a 4359424C 		.ascii	"CYBLE_EVT_LNSS_NOTIFICATION_ENABLED\000"
 5509      455F4556 
 5509      545F4C4E 
 5509      53535F4E 
 5509      4F544946 
 5510              	.LASF191:
 5511 0a9e 4359424C 		.ascii	"CYBLE_GATTC_READ_REQ_T\000"
 5511      455F4741 
 5511      5454435F 
 5511      52454144 
 5511      5F524551 
 5512              	.LASF50:
 5513 0ab5 4359424C 		.ascii	"CYBLE_EVT_GATTS_WRITE_CMD_REQ\000"
 5513      455F4556 
 5513      545F4741 
 5513      5454535F 
 5513      57524954 
 5514              	.LASF313:
 5515 0ad3 4359424C 		.ascii	"CYBLE_EVT_CPSC_WRITE_DESCR_RESPONSE\000"
 5515      455F4556 
 5515      545F4350 
 5515      53435F57 
 5515      52495445 
 5516              	.LASF213:
 5517 0af7 4359424C 		.ascii	"CYBLE_WPTS_CHAR_COUNT\000"
 5517      455F5750 
ARM GAS  C:\Users\Petro\AppData\Local\Temp\cca5nTbz.s 			page 126


 5517      54535F43 
 5517      4841525F 
 5517      434F554E 
 5518              	.LASF4:
 5519 0b0d 6C6F6E67 		.ascii	"long int\000"
 5519      20696E74 
 5519      00
 5520              	.LASF222:
 5521 0b16 4359424C 		.ascii	"CYBLE_WPTSC_CHAR_T\000"
 5521      455F5750 
 5521      5453435F 
 5521      43484152 
 5521      5F5400
 5522              	.LASF402:
 5523 0b29 4359424C 		.ascii	"CYBLE_EVT_LNSS_NOTIFICATION_DISABLED\000"
 5523      455F4556 
 5523      545F4C4E 
 5523      53535F4E 
 5523      4F544946 
 5524              	.LASF248:
 5525 0b4e 4359424C 		.ascii	"CYBLE_EVT_ANCSC_READ_CHAR_RESPONSE\000"
 5525      455F4556 
 5525      545F414E 
 5525      4353435F 
 5525      52454144 
 5526              	.LASF132:
 5527 0b71 4359424C 		.ascii	"CYBLE_GATT_PDU_T\000"
 5527      455F4741 
 5527      54545F50 
 5527      44555F54 
 5527      00
 5528              	.LASF416:
 5529 0b82 4359424C 		.ascii	"CYBLE_EVT_PASSC_WRITE_CHAR_RESPONSE\000"
 5529      455F4556 
 5529      545F5041 
 5529      5353435F 
 5529      57524954 
 5530              	.LASF447:
 5531 0ba6 4359424C 		.ascii	"CYBLE_EVT_UDSS_INDICATION_CONFIRMED\000"
 5531      455F4556 
 5531      545F5544 
 5531      53535F49 
 5531      4E444943 
 5532              	.LASF228:
 5533 0bca 4359424C 		.ascii	"CYBLE_LONG_TERM_KEY_REQUEST_REPLY\000"
 5533      455F4C4F 
 5533      4E475F54 
 5533      45524D5F 
 5533      4B45595F 
 5534              	.LASF109:
 5535 0bec 4359424C 		.ascii	"CYBLE_GATT_FIND_BY_TYPE_VALUE_RSP\000"
 5535      455F4741 
 5535      54545F46 
 5535      494E445F 
 5535      42595F54 
 5536              	.LASF18:
 5537 0c0e 4359424C 		.ascii	"CYBLE_EVT_STACK_ON\000"
ARM GAS  C:\Users\Petro\AppData\Local\Temp\cca5nTbz.s 			page 127


 5537      455F4556 
 5537      545F5354 
 5537      41434B5F 
 5537      4F4E00
 5538              	.LASF92:
 5539 0c21 4359424C 		.ascii	"CYBLE_ERROR_L2CAP_PSM_NOT_IN_RANGE\000"
 5539      455F4552 
 5539      524F525F 
 5539      4C324341 
 5539      505F5053 
 5540              	.LASF268:
 5541 0c44 4359424C 		.ascii	"CYBLE_EVT_BCSS_INDICATION_DISABLED\000"
 5541      455F4556 
 5541      545F4243 
 5541      53535F49 
 5541      4E444943 
 5542              	.LASF496:
 5543 0c67 63616C6C 		.ascii	"callbackFunc\000"
 5543      6261636B 
 5543      46756E63 
 5543      00
 5544              	.LASF501:
 5545 0c74 64697363 		.ascii	"discDescrInfo\000"
 5545      44657363 
 5545      72496E66 
 5545      6F00
 5546              	.LASF219:
 5547 0c82 4359424C 		.ascii	"CYBLE_WPTS_CHAR_VALUE_T\000"
 5547      455F5750 
 5547      54535F43 
 5547      4841525F 
 5547      56414C55 
 5548              	.LASF223:
 5549 0c9a 73657276 		.ascii	"serviceHandle\000"
 5549      69636548 
 5549      616E646C 
 5549      6500
 5550              	.LASF382:
 5551 0ca8 4359424C 		.ascii	"CYBLE_EVT_HTSS_NOTIFICATION_ENABLED\000"
 5551      455F4556 
 5551      545F4854 
 5551      53535F4E 
 5551      4F544946 
 5552              	.LASF137:
 5553 0ccc 4359424C 		.ascii	"CYBLE_GATT_ERR_INVALID_PDU\000"
 5553      455F4741 
 5553      54545F45 
 5553      52525F49 
 5553      4E56414C 
 5554              	.LASF100:
 5555 0ce7 4359424C 		.ascii	"CYBLE_ERROR_CHAR_IS_NOT_DISCOVERED\000"
 5555      455F4552 
 5555      524F525F 
 5555      43484152 
 5555      5F49535F 
 5556              	.LASF528:
 5557 0d0a 6379426C 		.ascii	"cyBle_clientState\000"
ARM GAS  C:\Users\Petro\AppData\Local\Temp\cca5nTbz.s 			page 128


 5557      655F636C 
 5557      69656E74 
 5557      53746174 
 5557      6500
 5558              	.LASF450:
 5559 0d1c 4359424C 		.ascii	"CYBLE_EVT_UDSS_READ_CHAR\000"
 5559      455F4556 
 5559      545F5544 
 5559      53535F52 
 5559      4541445F 
 5560              	.LASF183:
 5561 0d35 4359424C 		.ascii	"CYBLE_GATT_HANDLE_VALUE_PAIR_T\000"
 5561      455F4741 
 5561      54545F48 
 5561      414E444C 
 5561      455F5641 
 5562              	.LASF346:
 5563 0d54 4359424C 		.ascii	"CYBLE_EVT_ESSC_READ_CHAR_RESPONSE\000"
 5563      455F4556 
 5563      545F4553 
 5563      53435F52 
 5563      4541445F 
 5564              	.LASF369:
 5565 0d76 4359424C 		.ascii	"CYBLE_EVT_HIDSC_NOTIFICATION\000"
 5565      455F4556 
 5565      545F4849 
 5565      4453435F 
 5565      4E4F5449 
 5566              	.LASF62:
 5567 0d93 4359424C 		.ascii	"CYBLE_EVT_L2CAP_COMMAND_REJ\000"
 5567      455F4556 
 5567      545F4C32 
 5567      4341505F 
 5567      434F4D4D 
 5568              	.LASF192:
 5569 0daf 4359424C 		.ascii	"CYBLE_GATTC_WRITE_REQ_T\000"
 5569      455F4741 
 5569      5454435F 
 5569      57524954 
 5569      455F5245 
 5570              	.LASF115:
 5571 0dc7 4359424C 		.ascii	"CYBLE_GATT_READ_BLOB_RSP\000"
 5571      455F4741 
 5571      54545F52 
 5571      4541445F 
 5571      424C4F42 
 5572              	.LASF146:
 5573 0de0 4359424C 		.ascii	"CYBLE_GATT_ERR_INVALID_ATTRIBUTE_LEN\000"
 5573      455F4741 
 5573      54545F45 
 5573      52525F49 
 5573      4E56414C 
 5574              	.LASF366:
 5575 0e05 4359424C 		.ascii	"CYBLE_EVT_HIDSS_SUSPEND\000"
 5575      455F4556 
 5575      545F4849 
 5575      4453535F 
ARM GAS  C:\Users\Petro\AppData\Local\Temp\cca5nTbz.s 			page 129


 5575      53555350 
 5576              	.LASF93:
 5577 0e1d 4359424C 		.ascii	"CYBLE_ERROR_GATT_DB_INVALID_ATTR_HANDLE\000"
 5577      455F4552 
 5577      524F525F 
 5577      47415454 
 5577      5F44425F 
 5578              	.LASF0:
 5579 0e45 7369676E 		.ascii	"signed char\000"
 5579      65642063 
 5579      68617200 
 5580              	.LASF272:
 5581 0e51 4359424C 		.ascii	"CYBLE_EVT_BCSC_READ_DESCR_RESPONSE\000"
 5581      455F4556 
 5581      545F4243 
 5581      53435F52 
 5581      4541445F 
 5582              	.LASF477:
 5583 0e74 4359424C 		.ascii	"CYBLE_EVT_WSSC_WRITE_DESCR_RESPONSE\000"
 5583      455F4556 
 5583      545F5753 
 5583      53435F57 
 5583      52495445 
 5584              	.LASF265:
 5585 0e98 4359424C 		.ascii	"CYBLE_EVT_BASC_READ_DESCR_RESPONSE\000"
 5585      455F4556 
 5585      545F4241 
 5585      53435F52 
 5585      4541445F 
 5586              	.LASF106:
 5587 0ebb 4359424C 		.ascii	"CYBLE_GATT_FIND_INFO_REQ\000"
 5587      455F4741 
 5587      54545F46 
 5587      494E445F 
 5587      494E464F 
 5588              	.LASF20:
 5589 0ed4 4359424C 		.ascii	"CYBLE_EVT_HARDWARE_ERROR\000"
 5589      455F4556 
 5589      545F4841 
 5589      52445741 
 5589      52455F45 
 5590              	.LASF74:
 5591 0eed 4359424C 		.ascii	"CYBLE_ERROR_OK\000"
 5591      455F4552 
 5591      524F525F 
 5591      4F4B00
 5592              	.LASF511:
 5593 0efc 6C6F6343 		.ascii	"locCharValue\000"
 5593      68617256 
 5593      616C7565 
 5593      00
 5594              	.LASF166:
 5595 0f09 4359424C 		.ascii	"CYBLE_GATT_ERR_CCCD_IMPROPERLY_CONFIGURED\000"
 5595      455F4741 
 5595      54545F45 
 5595      52525F43 
 5595      4343445F 
ARM GAS  C:\Users\Petro\AppData\Local\Temp\cca5nTbz.s 			page 130


 5596              	.LASF41:
 5597 0f33 4359424C 		.ascii	"CYBLE_EVT_GATTC_READ_BY_GROUP_TYPE_RSP\000"
 5597      455F4556 
 5597      545F4741 
 5597      5454435F 
 5597      52454144 
 5598              	.LASF421:
 5599 0f5a 4359424C 		.ascii	"CYBLE_EVT_RSCSS_INDICATION_ENABLED\000"
 5599      455F4556 
 5599      545F5253 
 5599      4353535F 
 5599      494E4449 
 5600              	.LASF1:
 5601 0f7d 756E7369 		.ascii	"unsigned char\000"
 5601      676E6564 
 5601      20636861 
 5601      7200
 5602              	.LASF40:
 5603 0f8b 4359424C 		.ascii	"CYBLE_EVT_GATTC_XCHNG_MTU_RSP\000"
 5603      455F4556 
 5603      545F4741 
 5603      5454435F 
 5603      5843484E 
 5604              	.LASF304:
 5605 0fa9 4359424C 		.ascii	"CYBLE_EVT_CPSS_INDICATION_CONFIRMED\000"
 5605      455F4556 
 5605      545F4350 
 5605      53535F49 
 5605      4E444943 
 5606              	.LASF128:
 5607 0fcd 4359424C 		.ascii	"CYBLE_GATT_HANDLE_VALUE_IND\000"
 5607      455F4741 
 5607      54545F48 
 5607      414E444C 
 5607      455F5641 
 5608              	.LASF512:
 5609 0fe9 6C6F6344 		.ascii	"locDescrValue\000"
 5609      65736372 
 5609      56616C75 
 5609      6500
 5610              	.LASF301:
 5611 0ff7 4359424C 		.ascii	"CYBLE_EVT_CPSS_NOTIFICATION_DISABLED\000"
 5611      455F4556 
 5611      545F4350 
 5611      53535F4E 
 5611      4F544946 
 5612              	.LASF486:
 5613 101c 4359424C 		.ascii	"CYBLE_CLIENT_STATE_DISCONNECTED_DISCOVERED\000"
 5613      455F434C 
 5613      49454E54 
 5613      5F535441 
 5613      54455F44 
 5614              	.LASF426:
 5615 1047 4359424C 		.ascii	"CYBLE_EVT_RSCSC_INDICATION\000"
 5615      455F4556 
 5615      545F5253 
 5615      4353435F 
ARM GAS  C:\Users\Petro\AppData\Local\Temp\cca5nTbz.s 			page 131


 5615      494E4449 
 5616              	.LASF476:
 5617 1062 4359424C 		.ascii	"CYBLE_EVT_WSSC_READ_DESCR_RESPONSE\000"
 5617      455F4556 
 5617      545F5753 
 5617      53435F52 
 5617      4541445F 
 5618              	.LASF500:
 5619 1085 4379426C 		.ascii	"CyBle_WptscDiscoverCharDescriptorsEventHandler\000"
 5619      655F5770 
 5619      74736344 
 5619      6973636F 
 5619      76657243 
 5620              	.LASF462:
 5621 10b4 4359424C 		.ascii	"CYBLE_EVT_WPTSS_INDICATION_DISABLED\000"
 5621      455F4556 
 5621      545F5750 
 5621      5453535F 
 5621      494E4449 
 5622              	.LASF69:
 5623 10d8 4359424C 		.ascii	"CYBLE_EVT_L2CAP_CBFC_TX_CREDIT_IND\000"
 5623      455F4556 
 5623      545F4C32 
 5623      4341505F 
 5623      43424643 
 5624              	.LASF291:
 5625 10fb 4359424C 		.ascii	"CYBLE_EVT_CGMSS_NOTIFICATION_ENABLED\000"
 5625      455F4556 
 5625      545F4347 
 5625      4D53535F 
 5625      4E4F5449 
 5626              	.LASF509:
 5627 1120 4379426C 		.ascii	"CyBle_WptscReadResponseEventHandler\000"
 5627      655F5770 
 5627      74736352 
 5627      65616452 
 5627      6573706F 
 5628              	.LASF521:
 5629 1144 4379426C 		.ascii	"CyBle_WptscSetCharacteristicDescriptor\000"
 5629      655F5770 
 5629      74736353 
 5629      65744368 
 5629      61726163 
 5630              	.LASF232:
 5631 116b 4359424C 		.ascii	"CYBLE_EVT_GATTC_INDICATION\000"
 5631      455F4556 
 5631      545F4741 
 5631      5454435F 
 5631      494E4449 
 5632              	.LASF189:
 5633 1186 6572726F 		.ascii	"errorCode\000"
 5633      72436F64 
 5633      6500
 5634              	.LASF204:
 5635 1190 75756964 		.ascii	"uuidFormat\000"
 5635      466F726D 
 5635      617400
ARM GAS  C:\Users\Petro\AppData\Local\Temp\cca5nTbz.s 			page 132


 5636              	.LASF433:
 5637 119b 4359424C 		.ascii	"CYBLE_EVT_SCPSS_NOTIFICATION_ENABLED\000"
 5637      455F4556 
 5637      545F5343 
 5637      5053535F 
 5637      4E4F5449 
 5638              	.LASF66:
 5639 11c0 4359424C 		.ascii	"CYBLE_EVT_L2CAP_CBFC_DISCONN_CNF\000"
 5639      455F4556 
 5639      545F4C32 
 5639      4341505F 
 5639      43424643 
 5640              	.LASF44:
 5641 11e1 4359424C 		.ascii	"CYBLE_EVT_GATTC_FIND_BY_TYPE_VALUE_RSP\000"
 5641      455F4556 
 5641      545F4741 
 5641      5454435F 
 5641      46494E44 
 5642              	.LASF244:
 5643 1208 4359424C 		.ascii	"CYBLE_EVT_ANCSS_NOTIFICATION_ENABLED\000"
 5643      455F4556 
 5643      545F414E 
 5643      4353535F 
 5643      4E4F5449 
 5644              	.LASF338:
 5645 122d 4359424C 		.ascii	"CYBLE_EVT_ESSS_INDICATION_ENABLED\000"
 5645      455F4556 
 5645      545F4553 
 5645      53535F49 
 5645      4E444943 
 5646              	.LASF14:
 5647 124f 63686172 		.ascii	"char\000"
 5647      00
 5648              	.LASF441:
 5649 1254 4359424C 		.ascii	"CYBLE_EVT_TPSC_NOTIFICATION\000"
 5649      455F4556 
 5649      545F5450 
 5649      53435F4E 
 5649      4F544946 
 5650              	.LASF121:
 5651 1270 4359424C 		.ascii	"CYBLE_GATT_WRITE_RSP\000"
 5651      455F4741 
 5651      54545F57 
 5651      52495445 
 5651      5F525350 
 5652              	.LASF47:
 5653 1285 4359424C 		.ascii	"CYBLE_EVT_GATTC_READ_MULTI_RSP\000"
 5653      455F4556 
 5653      545F4741 
 5653      5454435F 
 5653      52454144 
 5654              	.LASF17:
 5655 12a4 4359424C 		.ascii	"CYBLE_EVT_HOST_INVALID\000"
 5655      455F4556 
 5655      545F484F 
 5655      53545F49 
 5655      4E56414C 
ARM GAS  C:\Users\Petro\AppData\Local\Temp\cca5nTbz.s 			page 133


 5656              	.LASF157:
 5657 12bb 4359424C 		.ascii	"CYBLE_GATT_ERR_MISSING_CRC\000"
 5657      455F4741 
 5657      54545F45 
 5657      52525F4D 
 5657      49535349 
 5658              	.LASF147:
 5659 12d6 4359424C 		.ascii	"CYBLE_GATT_ERR_UNLIKELY_ERROR\000"
 5659      455F4741 
 5659      54545F45 
 5659      52525F55 
 5659      4E4C494B 
 5660              	.LASF360:
 5661 12f4 4359424C 		.ascii	"CYBLE_EVT_GLSC_READ_DESCR_RESPONSE\000"
 5661      455F4556 
 5661      545F474C 
 5661      53435F52 
 5661      4541445F 
 5662              	.LASF104:
 5663 1317 4359424C 		.ascii	"CYBLE_GATT_XCNHG_MTU_REQ\000"
 5663      455F4741 
 5663      54545F58 
 5663      434E4847 
 5663      5F4D5455 
 5664              	.LASF81:
 5665 1330 4359424C 		.ascii	"CYBLE_ERROR_NO_DEVICE_ENTITY\000"
 5665      455F4552 
 5665      524F525F 
 5665      4E4F5F44 
 5665      45564943 
 5666              	.LASF46:
 5667 134d 4359424C 		.ascii	"CYBLE_EVT_GATTC_READ_BLOB_RSP\000"
 5667      455F4556 
 5667      545F4741 
 5667      5454435F 
 5667      52454144 
 5668              	.LASF385:
 5669 136b 4359424C 		.ascii	"CYBLE_EVT_HTSS_INDICATION_DISABLED\000"
 5669      455F4556 
 5669      545F4854 
 5669      53535F49 
 5669      4E444943 
 5670              	.LASF432:
 5671 138e 4359424C 		.ascii	"CYBLE_EVT_RTUSC_READ_CHAR_RESPONSE\000"
 5671      455F4556 
 5671      545F5254 
 5671      5553435F 
 5671      52454144 
 5672              	.LASF525:
 5673 13b1 6379426C 		.ascii	"cyBle_eventHandlerFlag\000"
 5673      655F6576 
 5673      656E7448 
 5673      616E646C 
 5673      6572466C 
 5674              	.LASF53:
 5675 13c8 4359424C 		.ascii	"CYBLE_EVT_GATTC_EXEC_WRITE_RSP\000"
 5675      455F4556 
ARM GAS  C:\Users\Petro\AppData\Local\Temp\cca5nTbz.s 			page 134


 5675      545F4741 
 5675      5454435F 
 5675      45584543 
 5676              	.LASF151:
 5677 13e7 4359424C 		.ascii	"CYBLE_GATT_ERR_HEART_RATE_CONTROL_POINT_NOT_SUPPORT"
 5677      455F4741 
 5677      54545F45 
 5677      52525F48 
 5677      45415254 
 5678 141a 454400   		.ascii	"ED\000"
 5679              	.LASF473:
 5680 141d 4359424C 		.ascii	"CYBLE_EVT_WSSS_INDICATION_CONFIRMED\000"
 5680      455F4556 
 5680      545F5753 
 5680      53535F49 
 5680      4E444943 
 5681              	.LASF144:
 5682 1441 4359424C 		.ascii	"CYBLE_GATT_ERR_ATTRIBUTE_NOT_LONG\000"
 5682      455F4741 
 5682      54545F45 
 5682      52525F41 
 5682      54545249 
 5683              	.LASF333:
 5684 1463 4359424C 		.ascii	"CYBLE_EVT_CTSC_WRITE_DESCR_RESPONSE\000"
 5684      455F4556 
 5684      545F4354 
 5684      53435F57 
 5684      52495445 
 5685              	.LASF480:
 5686 1487 4359424C 		.ascii	"CYBLE_CLIENT_STATE_SRVC_DISCOVERING\000"
 5686      455F434C 
 5686      49454E54 
 5686      5F535441 
 5686      54455F53 
 5687              	.LASF446:
 5688 14ab 4359424C 		.ascii	"CYBLE_EVT_UDSS_INDICATION_DISABLED\000"
 5688      455F4556 
 5688      545F5544 
 5688      53535F49 
 5688      4E444943 
 5689              	.LASF533:
 5690 14ce 6D656D63 		.ascii	"memcmp\000"
 5690      6D7000
 5691              	.LASF499:
 5692 14d5 64697363 		.ascii	"discCharInfo\000"
 5692      43686172 
 5692      496E666F 
 5692      00
 5693              	.LASF58:
 5694 14e2 4359424C 		.ascii	"CYBLE_EVT_GATTC_STOP_CMD_COMPLETE\000"
 5694      455F4556 
 5694      545F4741 
 5694      5454435F 
 5694      53544F50 
 5695              	.LASF307:
 5696 1504 4359424C 		.ascii	"CYBLE_EVT_CPSS_CHAR_WRITE\000"
 5696      455F4556 
ARM GAS  C:\Users\Petro\AppData\Local\Temp\cca5nTbz.s 			page 135


 5696      545F4350 
 5696      53535F43 
 5696      4841525F 
 5697              	.LASF374:
 5698 151e 4359424C 		.ascii	"CYBLE_EVT_HRSS_ENERGY_EXPENDED_RESET\000"
 5698      455F4556 
 5698      545F4852 
 5698      53535F45 
 5698      4E455247 
 5699              	.LASF165:
 5700 1543 4359424C 		.ascii	"CYBLE_GATT_ERR_ANCS_ACTION_FAILED\000"
 5700      455F4741 
 5700      54545F45 
 5700      52525F41 
 5700      4E43535F 
 5701              	.LASF216:
 5702 1565 4359424C 		.ascii	"CYBLE_WPTS_DESCR_COUNT\000"
 5702      455F5750 
 5702      54535F44 
 5702      45534352 
 5702      5F434F55 
 5703              	.LASF460:
 5704 157c 4359424C 		.ascii	"CYBLE_EVT_WPTSS_NOTIFICATION_DISABLED\000"
 5704      455F4556 
 5704      545F5750 
 5704      5453535F 
 5704      4E4F5449 
 5705              	.LASF513:
 5706 15a2 4379426C 		.ascii	"CyBle_WptscWriteResponseEventHandler\000"
 5706      655F5770 
 5706      74736357 
 5706      72697465 
 5706      52657370 
 5707              	.LASF277:
 5708 15c7 4359424C 		.ascii	"CYBLE_EVT_BLSS_NOTIFICATION_ENABLED\000"
 5708      455F4556 
 5708      545F424C 
 5708      53535F4E 
 5708      4F544946 
 5709              	.LASF103:
 5710 15eb 4359424C 		.ascii	"CYBLE_GATT_ERROR_RSP\000"
 5710      455F4741 
 5710      54545F45 
 5710      52524F52 
 5710      5F525350 
 5711              	.LASF75:
 5712 1600 4359424C 		.ascii	"CYBLE_ERROR_INVALID_PARAMETER\000"
 5712      455F4552 
 5712      524F525F 
 5712      494E5641 
 5712      4C49445F 
 5713              	.LASF345:
 5714 161e 4359424C 		.ascii	"CYBLE_EVT_ESSC_INDICATION\000"
 5714      455F4556 
 5714      545F4553 
 5714      53435F49 
 5714      4E444943 
ARM GAS  C:\Users\Petro\AppData\Local\Temp\cca5nTbz.s 			page 136


 5715              	.LASF251:
 5716 1638 4359424C 		.ascii	"CYBLE_EVT_ANCSC_WRITE_DESCR_RESPONSE\000"
 5716      455F4556 
 5716      545F414E 
 5716      4353435F 
 5716      57524954 
 5717              	.LASF428:
 5718 165d 4359424C 		.ascii	"CYBLE_EVT_RSCSC_WRITE_CHAR_RESPONSE\000"
 5718      455F4556 
 5718      545F5253 
 5718      4353435F 
 5718      57524954 
 5719              	.LASF375:
 5720 1681 4359424C 		.ascii	"CYBLE_EVT_HRSS_NOTIFICATION_ENABLED\000"
 5720      455F4556 
 5720      545F4852 
 5720      53535F4E 
 5720      4F544946 
 5721              	.LASF444:
 5722 16a5 4359424C 		.ascii	"CYBLE_EVT_TPSC_WRITE_DESCR_RESPONSE\000"
 5722      455F4556 
 5722      545F5450 
 5722      53435F57 
 5722      52495445 
 5723              	.LASF316:
 5724 16c9 4359424C 		.ascii	"CYBLE_EVT_CSCSS_NOTIFICATION_DISABLED\000"
 5724      455F4556 
 5724      545F4353 
 5724      4353535F 
 5724      4E4F5449 
 5725              	.LASF327:
 5726 16ef 4359424C 		.ascii	"CYBLE_EVT_CTSS_NOTIFICATION_ENABLED\000"
 5726      455F4556 
 5726      545F4354 
 5726      53535F4E 
 5726      4F544946 
 5727              	.LASF422:
 5728 1713 4359424C 		.ascii	"CYBLE_EVT_RSCSS_INDICATION_DISABLED\000"
 5728      455F4556 
 5728      545F5253 
 5728      4353535F 
 5728      494E4449 
 5729              	.LASF464:
 5730 1737 4359424C 		.ascii	"CYBLE_EVT_WPTSS_WRITE_CHAR\000"
 5730      455F4556 
 5730      545F5750 
 5730      5453535F 
 5730      57524954 
 5731              	.LASF395:
 5732 1752 4359424C 		.ascii	"CYBLE_EVT_LLSS_WRITE_CHAR_REQ\000"
 5732      455F4556 
 5732      545F4C4C 
 5732      53535F57 
 5732      52495445 
 5733              	.LASF77:
 5734 1770 4359424C 		.ascii	"CYBLE_ERROR_MEMORY_ALLOCATION_FAILED\000"
 5734      455F4552 
ARM GAS  C:\Users\Petro\AppData\Local\Temp\cca5nTbz.s 			page 137


 5734      524F525F 
 5734      4D454D4F 
 5734      52595F41 
 5735              	.LASF380:
 5736 1795 4359424C 		.ascii	"CYBLE_EVT_HRSC_READ_DESCR_RESPONSE\000"
 5736      455F4556 
 5736      545F4852 
 5736      53435F52 
 5736      4541445F 
 5737              	.LASF518:
 5738 17b8 77726974 		.ascii	"writeReqParam\000"
 5738      65526571 
 5738      50617261 
 5738      6D00
 5739              	.LASF315:
 5740 17c6 4359424C 		.ascii	"CYBLE_EVT_CSCSS_NOTIFICATION_ENABLED\000"
 5740      455F4556 
 5740      545F4353 
 5740      4353535F 
 5740      4E4F5449 
 5741              	.LASF516:
 5742 17eb 61747472 		.ascii	"attrValue\000"
 5742      56616C75 
 5742      6500
 5743              	.LASF279:
 5744 17f5 4359424C 		.ascii	"CYBLE_EVT_BLSC_INDICATION\000"
 5744      455F4556 
 5744      545F424C 
 5744      53435F49 
 5744      4E444943 
 5745              	.LASF130:
 5746 180f 4359424C 		.ascii	"CYBLE_GATT_SIGNED_WRITE_CMD\000"
 5746      455F4741 
 5746      54545F53 
 5746      49474E45 
 5746      445F5752 
 5747              	.LASF368:
 5748 182b 4359424C 		.ascii	"CYBLE_EVT_HIDSS_REPORT_CHAR_WRITE\000"
 5748      455F4556 
 5748      545F4849 
 5748      4453535F 
 5748      5245504F 
 5749              	.LASF267:
 5750 184d 4359424C 		.ascii	"CYBLE_EVT_BCSS_INDICATION_ENABLED\000"
 5750      455F4556 
 5750      545F4243 
 5750      53535F49 
 5750      4E444943 
 5751              	.LASF158:
 5752 186f 4359424C 		.ascii	"CYBLE_GATTS_ERR_CCCD_IMPROPERLY_CONFIGURED\000"
 5752      455F4741 
 5752      5454535F 
 5752      4552525F 
 5752      43434344 
 5753              	.LASF468:
 5754 189a 4359424C 		.ascii	"CYBLE_EVT_WPTSC_READ_CHAR_RESPONSE\000"
 5754      455F4556 
ARM GAS  C:\Users\Petro\AppData\Local\Temp\cca5nTbz.s 			page 138


 5754      545F5750 
 5754      5453435F 
 5754      52454144 
 5755              	.LASF126:
 5756 18bd 4359424C 		.ascii	"CYBLE_GATT_EXECUTE_WRITE_RSP\000"
 5756      455F4741 
 5756      54545F45 
 5756      58454355 
 5756      54455F57 
 5757              	.LASF97:
 5758 18da 4359424C 		.ascii	"CYBLE_ERROR_MAX\000"
 5758      455F4552 
 5758      524F525F 
 5758      4D415800 
 5759              	.LASF407:
 5760 18ea 4359424C 		.ascii	"CYBLE_EVT_LNSC_WRITE_CHAR_RESPONSE\000"
 5760      455F4556 
 5760      545F4C4E 
 5760      53435F57 
 5760      52495445 
 5761              	.LASF61:
 5762 190d 4359424C 		.ascii	"CYBLE_EVT_L2CAP_CONN_PARAM_UPDATE_RSP\000"
 5762      455F4556 
 5762      545F4C32 
 5762      4341505F 
 5762      434F4E4E 
 5763              	.LASF258:
 5764 1933 4359424C 		.ascii	"CYBLE_EVT_ANSC_WRITE_CHAR_RESPONSE\000"
 5764      455F4556 
 5764      545F414E 
 5764      53435F57 
 5764      52495445 
 5765              	.LASF449:
 5766 1956 4359424C 		.ascii	"CYBLE_EVT_UDSS_NOTIFICATION_DISABLED\000"
 5766      455F4556 
 5766      545F5544 
 5766      53535F4E 
 5766      4F544946 
 5767              	.LASF326:
 5768 197b 4359424C 		.ascii	"CYBLE_EVT_CSCSC_WRITE_DESCR_RESPONSE\000"
 5768      455F4556 
 5768      545F4353 
 5768      4353435F 
 5768      57524954 
 5769              	.LASF451:
 5770 19a0 4359424C 		.ascii	"CYBLE_EVT_UDSS_WRITE_CHAR\000"
 5770      455F4556 
 5770      545F5544 
 5770      53535F57 
 5770      52495445 
 5771              	.LASF207:
 5772 19ba 4359424C 		.ascii	"CYBLE_DISC_DESCR_INFO_T\000"
 5772      455F4449 
 5772      53435F44 
 5772      45534352 
 5772      5F494E46 
 5773              	.LASF184:
ARM GAS  C:\Users\Petro\AppData\Local\Temp\cca5nTbz.s 			page 139


 5774 19d2 73746172 		.ascii	"startHandle\000"
 5774      7448616E 
 5774      646C6500 
 5775              	.LASF502:
 5776 19de 4379426C 		.ascii	"CyBle_WptscNotificationEventHandler\000"
 5776      655F5770 
 5776      7473634E 
 5776      6F746966 
 5776      69636174 
 5777              	.LASF152:
 5778 1a02 4359424C 		.ascii	"CYBLE_GATT_ERR_USER_DATA_ACCESS_NOT_PERMITTED\000"
 5778      455F4741 
 5778      54545F45 
 5778      52525F55 
 5778      5345525F 
 5779              	.LASF490:
 5780 1a30 4359424C 		.ascii	"CYBLE_SRVI_GATT\000"
 5780      455F5352 
 5780      56495F47 
 5780      41545400 
 5781              	.LASF225:
 5782 1a40 4359424C 		.ascii	"CYBLE_WPTSC_T\000"
 5782      455F5750 
 5782      5453435F 
 5782      5400
 5783              	.LASF27:
 5784 1a4e 4359424C 		.ascii	"CYBLE_EVT_GAP_AUTH_COMPLETE\000"
 5784      455F4556 
 5784      545F4741 
 5784      505F4155 
 5784      54485F43 
 5785              	.LASF417:
 5786 1a6a 4359424C 		.ascii	"CYBLE_EVT_PASSC_READ_DESCR_RESPONSE\000"
 5786      455F4556 
 5786      545F5041 
 5786      5353435F 
 5786      52454144 
 5787              	.LASF348:
 5788 1a8e 4359424C 		.ascii	"CYBLE_EVT_ESSC_READ_DESCR_RESPONSE\000"
 5788      455F4556 
 5788      545F4553 
 5788      53435F52 
 5788      4541445F 
 5789              	.LASF28:
 5790 1ab1 4359424C 		.ascii	"CYBLE_EVT_GAP_AUTH_FAILED\000"
 5790      455F4556 
 5790      545F4741 
 5790      505F4155 
 5790      54485F46 
 5791              	.LASF367:
 5792 1acb 4359424C 		.ascii	"CYBLE_EVT_HIDSS_EXIT_SUSPEND\000"
 5792      455F4556 
 5792      545F4849 
 5792      4453535F 
 5792      45584954 
 5793              	.LASF540:
 5794 1ae8 443A5C43 		.ascii	"D:\\Cypress\\system-start-finish\\fw\\finish\\sandb"
ARM GAS  C:\Users\Petro\AppData\Local\Temp\cca5nTbz.s 			page 140


 5794      79707265 
 5794      73735C73 
 5794      79737465 
 5794      6D2D7374 
 5795 1b16 6F785C55 		.ascii	"ox\\UART_Tx01\\BLE_Wireless_Power_Transmitter01.cyd"
 5795      4152545F 
 5795      54783031 
 5795      5C424C45 
 5795      5F576972 
 5796 1b47 736E00   		.ascii	"sn\000"
 5797              	.LASF119:
 5798 1b4a 4359424C 		.ascii	"CYBLE_GATT_READ_BY_GROUP_RSP\000"
 5798      455F4741 
 5798      54545F52 
 5798      4541445F 
 5798      42595F47 
 5799              	.LASF78:
 5800 1b67 4359424C 		.ascii	"CYBLE_ERROR_INSUFFICIENT_RESOURCES\000"
 5800      455F4552 
 5800      524F525F 
 5800      494E5355 
 5800      46464943 
 5801              	.LASF420:
 5802 1b8a 4359424C 		.ascii	"CYBLE_EVT_RSCSS_NOTIFICATION_DISABLED\000"
 5802      455F4556 
 5802      545F5253 
 5802      4353535F 
 5802      4E4F5449 
 5803              	.LASF156:
 5804 1bb0 4359424C 		.ascii	"CYBLE_GATT_ERR_OP_CODE_NOT_SUPPORTED\000"
 5804      455F4741 
 5804      54545F45 
 5804      52525F4F 
 5804      505F434F 
 5805              	.LASF371:
 5806 1bd5 4359424C 		.ascii	"CYBLE_EVT_HIDSC_WRITE_CHAR_RESPONSE\000"
 5806      455F4556 
 5806      545F4849 
 5806      4453435F 
 5806      57524954 
 5807              	.LASF5:
 5808 1bf9 6C6F6E67 		.ascii	"long unsigned int\000"
 5808      20756E73 
 5808      69676E65 
 5808      6420696E 
 5808      7400
 5809              	.LASF112:
 5810 1c0b 4359424C 		.ascii	"CYBLE_GATT_READ_REQ\000"
 5810      455F4741 
 5810      54545F52 
 5810      4541445F 
 5810      52455100 
 5811              	.LASF394:
 5812 1c1f 4359424C 		.ascii	"CYBLE_EVT_IASS_WRITE_CHAR_CMD\000"
 5812      455F4556 
 5812      545F4941 
 5812      53535F57 
ARM GAS  C:\Users\Petro\AppData\Local\Temp\cca5nTbz.s 			page 141


 5812      52495445 
 5813              	.LASF411:
 5814 1c3d 4359424C 		.ascii	"CYBLE_EVT_PASSS_NOTIFICATION_ENABLED\000"
 5814      455F4556 
 5814      545F5041 
 5814      5353535F 
 5814      4E4F5449 
 5815              	.LASF414:
 5816 1c62 4359424C 		.ascii	"CYBLE_EVT_PASSC_NOTIFICATION\000"
 5816      455F4556 
 5816      545F5041 
 5816      5353435F 
 5816      4E4F5449 
 5817              	.LASF461:
 5818 1c7f 4359424C 		.ascii	"CYBLE_EVT_WPTSS_INDICATION_ENABLED\000"
 5818      455F4556 
 5818      545F5750 
 5818      5453535F 
 5818      494E4449 
 5819              	.LASF127:
 5820 1ca2 4359424C 		.ascii	"CYBLE_GATT_HANDLE_VALUE_NTF\000"
 5820      455F4741 
 5820      54545F48 
 5820      414E444C 
 5820      455F5641 
 5821              	.LASF539:
 5822 1cbe 2E5C4765 		.ascii	".\\Generated_Source\\PSoC4\\BLE_wpts.c\000"
 5822      6E657261 
 5822      7465645F 
 5822      536F7572 
 5822      63655C50 
 5823              	.LASF257:
 5824 1ce2 4359424C 		.ascii	"CYBLE_EVT_ANSC_READ_CHAR_RESPONSE\000"
 5824      455F4556 
 5824      545F414E 
 5824      53435F52 
 5824      4541445F 
 5825              	.LASF88:
 5826 1d04 4359424C 		.ascii	"CYBLE_ERROR_L2CAP_PSM_ALREADY_REGISTERED\000"
 5826      455F4552 
 5826      524F525F 
 5826      4C324341 
 5826      505F5053 
 5827              	.LASF171:
 5828 1d2d 4359424C 		.ascii	"CYBLE_UUID128_T\000"
 5828      455F5555 
 5828      49443132 
 5828      385F5400 
 5829              	.LASF538:
 5830 1d3d 474E5520 		.ascii	"GNU C 4.9.3 20150303 (release) [ARM/embedded-4_9-br"
 5830      4320342E 
 5830      392E3320 
 5830      32303135 
 5830      30333033 
 5831 1d70 616E6368 		.ascii	"anch revision 221220] -mcpu=cortex-m0 -mthumb -g -O"
 5831      20726576 
 5831      6973696F 
ARM GAS  C:\Users\Petro\AppData\Local\Temp\cca5nTbz.s 			page 142


 5831      6E203232 
 5831      31323230 
 5832 1da3 67202D66 		.ascii	"g -ffunction-sections -ffat-lto-objects\000"
 5832      66756E63 
 5832      74696F6E 
 5832      2D736563 
 5832      74696F6E 
 5833              	.LASF162:
 5834 1dcb 4359424C 		.ascii	"CYBLE_GATT_ERR_ANCS_UNKNOWN_COMMAND\000"
 5834      455F4741 
 5834      54545F45 
 5834      52525F41 
 5834      4E43535F 
 5835              	.LASF261:
 5836 1def 4359424C 		.ascii	"CYBLE_EVT_BASS_NOTIFICATION_ENABLED\000"
 5836      455F4556 
 5836      545F4241 
 5836      53535F4E 
 5836      4F544946 
 5837              	.LASF335:
 5838 1e13 4359424C 		.ascii	"CYBLE_EVT_DISC_READ_CHAR_RESPONSE\000"
 5838      455F4556 
 5838      545F4449 
 5838      53435F52 
 5838      4541445F 
 5839              	.LASF334:
 5840 1e35 4359424C 		.ascii	"CYBLE_EVT_CTSC_WRITE_CHAR_RESPONSE\000"
 5840      455F4556 
 5840      545F4354 
 5840      53435F57 
 5840      52495445 
 5841              	.LASF413:
 5842 1e58 4359424C 		.ascii	"CYBLE_EVT_PASSS_WRITE_CHAR\000"
 5842      455F4556 
 5842      545F5041 
 5842      5353535F 
 5842      57524954 
 5843              	.LASF311:
 5844 1e73 4359424C 		.ascii	"CYBLE_EVT_CPSC_WRITE_CHAR_RESPONSE\000"
 5844      455F4556 
 5844      545F4350 
 5844      53435F57 
 5844      52495445 
 5845              	.LASF33:
 5846 1e96 4359424C 		.ascii	"CYBLE_EVT_GAP_CONNECTION_UPDATE_COMPLETE\000"
 5846      455F4556 
 5846      545F4741 
 5846      505F434F 
 5846      4E4E4543 
 5847              	.LASF296:
 5848 1ebf 4359424C 		.ascii	"CYBLE_EVT_CGMSC_READ_CHAR_RESPONSE\000"
 5848      455F4556 
 5848      545F4347 
 5848      4D53435F 
 5848      52454144 
 5849              	.LASF170:
 5850 1ee2 4359424C 		.ascii	"CYBLE_UUID16\000"
ARM GAS  C:\Users\Petro\AppData\Local\Temp\cca5nTbz.s 			page 143


 5850      455F5555 
 5850      49443136 
 5850      00
 5851              	.LASF324:
 5852 1eef 4359424C 		.ascii	"CYBLE_EVT_CSCSC_WRITE_CHAR_RESPONSE\000"
 5852      455F4556 
 5852      545F4353 
 5852      4353435F 
 5852      57524954 
 5853              	.LASF65:
 5854 1f13 4359424C 		.ascii	"CYBLE_EVT_L2CAP_CBFC_DISCONN_IND\000"
 5854      455F4556 
 5854      545F4C32 
 5854      4341505F 
 5854      43424643 
 5855              	.LASF320:
 5856 1f34 4359424C 		.ascii	"CYBLE_EVT_CSCSS_CHAR_WRITE\000"
 5856      455F4556 
 5856      545F4353 
 5856      4353535F 
 5856      43484152 
 5857              	.LASF487:
 5858 1f4f 4359424C 		.ascii	"CYBLE_CLIENT_STATE_DISCONNECTED\000"
 5858      455F434C 
 5858      49454E54 
 5858      5F535441 
 5858      54455F44 
 5859              	.LASF427:
 5860 1f6f 4359424C 		.ascii	"CYBLE_EVT_RSCSC_READ_CHAR_RESPONSE\000"
 5860      455F4556 
 5860      545F5253 
 5860      4353435F 
 5860      52454144 
 5861              	.LASF25:
 5862 1f92 4359424C 		.ascii	"CYBLE_EVT_GAP_PASSKEY_ENTRY_REQUEST\000"
 5862      455F4556 
 5862      545F4741 
 5862      505F5041 
 5862      53534B45 
 5863              	.LASF329:
 5864 1fb6 4359424C 		.ascii	"CYBLE_EVT_CTSS_CHAR_WRITE\000"
 5864      455F4556 
 5864      545F4354 
 5864      53535F43 
 5864      4841525F 
 5865              	.LASF305:
 5866 1fd0 4359424C 		.ascii	"CYBLE_EVT_CPSS_BROADCAST_ENABLED\000"
 5866      455F4556 
 5866      545F4350 
 5866      53535F42 
 5866      524F4144 
 5867              	.LASF388:
 5868 1ff1 4359424C 		.ascii	"CYBLE_EVT_HTSC_NOTIFICATION\000"
 5868      455F4556 
 5868      545F4854 
 5868      53435F4E 
 5868      4F544946 
ARM GAS  C:\Users\Petro\AppData\Local\Temp\cca5nTbz.s 			page 144


 5869              	.LASF6:
 5870 200d 6C6F6E67 		.ascii	"long long int\000"
 5870      206C6F6E 
 5870      6720696E 
 5870      7400
 5871              	.LASF491:
 5872 201b 4359424C 		.ascii	"CYBLE_SRVI_WPTS\000"
 5872      455F5352 
 5872      56495F57 
 5872      50545300 
 5873              	.LASF442:
 5874 202b 4359424C 		.ascii	"CYBLE_EVT_TPSC_READ_CHAR_RESPONSE\000"
 5874      455F4556 
 5874      545F5450 
 5874      53435F52 
 5874      4541445F 
 5875              	.LASF238:
 5876 204d 4359424C 		.ascii	"CYBLE_EVT_GATTC_CHAR_DUPLICATION\000"
 5876      455F4556 
 5876      545F4741 
 5876      5454435F 
 5876      43484152 
 5877              	.LASF353:
 5878 206e 4359424C 		.ascii	"CYBLE_EVT_GLSS_NOTIFICATION_ENABLED\000"
 5878      455F4556 
 5878      545F474C 
 5878      53535F4E 
 5878      4F544946 
 5879              	.LASF493:
 5880 2092 4379426C 		.ascii	"CyBle_WptsInit\000"
 5880      655F5770 
 5880      7473496E 
 5880      697400
 5881              	.LASF142:
 5882 20a1 4359424C 		.ascii	"CYBLE_GATT_ERR_PREPARE_WRITE_QUEUE_FULL\000"
 5882      455F4741 
 5882      54545F45 
 5882      52525F50 
 5882      52455041 
 5883              	.LASF89:
 5884 20c9 4359424C 		.ascii	"CYBLE_ERROR_L2CAP_PSM_NOT_REGISTERED\000"
 5884      455F4552 
 5884      524F525F 
 5884      4C324341 
 5884      505F5053 
 5885              	.LASF79:
 5886 20ee 4359424C 		.ascii	"CYBLE_ERROR_OOB_NOT_AVAILABLE\000"
 5886      455F4552 
 5886      524F525F 
 5886      4F4F425F 
 5886      4E4F545F 
 5887              	.LASF532:
 5888 210c 6D656D63 		.ascii	"memcpy\000"
 5888      707900
 5889              	.LASF288:
 5890 2113 4359424C 		.ascii	"CYBLE_EVT_CGMSS_INDICATION_ENABLED\000"
 5890      455F4556 
ARM GAS  C:\Users\Petro\AppData\Local\Temp\cca5nTbz.s 			page 145


 5890      545F4347 
 5890      4D53535F 
 5890      494E4449 
 5891              	.LASF13:
 5892 2136 646F7562 		.ascii	"double\000"
 5892      6C6500
 5893              	.LASF94:
 5894 213d 4359424C 		.ascii	"CYBLE_ERROR_DEVICE_ALREADY_EXISTS\000"
 5894      455F4552 
 5894      524F525F 
 5894      44455649 
 5894      43455F41 
 5895              	.LASF339:
 5896 215f 4359424C 		.ascii	"CYBLE_EVT_ESSS_INDICATION_DISABLED\000"
 5896      455F4556 
 5896      545F4553 
 5896      53535F49 
 5896      4E444943 
 5897              	.LASF71:
 5898 2182 4359424C 		.ascii	"CYBLE_EVT_PENDING_FLASH_WRITE\000"
 5898      455F4556 
 5898      545F5045 
 5898      4E44494E 
 5898      475F464C 
 5899              	.LASF145:
 5900 21a0 4359424C 		.ascii	"CYBLE_GATT_ERR_INSUFFICIENT_ENC_KEY_SIZE\000"
 5900      455F4741 
 5900      54545F45 
 5900      52525F49 
 5900      4E535546 
 5901              	.LASF459:
 5902 21c9 4359424C 		.ascii	"CYBLE_EVT_WPTSS_NOTIFICATION_ENABLED\000"
 5902      455F4556 
 5902      545F5750 
 5902      5453535F 
 5902      4E4F5449 
 5903              	.LASF188:
 5904 21ee 6F70436F 		.ascii	"opCode\000"
 5904      646500
 5905              	.LASF167:
 5906 21f5 4359424C 		.ascii	"CYBLE_GATT_ERR_PROCEDURE_ALREADY_IN_PROGRESS\000"
 5906      455F4741 
 5906      54545F45 
 5906      52525F50 
 5906      524F4345 
 5907              	.LASF409:
 5908 2222 4359424C 		.ascii	"CYBLE_EVT_LNSC_WRITE_DESCR_RESPONSE\000"
 5908      455F4556 
 5908      545F4C4E 
 5908      53435F57 
 5908      52495445 
 5909              	.LASF396:
 5910 2246 4359424C 		.ascii	"CYBLE_EVT_LLSC_READ_CHAR_RESPONSE\000"
 5910      455F4556 
 5910      545F4C4C 
 5910      53435F52 
 5910      4541445F 
ARM GAS  C:\Users\Petro\AppData\Local\Temp\cca5nTbz.s 			page 146


 5911              	.LASF319:
 5912 2268 4359424C 		.ascii	"CYBLE_EVT_CSCSS_INDICATION_CONFIRMATION\000"
 5912      455F4556 
 5912      545F4353 
 5912      4353535F 
 5912      494E4449 
 5913              	.LASF221:
 5914 2290 4359424C 		.ascii	"CYBLE_WPTS_DESCR_VALUE_T\000"
 5914      455F5750 
 5914      54535F44 
 5914      45534352 
 5914      5F56414C 
 5915              	.LASF91:
 5916 22a9 4359424C 		.ascii	"CYBLE_ERROR_L2CAP_CHANNEL_NOT_FOUND\000"
 5916      455F4552 
 5916      524F525F 
 5916      4C324341 
 5916      505F4348 
 5917              	.LASF82:
 5918 22cd 4359424C 		.ascii	"CYBLE_ERROR_REPEATED_ATTEMPTS\000"
 5918      455F4552 
 5918      524F525F 
 5918      52455045 
 5918      41544544 
 5919              	.LASF343:
 5920 22eb 4359424C 		.ascii	"CYBLE_EVT_ESSS_DESCR_WRITE\000"
 5920      455F4556 
 5920      545F4553 
 5920      53535F44 
 5920      45534352 
 5921              	.LASF211:
 5922 2306 4359424C 		.ascii	"CYBLE_WPTS_PRU_STATIC_PAR\000"
 5922      455F5750 
 5922      54535F50 
 5922      52555F53 
 5922      54415449 
 5923              	.LASF342:
 5924 2320 4359424C 		.ascii	"CYBLE_EVT_ESSS_EXEC_WRITE_REQ\000"
 5924      455F4556 
 5924      545F4553 
 5924      53535F45 
 5924      5845435F 
 5925              	.LASF12:
 5926 233e 666C6F61 		.ascii	"float\000"
 5926      7400
 5927              	.LASF436:
 5928 2344 4359424C 		.ascii	"CYBLE_EVT_SCPSC_NOTIFICATION\000"
 5928      455F4556 
 5928      545F5343 
 5928      5053435F 
 5928      4E4F5449 
 5929              	.LASF365:
 5930 2361 4359424C 		.ascii	"CYBLE_EVT_HIDSS_REPORT_MODE_ENTER\000"
 5930      455F4556 
 5930      545F4849 
 5930      4453535F 
 5930      5245504F 
ARM GAS  C:\Users\Petro\AppData\Local\Temp\cca5nTbz.s 			page 147


 5931              	.LASF344:
 5932 2383 4359424C 		.ascii	"CYBLE_EVT_ESSC_NOTIFICATION\000"
 5932      455F4556 
 5932      545F4553 
 5932      53435F4E 
 5932      4F544946 
 5933              	.LASF95:
 5934 239f 4359424C 		.ascii	"CYBLE_ERROR_FLASH_WRITE_NOT_PERMITED\000"
 5934      455F4552 
 5934      524F525F 
 5934      464C4153 
 5934      485F5752 
 5935              	.LASF363:
 5936 23c4 4359424C 		.ascii	"CYBLE_EVT_HIDSS_NOTIFICATION_DISABLED\000"
 5936      455F4556 
 5936      545F4849 
 5936      4453535F 
 5936      4E4F5449 
 5937              	.LASF59:
 5938 23ea 4359424C 		.ascii	"CYBLE_EVT_GATTS_READ_CHAR_VAL_ACCESS_REQ\000"
 5938      455F4556 
 5938      545F4741 
 5938      5454535F 
 5938      52454144 
 5939              	.LASF250:
 5940 2413 4359424C 		.ascii	"CYBLE_EVT_ANCSC_READ_DESCR_RESPONSE\000"
 5940      455F4556 
 5940      545F414E 
 5940      4353435F 
 5940      52454144 
 5941              	.LASF141:
 5942 2437 4359424C 		.ascii	"CYBLE_GATT_ERR_INSUFFICIENT_AUTHORIZATION\000"
 5942      455F4741 
 5942      54545F45 
 5942      52525F49 
 5942      4E535546 
 5943              	.LASF220:
 5944 2461 64657363 		.ascii	"descrIndex\000"
 5944      72496E64 
 5944      657800
 5945              	.LASF182:
 5946 246c 61747472 		.ascii	"attrHandle\000"
 5946      48616E64 
 5946      6C6500
 5947              	.LASF453:
 5948 2477 4359424C 		.ascii	"CYBLE_EVT_UDSC_NOTIFICATION\000"
 5948      455F4556 
 5948      545F5544 
 5948      53435F4E 
 5948      4F544946 
 5949              	.LASF467:
 5950 2493 4359424C 		.ascii	"CYBLE_EVT_WPTSC_WRITE_CHAR_RESPONSE\000"
 5950      455F4556 
 5950      545F5750 
 5950      5453435F 
 5950      57524954 
 5951              	.LASF199:
ARM GAS  C:\Users\Petro\AppData\Local\Temp\cca5nTbz.s 			page 148


 5952 24b7 75756964 		.ascii	"uuid\000"
 5952      00
 5953              	.LASF8:
 5954 24bc 756E7369 		.ascii	"unsigned int\000"
 5954      676E6564 
 5954      20696E74 
 5954      00
 5955              	.LASF51:
 5956 24c9 4359424C 		.ascii	"CYBLE_EVT_GATTS_PREP_WRITE_REQ\000"
 5956      455F4556 
 5956      545F4741 
 5956      5454535F 
 5956      50524550 
 5957              	.LASF138:
 5958 24e8 4359424C 		.ascii	"CYBLE_GATT_ERR_INSUFFICIENT_AUTHENTICATION\000"
 5958      455F4741 
 5958      54545F45 
 5958      52525F49 
 5958      4E535546 
 5959              	.LASF328:
 5960 2513 4359424C 		.ascii	"CYBLE_EVT_CTSS_NOTIFICATION_DISABLED\000"
 5960      455F4556 
 5960      545F4354 
 5960      53535F4E 
 5960      4F544946 
 5961              	.LASF275:
 5962 2538 4359424C 		.ascii	"CYBLE_EVT_BLSS_INDICATION_DISABLED\000"
 5962      455F4556 
 5962      545F424C 
 5962      53535F49 
 5962      4E444943 
 5963              	.LASF434:
 5964 255b 4359424C 		.ascii	"CYBLE_EVT_SCPSS_NOTIFICATION_DISABLED\000"
 5964      455F4556 
 5964      545F5343 
 5964      5053535F 
 5964      4E4F5449 
 5965              	.LASF340:
 5966 2581 4359424C 		.ascii	"CYBLE_EVT_ESSS_INDICATION_CONFIRMATION\000"
 5966      455F4556 
 5966      545F4553 
 5966      53535F49 
 5966      4E444943 
 5967              	.LASF200:
 5968 25a8 4359424C 		.ascii	"CYBLE_DISC_SRVC_INFO_T\000"
 5968      455F4449 
 5968      53435F53 
 5968      5256435F 
 5968      494E464F 
 5969              	.LASF155:
 5970 25bf 4359424C 		.ascii	"CYBLE_GATTS_ERR_PROCEDURE_ALREADY_IN_PROGRESS\000"
 5970      455F4741 
 5970      5454535F 
 5970      4552525F 
 5970      50524F43 
 5971              	.LASF515:
 5972 25ed 61747472 		.ascii	"attrSize\000"
ARM GAS  C:\Users\Petro\AppData\Local\Temp\cca5nTbz.s 			page 149


 5972      53697A65 
 5972      00
 5973              	.LASF497:
 5974 25f6 73657276 		.ascii	"servHandle\000"
 5974      48616E64 
 5974      6C6500
 5975              	.LASF226:
 5976 2601 4359424C 		.ascii	"CYBLE_AUTHENTICATION_REQUEST_REPLY\000"
 5976      455F4155 
 5976      5448454E 
 5976      54494341 
 5976      54494F4E 
 5977              	.LASF474:
 5978 2624 4359424C 		.ascii	"CYBLE_EVT_WSSC_INDICATION\000"
 5978      455F4556 
 5978      545F5753 
 5978      53435F49 
 5978      4E444943 
 5979              	.LASF87:
 5980 263e 4359424C 		.ascii	"CYBLE_ERROR_L2CAP_PSM_WRONG_ENCODING\000"
 5980      455F4552 
 5980      524F525F 
 5980      4C324341 
 5980      505F5053 
 5981              	.LASF124:
 5982 2663 4359424C 		.ascii	"CYBLE_GATT_PREPARE_WRITE_RSP\000"
 5982      455F4741 
 5982      54545F50 
 5982      52455041 
 5982      52455F57 
 5983              	.LASF278:
 5984 2680 4359424C 		.ascii	"CYBLE_EVT_BLSS_NOTIFICATION_DISABLED\000"
 5984      455F4556 
 5984      545F424C 
 5984      53535F4E 
 5984      4F544946 
 5985              	.LASF143:
 5986 26a5 4359424C 		.ascii	"CYBLE_GATT_ERR_ATTRIBUTE_NOT_FOUND\000"
 5986      455F4741 
 5986      54545F45 
 5986      52525F41 
 5986      54545249 
 5987              	.LASF391:
 5988 26c8 4359424C 		.ascii	"CYBLE_EVT_HTSC_WRITE_CHAR_RESPONSE\000"
 5988      455F4556 
 5988      545F4854 
 5988      53435F57 
 5988      52495445 
 5989              	.LASF530:
 5990 26eb 6379426C 		.ascii	"cyBle_serverInfo\000"
 5990      655F7365 
 5990      72766572 
 5990      496E666F 
 5990      00
 5991              	.LASF73:
 5992 26fc 4359424C 		.ascii	"CYBLE_EVT_MAX\000"
 5992      455F4556 
ARM GAS  C:\Users\Petro\AppData\Local\Temp\cca5nTbz.s 			page 150


 5992      545F4D41 
 5992      5800
 5993              	.LASF34:
 5994 270a 4359424C 		.ascii	"CYBLE_EVT_GAPC_SCAN_START_STOP\000"
 5994      455F4556 
 5994      545F4741 
 5994      50435F53 
 5994      43414E5F 
 5995              	.LASF253:
 5996 2729 4359424C 		.ascii	"CYBLE_EVT_ANSS_NOTIFICATION_ENABLED\000"
 5996      455F4556 
 5996      545F414E 
 5996      53535F4E 
 5996      4F544946 
 5997              	.LASF485:
 5998 274d 4359424C 		.ascii	"CYBLE_CLIENT_STATE_DISCONNECTING\000"
 5998      455F434C 
 5998      49454E54 
 5998      5F535441 
 5998      54455F44 
 5999              	.LASF48:
 6000 276e 4359424C 		.ascii	"CYBLE_EVT_GATTS_WRITE_REQ\000"
 6000      455F4556 
 6000      545F4741 
 6000      5454535F 
 6000      57524954 
 6001              	.LASF455:
 6002 2788 4359424C 		.ascii	"CYBLE_EVT_UDSC_WRITE_CHAR_RESPONSE\000"
 6002      455F4556 
 6002      545F5544 
 6002      53435F57 
 6002      52495445 
 6003              	.LASF466:
 6004 27ab 4359424C 		.ascii	"CYBLE_EVT_WPTSC_INDICATION\000"
 6004      455F4556 
 6004      545F5750 
 6004      5453435F 
 6004      494E4449 
 6005              	.LASF26:
 6006 27c6 4359424C 		.ascii	"CYBLE_EVT_GAP_PASSKEY_DISPLAY_REQUEST\000"
 6006      455F4556 
 6006      545F4741 
 6006      505F5041 
 6006      53534B45 
 6007              	.LASF99:
 6008 27ec 4359424C 		.ascii	"CYBLE_ERROR_IND_DISABLED\000"
 6008      455F4552 
 6008      524F525F 
 6008      494E445F 
 6008      44495341 
 6009              	.LASF98:
 6010 2805 4359424C 		.ascii	"CYBLE_ERROR_NTF_DISABLED\000"
 6010      455F4552 
 6010      524F525F 
 6010      4E54465F 
 6010      44495341 
 6011              	.LASF116:
ARM GAS  C:\Users\Petro\AppData\Local\Temp\cca5nTbz.s 			page 151


 6012 281e 4359424C 		.ascii	"CYBLE_GATT_READ_MULTIPLE_REQ\000"
 6012      455F4741 
 6012      54545F52 
 6012      4541445F 
 6012      4D554C54 
 6013              	.LASF208:
 6014 283b 4359424C 		.ascii	"CYBLE_WPTS_PRU_CONTROL\000"
 6014      455F5750 
 6014      54535F50 
 6014      52555F43 
 6014      4F4E5452 
 6015              	.LASF45:
 6016 2852 4359424C 		.ascii	"CYBLE_EVT_GATTC_READ_RSP\000"
 6016      455F4556 
 6016      545F4741 
 6016      5454435F 
 6016      52454144 
 6017              	.LASF309:
 6018 286b 4359424C 		.ascii	"CYBLE_EVT_CPSC_INDICATION\000"
 6018      455F4556 
 6018      545F4350 
 6018      53435F49 
 6018      4E444943 
 6019              	.LASF140:
 6020 2885 4359424C 		.ascii	"CYBLE_GATT_ERR_INVALID_OFFSET\000"
 6020      455F4741 
 6020      54545F45 
 6020      52525F49 
 6020      4E56414C 
 6021              	.LASF110:
 6022 28a3 4359424C 		.ascii	"CYBLE_GATT_READ_BY_TYPE_REQ\000"
 6022      455F4741 
 6022      54545F52 
 6022      4541445F 
 6022      42595F54 
 6023              	.LASF64:
 6024 28bf 4359424C 		.ascii	"CYBLE_EVT_L2CAP_CBFC_CONN_CNF\000"
 6024      455F4556 
 6024      545F4C32 
 6024      4341505F 
 6024      43424643 
 6025              	.LASF286:
 6026 28dd 4359424C 		.ascii	"CYBLE_EVT_BMSC_WRITE_CHAR_RESPONSE\000"
 6026      455F4556 
 6026      545F424D 
 6026      53435F57 
 6026      52495445 
 6027              	.LASF392:
 6028 2900 4359424C 		.ascii	"CYBLE_EVT_HTSC_READ_DESCR_RESPONSE\000"
 6028      455F4556 
 6028      545F4854 
 6028      53435F52 
 6028      4541445F 
 6029              	.LASF478:
 6030 2923 4359424C 		.ascii	"CYBLE_DEBUG_EVT_BLESS_INT\000"
 6030      455F4445 
 6030      4255475F 
ARM GAS  C:\Users\Petro\AppData\Local\Temp\cca5nTbz.s 			page 152


 6030      4556545F 
 6030      424C4553 
 6031              	.LASF168:
 6032 293d 4359424C 		.ascii	"CYBLE_GATT_ERR_OUT_OF_RANGE\000"
 6032      455F4741 
 6032      54545F45 
 6032      52525F4F 
 6032      55545F4F 
 6033              	.LASF355:
 6034 2959 4359424C 		.ascii	"CYBLE_EVT_GLSS_WRITE_CHAR\000"
 6034      455F4556 
 6034      545F474C 
 6034      53535F57 
 6034      52495445 
 6035              	.LASF205:
 6036 2973 4359424C 		.ascii	"CYBLE_DISC_CHAR_INFO_T\000"
 6036      455F4449 
 6036      53435F43 
 6036      4841525F 
 6036      494E464F 
 6037              	.LASF108:
 6038 298a 4359424C 		.ascii	"CYBLE_GATT_FIND_BY_TYPE_VALUE_REQ\000"
 6038      455F4741 
 6038      54545F46 
 6038      494E445F 
 6038      42595F54 
 6039              	.LASF488:
 6040 29ac 4359424C 		.ascii	"CYBLE_CLIENT_STATE_T\000"
 6040      455F434C 
 6040      49454E54 
 6040      5F535441 
 6040      54455F54 
 6041              	.LASF377:
 6042 29c1 4359424C 		.ascii	"CYBLE_EVT_HRSC_NOTIFICATION\000"
 6042      455F4556 
 6042      545F4852 
 6042      53435F4E 
 6042      4F544946 
 6043              	.LASF510:
 6044 29dd 6C6F6352 		.ascii	"locReqHandle\000"
 6044      65714861 
 6044      6E646C65 
 6044      00
 6045              	.LASF423:
 6046 29ea 4359424C 		.ascii	"CYBLE_EVT_RSCSS_INDICATION_CONFIRMATION\000"
 6046      455F4556 
 6046      545F5253 
 6046      4353535F 
 6046      494E4449 
 6047              	.LASF372:
 6048 2a12 4359424C 		.ascii	"CYBLE_EVT_HIDSC_READ_DESCR_RESPONSE\000"
 6048      455F4556 
 6048      545F4849 
 6048      4453435F 
 6048      52454144 
 6049              	.LASF378:
 6050 2a36 4359424C 		.ascii	"CYBLE_EVT_HRSC_READ_CHAR_RESPONSE\000"
ARM GAS  C:\Users\Petro\AppData\Local\Temp\cca5nTbz.s 			page 153


 6050      455F4556 
 6050      545F4852 
 6050      53435F52 
 6050      4541445F 
 6051              	.LASF263:
 6052 2a58 4359424C 		.ascii	"CYBLE_EVT_BASC_NOTIFICATION\000"
 6052      455F4556 
 6052      545F4241 
 6052      53435F4E 
 6052      4F544946 
 6053              	.LASF32:
 6054 2a74 4359424C 		.ascii	"CYBLE_EVT_GAP_ENCRYPT_CHANGE\000"
 6054      455F4556 
 6054      545F4741 
 6054      505F454E 
 6054      43525950 
 6055              	.LASF173:
 6056 2a91 75756964 		.ascii	"uuid128\000"
 6056      31323800 
 6057              	.LASF410:
 6058 2a99 4359424C 		.ascii	"CYBLE_EVT_NDCSC_READ_CHAR_RESPONSE\000"
 6058      455F4556 
 6058      545F4E44 
 6058      4353435F 
 6058      52454144 
 6059              	.LASF239:
 6060 2abc 4359424C 		.ascii	"CYBLE_EVT_GATTC_DESCR_DUPLICATION\000"
 6060      455F4556 
 6060      545F4741 
 6060      5454435F 
 6060      44455343 
 6061              	.LASF39:
 6062 2ade 4359424C 		.ascii	"CYBLE_EVT_GATTS_XCNHG_MTU_REQ\000"
 6062      455F4556 
 6062      545F4741 
 6062      5454535F 
 6062      58434E48 
 6063              	.LASF505:
 6064 2afc 6C6F6343 		.ascii	"locCharIndex\000"
 6064      68617249 
 6064      6E646578 
 6064      00
 6065              	.LASF448:
 6066 2b09 4359424C 		.ascii	"CYBLE_EVT_UDSS_NOTIFICATION_ENABLED\000"
 6066      455F4556 
 6066      545F5544 
 6066      53535F4E 
 6066      4F544946 
 6067              	.LASF107:
 6068 2b2d 4359424C 		.ascii	"CYBLE_GATT_FIND_INFO_RSP\000"
 6068      455F4741 
 6068      54545F46 
 6068      494E445F 
 6068      494E464F 
 6069              	.LASF400:
 6070 2b46 4359424C 		.ascii	"CYBLE_EVT_LNSS_INDICATION_CONFIRMED\000"
 6070      455F4556 
ARM GAS  C:\Users\Petro\AppData\Local\Temp\cca5nTbz.s 			page 154


 6070      545F4C4E 
 6070      53535F49 
 6070      4E444943 
 6071              	.LASF472:
 6072 2b6a 4359424C 		.ascii	"CYBLE_EVT_WSSS_INDICATION_DISABLED\000"
 6072      455F4556 
 6072      545F5753 
 6072      53535F49 
 6072      4E444943 
 6073              	.LASF260:
 6074 2b8d 4359424C 		.ascii	"CYBLE_EVT_ANSC_WRITE_DESCR_RESPONSE\000"
 6074      455F4556 
 6074      545F414E 
 6074      53435F57 
 6074      52495445 
 6075              	.LASF406:
 6076 2bb1 4359424C 		.ascii	"CYBLE_EVT_LNSC_READ_CHAR_RESPONSE\000"
 6076      455F4556 
 6076      545F4C4E 
 6076      53435F52 
 6076      4541445F 
 6077              	.LASF256:
 6078 2bd3 4359424C 		.ascii	"CYBLE_EVT_ANSC_NOTIFICATION\000"
 6078      455F4556 
 6078      545F414E 
 6078      53435F4E 
 6078      4F544946 
 6079              	.LASF352:
 6080 2bef 4359424C 		.ascii	"CYBLE_EVT_GLSS_INDICATION_CONFIRMED\000"
 6080      455F4556 
 6080      545F474C 
 6080      53535F49 
 6080      4E444943 
 6081              	.LASF230:
 6082 2c13 4359424C 		.ascii	"CYBLE_EVT_GATTS_INDICATION_ENABLED\000"
 6082      455F4556 
 6082      545F4741 
 6082      5454535F 
 6082      494E4449 
 6083              	.LASF7:
 6084 2c36 6C6F6E67 		.ascii	"long long unsigned int\000"
 6084      206C6F6E 
 6084      6720756E 
 6084      7369676E 
 6084      65642069 
 6085              	.LASF134:
 6086 2c4d 4359424C 		.ascii	"CYBLE_GATT_ERR_INVALID_HANDLE\000"
 6086      455F4741 
 6086      54545F45 
 6086      52525F49 
 6086      4E56414C 
 6087              	.LASF19:
 6088 2c6b 4359424C 		.ascii	"CYBLE_EVT_TIMEOUT\000"
 6088      455F4556 
 6088      545F5449 
 6088      4D454F55 
 6088      5400
ARM GAS  C:\Users\Petro\AppData\Local\Temp\cca5nTbz.s 			page 155


 6089              	.LASF332:
 6090 2c7d 4359424C 		.ascii	"CYBLE_EVT_CTSC_READ_DESCR_RESPONSE\000"
 6090      455F4556 
 6090      545F4354 
 6090      53435F52 
 6090      4541445F 
 6091              	.LASF504:
 6092 2ca0 77707473 		.ascii	"wptscLastEndHandle\000"
 6092      634C6173 
 6092      74456E64 
 6092      48616E64 
 6092      6C6500
 6093              	.LASF209:
 6094 2cb3 4359424C 		.ascii	"CYBLE_WPTS_PTU_STATIC_PAR\000"
 6094      455F5750 
 6094      54535F50 
 6094      54555F53 
 6094      54415449 
 6095              	.LASF201:
 6096 2ccd 63686172 		.ascii	"charDeclHandle\000"
 6096      4465636C 
 6096      48616E64 
 6096      6C6500
 6097              	.LASF131:
 6098 2cdc 4359424C 		.ascii	"CYBLE_GATT_UNKNOWN_PDU_IND\000"
 6098      455F4741 
 6098      54545F55 
 6098      4E4B4E4F 
 6098      574E5F50 
 6099              	.LASF101:
 6100 2cf7 4359424C 		.ascii	"CYBLE_ERROR_INVALID_STATE\000"
 6100      455F4552 
 6100      524F525F 
 6100      494E5641 
 6100      4C49445F 
 6101              	.LASF175:
 6102 2d11 4359424C 		.ascii	"CYBLE_GATT_DB_ATTR_HANDLE_T\000"
 6102      455F4741 
 6102      54545F44 
 6102      425F4154 
 6102      54525F48 
 6103              	.LASF67:
 6104 2d2d 4359424C 		.ascii	"CYBLE_EVT_L2CAP_CBFC_DATA_READ\000"
 6104      455F4556 
 6104      545F4C32 
 6104      4341505F 
 6104      43424643 
 6105              	.LASF133:
 6106 2d4c 4359424C 		.ascii	"CYBLE_GATT_ERR_NONE\000"
 6106      455F4741 
 6106      54545F45 
 6106      52525F4E 
 6106      4F4E4500 
 6107              	.LASF176:
 6108 2d60 76616C75 		.ascii	"value\000"
 6108      6500
 6109              	.LASF308:
ARM GAS  C:\Users\Petro\AppData\Local\Temp\cca5nTbz.s 			page 156


 6110 2d66 4359424C 		.ascii	"CYBLE_EVT_CPSC_NOTIFICATION\000"
 6110      455F4556 
 6110      545F4350 
 6110      53435F4E 
 6110      4F544946 
 6111              	.LASF283:
 6112 2d82 4359424C 		.ascii	"CYBLE_EVT_BLSC_WRITE_DESCR_RESPONSE\000"
 6112      455F4556 
 6112      545F424C 
 6112      53435F57 
 6112      52495445 
 6113              	.LASF196:
 6114 2da6 4359424C 		.ascii	"CYBLE_GATTC_HANDLE_VALUE_IND_PARAM_T\000"
 6114      455F4741 
 6114      5454435F 
 6114      48414E44 
 6114      4C455F56 
 6115              	.LASF405:
 6116 2dcb 4359424C 		.ascii	"CYBLE_EVT_LNSC_NOTIFICATION\000"
 6116      455F4556 
 6116      545F4C4E 
 6116      53435F4E 
 6116      4F544946 
 6117              	.LASF172:
 6118 2de7 75756964 		.ascii	"uuid16\000"
 6118      313600
 6119              	.LASF498:
 6120 2dee 4379426C 		.ascii	"CyBle_WptscDiscoverCharacteristicsEventHandler\000"
 6120      655F5770 
 6120      74736344 
 6120      6973636F 
 6120      76657243 
 6121              	.LASF514:
 6122 2e1d 4379426C 		.ascii	"CyBle_WptscErrorResponseEventHandler\000"
 6122      655F5770 
 6122      74736345 
 6122      72726F72 
 6122      52657370 
 6123              	.LASF330:
 6124 2e42 4359424C 		.ascii	"CYBLE_EVT_CTSC_NOTIFICATION\000"
 6124      455F4556 
 6124      545F4354 
 6124      53435F4E 
 6124      4F544946 
 6125              	.LASF190:
 6126 2e5e 4359424C 		.ascii	"CYBLE_GATTC_ERR_RSP_PARAM_T\000"
 6126      455F4741 
 6126      5454435F 
 6126      4552525F 
 6126      5253505F 
 6127              	.LASF169:
 6128 2e7a 4359424C 		.ascii	"CYBLE_GATT_ERR_CODE_T\000"
 6128      455F4741 
 6128      54545F45 
 6128      52525F43 
 6128      4F44455F 
 6129              	.LASF351:
ARM GAS  C:\Users\Petro\AppData\Local\Temp\cca5nTbz.s 			page 157


 6130 2e90 4359424C 		.ascii	"CYBLE_EVT_GLSS_INDICATION_DISABLED\000"
 6130      455F4556 
 6130      545F474C 
 6130      53535F49 
 6130      4E444943 
 6131              	.LASF154:
 6132 2eb3 4359424C 		.ascii	"CYBLE_GATT_ERR_HTS_OUT_OF_RANGE\000"
 6132      455F4741 
 6132      54545F45 
 6132      52525F48 
 6132      54535F4F 
 6133              	.LASF237:
 6134 2ed3 4359424C 		.ascii	"CYBLE_EVT_GATTC_SRVC_DUPLICATION\000"
 6134      455F4556 
 6134      545F4741 
 6134      5454435F 
 6134      53525643 
 6135              	.LASF479:
 6136 2ef4 4359424C 		.ascii	"CYBLE_CLIENT_STATE_CONNECTED\000"
 6136      455F434C 
 6136      49454E54 
 6136      5F535441 
 6136      54455F43 
 6137              	.LASF398:
 6138 2f11 4359424C 		.ascii	"CYBLE_EVT_LNSS_INDICATION_ENABLED\000"
 6138      455F4556 
 6138      545F4C4E 
 6138      53535F49 
 6138      4E444943 
 6139              	.LASF508:
 6140 2f33 696E6469 		.ascii	"indicationValue\000"
 6140      63617469 
 6140      6F6E5661 
 6140      6C756500 
 6141              	.LASF114:
 6142 2f43 4359424C 		.ascii	"CYBLE_GATT_READ_BLOB_REQ\000"
 6142      455F4741 
 6142      54545F52 
 6142      4541445F 
 6142      424C4F42 
 6143              	.LASF531:
 6144 2f5c 6D656D73 		.ascii	"memset\000"
 6144      657400
 6145              	.LASF245:
 6146 2f63 4359424C 		.ascii	"CYBLE_EVT_ANCSS_NOTIFICATION_DISABLED\000"
 6146      455F4556 
 6146      545F414E 
 6146      4353535F 
 6146      4E4F5449 
 6147              	.LASF520:
 6148 2f89 4379426C 		.ascii	"CyBle_WptscGetCharacteristicValue\000"
 6148      655F5770 
 6148      74736347 
 6148      65744368 
 6148      61726163 
 6149              	.LASF187:
 6150 2fab 636F6E6E 		.ascii	"connHandle\000"
ARM GAS  C:\Users\Petro\AppData\Local\Temp\cca5nTbz.s 			page 158


 6150      48616E64 
 6150      6C6500
 6151              	.LASF202:
 6152 2fb6 70726F70 		.ascii	"properties\000"
 6152      65727469 
 6152      657300
 6153              	.LASF262:
 6154 2fc1 4359424C 		.ascii	"CYBLE_EVT_BASS_NOTIFICATION_DISABLED\000"
 6154      455F4556 
 6154      545F4241 
 6154      53535F4E 
 6154      4F544946 
 6155              	.LASF300:
 6156 2fe6 4359424C 		.ascii	"CYBLE_EVT_CPSS_NOTIFICATION_ENABLED\000"
 6156      455F4556 
 6156      545F4350 
 6156      53535F4E 
 6156      4F544946 
 6157              	.LASF443:
 6158 300a 4359424C 		.ascii	"CYBLE_EVT_TPSC_READ_DESCR_RESPONSE\000"
 6158      455F4556 
 6158      545F5450 
 6158      53435F52 
 6158      4541445F 
 6159              	.LASF484:
 6160 302d 4359424C 		.ascii	"CYBLE_CLIENT_STATE_DISCOVERED\000"
 6160      455F434C 
 6160      49454E54 
 6160      5F535441 
 6160      54455F44 
 6161              	.LASF489:
 6162 304b 4359424C 		.ascii	"CYBLE_SRVI_GAP\000"
 6162      455F5352 
 6162      56495F47 
 6162      415000
 6163              	.LASF458:
 6164 305a 4359424C 		.ascii	"CYBLE_EVT_UDSC_ERROR_RESPONSE\000"
 6164      455F4556 
 6164      545F5544 
 6164      53435F45 
 6164      52524F52 
 6165              	.LASF43:
 6166 3078 4359424C 		.ascii	"CYBLE_EVT_GATTC_FIND_INFO_RSP\000"
 6166      455F4556 
 6166      545F4741 
 6166      5454435F 
 6166      46494E44 
 6167              	.LASF42:
 6168 3096 4359424C 		.ascii	"CYBLE_EVT_GATTC_READ_BY_TYPE_RSP\000"
 6168      455F4556 
 6168      545F4741 
 6168      5454435F 
 6168      52454144 
 6169              	.LASF412:
 6170 30b7 4359424C 		.ascii	"CYBLE_EVT_PASSS_NOTIFICATION_DISABLED\000"
 6170      455F4556 
 6170      545F5041 
ARM GAS  C:\Users\Petro\AppData\Local\Temp\cca5nTbz.s 			page 159


 6170      5353535F 
 6170      4E4F5449 
 6171              	.LASF298:
 6172 30dd 4359424C 		.ascii	"CYBLE_EVT_CGMSC_READ_DESCR_RESPONSE\000"
 6172      455F4556 
 6172      545F4347 
 6172      4D53435F 
 6172      52454144 
 6173              	.LASF370:
 6174 3101 4359424C 		.ascii	"CYBLE_EVT_HIDSC_READ_CHAR_RESPONSE\000"
 6174      455F4556 
 6174      545F4849 
 6174      4453435F 
 6174      52454144 
 6175              	.LASF159:
 6176 3124 4359424C 		.ascii	"CYBLE_GATTS_ERR_OPERATION_FAILED\000"
 6176      455F4741 
 6176      5454535F 
 6176      4552525F 
 6176      4F504552 
 6177              	.LASF517:
 6178 3145 61706952 		.ascii	"apiResult\000"
 6178      6573756C 
 6178      7400
 6179              	.LASF483:
 6180 314f 4359424C 		.ascii	"CYBLE_CLIENT_STATE_DESCR_DISCOVERING\000"
 6180      455F434C 
 6180      49454E54 
 6180      5F535441 
 6180      54455F44 
 6181              	.LASF440:
 6182 3174 4359424C 		.ascii	"CYBLE_EVT_TPSS_NOTIFICATION_DISABLED\000"
 6182      455F4556 
 6182      545F5450 
 6182      53535F4E 
 6182      4F544946 
 6183              	.LASF437:
 6184 3199 4359424C 		.ascii	"CYBLE_EVT_SCPSC_READ_DESCR_RESPONSE\000"
 6184      455F4556 
 6184      545F5343 
 6184      5053435F 
 6184      52454144 
 6185              	.LASF381:
 6186 31bd 4359424C 		.ascii	"CYBLE_EVT_HRSC_WRITE_DESCR_RESPONSE\000"
 6186      455F4556 
 6186      545F4852 
 6186      53435F57 
 6186      52495445 
 6187              	.LASF403:
 6188 31e1 4359424C 		.ascii	"CYBLE_EVT_LNSS_WRITE_CHAR\000"
 6188      455F4556 
 6188      545F4C4E 
 6188      53535F57 
 6188      52495445 
 6189              	.LASF341:
 6190 31fb 4359424C 		.ascii	"CYBLE_EVT_ESSS_CHAR_WRITE\000"
 6190      455F4556 
ARM GAS  C:\Users\Petro\AppData\Local\Temp\cca5nTbz.s 			page 160


 6190      545F4553 
 6190      53535F43 
 6190      4841525F 
 6191              	.LASF49:
 6192 3215 4359424C 		.ascii	"CYBLE_EVT_GATTC_WRITE_RSP\000"
 6192      455F4556 
 6192      545F4741 
 6192      5454435F 
 6192      57524954 
 6193              	.LASF336:
 6194 322f 4359424C 		.ascii	"CYBLE_EVT_ESSS_NOTIFICATION_ENABLED\000"
 6194      455F4556 
 6194      545F4553 
 6194      53535F4E 
 6194      4F544946 
 6195              	.LASF358:
 6196 3253 4359424C 		.ascii	"CYBLE_EVT_GLSC_READ_CHAR_RESPONSE\000"
 6196      455F4556 
 6196      545F474C 
 6196      53435F52 
 6196      4541445F 
 6197              	.LASF481:
 6198 3275 4359424C 		.ascii	"CYBLE_CLIENT_STATE_INCL_DISCOVERING\000"
 6198      455F434C 
 6198      49454E54 
 6198      5F535441 
 6198      54455F49 
 6199              	.LASF425:
 6200 3299 4359424C 		.ascii	"CYBLE_EVT_RSCSC_NOTIFICATION\000"
 6200      455F4556 
 6200      545F5253 
 6200      4353435F 
 6200      4E4F5449 
 6201              	.LASF536:
 6202 32b6 4379426C 		.ascii	"CyBle_GattcWriteCharacteristicDescriptors\000"
 6202      655F4761 
 6202      74746357 
 6202      72697465 
 6202      43686172 
 6203              	.LASF29:
 6204 32e0 4359424C 		.ascii	"CYBLE_EVT_GAPP_ADVERTISEMENT_START_STOP\000"
 6204      455F4556 
 6204      545F4741 
 6204      50505F41 
 6204      44564552 
 6205              	.LASF276:
 6206 3308 4359424C 		.ascii	"CYBLE_EVT_BLSS_INDICATION_CONFIRMED\000"
 6206      455F4556 
 6206      545F424C 
 6206      53535F49 
 6206      4E444943 
 6207              	.LASF469:
 6208 332c 4359424C 		.ascii	"CYBLE_EVT_WPTSC_READ_DESCR_RESPONSE\000"
 6208      455F4556 
 6208      545F5750 
 6208      5453435F 
 6208      52454144 
ARM GAS  C:\Users\Petro\AppData\Local\Temp\cca5nTbz.s 			page 161


 6209              	.LASF247:
 6210 3350 4359424C 		.ascii	"CYBLE_EVT_ANCSC_NOTIFICATION\000"
 6210      455F4556 
 6210      545F414E 
 6210      4353435F 
 6210      4E4F5449 
 6211              	.LASF297:
 6212 336d 4359424C 		.ascii	"CYBLE_EVT_CGMSC_WRITE_CHAR_RESPONSE\000"
 6212      455F4556 
 6212      545F4347 
 6212      4D53435F 
 6212      57524954 
 6213              	.LASF9:
 6214 3391 75696E74 		.ascii	"uint8\000"
 6214      3800
 6215              	.LASF390:
 6216 3397 4359424C 		.ascii	"CYBLE_EVT_HTSC_READ_CHAR_RESPONSE\000"
 6216      455F4556 
 6216      545F4854 
 6216      53435F52 
 6216      4541445F 
 6217              	.LASF214:
 6218 33b9 4359424C 		.ascii	"CYBLE_WPTS_CHAR_INDEX_T\000"
 6218      455F5750 
 6218      54535F43 
 6218      4841525F 
 6218      494E4445 
 6219              	.LASF418:
 6220 33d1 4359424C 		.ascii	"CYBLE_EVT_PASSC_WRITE_DESCR_RESPONSE\000"
 6220      455F4556 
 6220      545F5041 
 6220      5353435F 
 6220      57524954 
 6221              	.LASF120:
 6222 33f6 4359424C 		.ascii	"CYBLE_GATT_WRITE_REQ\000"
 6222      455F4741 
 6222      54545F57 
 6222      52495445 
 6222      5F524551 
 6223              	.LASF2:
 6224 340b 73686F72 		.ascii	"short int\000"
 6224      7420696E 
 6224      7400
 6225              	.LASF194:
 6226 3415 68616E64 		.ascii	"handleValPair\000"
 6226      6C655661 
 6226      6C506169 
 6226      7200
 6227              	.LASF284:
 6228 3423 4359424C 		.ascii	"CYBLE_EVT_BMSS_WRITE_CHAR\000"
 6228      455F4556 
 6228      545F424D 
 6228      53535F57 
 6228      52495445 
 6229              	.LASF231:
 6230 343d 4359424C 		.ascii	"CYBLE_EVT_GATTS_INDICATION_DISABLED\000"
 6230      455F4556 
ARM GAS  C:\Users\Petro\AppData\Local\Temp\cca5nTbz.s 			page 162


 6230      545F4741 
 6230      5454535F 
 6230      494E4449 
 6231              	.LASF198:
 6232 3461 72616E67 		.ascii	"range\000"
 6232      6500
 6233              	.LASF153:
 6234 3467 4359424C 		.ascii	"CYBLE_GATT_ERR_CPS_INAPPROPRIATE_CONNECTION_PARAMET"
 6234      455F4741 
 6234      54545F45 
 6234      52525F43 
 6234      50535F49 
 6235 349a 45525300 		.ascii	"ERS\000"
 6236              	.LASF295:
 6237 349e 4359424C 		.ascii	"CYBLE_EVT_CGMSC_NOTIFICATION\000"
 6237      455F4556 
 6237      545F4347 
 6237      4D53435F 
 6237      4E4F5449 
 6238              	.LASF139:
 6239 34bb 4359424C 		.ascii	"CYBLE_GATT_ERR_REQUEST_NOT_SUPPORTED\000"
 6239      455F4741 
 6239      54545F45 
 6239      52525F52 
 6239      45515545 
 6240              	.LASF36:
 6241 34e0 4359424C 		.ascii	"CYBLE_EVT_GATTC_ERROR_RSP\000"
 6241      455F4556 
 6241      545F4741 
 6241      5454435F 
 6241      4552524F 
 6242              	.LASF186:
 6243 34fa 4359424C 		.ascii	"CYBLE_GATT_ATTR_HANDLE_RANGE_T\000"
 6243      455F4741 
 6243      54545F41 
 6243      5454525F 
 6243      48414E44 
 6244              	.LASF347:
 6245 3519 4359424C 		.ascii	"CYBLE_EVT_ESSC_WRITE_CHAR_RESPONSE\000"
 6245      455F4556 
 6245      545F4553 
 6245      53435F57 
 6245      52495445 
 6246              	.LASF193:
 6247 353c 4359424C 		.ascii	"CYBLE_GATTC_READ_RSP_PARAM_T\000"
 6247      455F4741 
 6247      5454435F 
 6247      52454144 
 6247      5F525350 
 6248              	.LASF252:
 6249 3559 4359424C 		.ascii	"CYBLE_EVT_ANCSC_ERROR_RESPONSE\000"
 6249      455F4556 
 6249      545F414E 
 6249      4353435F 
 6249      4552524F 
 6250              	.LASF266:
 6251 3578 4359424C 		.ascii	"CYBLE_EVT_BASC_WRITE_DESCR_RESPONSE\000"
ARM GAS  C:\Users\Petro\AppData\Local\Temp\cca5nTbz.s 			page 163


 6251      455F4556 
 6251      545F4241 
 6251      53435F57 
 6251      52495445 
 6252              	.LASF233:
 6253 359c 4359424C 		.ascii	"CYBLE_EVT_GATTC_SRVC_DISCOVERY_FAILED\000"
 6253      455F4556 
 6253      545F4741 
 6253      5454435F 
 6253      53525643 
 6254              	.LASF350:
 6255 35c2 4359424C 		.ascii	"CYBLE_EVT_GLSS_INDICATION_ENABLED\000"
 6255      455F4556 
 6255      545F474C 
 6255      53535F49 
 6255      4E444943 
 6256              	.LASF255:
 6257 35e4 4359424C 		.ascii	"CYBLE_EVT_ANSS_CHAR_WRITE\000"
 6257      455F4556 
 6257      545F414E 
 6257      53535F43 
 6257      4841525F 
 6258              	.LASF492:
 6259 35fe 4359424C 		.ascii	"CYBLE_SRVI_COUNT\000"
 6259      455F5352 
 6259      56495F43 
 6259      4F554E54 
 6259      00
 6260              	.LASF63:
 6261 360f 4359424C 		.ascii	"CYBLE_EVT_L2CAP_CBFC_CONN_IND\000"
 6261      455F4556 
 6261      545F4C32 
 6261      4341505F 
 6261      43424643 
 6262              	.LASF52:
 6263 362d 4359424C 		.ascii	"CYBLE_EVT_GATTS_EXEC_WRITE_REQ\000"
 6263      455F4556 
 6263      545F4741 
 6263      5454535F 
 6263      45584543 
 6264              	.LASF23:
 6265 364c 4359424C 		.ascii	"CYBLE_EVT_GAPC_SCAN_PROGRESS_RESULT\000"
 6265      455F4556 
 6265      545F4741 
 6265      50435F53 
 6265      43414E5F 
 6266              	.LASF217:
 6267 3670 4359424C 		.ascii	"CYBLE_WPTS_DESCR_INDEX_T\000"
 6267      455F5750 
 6267      54535F44 
 6267      45534352 
 6267      5F494E44 
 6268              	.LASF215:
 6269 3689 4359424C 		.ascii	"CYBLE_WPTS_CCCD\000"
 6269      455F5750 
 6269      54535F43 
 6269      43434400 
ARM GAS  C:\Users\Petro\AppData\Local\Temp\cca5nTbz.s 			page 164


 6270              	.LASF445:
 6271 3699 4359424C 		.ascii	"CYBLE_EVT_UDSS_INDICATION_ENABLED\000"
 6271      455F4556 
 6271      545F5544 
 6271      53535F49 
 6271      4E444943 
 6272              	.LASF522:
 6273 36bb 4379426C 		.ascii	"CyBle_WptscGetCharacteristicDescriptor\000"
 6273      655F5770 
 6273      74736347 
 6273      65744368 
 6273      61726163 
 6274              	.LASF164:
 6275 36e2 4359424C 		.ascii	"CYBLE_GATT_ERR_ANCS_INVALID_PARAMETER\000"
 6275      455F4741 
 6275      54545F45 
 6275      52525F41 
 6275      4E43535F 
 6276              	.LASF83:
 6277 3708 4359424C 		.ascii	"CYBLE_ERROR_GAP_ROLE\000"
 6277      455F4552 
 6277      524F525F 
 6277      4741505F 
 6277      524F4C45 
 6278              	.LASF384:
 6279 371d 4359424C 		.ascii	"CYBLE_EVT_HTSS_INDICATION_ENABLED\000"
 6279      455F4556 
 6279      545F4854 
 6279      53535F49 
 6279      4E444943 
 6280              	.LASF456:
 6281 373f 4359424C 		.ascii	"CYBLE_EVT_UDSC_READ_DESCR_RESPONSE\000"
 6281      455F4556 
 6281      545F5544 
 6281      53435F52 
 6281      4541445F 
 6282              	.LASF185:
 6283 3762 656E6448 		.ascii	"endHandle\000"
 6283      616E646C 
 6283      6500
 6284              	.LASF264:
 6285 376c 4359424C 		.ascii	"CYBLE_EVT_BASC_READ_CHAR_RESPONSE\000"
 6285      455F4556 
 6285      545F4241 
 6285      53435F52 
 6285      4541445F 
 6286              	.LASF357:
 6287 378e 4359424C 		.ascii	"CYBLE_EVT_GLSC_NOTIFICATION\000"
 6287      455F4556 
 6287      545F474C 
 6287      53435F4E 
 6287      4F544946 
 6288              	.LASF161:
 6289 37aa 4359424C 		.ascii	"CYBLE_GATT_ERR_ANS_COMMAND_NOT_SUPPORTED\000"
 6289      455F4741 
 6289      54545F45 
 6289      52525F41 
ARM GAS  C:\Users\Petro\AppData\Local\Temp\cca5nTbz.s 			page 165


 6289      4E535F43 
 6290              	.LASF435:
 6291 37d3 4359424C 		.ascii	"CYBLE_EVT_SCPSS_SCAN_INT_WIN_CHAR_WRITE\000"
 6291      455F4556 
 6291      545F5343 
 6291      5053535F 
 6291      5343414E 
 6292              	.LASF113:
 6293 37fb 4359424C 		.ascii	"CYBLE_GATT_READ_RSP\000"
 6293      455F4741 
 6293      54545F52 
 6293      4541445F 
 6293      52535000 
 6294              	.LASF224:
 6295 380f 63686172 		.ascii	"charInfo\000"
 6295      496E666F 
 6295      00
 6296              	.LASF80:
 6297 3818 4359424C 		.ascii	"CYBLE_ERROR_NO_CONNECTION\000"
 6297      455F4552 
 6297      524F525F 
 6297      4E4F5F43 
 6297      4F4E4E45 
 6298              	.LASF318:
 6299 3832 4359424C 		.ascii	"CYBLE_EVT_CSCSS_INDICATION_DISABLED\000"
 6299      455F4556 
 6299      545F4353 
 6299      4353535F 
 6299      494E4449 
 6300              	.LASF527:
 6301 3856 6379426C 		.ascii	"cyBle_wptscCharUuid128\000"
 6301      655F7770 
 6301      74736343 
 6301      68617255 
 6301      75696431 
 6302              	.LASF287:
 6303 386d 4359424C 		.ascii	"CYBLE_EVT_BMSC_READ_DESCR_RESPONSE\000"
 6303      455F4556 
 6303      545F424D 
 6303      53435F52 
 6303      4541445F 
 6304              	.LASF72:
 6305 3890 4359424C 		.ascii	"CYBLE_EVT_LE_PING_AUTH_TIMEOUT\000"
 6305      455F4556 
 6305      545F4C45 
 6305      5F50494E 
 6305      475F4155 
 6306              	.LASF102:
 6307 38af 4359424C 		.ascii	"CYBLE_API_RESULT_T\000"
 6307      455F4150 
 6307      495F5245 
 6307      53554C54 
 6307      5F5400
 6308              	.LASF438:
 6309 38c2 4359424C 		.ascii	"CYBLE_EVT_SCPSC_WRITE_DESCR_RESPONSE\000"
 6309      455F4556 
 6309      545F5343 
ARM GAS  C:\Users\Petro\AppData\Local\Temp\cca5nTbz.s 			page 166


 6309      5053435F 
 6309      57524954 
 6310              	.LASF289:
 6311 38e7 4359424C 		.ascii	"CYBLE_EVT_CGMSS_INDICATION_DISABLED\000"
 6311      455F4556 
 6311      545F4347 
 6311      4D53535F 
 6311      494E4449 
 6312              	.LASF243:
 6313 390b 4359424C 		.ascii	"CYBLE_EVT_GATTC_DISCOVERY_COMPLETE\000"
 6313      455F4556 
 6313      545F4741 
 6313      5454435F 
 6313      44495343 
 6314              	.LASF293:
 6315 392e 4359424C 		.ascii	"CYBLE_EVT_CGMSS_WRITE_CHAR\000"
 6315      455F4556 
 6315      545F4347 
 6315      4D53535F 
 6315      57524954 
 6316              	.LASF361:
 6317 3949 4359424C 		.ascii	"CYBLE_EVT_GLSC_WRITE_DESCR_RESPONSE\000"
 6317      455F4556 
 6317      545F474C 
 6317      53435F57 
 6317      52495445 
 6318              	.LASF55:
 6319 396d 4359424C 		.ascii	"CYBLE_EVT_GATTC_HANDLE_VALUE_IND\000"
 6319      455F4556 
 6319      545F4741 
 6319      5454435F 
 6319      48414E44 
 6320              	.LASF314:
 6321 398e 4359424C 		.ascii	"CYBLE_EVT_CPSC_SCAN_PROGRESS_RESULT\000"
 6321      455F4556 
 6321      545F4350 
 6321      53435F53 
 6321      43414E5F 
 6322              	.LASF429:
 6323 39b2 4359424C 		.ascii	"CYBLE_EVT_RSCSC_READ_DESCR_RESPONSE\000"
 6323      455F4556 
 6323      545F5253 
 6323      4353435F 
 6323      52454144 
 6324              	.LASF86:
 6325 39d6 4359424C 		.ascii	"CYBLE_ERROR_SEC_FAILED\000"
 6325      455F4552 
 6325      524F525F 
 6325      5345435F 
 6325      4641494C 
 6326              	.LASF22:
 6327 39ed 4359424C 		.ascii	"CYBLE_EVT_STACK_BUSY_STATUS\000"
 6327      455F4556 
 6327      545F5354 
 6327      41434B5F 
 6327      42555359 
 6328              	.LASF393:
ARM GAS  C:\Users\Petro\AppData\Local\Temp\cca5nTbz.s 			page 167


 6329 3a09 4359424C 		.ascii	"CYBLE_EVT_HTSC_WRITE_DESCR_RESPONSE\000"
 6329      455F4556 
 6329      545F4854 
 6329      53435F57 
 6329      52495445 
 6330              	.LASF35:
 6331 3a2d 4359424C 		.ascii	"CYBLE_EVT_GAP_KEYINFO_EXCHNGE_CMPLT\000"
 6331      455F4556 
 6331      545F4741 
 6331      505F4B45 
 6331      59494E46 
 6332              	.LASF125:
 6333 3a51 4359424C 		.ascii	"CYBLE_GATT_EXECUTE_WRITE_REQ\000"
 6333      455F4741 
 6333      54545F45 
 6333      58454355 
 6333      54455F57 
 6334              	.LASF470:
 6335 3a6e 4359424C 		.ascii	"CYBLE_EVT_WPTSC_WRITE_DESCR_RESPONSE\000"
 6335      455F4556 
 6335      545F5750 
 6335      5453435F 
 6335      57524954 
 6336              	.LASF60:
 6337 3a93 4359424C 		.ascii	"CYBLE_EVT_L2CAP_CONN_PARAM_UPDATE_REQ\000"
 6337      455F4556 
 6337      545F4C32 
 6337      4341505F 
 6337      434F4E4E 
 6338              	.LASF292:
 6339 3ab9 4359424C 		.ascii	"CYBLE_EVT_CGMSS_NOTIFICATION_DISABLED\000"
 6339      455F4556 
 6339      545F4347 
 6339      4D53535F 
 6339      4E4F5449 
 6340              	.LASF218:
 6341 3adf 63686172 		.ascii	"charIndex\000"
 6341      496E6465 
 6341      7800
 6342              	.LASF234:
 6343 3ae9 4359424C 		.ascii	"CYBLE_EVT_GATTC_INCL_DISCOVERY_FAILED\000"
 6343      455F4556 
 6343      545F4741 
 6343      5454435F 
 6343      494E434C 
 6344              	.LASF136:
 6345 3b0f 4359424C 		.ascii	"CYBLE_GATT_ERR_WRITE_NOT_PERMITTED\000"
 6345      455F4741 
 6345      54545F45 
 6345      52525F57 
 6345      52495445 
 6346              	.LASF526:
 6347 3b32 6379426C 		.ascii	"cyBle_wptsc\000"
 6347      655F7770 
 6347      74736300 
 6348              	.LASF3:
 6349 3b3e 73686F72 		.ascii	"short unsigned int\000"
ARM GAS  C:\Users\Petro\AppData\Local\Temp\cca5nTbz.s 			page 168


 6349      7420756E 
 6349      7369676E 
 6349      65642069 
 6349      6E7400
 6350              	.LASF148:
 6351 3b51 4359424C 		.ascii	"CYBLE_GATT_ERR_INSUFFICIENT_ENCRYPTION\000"
 6351      455F4741 
 6351      54545F45 
 6351      52525F49 
 6351      4E535546 
 6352              	.LASF408:
 6353 3b78 4359424C 		.ascii	"CYBLE_EVT_LNSC_READ_DESCR_RESPONSE\000"
 6353      455F4556 
 6353      545F4C4E 
 6353      53435F52 
 6353      4541445F 
 6354              	.LASF180:
 6355 3b9b 61637475 		.ascii	"actualLen\000"
 6355      616C4C65 
 6355      6E00
 6356              	.LASF118:
 6357 3ba5 4359424C 		.ascii	"CYBLE_GATT_READ_BY_GROUP_REQ\000"
 6357      455F4741 
 6357      54545F52 
 6357      4541445F 
 6357      42595F47 
 6358              	.LASF356:
 6359 3bc2 4359424C 		.ascii	"CYBLE_EVT_GLSC_INDICATION\000"
 6359      455F4556 
 6359      545F474C 
 6359      53435F49 
 6359      4E444943 
 6360              	.LASF306:
 6361 3bdc 4359424C 		.ascii	"CYBLE_EVT_CPSS_BROADCAST_DISABLED\000"
 6361      455F4556 
 6361      545F4350 
 6361      53535F42 
 6361      524F4144 
 6362              	.LASF178:
 6363 3bfe 61747449 		.ascii	"attId\000"
 6363      6400
 6364              	.LASF76:
 6365 3c04 4359424C 		.ascii	"CYBLE_ERROR_INVALID_OPERATION\000"
 6365      455F4552 
 6365      524F525F 
 6365      494E5641 
 6365      4C49445F 
 6366              	.LASF21:
 6367 3c22 4359424C 		.ascii	"CYBLE_EVT_HCI_STATUS\000"
 6367      455F4556 
 6367      545F4843 
 6367      495F5354 
 6367      41545553 
 6368              	.LASF38:
 6369 3c37 4359424C 		.ascii	"CYBLE_EVT_GATT_DISCONNECT_IND\000"
 6369      455F4556 
 6369      545F4741 
ARM GAS  C:\Users\Petro\AppData\Local\Temp\cca5nTbz.s 			page 169


 6369      54545F44 
 6369      4953434F 
 6370              	.LASF229:
 6371 3c55 4359424C 		.ascii	"CYBLE_KEY_EXCHANGE_INFO_REQUEST_REPLY\000"
 6371      455F4B45 
 6371      595F4558 
 6371      4348414E 
 6371      47455F49 
 6372              	.LASF70:
 6373 3c7b 4359424C 		.ascii	"CYBLE_EVT_L2CAP_CBFC_DATA_WRITE_IND\000"
 6373      455F4556 
 6373      545F4C32 
 6373      4341505F 
 6373      43424643 
 6374              	.LASF227:
 6375 3c9f 4359424C 		.ascii	"CYBLE_PASSKEY_ENTRY_REQUEST_REPLY\000"
 6375      455F5041 
 6375      53534B45 
 6375      595F454E 
 6375      5452595F 
 6376              	.LASF273:
 6377 3cc1 4359424C 		.ascii	"CYBLE_EVT_BCSC_WRITE_DESCR_RESPONSE\000"
 6377      455F4556 
 6377      545F4243 
 6377      53435F57 
 6377      52495445 
 6378              	.LASF475:
 6379 3ce5 4359424C 		.ascii	"CYBLE_EVT_WSSC_READ_CHAR_RESPONSE\000"
 6379      455F4556 
 6379      545F5753 
 6379      53435F52 
 6379      4541445F 
 6380              	.LASF212:
 6381 3d07 4359424C 		.ascii	"CYBLE_WPTS_PRU_DYNAMIC_PAR\000"
 6381      455F5750 
 6381      54535F50 
 6381      52555F44 
 6381      594E414D 
 6382              	.LASF507:
 6383 3d22 4379426C 		.ascii	"CyBle_WptscIndicationEventHandler\000"
 6383      655F5770 
 6383      74736349 
 6383      6E646963 
 6383      6174696F 
 6384              	.LASF31:
 6385 3d44 4359424C 		.ascii	"CYBLE_EVT_GAP_DEVICE_DISCONNECTED\000"
 6385      455F4556 
 6385      545F4741 
 6385      505F4445 
 6385      56494345 
 6386              	.LASF364:
 6387 3d66 4359424C 		.ascii	"CYBLE_EVT_HIDSS_BOOT_MODE_ENTER\000"
 6387      455F4556 
 6387      545F4849 
 6387      4453535F 
 6387      424F4F54 
 6388              	.LASF56:
ARM GAS  C:\Users\Petro\AppData\Local\Temp\cca5nTbz.s 			page 170


 6389 3d86 4359424C 		.ascii	"CYBLE_EVT_GATTS_HANDLE_VALUE_CNF\000"
 6389      455F4556 
 6389      545F4741 
 6389      5454535F 
 6389      48414E44 
 6390              	.LASF325:
 6391 3da7 4359424C 		.ascii	"CYBLE_EVT_CSCSC_READ_DESCR_RESPONSE\000"
 6391      455F4556 
 6391      545F4353 
 6391      4353435F 
 6391      52454144 
 6392              	.LASF10:
 6393 3dcb 75696E74 		.ascii	"uint16\000"
 6393      313600
 6394              	.LASF249:
 6395 3dd2 4359424C 		.ascii	"CYBLE_EVT_ANCSC_WRITE_CHAR_RESPONSE\000"
 6395      455F4556 
 6395      545F414E 
 6395      4353435F 
 6395      57524954 
 6396              	.LASF84:
 6397 3df6 4359424C 		.ascii	"CYBLE_ERROR_TX_POWER_READ\000"
 6397      455F4552 
 6397      524F525F 
 6397      54585F50 
 6397      4F574552 
 6398              	.LASF419:
 6399 3e10 4359424C 		.ascii	"CYBLE_EVT_RSCSS_NOTIFICATION_ENABLED\000"
 6399      455F4556 
 6399      545F5253 
 6399      4353535F 
 6399      4E4F5449 
 6400              	.LASF174:
 6401 3e35 4359424C 		.ascii	"CYBLE_UUID_T\000"
 6401      455F5555 
 6401      49445F54 
 6401      00
 6402              	.LASF519:
 6403 3e42 4379426C 		.ascii	"CyBle_WptscSetCharacteristicValue\000"
 6403      655F5770 
 6403      74736353 
 6403      65744368 
 6403      61726163 
 6404              	.LASF254:
 6405 3e64 4359424C 		.ascii	"CYBLE_EVT_ANSS_NOTIFICATION_DISABLED\000"
 6405      455F4556 
 6405      545F414E 
 6405      53535F4E 
 6405      4F544946 
 6406              	.LASF389:
 6407 3e89 4359424C 		.ascii	"CYBLE_EVT_HTSC_INDICATION\000"
 6407      455F4556 
 6407      545F4854 
 6407      53435F49 
 6407      4E444943 
 6408              	.LASF203:
 6409 3ea3 76616C75 		.ascii	"valueHandle\000"
ARM GAS  C:\Users\Petro\AppData\Local\Temp\cca5nTbz.s 			page 171


 6409      6548616E 
 6409      646C6500 
 6410              	.LASF362:
 6411 3eaf 4359424C 		.ascii	"CYBLE_EVT_HIDSS_NOTIFICATION_ENABLED\000"
 6411      455F4556 
 6411      545F4849 
 6411      4453535F 
 6411      4E4F5449 
 6412              	.LASF386:
 6413 3ed4 4359424C 		.ascii	"CYBLE_EVT_HTSS_INDICATION_CONFIRMED\000"
 6413      455F4556 
 6413      545F4854 
 6413      53535F49 
 6413      4E444943 
 6414              	.LASF463:
 6415 3ef8 4359424C 		.ascii	"CYBLE_EVT_WPTSS_INDICATION_CONFIRMED\000"
 6415      455F4556 
 6415      545F5750 
 6415      5453535F 
 6415      494E4449 
 6416              	.LASF376:
 6417 3f1d 4359424C 		.ascii	"CYBLE_EVT_HRSS_NOTIFICATION_DISABLED\000"
 6417      455F4556 
 6417      545F4852 
 6417      53535F4E 
 6417      4F544946 
 6418              		.ident	"GCC: (GNU Tools for ARM Embedded Processors) 4.9.3 20150303 (release) [ARM/embedded-4_9-br
