ARM GAS  C:\Users\Petro\AppData\Local\Temp\cctBT5Gy.s 			page 1


   1              		.cpu cortex-m0
   2              		.fpu softvfp
   3              		.eabi_attribute 20, 1
   4              		.eabi_attribute 21, 1
   5              		.eabi_attribute 23, 3
   6              		.eabi_attribute 24, 1
   7              		.eabi_attribute 25, 1
   8              		.eabi_attribute 26, 1
   9              		.eabi_attribute 30, 1
  10              		.eabi_attribute 34, 0
  11              		.eabi_attribute 18, 4
  12              		.code	16
  13              		.file	"BLE_gatt.c"
  14              		.text
  15              	.Ltext0:
  16              		.cfi_sections	.debug_frame
  17              		.section	.text.CyBle_GattcStartDiscovery,"ax",%progbits
  18              		.align	2
  19              		.global	CyBle_GattcStartDiscovery
  20              		.code	16
  21              		.thumb_func
  22              		.type	CyBle_GattcStartDiscovery, %function
  23              	CyBle_GattcStartDiscovery:
  24              	.LFB2:
  25              		.file 1 ".\\Generated_Source\\PSoC4\\BLE_gatt.c"
   1:.\Generated_Source\PSoC4/BLE_gatt.c **** /***************************************************************************//**
   2:.\Generated_Source\PSoC4/BLE_gatt.c **** * \file CYBLE_gatt.c
   3:.\Generated_Source\PSoC4/BLE_gatt.c **** * \version 2.30
   4:.\Generated_Source\PSoC4/BLE_gatt.c **** * 
   5:.\Generated_Source\PSoC4/BLE_gatt.c **** * \brief
   6:.\Generated_Source\PSoC4/BLE_gatt.c **** *  This file contains the source code for the GATT API of the BLE Component.
   7:.\Generated_Source\PSoC4/BLE_gatt.c **** * 
   8:.\Generated_Source\PSoC4/BLE_gatt.c **** ********************************************************************************
   9:.\Generated_Source\PSoC4/BLE_gatt.c **** * \copyright
  10:.\Generated_Source\PSoC4/BLE_gatt.c **** * Copyright 2014-2015, Cypress Semiconductor Corporation.  All rights reserved.
  11:.\Generated_Source\PSoC4/BLE_gatt.c **** * You may use this file only in accordance with the license, terms, conditions,
  12:.\Generated_Source\PSoC4/BLE_gatt.c **** * disclaimers, and limitations in the end user license agreement accompanying
  13:.\Generated_Source\PSoC4/BLE_gatt.c **** * the software package with which this file was provided.
  14:.\Generated_Source\PSoC4/BLE_gatt.c **** *******************************************************************************/
  15:.\Generated_Source\PSoC4/BLE_gatt.c **** 
  16:.\Generated_Source\PSoC4/BLE_gatt.c **** 
  17:.\Generated_Source\PSoC4/BLE_gatt.c **** #include "BLE_eventHandler.h"
  18:.\Generated_Source\PSoC4/BLE_gatt.c **** 
  19:.\Generated_Source\PSoC4/BLE_gatt.c **** 
  20:.\Generated_Source\PSoC4/BLE_gatt.c **** /***************************************
  21:.\Generated_Source\PSoC4/BLE_gatt.c **** * Global variables
  22:.\Generated_Source\PSoC4/BLE_gatt.c **** ***************************************/
  23:.\Generated_Source\PSoC4/BLE_gatt.c **** 
  24:.\Generated_Source\PSoC4/BLE_gatt.c **** CYBLE_STATE_T cyBle_state;
  25:.\Generated_Source\PSoC4/BLE_gatt.c **** 
  26:.\Generated_Source\PSoC4/BLE_gatt.c **** 
  27:.\Generated_Source\PSoC4/BLE_gatt.c **** #if(CYBLE_MODE_PROFILE)
  28:.\Generated_Source\PSoC4/BLE_gatt.c ****     #if defined(__ARMCC_VERSION)
  29:.\Generated_Source\PSoC4/BLE_gatt.c ****         CY_ALIGN(CYDEV_FLS_ROW_SIZE) const CY_BLE_FLASH_STORAGE cyBle_flashStorage CY_SECTION(".cy_
  30:.\Generated_Source\PSoC4/BLE_gatt.c ****     #elif defined (__GNUC__)
  31:.\Generated_Source\PSoC4/BLE_gatt.c ****         const CY_BLE_FLASH_STORAGE cyBle_flashStorage CY_SECTION(".cy_checksum_exclude")
  32:.\Generated_Source\PSoC4/BLE_gatt.c ****             CY_ALIGN(CYDEV_FLS_ROW_SIZE) =
ARM GAS  C:\Users\Petro\AppData\Local\Temp\cctBT5Gy.s 			page 2


  33:.\Generated_Source\PSoC4/BLE_gatt.c ****     #elif defined (__ICCARM__)
  34:.\Generated_Source\PSoC4/BLE_gatt.c ****         #pragma data_alignment=CY_FLASH_SIZEOF_ROW
  35:.\Generated_Source\PSoC4/BLE_gatt.c ****         #pragma location=".cy_checksum_exclude"
  36:.\Generated_Source\PSoC4/BLE_gatt.c ****         const CY_BLE_FLASH_STORAGE cyBle_flashStorage =
  37:.\Generated_Source\PSoC4/BLE_gatt.c ****     #endif  /* (__ARMCC_VERSION) */
  38:.\Generated_Source\PSoC4/BLE_gatt.c ****     {
  39:.\Generated_Source\PSoC4/BLE_gatt.c ****         { 0x00u, 0x00u, 0x00u, 0x00u, 0x00u, 0x00u, 0x00u, 0x00u, 0x00u, 0x00u, 0x00u, 0x00u, 0x00u
  40:.\Generated_Source\PSoC4/BLE_gatt.c ****         0x00u, 0x00u, 0x00u, 0x00u, 0x00u, 0x00u, 0x00u, 0x00u, 0x00u, 0x00u, 0x00u, 0x00u, 0x00u, 
  41:.\Generated_Source\PSoC4/BLE_gatt.c ****         0x00u, 0x00u, 0x00u, 0x00u, 0x00u, 0x00u, 0x00u, 0x00u, 0x00u, 0x00u, 0x00u, 0x00u, 0x00u, 
  42:.\Generated_Source\PSoC4/BLE_gatt.c ****         0x00u, 0x00u, 0x00u, 0x00u, 0x00u, 0x00u, 0x00u, 0x00u, 0x00u, 0x00u, 0x00u, 0x00u, 0x00u, 
  43:.\Generated_Source\PSoC4/BLE_gatt.c ****         0x00u, 0x00u, 0x00u, 0x00u, 0x00u, 0x00u, 0x00u, 0x00u, 0x00u, 0x00u, 0x00u, 0x00u, 0x00u, 
  44:.\Generated_Source\PSoC4/BLE_gatt.c ****         0x00u, 0x00u, 0x00u, 0x00u, 0x00u, 0x00u, 0x00u, 0x00u, 0x00u, 0x00u, 0x00u, 0x00u, 0x00u, 
  45:.\Generated_Source\PSoC4/BLE_gatt.c ****         0x00u, 0x00u, 0x00u, 0x00u, 0x00u, 0x00u, 0x00u, 0x00u, 0x00u, 0x00u, 0x00u, 0x00u, 0x00u, 
  46:.\Generated_Source\PSoC4/BLE_gatt.c ****         0x00u, 0x00u, 0x00u, 0x00u, 0x00u, 0x00u, 0x00u, 0x00u, 0x00u, 0x00u, 0x00u, 0x00u, 0x00u, 
  47:.\Generated_Source\PSoC4/BLE_gatt.c ****         0x00u, 0x00u, 0x00u, 0x00u, 0x00u, 0x00u, 0x00u, 0x00u, 0x00u, 0x00u, 0x00u, 0x00u, 0x00u, 
  48:.\Generated_Source\PSoC4/BLE_gatt.c ****         0x00u, 0x00u, 0x00u, 0x00u, 0x00u, 0x00u, 0x00u, 0x00u, 0x00u, 0x00u, 0x00u, 0x00u, 0x00u, 
  49:.\Generated_Source\PSoC4/BLE_gatt.c ****         0x00u, 0x00u, 0x00u, 0x00u, 0x00u, 0x00u, 0x00u, 0x00u, 0x00u, 0x00u, 0x00u, 0x00u, 0x00u, 
  50:.\Generated_Source\PSoC4/BLE_gatt.c ****         0x00u, 0x00u, 0x00u, 0x00u, 0x00u, 0x00u, 0x00u, 0x00u, 0x00u, 0x00u, 0x00u, 0x00u, 0x00u, 
  51:.\Generated_Source\PSoC4/BLE_gatt.c ****         0x00u, 0x00u, 0x00u, 0x00u, 0x00u, 0x00u, 0x00u, 0x00u, 0x00u, 0x00u, 0x00u, 0x00u, 0x00u, 
  52:.\Generated_Source\PSoC4/BLE_gatt.c ****         0x00u, 0x00u, 0x00u, 0x00u, 0x00u, 0x00u, 0x00u, 0x00u, 0x00u, 0x00u, 0x00u, 0x00u, 0x00u, 
  53:.\Generated_Source\PSoC4/BLE_gatt.c ****         0x00u, 0x00u, 0x00u, 0x00u, 0x00u, 0x00u, 0x00u, 0x00u, 0x00u, 0x00u, 0x00u, 0x00u, 0x00u, 
  54:.\Generated_Source\PSoC4/BLE_gatt.c ****         0x00u, 0x00u, 0x00u, 0x00u, 0x00u, 0x00u, 0x00u, 0x00u, 0x00u, 0x00u, 0x00u, 0x00u, 0x00u, 
  55:.\Generated_Source\PSoC4/BLE_gatt.c ****         0x00u, 0x00u, 0x00u, 0x00u, 0x00u, 0x00u, 0x00u, 0x00u, 0x00u, 0x00u, 0x00u, 0x00u, 0x00u, 
  56:.\Generated_Source\PSoC4/BLE_gatt.c ****         0x00u, 0x00u, 0x00u, 0x00u, 0x00u, 0x00u, 0x00u, 0x00u, 0x00u, 0x00u, 0x00u, 0x00u, 0x00u, 
  57:.\Generated_Source\PSoC4/BLE_gatt.c ****         0x00u, 0x00u, 0x00u, 0x00u, 0x00u, 0x00u, 0x00u, 0x00u, 0x00u, 0x00u, 0x00u, 0x00u, 0x00u, 
  58:.\Generated_Source\PSoC4/BLE_gatt.c ****         0x00u, 0x00u, 0x00u, 0x00u, 0x00u, 0x00u, 0x00u, 0x00u, 0x00u, 0x00u, 0x00u, 0x00u, 0x00u, 
  59:.\Generated_Source\PSoC4/BLE_gatt.c ****         0x00u, 0x00u, 0x00u, 0x00u, 0x00u, 0x00u, 0x00u, 0x00u, 0x00u, 0x00u, 0x00u, 0x00u, 0x00u, 
  60:.\Generated_Source\PSoC4/BLE_gatt.c ****         0x00u, 0x00u, 0x00u, 0x00u, 0x00u, 0x00u, 0x00u, 0x00u, 0x00u, 0x00u, 0x00u, 0x00u, 0x00u, 
  61:.\Generated_Source\PSoC4/BLE_gatt.c ****         0x00u, 0x00u, 0x00u, 0x00u, 0x00u, 0x00u, 0x00u, 0x00u, 0x00u, 0x00u, 0x00u, 0x00u, 0x00u, 
  62:.\Generated_Source\PSoC4/BLE_gatt.c ****         {{
  63:.\Generated_Source\PSoC4/BLE_gatt.c ****             0x00u
  64:.\Generated_Source\PSoC4/BLE_gatt.c ****         },
  65:.\Generated_Source\PSoC4/BLE_gatt.c ****         {
  66:.\Generated_Source\PSoC4/BLE_gatt.c ****             0x00u
  67:.\Generated_Source\PSoC4/BLE_gatt.c ****         },
  68:.\Generated_Source\PSoC4/BLE_gatt.c ****         {
  69:.\Generated_Source\PSoC4/BLE_gatt.c ****             0x00u
  70:.\Generated_Source\PSoC4/BLE_gatt.c ****         },
  71:.\Generated_Source\PSoC4/BLE_gatt.c ****         {
  72:.\Generated_Source\PSoC4/BLE_gatt.c ****             0x00u
  73:.\Generated_Source\PSoC4/BLE_gatt.c ****         },
  74:.\Generated_Source\PSoC4/BLE_gatt.c ****         {
  75:.\Generated_Source\PSoC4/BLE_gatt.c ****             0x00u
  76:.\Generated_Source\PSoC4/BLE_gatt.c ****         }}, 
  77:.\Generated_Source\PSoC4/BLE_gatt.c ****         0x00u, /* CYBLE_GATT_DB_CCCD_COUNT */ 
  78:.\Generated_Source\PSoC4/BLE_gatt.c ****         0x05u, /* CYBLE_GAP_MAX_BONDED_DEVICE */ 
  79:.\Generated_Source\PSoC4/BLE_gatt.c ****     };
  80:.\Generated_Source\PSoC4/BLE_gatt.c **** #endif /* (CYBLE_MODE_PROFILE) */
  81:.\Generated_Source\PSoC4/BLE_gatt.c **** 
  82:.\Generated_Source\PSoC4/BLE_gatt.c **** 
  83:.\Generated_Source\PSoC4/BLE_gatt.c **** #if(CYBLE_GATT_ROLE_SERVER)
  84:.\Generated_Source\PSoC4/BLE_gatt.c ****     
  85:.\Generated_Source\PSoC4/BLE_gatt.c ****     
  86:.\Generated_Source\PSoC4/BLE_gatt.c ****     
  87:.\Generated_Source\PSoC4/BLE_gatt.c ****     
  88:.\Generated_Source\PSoC4/BLE_gatt.c **** uint8 cyBle_attValuesCCCD[CYBLE_GATT_DB_CCCD_COUNT];
  89:.\Generated_Source\PSoC4/BLE_gatt.c **** 
ARM GAS  C:\Users\Petro\AppData\Local\Temp\cctBT5Gy.s 			page 3


  90:.\Generated_Source\PSoC4/BLE_gatt.c **** 
  91:.\Generated_Source\PSoC4/BLE_gatt.c **** 
  92:.\Generated_Source\PSoC4/BLE_gatt.c **** 
  93:.\Generated_Source\PSoC4/BLE_gatt.c **** 
  94:.\Generated_Source\PSoC4/BLE_gatt.c **** 
  95:.\Generated_Source\PSoC4/BLE_gatt.c **** #endif /* (CYBLE_GATT_ROLE_SERVER) */
  96:.\Generated_Source\PSoC4/BLE_gatt.c **** 
  97:.\Generated_Source\PSoC4/BLE_gatt.c **** #if(CYBLE_GATT_ROLE_CLIENT)
  98:.\Generated_Source\PSoC4/BLE_gatt.c ****     
  99:.\Generated_Source\PSoC4/BLE_gatt.c **** CYBLE_CLIENT_STATE_T cyBle_clientState;
 100:.\Generated_Source\PSoC4/BLE_gatt.c **** CYBLE_GATTC_T cyBle_gattc;
 101:.\Generated_Source\PSoC4/BLE_gatt.c ****     
 102:.\Generated_Source\PSoC4/BLE_gatt.c **** #endif /* (CYBLE_GATT_ROLE_CLIENT) */
 103:.\Generated_Source\PSoC4/BLE_gatt.c **** 
 104:.\Generated_Source\PSoC4/BLE_gatt.c **** 
 105:.\Generated_Source\PSoC4/BLE_gatt.c **** #if(CYBLE_GATT_ROLE_SERVER)
 106:.\Generated_Source\PSoC4/BLE_gatt.c **** 
 107:.\Generated_Source\PSoC4/BLE_gatt.c **** /****************************************************************************** 
 108:.\Generated_Source\PSoC4/BLE_gatt.c **** * Function Name: CyBle_GattsReInitGattDb
 109:.\Generated_Source\PSoC4/BLE_gatt.c **** ***************************************************************************//**
 110:.\Generated_Source\PSoC4/BLE_gatt.c **** * 
 111:.\Generated_Source\PSoC4/BLE_gatt.c **** *  Reinitializes the GATT database.
 112:.\Generated_Source\PSoC4/BLE_gatt.c **** * 
 113:.\Generated_Source\PSoC4/BLE_gatt.c **** * \return
 114:.\Generated_Source\PSoC4/BLE_gatt.c **** *  CYBLE_API_RESULT_T: An API result states if the API succeeded or failed with
 115:.\Generated_Source\PSoC4/BLE_gatt.c **** *  error codes:
 116:.\Generated_Source\PSoC4/BLE_gatt.c **** *   * CYBLE_ERROR_OK: GATT database was reinitialized successfully
 117:.\Generated_Source\PSoC4/BLE_gatt.c **** *   * CYBLE_ERROR_INVALID_STATE: If the function is called in any state except
 118:.\Generated_Source\PSoC4/BLE_gatt.c **** *                                 CYBLE_STATE_DISCONNECTED.
 119:.\Generated_Source\PSoC4/BLE_gatt.c **** *   * Any of the CyBle_GattsDbRegister() stack API function return values.
 120:.\Generated_Source\PSoC4/BLE_gatt.c **** * 
 121:.\Generated_Source\PSoC4/BLE_gatt.c **** ******************************************************************************/
 122:.\Generated_Source\PSoC4/BLE_gatt.c **** CYBLE_API_RESULT_T CyBle_GattsReInitGattDb(void)
 123:.\Generated_Source\PSoC4/BLE_gatt.c **** {
 124:.\Generated_Source\PSoC4/BLE_gatt.c ****     CYBLE_API_RESULT_T apiResult;
 125:.\Generated_Source\PSoC4/BLE_gatt.c ****     
 126:.\Generated_Source\PSoC4/BLE_gatt.c ****     if(CYBLE_STATE_DISCONNECTED == CyBle_GetState())
 127:.\Generated_Source\PSoC4/BLE_gatt.c ****     {
 128:.\Generated_Source\PSoC4/BLE_gatt.c ****         apiResult = CyBle_GattsDbRegister(cyBle_gattDB, CYBLE_GATT_DB_INDEX_COUNT, CYBLE_GATT_DB_MA
 129:.\Generated_Source\PSoC4/BLE_gatt.c ****     }
 130:.\Generated_Source\PSoC4/BLE_gatt.c ****     else
 131:.\Generated_Source\PSoC4/BLE_gatt.c ****     {
 132:.\Generated_Source\PSoC4/BLE_gatt.c ****         apiResult = CYBLE_ERROR_INVALID_STATE;
 133:.\Generated_Source\PSoC4/BLE_gatt.c ****     }
 134:.\Generated_Source\PSoC4/BLE_gatt.c ****     
 135:.\Generated_Source\PSoC4/BLE_gatt.c ****     return(apiResult);
 136:.\Generated_Source\PSoC4/BLE_gatt.c **** }
 137:.\Generated_Source\PSoC4/BLE_gatt.c **** 
 138:.\Generated_Source\PSoC4/BLE_gatt.c **** 
 139:.\Generated_Source\PSoC4/BLE_gatt.c **** /****************************************************************************** 
 140:.\Generated_Source\PSoC4/BLE_gatt.c **** * Function Name: CyBle_GattsWriteEventHandler
 141:.\Generated_Source\PSoC4/BLE_gatt.c **** ***************************************************************************//**
 142:.\Generated_Source\PSoC4/BLE_gatt.c **** * 
 143:.\Generated_Source\PSoC4/BLE_gatt.c **** *  Handles the Write Request Event for GATT service.
 144:.\Generated_Source\PSoC4/BLE_gatt.c **** * 
 145:.\Generated_Source\PSoC4/BLE_gatt.c **** *  \param *eventParam: The pointer to the data structure specified by the event.
 146:.\Generated_Source\PSoC4/BLE_gatt.c **** * 
ARM GAS  C:\Users\Petro\AppData\Local\Temp\cctBT5Gy.s 			page 4


 147:.\Generated_Source\PSoC4/BLE_gatt.c **** * \return
 148:.\Generated_Source\PSoC4/BLE_gatt.c **** *  * CYBLE_GATT_ERR_CODE_T: An API result returns one of the following status 
 149:.\Generated_Source\PSoC4/BLE_gatt.c **** *     values
 150:.\Generated_Source\PSoC4/BLE_gatt.c **** *  * CYBLE_GATT_ERR_NONE - Write is successful.
 151:.\Generated_Source\PSoC4/BLE_gatt.c **** * 
 152:.\Generated_Source\PSoC4/BLE_gatt.c **** ******************************************************************************/
 153:.\Generated_Source\PSoC4/BLE_gatt.c **** CYBLE_GATT_ERR_CODE_T CyBle_GattsWriteEventHandler(CYBLE_GATTS_WRITE_REQ_PARAM_T *eventParam)
 154:.\Generated_Source\PSoC4/BLE_gatt.c **** {
 155:.\Generated_Source\PSoC4/BLE_gatt.c ****     CYBLE_GATT_ERR_CODE_T gattErr = CYBLE_GATT_ERR_NONE;
 156:.\Generated_Source\PSoC4/BLE_gatt.c ****     
 157:.\Generated_Source\PSoC4/BLE_gatt.c ****     /* Client Characteristic Configuration descriptor write request */
 158:.\Generated_Source\PSoC4/BLE_gatt.c ****     if(eventParam->handleValPair.attrHandle == cyBle_gatts.cccdHandle)
 159:.\Generated_Source\PSoC4/BLE_gatt.c ****     {
 160:.\Generated_Source\PSoC4/BLE_gatt.c ****         /* Store value to database */
 161:.\Generated_Source\PSoC4/BLE_gatt.c ****         gattErr = CyBle_GattsWriteAttributeValue(&eventParam->handleValPair, 0u, 
 162:.\Generated_Source\PSoC4/BLE_gatt.c ****                         &eventParam->connHandle, CYBLE_GATT_DB_PEER_INITIATED);
 163:.\Generated_Source\PSoC4/BLE_gatt.c ****         
 164:.\Generated_Source\PSoC4/BLE_gatt.c ****         if(CYBLE_GATT_ERR_NONE == gattErr)
 165:.\Generated_Source\PSoC4/BLE_gatt.c ****         {
 166:.\Generated_Source\PSoC4/BLE_gatt.c ****             if(CYBLE_IS_INDICATION_ENABLED_IN_PTR(eventParam->handleValPair.value.val))
 167:.\Generated_Source\PSoC4/BLE_gatt.c ****             {
 168:.\Generated_Source\PSoC4/BLE_gatt.c ****                 CyBle_ApplCallback((uint32)CYBLE_EVT_GATTS_INDICATION_ENABLED, eventParam);
 169:.\Generated_Source\PSoC4/BLE_gatt.c ****             }
 170:.\Generated_Source\PSoC4/BLE_gatt.c ****             else
 171:.\Generated_Source\PSoC4/BLE_gatt.c ****             {
 172:.\Generated_Source\PSoC4/BLE_gatt.c ****                 CyBle_ApplCallback((uint32)CYBLE_EVT_GATTS_INDICATION_DISABLED, eventParam);
 173:.\Generated_Source\PSoC4/BLE_gatt.c ****             }
 174:.\Generated_Source\PSoC4/BLE_gatt.c ****         }
 175:.\Generated_Source\PSoC4/BLE_gatt.c ****         cyBle_eventHandlerFlag &= (uint8)~CYBLE_CALLBACK;
 176:.\Generated_Source\PSoC4/BLE_gatt.c ****     }
 177:.\Generated_Source\PSoC4/BLE_gatt.c ****     return (gattErr);
 178:.\Generated_Source\PSoC4/BLE_gatt.c **** }
 179:.\Generated_Source\PSoC4/BLE_gatt.c **** 
 180:.\Generated_Source\PSoC4/BLE_gatt.c **** 
 181:.\Generated_Source\PSoC4/BLE_gatt.c **** #endif /* (CYBLE_GATT_ROLE_SERVER) */
 182:.\Generated_Source\PSoC4/BLE_gatt.c **** 
 183:.\Generated_Source\PSoC4/BLE_gatt.c **** #if(CYBLE_GATT_ROLE_CLIENT)
 184:.\Generated_Source\PSoC4/BLE_gatt.c **** 
 185:.\Generated_Source\PSoC4/BLE_gatt.c **** 
 186:.\Generated_Source\PSoC4/BLE_gatt.c **** /****************************************************************************** 
 187:.\Generated_Source\PSoC4/BLE_gatt.c **** * Function Name: CyBle_GattcStartDiscovery
 188:.\Generated_Source\PSoC4/BLE_gatt.c **** ***************************************************************************//**
 189:.\Generated_Source\PSoC4/BLE_gatt.c **** * 
 190:.\Generated_Source\PSoC4/BLE_gatt.c **** *  Starts the automatic server discovery process. Two events may be generated 
 191:.\Generated_Source\PSoC4/BLE_gatt.c **** *  after calling this function - CYBLE_EVT_GATTC_DISCOVERY_COMPLETE or 
 192:.\Generated_Source\PSoC4/BLE_gatt.c **** *  CYBLE_EVT_GATTC_ERROR_RSP. The CYBLE_EVT_GATTC_DISCOVERY_COMPLETE event is 
 193:.\Generated_Source\PSoC4/BLE_gatt.c **** *  generated when the remote device was successfully discovered. The
 194:.\Generated_Source\PSoC4/BLE_gatt.c **** *  CYBLE_EVT_GATTC_ERROR_RSP is generated if the device discovery is failed.
 195:.\Generated_Source\PSoC4/BLE_gatt.c **** * 
 196:.\Generated_Source\PSoC4/BLE_gatt.c **** *  \param connHandle: The handle which consists of the device ID and ATT connection ID.
 197:.\Generated_Source\PSoC4/BLE_gatt.c **** * 
 198:.\Generated_Source\PSoC4/BLE_gatt.c **** * \return
 199:.\Generated_Source\PSoC4/BLE_gatt.c **** *	CYBLE_API_RESULT_T : Return value indicates if the function succeeded or
 200:.\Generated_Source\PSoC4/BLE_gatt.c **** *                        failed. Following are the possible error codes.
 201:.\Generated_Source\PSoC4/BLE_gatt.c **** *
 202:.\Generated_Source\PSoC4/BLE_gatt.c **** *   <table>	
 203:.\Generated_Source\PSoC4/BLE_gatt.c **** *   <tr>
ARM GAS  C:\Users\Petro\AppData\Local\Temp\cctBT5Gy.s 			page 5


 204:.\Generated_Source\PSoC4/BLE_gatt.c **** *	  <th>Errors codes</th>
 205:.\Generated_Source\PSoC4/BLE_gatt.c **** *	  <th>Description</th>
 206:.\Generated_Source\PSoC4/BLE_gatt.c **** *	</tr>
 207:.\Generated_Source\PSoC4/BLE_gatt.c **** *	<tr>
 208:.\Generated_Source\PSoC4/BLE_gatt.c **** *	  <td>CYBLE_ERROR_OK</td>
 209:.\Generated_Source\PSoC4/BLE_gatt.c **** *	  <td>On successful operation</td>
 210:.\Generated_Source\PSoC4/BLE_gatt.c **** *	</tr>
 211:.\Generated_Source\PSoC4/BLE_gatt.c **** *	<tr>
 212:.\Generated_Source\PSoC4/BLE_gatt.c **** *	  <td>CYBLE_ERROR_INVALID_PARAMETER</td>
 213:.\Generated_Source\PSoC4/BLE_gatt.c **** *	  <td>'connHandle' value does not represent any existing entry.</td>
 214:.\Generated_Source\PSoC4/BLE_gatt.c **** *	</tr>
 215:.\Generated_Source\PSoC4/BLE_gatt.c **** *	<tr>
 216:.\Generated_Source\PSoC4/BLE_gatt.c **** *	  <td>CYBLE_ERROR_INVALID_OPERATION</td>
 217:.\Generated_Source\PSoC4/BLE_gatt.c **** *	  <td>The operation is not permitted</td>
 218:.\Generated_Source\PSoC4/BLE_gatt.c **** *	</tr>
 219:.\Generated_Source\PSoC4/BLE_gatt.c **** *   <tr>
 220:.\Generated_Source\PSoC4/BLE_gatt.c **** *	  <td>CYBLE_ERROR_MEMORY_ALLOCATION_FAILED</td>
 221:.\Generated_Source\PSoC4/BLE_gatt.c **** *	  <td>Memory allocation failed</td>
 222:.\Generated_Source\PSoC4/BLE_gatt.c **** *	</tr>
 223:.\Generated_Source\PSoC4/BLE_gatt.c **** *   <tr>
 224:.\Generated_Source\PSoC4/BLE_gatt.c **** *	  <td>CYBLE_ERROR_INVALID_STATE</td>
 225:.\Generated_Source\PSoC4/BLE_gatt.c **** *	  <td>If the function is called in any state except connected or discovered</td>
 226:.\Generated_Source\PSoC4/BLE_gatt.c **** *	</tr>
 227:.\Generated_Source\PSoC4/BLE_gatt.c **** *   </table>
 228:.\Generated_Source\PSoC4/BLE_gatt.c **** * 
 229:.\Generated_Source\PSoC4/BLE_gatt.c **** ******************************************************************************/
 230:.\Generated_Source\PSoC4/BLE_gatt.c **** CYBLE_API_RESULT_T CyBle_GattcStartDiscovery(CYBLE_CONN_HANDLE_T connHandle)
 231:.\Generated_Source\PSoC4/BLE_gatt.c **** {
  26              		.loc 1 231 0
  27              		.cfi_startproc
  28 0000 00B5     		push	{lr}
  29              		.cfi_def_cfa_offset 4
  30              		.cfi_offset 14, -4
  31 0002 83B0     		sub	sp, sp, #12
  32              		.cfi_def_cfa_offset 16
  33 0004 01AB     		add	r3, sp, #4
  34 0006 1880     		strh	r0, [r3]
 232:.\Generated_Source\PSoC4/BLE_gatt.c ****     uint8 j;
 233:.\Generated_Source\PSoC4/BLE_gatt.c ****     CYBLE_API_RESULT_T apiResult;
 234:.\Generated_Source\PSoC4/BLE_gatt.c ****     
 235:.\Generated_Source\PSoC4/BLE_gatt.c ****     if((CyBle_GetState() != CYBLE_STATE_CONNECTED) || 
  35              		.loc 1 235 0
  36 0008 194B     		ldr	r3, .L8
  37 000a 1B78     		ldrb	r3, [r3]
  38 000c 022B     		cmp	r3, #2
  39 000e 28D1     		bne	.L6
 236:.\Generated_Source\PSoC4/BLE_gatt.c ****        ((CyBle_GetClientState() != CYBLE_CLIENT_STATE_CONNECTED) && 
  40              		.loc 1 236 0 discriminator 1
  41 0010 184B     		ldr	r3, .L8+4
  42 0012 1B78     		ldrb	r3, [r3]
 235:.\Generated_Source\PSoC4/BLE_gatt.c ****        ((CyBle_GetClientState() != CYBLE_CLIENT_STATE_CONNECTED) && 
  43              		.loc 1 235 0 discriminator 1
  44 0014 002B     		cmp	r3, #0
  45 0016 01D0     		beq	.L3
  46              		.loc 1 236 0
  47 0018 052B     		cmp	r3, #5
  48 001a 25D1     		bne	.L7
ARM GAS  C:\Users\Petro\AppData\Local\Temp\cctBT5Gy.s 			page 6


  49              	.L3:
 237:.\Generated_Source\PSoC4/BLE_gatt.c ****         (CyBle_GetClientState() != CYBLE_CLIENT_STATE_DISCOVERED))) 
 238:.\Generated_Source\PSoC4/BLE_gatt.c ****     {
 239:.\Generated_Source\PSoC4/BLE_gatt.c ****         apiResult = CYBLE_ERROR_INVALID_STATE;
 240:.\Generated_Source\PSoC4/BLE_gatt.c ****     }
 241:.\Generated_Source\PSoC4/BLE_gatt.c ****     else
 242:.\Generated_Source\PSoC4/BLE_gatt.c ****     {
 243:.\Generated_Source\PSoC4/BLE_gatt.c ****         CyBle_ServiceInit();
  50              		.loc 1 243 0
  51 001c FFF7FEFF 		bl	CyBle_ServiceInit
  52              	.LVL0:
 244:.\Generated_Source\PSoC4/BLE_gatt.c ****         
 245:.\Generated_Source\PSoC4/BLE_gatt.c ****         cyBle_connHandle = connHandle;
  53              		.loc 1 245 0
  54 0020 1548     		ldr	r0, .L8+8
  55 0022 01A9     		add	r1, sp, #4
  56 0024 0222     		mov	r2, #2
  57 0026 FFF7FEFF 		bl	memcpy
  58              	.LVL1:
 246:.\Generated_Source\PSoC4/BLE_gatt.c **** 
 247:.\Generated_Source\PSoC4/BLE_gatt.c ****         /* Clean old discovery information */
 248:.\Generated_Source\PSoC4/BLE_gatt.c ****         for(j = 0u; j < (uint8) CYBLE_SRVI_COUNT; j++)
  59              		.loc 1 248 0
  60 002a 0023     		mov	r3, #0
  61 002c 09E0     		b	.L4
  62              	.LVL2:
  63              	.L5:
 249:.\Generated_Source\PSoC4/BLE_gatt.c ****         {
 250:.\Generated_Source\PSoC4/BLE_gatt.c ****             (void)memset(&cyBle_serverInfo[j].range, 0, sizeof(cyBle_serverInfo[0].range));
  64              		.loc 1 250 0 discriminator 3
  65 002e 5A00     		lsl	r2, r3, #1
  66 0030 D218     		add	r2, r2, r3
  67 0032 5200     		lsl	r2, r2, #1
  68 0034 1149     		ldr	r1, .L8+12
  69 0036 5218     		add	r2, r2, r1
  70 0038 0021     		mov	r1, #0
  71 003a 1180     		strh	r1, [r2]
  72 003c 5180     		strh	r1, [r2, #2]
 248:.\Generated_Source\PSoC4/BLE_gatt.c ****         {
  73              		.loc 1 248 0 discriminator 3
  74 003e 0133     		add	r3, r3, #1
  75              	.LVL3:
  76 0040 DBB2     		uxtb	r3, r3
  77              	.LVL4:
  78              	.L4:
 248:.\Generated_Source\PSoC4/BLE_gatt.c ****         {
  79              		.loc 1 248 0 is_stmt 0 discriminator 1
  80 0042 022B     		cmp	r3, #2
  81 0044 F3D9     		bls	.L5
 251:.\Generated_Source\PSoC4/BLE_gatt.c ****         }
 252:.\Generated_Source\PSoC4/BLE_gatt.c **** 
 253:.\Generated_Source\PSoC4/BLE_gatt.c ****         apiResult = CyBle_GattcDiscoverAllPrimaryServices(connHandle);
  82              		.loc 1 253 0 is_stmt 1
  83 0046 0198     		ldr	r0, [sp, #4]
  84 0048 FFF7FEFF 		bl	CyBle_GattcDiscoverAllPrimaryServices
  85              	.LVL5:
 254:.\Generated_Source\PSoC4/BLE_gatt.c **** 
ARM GAS  C:\Users\Petro\AppData\Local\Temp\cctBT5Gy.s 			page 7


 255:.\Generated_Source\PSoC4/BLE_gatt.c ****         if(CYBLE_ERROR_OK == apiResult)
  86              		.loc 1 255 0
  87 004c 0028     		cmp	r0, #0
  88 004e 0DD1     		bne	.L2
 256:.\Generated_Source\PSoC4/BLE_gatt.c ****         {
 257:.\Generated_Source\PSoC4/BLE_gatt.c ****             CyBle_SetClientState(CYBLE_CLIENT_STATE_SRVC_DISCOVERING);
  89              		.loc 1 257 0
  90 0050 0122     		mov	r2, #1
  91 0052 084B     		ldr	r3, .L8+4
  92 0054 1A70     		strb	r2, [r3]
 258:.\Generated_Source\PSoC4/BLE_gatt.c ****             cyBle_eventHandlerFlag |= CYBLE_AUTO_DISCOVERY;
  93              		.loc 1 258 0
  94 0056 0A4A     		ldr	r2, .L8+16
  95 0058 1178     		ldrb	r1, [r2]
  96 005a 0223     		mov	r3, #2
  97 005c 0B43     		orr	r3, r1
  98 005e 1370     		strb	r3, [r2]
  99 0060 04E0     		b	.L2
 100              	.LVL6:
 101              	.L6:
 239:.\Generated_Source\PSoC4/BLE_gatt.c ****     }
 102              		.loc 1 239 0
 103 0062 0420     		mov	r0, #4
 104 0064 FF30     		add	r0, r0, #255
 105 0066 01E0     		b	.L2
 106              	.L7:
 107 0068 0420     		mov	r0, #4
 108 006a FF30     		add	r0, r0, #255
 109              	.L2:
 110              	.LVL7:
 259:.\Generated_Source\PSoC4/BLE_gatt.c ****         }
 260:.\Generated_Source\PSoC4/BLE_gatt.c ****     }
 261:.\Generated_Source\PSoC4/BLE_gatt.c ****     
 262:.\Generated_Source\PSoC4/BLE_gatt.c ****     return (apiResult);
 263:.\Generated_Source\PSoC4/BLE_gatt.c **** }
 111              		.loc 1 263 0
 112 006c 03B0     		add	sp, sp, #12
 113              		@ sp needed
 114 006e 00BD     		pop	{pc}
 115              	.L9:
 116              		.align	2
 117              	.L8:
 118 0070 00000000 		.word	cyBle_state
 119 0074 00000000 		.word	cyBle_clientState
 120 0078 00000000 		.word	cyBle_connHandle
 121 007c 00000000 		.word	cyBle_serverInfo
 122 0080 00000000 		.word	cyBle_eventHandlerFlag
 123              		.cfi_endproc
 124              	.LFE2:
 125              		.size	CyBle_GattcStartDiscovery, .-CyBle_GattcStartDiscovery
 126              		.section	.text.CyBle_GattcDiscoverCharacteristicsEventHandler,"ax",%progbits
 127              		.align	2
 128              		.global	CyBle_GattcDiscoverCharacteristicsEventHandler
 129              		.code	16
 130              		.thumb_func
 131              		.type	CyBle_GattcDiscoverCharacteristicsEventHandler, %function
 132              	CyBle_GattcDiscoverCharacteristicsEventHandler:
ARM GAS  C:\Users\Petro\AppData\Local\Temp\cctBT5Gy.s 			page 8


 133              	.LFB3:
 264:.\Generated_Source\PSoC4/BLE_gatt.c **** 
 265:.\Generated_Source\PSoC4/BLE_gatt.c **** 
 266:.\Generated_Source\PSoC4/BLE_gatt.c **** /******************************************************************************
 267:.\Generated_Source\PSoC4/BLE_gatt.c **** * Function Name: CyBle_GattcDiscoverCharacteristicsEventHandler
 268:.\Generated_Source\PSoC4/BLE_gatt.c **** ***************************************************************************//**
 269:.\Generated_Source\PSoC4/BLE_gatt.c **** * 
 270:.\Generated_Source\PSoC4/BLE_gatt.c **** *  This function is called on receiving a "CYBLE_EVT_GATTC_READ_BY_TYPE_RSP"
 271:.\Generated_Source\PSoC4/BLE_gatt.c **** *  event. Based on the service UUID, an appropriate data structure is populated
 272:.\Generated_Source\PSoC4/BLE_gatt.c **** *  using the data received as part of the callback.
 273:.\Generated_Source\PSoC4/BLE_gatt.c **** * 
 274:.\Generated_Source\PSoC4/BLE_gatt.c **** *  \param *discCharInfo: The pointer to a characteristic information structure.
 275:.\Generated_Source\PSoC4/BLE_gatt.c **** * 
 276:.\Generated_Source\PSoC4/BLE_gatt.c **** * \return
 277:.\Generated_Source\PSoC4/BLE_gatt.c **** *  None
 278:.\Generated_Source\PSoC4/BLE_gatt.c **** * 
 279:.\Generated_Source\PSoC4/BLE_gatt.c **** ******************************************************************************/
 280:.\Generated_Source\PSoC4/BLE_gatt.c **** void CyBle_GattcDiscoverCharacteristicsEventHandler(CYBLE_DISC_CHAR_INFO_T *discCharInfo)
 281:.\Generated_Source\PSoC4/BLE_gatt.c **** {
 134              		.loc 1 281 0
 135              		.cfi_startproc
 136              	.LVL8:
 137 0000 08B5     		push	{r3, lr}
 138              		.cfi_def_cfa_offset 8
 139              		.cfi_offset 3, -8
 140              		.cfi_offset 14, -4
 282:.\Generated_Source\PSoC4/BLE_gatt.c ****     if(discCharInfo->uuid.uuid16 == CYBLE_UUID_CHAR_SERVICE_CHANGED)
 141              		.loc 1 282 0
 142 0002 C288     		ldrh	r2, [r0, #6]
 143 0004 094B     		ldr	r3, .L13
 144 0006 9A42     		cmp	r2, r3
 145 0008 0FD1     		bne	.L10
 283:.\Generated_Source\PSoC4/BLE_gatt.c ****     {
 284:.\Generated_Source\PSoC4/BLE_gatt.c ****         CyBle_CheckStoreCharHandle(cyBle_gattc.serviceChanged);
 146              		.loc 1 284 0
 147 000a 094B     		ldr	r3, .L13+4
 148 000c 5B88     		ldrh	r3, [r3, #2]
 149 000e 002B     		cmp	r3, #0
 150 0010 05D1     		bne	.L12
 151              		.loc 1 284 0 is_stmt 0 discriminator 1
 152 0012 8288     		ldrh	r2, [r0, #4]
 153 0014 064B     		ldr	r3, .L13+4
 154 0016 5A80     		strh	r2, [r3, #2]
 155 0018 8278     		ldrb	r2, [r0, #2]
 156 001a 1A70     		strb	r2, [r3]
 157 001c 05E0     		b	.L10
 158              	.L12:
 159              		.loc 1 284 0 discriminator 2
 160 001e 811D     		add	r1, r0, #6
 161 0020 044B     		ldr	r3, .L13+8
 162 0022 1B68     		ldr	r3, [r3]
 163 0024 8620     		mov	r0, #134
 164              	.LVL9:
 165 0026 4000     		lsl	r0, r0, #1
 166 0028 9847     		blx	r3
 167              	.LVL10:
 168              	.L10:
ARM GAS  C:\Users\Petro\AppData\Local\Temp\cctBT5Gy.s 			page 9


 285:.\Generated_Source\PSoC4/BLE_gatt.c ****     }
 286:.\Generated_Source\PSoC4/BLE_gatt.c **** }
 169              		.loc 1 286 0 is_stmt 1
 170              		@ sp needed
 171 002a 08BD     		pop	{r3, pc}
 172              	.L14:
 173              		.align	2
 174              	.L13:
 175 002c 052A0000 		.word	10757
 176 0030 00000000 		.word	cyBle_gattc
 177 0034 00000000 		.word	CyBle_ApplCallback
 178              		.cfi_endproc
 179              	.LFE3:
 180              		.size	CyBle_GattcDiscoverCharacteristicsEventHandler, .-CyBle_GattcDiscoverCharacteristicsEventHan
 181              		.section	.text.CyBle_GattcDiscoverCharDescriptorsEventHandler,"ax",%progbits
 182              		.align	2
 183              		.global	CyBle_GattcDiscoverCharDescriptorsEventHandler
 184              		.code	16
 185              		.thumb_func
 186              		.type	CyBle_GattcDiscoverCharDescriptorsEventHandler, %function
 187              	CyBle_GattcDiscoverCharDescriptorsEventHandler:
 188              	.LFB4:
 287:.\Generated_Source\PSoC4/BLE_gatt.c **** 
 288:.\Generated_Source\PSoC4/BLE_gatt.c **** 
 289:.\Generated_Source\PSoC4/BLE_gatt.c **** /******************************************************************************
 290:.\Generated_Source\PSoC4/BLE_gatt.c **** * Function Name: CyBle_GattcDiscoverCharDescriptorsEventHandler
 291:.\Generated_Source\PSoC4/BLE_gatt.c **** ***************************************************************************//**
 292:.\Generated_Source\PSoC4/BLE_gatt.c **** * 
 293:.\Generated_Source\PSoC4/BLE_gatt.c **** *  This function is called on receiving a "CYBLE_EVT_GATTC_FIND_INFO_RSP" event.
 294:.\Generated_Source\PSoC4/BLE_gatt.c **** *  Based on the descriptor UUID, an appropriate data structure is populated 
 295:.\Generated_Source\PSoC4/BLE_gatt.c **** *  using the data received as part of the callback.
 296:.\Generated_Source\PSoC4/BLE_gatt.c **** * 
 297:.\Generated_Source\PSoC4/BLE_gatt.c **** *  \param *discDescrInfo: The pointer to a descriptor information structure.
 298:.\Generated_Source\PSoC4/BLE_gatt.c **** *  \param discoveryService: The index of the service instance
 299:.\Generated_Source\PSoC4/BLE_gatt.c **** * 
 300:.\Generated_Source\PSoC4/BLE_gatt.c **** * \return
 301:.\Generated_Source\PSoC4/BLE_gatt.c **** *  None
 302:.\Generated_Source\PSoC4/BLE_gatt.c **** * 
 303:.\Generated_Source\PSoC4/BLE_gatt.c **** ******************************************************************************/
 304:.\Generated_Source\PSoC4/BLE_gatt.c **** void CyBle_GattcDiscoverCharDescriptorsEventHandler(CYBLE_DISC_DESCR_INFO_T *discDescrInfo)
 305:.\Generated_Source\PSoC4/BLE_gatt.c **** {
 189              		.loc 1 305 0
 190              		.cfi_startproc
 191              	.LVL11:
 192 0000 08B5     		push	{r3, lr}
 193              		.cfi_def_cfa_offset 8
 194              		.cfi_offset 3, -8
 195              		.cfi_offset 14, -4
 306:.\Generated_Source\PSoC4/BLE_gatt.c ****     if(discDescrInfo->uuid.uuid16 == CYBLE_UUID_CHAR_CLIENT_CONFIG)
 196              		.loc 1 306 0
 197 0002 8288     		ldrh	r2, [r0, #4]
 198 0004 084B     		ldr	r3, .L18
 199 0006 9A42     		cmp	r2, r3
 200 0008 0DD1     		bne	.L15
 307:.\Generated_Source\PSoC4/BLE_gatt.c ****     {
 308:.\Generated_Source\PSoC4/BLE_gatt.c ****         CyBle_CheckStoreCharDescrHandle(cyBle_gattc.cccdHandle);
 201              		.loc 1 308 0
ARM GAS  C:\Users\Petro\AppData\Local\Temp\cctBT5Gy.s 			page 10


 202 000a 084B     		ldr	r3, .L18+4
 203 000c 9B88     		ldrh	r3, [r3, #4]
 204 000e 002B     		cmp	r3, #0
 205 0010 03D1     		bne	.L17
 206              		.loc 1 308 0 is_stmt 0 discriminator 1
 207 0012 4288     		ldrh	r2, [r0, #2]
 208 0014 054B     		ldr	r3, .L18+4
 209 0016 9A80     		strh	r2, [r3, #4]
 210 0018 05E0     		b	.L15
 211              	.L17:
 212              		.loc 1 308 0 discriminator 2
 213 001a 011D     		add	r1, r0, #4
 214 001c 044B     		ldr	r3, .L18+8
 215 001e 1B68     		ldr	r3, [r3]
 216 0020 8620     		mov	r0, #134
 217              	.LVL12:
 218 0022 4000     		lsl	r0, r0, #1
 219 0024 9847     		blx	r3
 220              	.LVL13:
 221              	.L15:
 309:.\Generated_Source\PSoC4/BLE_gatt.c ****     }
 310:.\Generated_Source\PSoC4/BLE_gatt.c **** }
 222              		.loc 1 310 0 is_stmt 1
 223              		@ sp needed
 224 0026 08BD     		pop	{r3, pc}
 225              	.L19:
 226              		.align	2
 227              	.L18:
 228 0028 02290000 		.word	10498
 229 002c 00000000 		.word	cyBle_gattc
 230 0030 00000000 		.word	CyBle_ApplCallback
 231              		.cfi_endproc
 232              	.LFE4:
 233              		.size	CyBle_GattcDiscoverCharDescriptorsEventHandler, .-CyBle_GattcDiscoverCharDescriptorsEventHan
 234              		.section	.text.CyBle_GattcIndicationEventHandler,"ax",%progbits
 235              		.align	2
 236              		.global	CyBle_GattcIndicationEventHandler
 237              		.code	16
 238              		.thumb_func
 239              		.type	CyBle_GattcIndicationEventHandler, %function
 240              	CyBle_GattcIndicationEventHandler:
 241              	.LFB5:
 311:.\Generated_Source\PSoC4/BLE_gatt.c **** 
 312:.\Generated_Source\PSoC4/BLE_gatt.c **** 
 313:.\Generated_Source\PSoC4/BLE_gatt.c **** /******************************************************************************
 314:.\Generated_Source\PSoC4/BLE_gatt.c **** * Function Name: CyBle_GattcIndicationEventHandler
 315:.\Generated_Source\PSoC4/BLE_gatt.c **** ***************************************************************************//**
 316:.\Generated_Source\PSoC4/BLE_gatt.c **** * 
 317:.\Generated_Source\PSoC4/BLE_gatt.c **** *  Handles the Indication Event.
 318:.\Generated_Source\PSoC4/BLE_gatt.c **** * 
 319:.\Generated_Source\PSoC4/BLE_gatt.c **** *  \param *eventParam: The pointer to the data structure specified by the event.
 320:.\Generated_Source\PSoC4/BLE_gatt.c **** * 
 321:.\Generated_Source\PSoC4/BLE_gatt.c **** * \return
 322:.\Generated_Source\PSoC4/BLE_gatt.c **** *  None.
 323:.\Generated_Source\PSoC4/BLE_gatt.c **** * 
 324:.\Generated_Source\PSoC4/BLE_gatt.c **** ******************************************************************************/
 325:.\Generated_Source\PSoC4/BLE_gatt.c **** void CyBle_GattcIndicationEventHandler(CYBLE_GATTC_HANDLE_VALUE_IND_PARAM_T *eventParam)
ARM GAS  C:\Users\Petro\AppData\Local\Temp\cctBT5Gy.s 			page 11


 326:.\Generated_Source\PSoC4/BLE_gatt.c **** {
 242              		.loc 1 326 0
 243              		.cfi_startproc
 244              	.LVL14:
 245 0000 08B5     		push	{r3, lr}
 246              		.cfi_def_cfa_offset 8
 247              		.cfi_offset 3, -8
 248              		.cfi_offset 14, -4
 327:.\Generated_Source\PSoC4/BLE_gatt.c ****     if(cyBle_gattc.serviceChanged.valueHandle == eventParam->handleValPair.attrHandle)
 249              		.loc 1 327 0
 250 0002 084B     		ldr	r3, .L22
 251 0004 5A88     		ldrh	r2, [r3, #2]
 252 0006 8389     		ldrh	r3, [r0, #12]
 253 0008 9A42     		cmp	r2, r3
 254 000a 0AD1     		bne	.L20
 255 000c 011C     		mov	r1, r0
 328:.\Generated_Source\PSoC4/BLE_gatt.c ****     {
 329:.\Generated_Source\PSoC4/BLE_gatt.c ****         CyBle_ApplCallback((uint32)CYBLE_EVT_GATTC_INDICATION, eventParam);
 256              		.loc 1 329 0
 257 000e 064B     		ldr	r3, .L22+4
 258 0010 1B68     		ldr	r3, [r3]
 259 0012 8320     		mov	r0, #131
 260              	.LVL15:
 261 0014 4000     		lsl	r0, r0, #1
 262 0016 9847     		blx	r3
 263              	.LVL16:
 330:.\Generated_Source\PSoC4/BLE_gatt.c ****         cyBle_eventHandlerFlag &= (uint8)~CYBLE_CALLBACK;
 264              		.loc 1 330 0
 265 0018 044A     		ldr	r2, .L22+8
 266 001a 1378     		ldrb	r3, [r2]
 267 001c 0121     		mov	r1, #1
 268 001e 8B43     		bic	r3, r1
 269 0020 1370     		strb	r3, [r2]
 270              	.L20:
 331:.\Generated_Source\PSoC4/BLE_gatt.c ****     }
 332:.\Generated_Source\PSoC4/BLE_gatt.c **** }
 271              		.loc 1 332 0
 272              		@ sp needed
 273 0022 08BD     		pop	{r3, pc}
 274              	.L23:
 275              		.align	2
 276              	.L22:
 277 0024 00000000 		.word	cyBle_gattc
 278 0028 00000000 		.word	CyBle_ApplCallback
 279 002c 00000000 		.word	cyBle_eventHandlerFlag
 280              		.cfi_endproc
 281              	.LFE5:
 282              		.size	CyBle_GattcIndicationEventHandler, .-CyBle_GattcIndicationEventHandler
 283              		.comm	cyBle_gattc,6,4
 284              		.comm	cyBle_clientState,1,1
 285              		.global	cyBle_flashStorage
 286              		.comm	cyBle_state,1,1
 287              		.section	.cy_checksum_exclude,"a",%progbits
 288              		.align	7
 289              		.type	cyBle_flashStorage, %object
 290              		.size	cyBle_flashStorage, 372
 291              	cyBle_flashStorage:
ARM GAS  C:\Users\Petro\AppData\Local\Temp\cctBT5Gy.s 			page 12


 292 0000 00       		.byte	0
 293 0001 00       		.byte	0
 294 0002 00       		.byte	0
 295 0003 00       		.byte	0
 296 0004 00       		.byte	0
 297 0005 00       		.byte	0
 298 0006 00       		.byte	0
 299 0007 00       		.byte	0
 300 0008 00       		.byte	0
 301 0009 00       		.byte	0
 302 000a 00       		.byte	0
 303 000b 00       		.byte	0
 304 000c 00       		.byte	0
 305 000d 00       		.byte	0
 306 000e 00       		.byte	0
 307 000f 00       		.byte	0
 308 0010 00       		.byte	0
 309 0011 00       		.byte	0
 310 0012 00       		.byte	0
 311 0013 00       		.byte	0
 312 0014 00       		.byte	0
 313 0015 00       		.byte	0
 314 0016 00       		.byte	0
 315 0017 00       		.byte	0
 316 0018 00       		.byte	0
 317 0019 00       		.byte	0
 318 001a 00       		.byte	0
 319 001b 00       		.byte	0
 320 001c 00       		.byte	0
 321 001d 00       		.byte	0
 322 001e 00       		.byte	0
 323 001f 00       		.byte	0
 324 0020 00       		.byte	0
 325 0021 00       		.byte	0
 326 0022 00       		.byte	0
 327 0023 00       		.byte	0
 328 0024 00       		.byte	0
 329 0025 00       		.byte	0
 330 0026 00       		.byte	0
 331 0027 00       		.byte	0
 332 0028 00       		.byte	0
 333 0029 00       		.byte	0
 334 002a 00       		.byte	0
 335 002b 00       		.byte	0
 336 002c 00       		.byte	0
 337 002d 00       		.byte	0
 338 002e 00       		.byte	0
 339 002f 00       		.byte	0
 340 0030 00       		.byte	0
 341 0031 00       		.byte	0
 342 0032 00       		.byte	0
 343 0033 00       		.byte	0
 344 0034 00       		.byte	0
 345 0035 00       		.byte	0
 346 0036 00       		.byte	0
 347 0037 00       		.byte	0
 348 0038 00       		.byte	0
ARM GAS  C:\Users\Petro\AppData\Local\Temp\cctBT5Gy.s 			page 13


 349 0039 00       		.byte	0
 350 003a 00       		.byte	0
 351 003b 00       		.byte	0
 352 003c 00       		.byte	0
 353 003d 00       		.byte	0
 354 003e 00       		.byte	0
 355 003f 00       		.byte	0
 356 0040 00       		.byte	0
 357 0041 00       		.byte	0
 358 0042 00       		.byte	0
 359 0043 00       		.byte	0
 360 0044 00       		.byte	0
 361 0045 00       		.byte	0
 362 0046 00       		.byte	0
 363 0047 00       		.byte	0
 364 0048 00       		.byte	0
 365 0049 00       		.byte	0
 366 004a 00       		.byte	0
 367 004b 00       		.byte	0
 368 004c 00       		.byte	0
 369 004d 00       		.byte	0
 370 004e 00       		.byte	0
 371 004f 00       		.byte	0
 372 0050 00       		.byte	0
 373 0051 00       		.byte	0
 374 0052 00       		.byte	0
 375 0053 00       		.byte	0
 376 0054 00       		.byte	0
 377 0055 00       		.byte	0
 378 0056 00       		.byte	0
 379 0057 00       		.byte	0
 380 0058 00       		.byte	0
 381 0059 00       		.byte	0
 382 005a 00       		.byte	0
 383 005b 00       		.byte	0
 384 005c 00       		.byte	0
 385 005d 00       		.byte	0
 386 005e 00       		.byte	0
 387 005f 00       		.byte	0
 388 0060 00       		.byte	0
 389 0061 00       		.byte	0
 390 0062 00       		.byte	0
 391 0063 00       		.byte	0
 392 0064 00       		.byte	0
 393 0065 00       		.byte	0
 394 0066 00       		.byte	0
 395 0067 00       		.byte	0
 396 0068 00       		.byte	0
 397 0069 00       		.byte	0
 398 006a 00       		.byte	0
 399 006b 00       		.byte	0
 400 006c 00       		.byte	0
 401 006d 00       		.byte	0
 402 006e 00       		.byte	0
 403 006f 00       		.byte	0
 404 0070 00       		.byte	0
 405 0071 00       		.byte	0
ARM GAS  C:\Users\Petro\AppData\Local\Temp\cctBT5Gy.s 			page 14


 406 0072 00       		.byte	0
 407 0073 00       		.byte	0
 408 0074 00       		.byte	0
 409 0075 00       		.byte	0
 410 0076 00       		.byte	0
 411 0077 00       		.byte	0
 412 0078 00       		.byte	0
 413 0079 00       		.byte	0
 414 007a 00       		.byte	0
 415 007b 00       		.byte	0
 416 007c 00       		.byte	0
 417 007d 00       		.byte	0
 418 007e 00       		.byte	0
 419 007f 00       		.byte	0
 420 0080 00       		.byte	0
 421 0081 00       		.byte	0
 422 0082 00       		.byte	0
 423 0083 00       		.byte	0
 424 0084 00       		.byte	0
 425 0085 00       		.byte	0
 426 0086 00       		.byte	0
 427 0087 00       		.byte	0
 428 0088 00       		.byte	0
 429 0089 00       		.byte	0
 430 008a 00       		.byte	0
 431 008b 00       		.byte	0
 432 008c 00       		.byte	0
 433 008d 00       		.byte	0
 434 008e 00       		.byte	0
 435 008f 00       		.byte	0
 436 0090 00       		.byte	0
 437 0091 00       		.byte	0
 438 0092 00       		.byte	0
 439 0093 00       		.byte	0
 440 0094 00       		.byte	0
 441 0095 00       		.byte	0
 442 0096 00       		.byte	0
 443 0097 00       		.byte	0
 444 0098 00       		.byte	0
 445 0099 00       		.byte	0
 446 009a 00       		.byte	0
 447 009b 00       		.byte	0
 448 009c 00       		.byte	0
 449 009d 00       		.byte	0
 450 009e 00       		.byte	0
 451 009f 00       		.byte	0
 452 00a0 00       		.byte	0
 453 00a1 00       		.byte	0
 454 00a2 00       		.byte	0
 455 00a3 00       		.byte	0
 456 00a4 00       		.byte	0
 457 00a5 00       		.byte	0
 458 00a6 00       		.byte	0
 459 00a7 00       		.byte	0
 460 00a8 00       		.byte	0
 461 00a9 00       		.byte	0
 462 00aa 00       		.byte	0
ARM GAS  C:\Users\Petro\AppData\Local\Temp\cctBT5Gy.s 			page 15


 463 00ab 00       		.byte	0
 464 00ac 00       		.byte	0
 465 00ad 00       		.byte	0
 466 00ae 00       		.byte	0
 467 00af 00       		.byte	0
 468 00b0 00       		.byte	0
 469 00b1 00       		.byte	0
 470 00b2 00       		.byte	0
 471 00b3 00       		.byte	0
 472 00b4 00       		.byte	0
 473 00b5 00       		.byte	0
 474 00b6 00       		.byte	0
 475 00b7 00       		.byte	0
 476 00b8 00       		.byte	0
 477 00b9 00       		.byte	0
 478 00ba 00       		.byte	0
 479 00bb 00       		.byte	0
 480 00bc 00       		.byte	0
 481 00bd 00       		.byte	0
 482 00be 00       		.byte	0
 483 00bf 00       		.byte	0
 484 00c0 00       		.byte	0
 485 00c1 00       		.byte	0
 486 00c2 00       		.byte	0
 487 00c3 00       		.byte	0
 488 00c4 00       		.byte	0
 489 00c5 00       		.byte	0
 490 00c6 00       		.byte	0
 491 00c7 00       		.byte	0
 492 00c8 00       		.byte	0
 493 00c9 00       		.byte	0
 494 00ca 00       		.byte	0
 495 00cb 00       		.byte	0
 496 00cc 00       		.byte	0
 497 00cd 00       		.byte	0
 498 00ce 00       		.byte	0
 499 00cf 00       		.byte	0
 500 00d0 00       		.byte	0
 501 00d1 00       		.byte	0
 502 00d2 00       		.byte	0
 503 00d3 00       		.byte	0
 504 00d4 00       		.byte	0
 505 00d5 00       		.byte	0
 506 00d6 00       		.byte	0
 507 00d7 00       		.byte	0
 508 00d8 00       		.byte	0
 509 00d9 00       		.byte	0
 510 00da 00       		.byte	0
 511 00db 00       		.byte	0
 512 00dc 00       		.byte	0
 513 00dd 00       		.byte	0
 514 00de 00       		.byte	0
 515 00df 00       		.byte	0
 516 00e0 00       		.byte	0
 517 00e1 00       		.byte	0
 518 00e2 00       		.byte	0
 519 00e3 00       		.byte	0
ARM GAS  C:\Users\Petro\AppData\Local\Temp\cctBT5Gy.s 			page 16


 520 00e4 00       		.byte	0
 521 00e5 00       		.byte	0
 522 00e6 00       		.byte	0
 523 00e7 00       		.byte	0
 524 00e8 00       		.byte	0
 525 00e9 00       		.byte	0
 526 00ea 00       		.byte	0
 527 00eb 00       		.byte	0
 528 00ec 00       		.byte	0
 529 00ed 00       		.byte	0
 530 00ee 00       		.byte	0
 531 00ef 00       		.byte	0
 532 00f0 00       		.byte	0
 533 00f1 00       		.byte	0
 534 00f2 00       		.byte	0
 535 00f3 00       		.byte	0
 536 00f4 00       		.byte	0
 537 00f5 00       		.byte	0
 538 00f6 00       		.byte	0
 539 00f7 00       		.byte	0
 540 00f8 00       		.byte	0
 541 00f9 00       		.byte	0
 542 00fa 00       		.byte	0
 543 00fb 00       		.byte	0
 544 00fc 00       		.byte	0
 545 00fd 00       		.byte	0
 546 00fe 00       		.byte	0
 547 00ff 00       		.byte	0
 548 0100 00       		.byte	0
 549 0101 00       		.byte	0
 550 0102 00       		.byte	0
 551 0103 00       		.byte	0
 552 0104 00       		.byte	0
 553 0105 00       		.byte	0
 554 0106 00       		.byte	0
 555 0107 00       		.byte	0
 556 0108 00       		.byte	0
 557 0109 00       		.byte	0
 558 010a 00       		.byte	0
 559 010b 00       		.byte	0
 560 010c 00       		.byte	0
 561 010d 00       		.byte	0
 562 010e 00       		.byte	0
 563 010f 00       		.byte	0
 564 0110 00       		.byte	0
 565 0111 00       		.byte	0
 566 0112 00       		.byte	0
 567 0113 00       		.byte	0
 568 0114 00       		.byte	0
 569 0115 00       		.byte	0
 570 0116 00       		.byte	0
 571 0117 00       		.byte	0
 572 0118 00       		.byte	0
 573 0119 00       		.byte	0
 574 011a 00       		.byte	0
 575 011b 00       		.byte	0
 576 011c 00       		.byte	0
ARM GAS  C:\Users\Petro\AppData\Local\Temp\cctBT5Gy.s 			page 17


 577 011d 00       		.byte	0
 578 011e 00       		.byte	0
 579 011f 00       		.byte	0
 580 0120 00       		.byte	0
 581 0121 00       		.byte	0
 582 0122 00       		.byte	0
 583 0123 00       		.byte	0
 584 0124 00       		.byte	0
 585 0125 00       		.byte	0
 586 0126 00       		.byte	0
 587 0127 00       		.byte	0
 588 0128 00       		.byte	0
 589 0129 00       		.byte	0
 590 012a 00       		.byte	0
 591 012b 00       		.byte	0
 592 012c 00       		.byte	0
 593 012d 00       		.byte	0
 594 012e 00       		.byte	0
 595 012f 00       		.byte	0
 596 0130 00       		.byte	0
 597 0131 00       		.byte	0
 598 0132 00       		.byte	0
 599 0133 00       		.byte	0
 600 0134 00       		.byte	0
 601 0135 00       		.byte	0
 602 0136 00       		.byte	0
 603 0137 00       		.byte	0
 604 0138 00       		.byte	0
 605 0139 00       		.byte	0
 606 013a 00       		.byte	0
 607 013b 00       		.byte	0
 608 013c 00       		.byte	0
 609 013d 00       		.byte	0
 610 013e 00       		.byte	0
 611 013f 00       		.byte	0
 612 0140 00       		.byte	0
 613 0141 00       		.byte	0
 614 0142 00       		.byte	0
 615 0143 00       		.byte	0
 616 0144 00       		.byte	0
 617 0145 00       		.byte	0
 618 0146 00       		.byte	0
 619 0147 00       		.byte	0
 620 0148 00       		.byte	0
 621 0149 00       		.byte	0
 622 014a 00       		.byte	0
 623 014b 00       		.byte	0
 624 014c 00       		.byte	0
 625 014d 00       		.byte	0
 626 014e 00       		.byte	0
 627 014f 00       		.byte	0
 628 0150 00       		.byte	0
 629 0151 00       		.byte	0
 630 0152 00       		.byte	0
 631 0153 00       		.byte	0
 632 0154 00       		.byte	0
 633 0155 00       		.byte	0
ARM GAS  C:\Users\Petro\AppData\Local\Temp\cctBT5Gy.s 			page 18


 634 0156 00       		.byte	0
 635 0157 00       		.byte	0
 636 0158 00       		.byte	0
 637 0159 00       		.byte	0
 638 015a 00       		.byte	0
 639 015b 00       		.byte	0
 640 015c 00       		.byte	0
 641 015d 00       		.byte	0
 642 015e 00       		.byte	0
 643 015f 00       		.byte	0
 644 0160 00       		.byte	0
 645 0161 00       		.byte	0
 646 0162 00       		.byte	0
 647 0163 00       		.byte	0
 648 0164 00       		.byte	0
 649 0165 00       		.byte	0
 650 0166 00       		.byte	0
 651 0167 00       		.byte	0
 652 0168 00       		.byte	0
 653 0169 00       		.byte	0
 654 016a 00       		.byte	0
 655 016b 00       		.byte	0
 656 016c 00       		.byte	0
 657 016d 00       		.byte	0
 658 016e 00       		.byte	0
 659 016f 00       		.byte	0
 660 0170 00       		.byte	0
 661 0171 00       		.byte	0
 662 0172 00       		.byte	0
 663 0173 05       		.byte	5
 664 0174 00000000 		.text
 664      00000000 
 664      00000000 
 665              	.Letext0:
 666              		.file 2 ".\\Generated_Source\\PSoC4\\cytypes.h"
 667              		.file 3 ".\\Generated_Source\\PSoC4\\BLE_Stack.h"
 668              		.file 4 ".\\Generated_Source\\PSoC4\\BLE_StackGatt.h"
 669              		.file 5 ".\\Generated_Source\\PSoC4\\BLE_StackGattClient.h"
 670              		.file 6 ".\\Generated_Source\\PSoC4\\BLE.h"
 671              		.file 7 ".\\Generated_Source\\PSoC4\\BLE_gatt.h"
 672              		.file 8 ".\\Generated_Source\\PSoC4\\BLE_wpts.h"
 673              		.file 9 ".\\Generated_Source\\PSoC4\\BLE_eventHandler.h"