ARM GAS  C:\Users\Petro\AppData\Local\Temp\ccvLNIXl.s 			page 1


   1              		.cpu cortex-m0
   2              		.fpu softvfp
   3              		.eabi_attribute 20, 1
   4              		.eabi_attribute 21, 1
   5              		.eabi_attribute 23, 3
   6              		.eabi_attribute 24, 1
   7              		.eabi_attribute 25, 1
   8              		.eabi_attribute 26, 1
   9              		.eabi_attribute 30, 1
  10              		.eabi_attribute 34, 0
  11              		.eabi_attribute 18, 4
  12              		.code	16
  13              		.file	"main.c"
  14              		.text
  15              	.Ltext0:
  16              		.cfi_sections	.debug_frame
  17              		.global _printf_float
  18              		.global _printf_float
  19              		.code	16
  20              		.section	.text.Timer_Interrupt,"ax",%progbits
  21              		.align	2
  22              		.global	Timer_Interrupt
  23              		.code	16
  24              		.thumb_func
  25              		.type	Timer_Interrupt, %function
  26              	Timer_Interrupt:
  27              	.LFB38:
  28              		.file 1 ".\\main.c"
   1:.\main.c      **** /*******************************************************************************
   2:.\main.c      **** * File Name: main.c
   3:.\main.c      **** *
   4:.\main.c      **** * Version: 1.0
   5:.\main.c      **** *
   6:.\main.c      **** * Description:
   7:.\main.c      **** *  This project demonstrates Wireless Power Transfer profile in Power 
   8:.\main.c      **** *  Transmitter Unit (PTU) Client role.
   9:.\main.c      **** *
  10:.\main.c      **** * Related Document:
  11:.\main.c      **** *  A4WP Wireless Power Transfer System Baseline System Specification (BSS)
  12:.\main.c      **** *   V1.2.1
  13:.\main.c      **** *  BLUETOOTH SPECIFICATION Version 4.1
  14:.\main.c      **** *
  15:.\main.c      **** *******************************************************************************
  16:.\main.c      **** * Copyright 2015, Cypress Semiconductor Corporation.  All rights reserved.
  17:.\main.c      **** * You may use this file only in accordance with the license, terms, conditions,
  18:.\main.c      **** * disclaimers, and limitations in the end user license agreement accompanying
  19:.\main.c      **** * the software package with which this file was provided.
  20:.\main.c      **** *******************************************************************************/
  21:.\main.c      **** 
  22:.\main.c      **** #include "wptu.h"
  23:.\main.c      **** #include "common.h"
  24:.\main.c      **** #include <stdbool.h>
  25:.\main.c      **** 
  26:.\main.c      **** volatile uint32 mainTimer = 0u;
  27:.\main.c      **** 
  28:.\main.c      **** CYBLE_PEER_DEVICE_INFO_T peedDeviceInfo[CYBLE_MAX_ADV_DEVICES];
  29:.\main.c      **** uint8 advDevices = 0u;
ARM GAS  C:\Users\Petro\AppData\Local\Temp\ccvLNIXl.s 			page 2


  30:.\main.c      **** uint8 deviceN = 0u;
  31:.\main.c      **** 
  32:.\main.c      **** uint8 state = STATE_INIT;
  33:.\main.c      **** uint8 readingDynChar = 0u;
  34:.\main.c      **** 
  35:.\main.c      **** uint8 customCommand = 0u;
  36:.\main.c      **** uint16 alertCCCD = 0u;
  37:.\main.c      **** bool requestResponce = true;
  38:.\main.c      **** 
  39:.\main.c      **** 
  40:.\main.c      **** CYBLE_GAP_CONN_PARAM_UPDATED_IN_CONTROLLER_T connParameters;
  41:.\main.c      **** 
  42:.\main.c      **** 
  43:.\main.c      **** /*******************************************************************************
  44:.\main.c      **** * Function Name: AppCallBack()
  45:.\main.c      **** ********************************************************************************
  46:.\main.c      **** *
  47:.\main.c      **** * Summary:
  48:.\main.c      **** *   This is an event callback function to receive events from the BLE Component.
  49:.\main.c      **** *
  50:.\main.c      **** * Parameters:
  51:.\main.c      **** *  event - the event code
  52:.\main.c      **** *  *eventParam - the event parameters
  53:.\main.c      **** *
  54:.\main.c      **** * Theory:
  55:.\main.c      **** * The function is responsible for handling the events generated by the stack.
  56:.\main.c      **** * It first starts scanning once the stack is initialized. 
  57:.\main.c      **** * Upon scanning timeout this function enters Hibernate mode.
  58:.\main.c      **** *
  59:.\main.c      **** *******************************************************************************/
  60:.\main.c      **** void AppCallback(uint32 event, void* eventParam)
  61:.\main.c      **** {
  62:.\main.c      ****     CYBLE_API_RESULT_T apiResult;
  63:.\main.c      ****     CYBLE_GATTC_GRP_ATTR_DATA_LIST_T *locAttrData;
  64:.\main.c      ****     CYBLE_GAPC_ADV_REPORT_T *advReport;
  65:.\main.c      ****     CYBLE_GAP_AUTH_INFO_T *authInfo;
  66:.\main.c      ****     uint8 newDevice = 0u;
  67:.\main.c      ****     uint8 type;
  68:.\main.c      ****     uint16 i;
  69:.\main.c      ****     uint16 length;
  70:.\main.c      ****     uint8 *locHndlUuidList;
  71:.\main.c      ****     
  72:.\main.c      **** 	switch (event)
  73:.\main.c      **** 	{
  74:.\main.c      **** 		case CYBLE_EVT_STACK_ON: /* This event received when BLE stack is ON. */
  75:.\main.c      ****             DBG_PRINTF("Bluetooth On \r\n");
  76:.\main.c      ****             apiResult = CyBle_GapcStartScan(CYBLE_SCANNING_FAST);                   /* Start Limite
  77:.\main.c      ****             if(apiResult != CYBLE_ERROR_OK)
  78:.\main.c      ****             {
  79:.\main.c      ****                 DBG_PRINTF("StartScan API Error: %xd \r\n", apiResult);
  80:.\main.c      ****             }
  81:.\main.c      **** 			break;
  82:.\main.c      **** 		case CYBLE_EVT_TIMEOUT: 
  83:.\main.c      ****             DBG_PRINTF("CYBLE_EVT_TIMEOUT: %x \r\n", *(CYBLE_TO_REASON_CODE_T *)eventParam);
  84:.\main.c      **** 			break;
  85:.\main.c      **** 		case CYBLE_EVT_HARDWARE_ERROR:    /* This event indicates that some internal HW error has occurre
  86:.\main.c      ****             DBG_PRINTF("Hardware Error: %x \r\n", *(uint8 *)eventParam);
ARM GAS  C:\Users\Petro\AppData\Local\Temp\ccvLNIXl.s 			page 3


  87:.\main.c      **** 			break;
  88:.\main.c      ****         case CYBLE_EVT_HCI_STATUS:
  89:.\main.c      ****             DBG_PRINTF("CYBLE_EVT_HCI_STATUS: %x \r\n", *(uint8 *)eventParam);
  90:.\main.c      **** 			break;
  91:.\main.c      ****     	case CYBLE_EVT_STACK_BUSY_STATUS:
  92:.\main.c      ****             DBG_PRINTF("CYBLE_EVT_STACK_BUSY_STATUS: %x\r\n", CyBle_GattGetBusStatus());
  93:.\main.c      ****             break;
  94:.\main.c      ****             
  95:.\main.c      ****         /**********************************************************
  96:.\main.c      ****         *                       GAP Events
  97:.\main.c      ****         ***********************************************************/
  98:.\main.c      ****         /* This event provides the remote device lists during discovery process. */
  99:.\main.c      ****         case CYBLE_EVT_GAPC_SCAN_PROGRESS_RESULT:
 100:.\main.c      ****             {    
 101:.\main.c      ****                 CYBLE_PRU_ADV_SERVICE_DATA_T serviceData;
 102:.\main.c      ****                 advReport = (CYBLE_GAPC_ADV_REPORT_T *)eventParam;
 103:.\main.c      ****                 
 104:.\main.c      ****                 if(WptsScanProcessEventHandler(advReport, &serviceData) != 0u)
 105:.\main.c      ****                 {
 106:.\main.c      ****                     DBG_PRINTF("Advertisement report: eventType = %x, peerAddrType - %x, ", 
 107:.\main.c      ****                         advReport->eventType, advReport->peerAddrType);
 108:.\main.c      ****                     DBG_PRINTF("peerBdAddr - #");
 109:.\main.c      ****                     for(newDevice = 1u, i = 0u; i < advDevices; i++)
 110:.\main.c      ****                     {
 111:.\main.c      ****                         /* Compare device address with already logged one */
 112:.\main.c      ****                         if((memcmp(peedDeviceInfo[i].peerAddr.bdAddr, advReport->peerBdAddr, CYBLE_
 113:.\main.c      ****                         {
 114:.\main.c      ****                             DBG_PRINTF("%x: ",i);
 115:.\main.c      ****                             newDevice = 0u;
 116:.\main.c      ****                             break;
 117:.\main.c      ****                         }
 118:.\main.c      ****                     }
 119:.\main.c      ****                     if(newDevice != 0u)                    
 120:.\main.c      ****                     {
 121:.\main.c      ****                         if(advDevices < CYBLE_MAX_ADV_DEVICES)
 122:.\main.c      ****                         {
 123:.\main.c      ****                             memcpy(peedDeviceInfo[advDevices].peerAddr.bdAddr, advReport->peerBdAdd
 124:.\main.c      ****                             peedDeviceInfo[advDevices].peerAddr.type = advReport->peerAddrType;
 125:.\main.c      ****                             peedDeviceInfo[advDevices].peerAdvServData = serviceData;
 126:.\main.c      ****                             DBG_PRINTF("%x: ",advDevices);
 127:.\main.c      ****                             advDevices++;
 128:.\main.c      ****                         }
 129:.\main.c      ****                     }
 130:.\main.c      ****                     for(i = CYBLE_GAP_BD_ADDR_SIZE; i > 0u; i--)
 131:.\main.c      ****                     {
 132:.\main.c      ****                         DBG_PRINTF("%2.2x", advReport->peerBdAddr[i-1]);
 133:.\main.c      ****                     }
 134:.\main.c      ****                     DBG_PRINTF(", rssi - %d dBm,\r\n data - ", advReport->rssi);
 135:.\main.c      ****                     for( i = 0; i < advReport->dataLen; i++)
 136:.\main.c      ****                     {
 137:.\main.c      ****                         DBG_PRINTF("%2.2x ", advReport->data[i]);
 138:.\main.c      ****                     }
 139:.\main.c      ****                     DBG_PRINTF("\r\n");
 140:.\main.c      ****                 }
 141:.\main.c      ****             }
 142:.\main.c      ****             break;
 143:.\main.c      **** 	    case CYBLE_EVT_GAPC_SCAN_START_STOP:
ARM GAS  C:\Users\Petro\AppData\Local\Temp\ccvLNIXl.s 			page 4


 144:.\main.c      ****             DBG_PRINTF("CYBLE_EVT_GAPC_SCAN_START_STOP, state: %x\r\n", CyBle_GetState());
 145:.\main.c      ****             if(CyBle_GetState() == CYBLE_STATE_DISCONNECTED)
 146:.\main.c      ****             {
 147:.\main.c      ****                 if(state == STATE_CONNECTING)
 148:.\main.c      ****                 {
 149:.\main.c      ****                     DBG_PRINTF("GAPC_END_SCANNING\r\n");
 150:.\main.c      ****                     /* Connect to selected device */
 151:.\main.c      ****                     cyBle_connectingTimeout = 5;
 152:.\main.c      ****                     apiResult = CyBle_GapcConnectDevice(&peedDeviceInfo[deviceN].peerAddr);
 153:.\main.c      ****                     if(apiResult != CYBLE_ERROR_OK)
 154:.\main.c      ****                     {
 155:.\main.c      ****                         DBG_PRINTF("ConnectDevice API Error: %x \r\n", apiResult);
 156:.\main.c      ****                     }
 157:.\main.c      ****                 }
 158:.\main.c      ****                 else
 159:.\main.c      ****                 {
 160:.\main.c      ****                     /* Fast scanning period complete,
 161:.\main.c      ****                      * go to low power mode (Hibernate mode) and wait for an external
 162:.\main.c      ****                      * user event to wake up the device again */
 163:.\main.c      ****                     DBG_PRINTF("Hibernate \r\n");
 164:.\main.c      ****                     UpdateLedState();
 165:.\main.c      ****                 #if (DEBUG_UART_ENABLED == ENABLED)
 166:.\main.c      ****                     while((UART_DEB_SpiUartGetTxBufferSize() + UART_DEB_GET_TX_FIFO_SR_VALID) != 0)
 167:.\main.c      ****                 #endif /* (DEBUG_UART_ENABLED == ENABLED) */
 168:.\main.c      ****                     SW2_ClearInterrupt();
 169:.\main.c      ****                     Wakeup_Interrupt_ClearPending();
 170:.\main.c      ****                     Wakeup_Interrupt_Start();
 171:.\main.c      ****                     CySysPmHibernate();
 172:.\main.c      ****                 }
 173:.\main.c      ****             }
 174:.\main.c      ****             break;
 175:.\main.c      ****        case CYBLE_EVT_GAP_AUTH_COMPLETE:
 176:.\main.c      ****             authInfo = (CYBLE_GAP_AUTH_INFO_T *)eventParam;
 177:.\main.c      ****             (void)authInfo;
 178:.\main.c      ****             DBG_PRINTF("AUTH_COMPLETE: security:%x, bonding:%x, ekeySize:%x, authErr %x \r\n", 
 179:.\main.c      ****                                     authInfo->security, authInfo->bonding, authInfo->ekeySize, auth
 180:.\main.c      ****             break;
 181:.\main.c      ****         case CYBLE_EVT_GAP_AUTH_FAILED:
 182:.\main.c      ****             DBG_PRINTF("AUTH_FAILED: %x \r\n", *(uint8 *)eventParam);
 183:.\main.c      ****             break;
 184:.\main.c      ****         case CYBLE_EVT_GAP_DEVICE_CONNECTED:
 185:.\main.c      ****             connParameters = *(CYBLE_GAP_CONN_PARAM_UPDATED_IN_CONTROLLER_T *)eventParam;
 186:.\main.c      ****             DBG_PRINTF("CYBLE_EVT_GAP_DEVICE_CONNECTED: %x, %x(%d ms), %x, %x \r\n",   
 187:.\main.c      ****                 connParameters.status,
 188:.\main.c      ****                 connParameters.connIntv,
 189:.\main.c      ****                 connParameters.connIntv *5 /4,
 190:.\main.c      ****                 connParameters.connLatency,
 191:.\main.c      ****                 connParameters.supervisionTO);
 192:.\main.c      ****             state = STATE_CONNECTED;
 193:.\main.c      ****             UpdateLedState();
 194:.\main.c      ****             
 195:.\main.c      ****             if(peedDeviceInfo[deviceN].peerAdvServData.wptsServiceHandle != 0u)
 196:.\main.c      ****             {
 197:.\main.c      ****                 /* Use quick discovery method based on WPT service handle received in the advertisi
 198:.\main.c      ****                 CyBle_WptscDiscovery(peedDeviceInfo[deviceN].peerAdvServData.wptsServiceHandle);
 199:.\main.c      ****                 
 200:.\main.c      ****                 DBG_PRINTF("WPTS %x: ",  cyBle_wptsc.serviceHandle);
ARM GAS  C:\Users\Petro\AppData\Local\Temp\ccvLNIXl.s 			page 5


 201:.\main.c      ****                 for(i = 0u; i < CYBLE_WPTS_CHAR_COUNT; i++)
 202:.\main.c      ****                 {
 203:.\main.c      ****                     DBG_PRINTF("Char %x=%x, CCCD=%x ", i, CyBle_WptscGetCharacteristicValueHandle(i
 204:.\main.c      ****                                                           CyBle_WptscGetCharacteristicDescriptorHan
 205:.\main.c      ****                 }
 206:.\main.c      ****                 DBG_PRINTF("\r\n");
 207:.\main.c      ****                 /* Initiate to read PRU Static Parameter characteristic value */
 208:.\main.c      ****                 customCommand = '4';
 209:.\main.c      ****             }
 210:.\main.c      ****             else
 211:.\main.c      ****             {
 212:.\main.c      ****                 /* When the service handle is unknown, use the standard discovery procedure */
 213:.\main.c      ****                 customCommand = 's';
 214:.\main.c      ****             }
 215:.\main.c      ****             break;
 216:.\main.c      ****         case CYBLE_EVT_GAP_DEVICE_DISCONNECTED:
 217:.\main.c      ****             DBG_PRINTF("DEVICE_DISCONNECTED: \r\n");
 218:.\main.c      ****             apiResult = CyBle_GapcStartScan(CYBLE_SCANNING_FAST);                   /* Start Limite
 219:.\main.c      ****             if(apiResult != CYBLE_ERROR_OK)
 220:.\main.c      ****             {
 221:.\main.c      ****                 DBG_PRINTF("StartScan API Error: %xd \r\n", apiResult);
 222:.\main.c      ****             }
 223:.\main.c      ****             requestResponce = true;
 224:.\main.c      ****             state = STATE_DISCONNECTED;
 225:.\main.c      ****             break;
 226:.\main.c      ****         case CYBLE_EVT_GAP_ENCRYPT_CHANGE:
 227:.\main.c      ****             DBG_PRINTF("ENCRYPT_CHANGE: %d \r\n", *(uint8 *)eventParam);
 228:.\main.c      ****             break;
 229:.\main.c      ****         case CYBLE_EVT_GAPC_CONNECTION_UPDATE_COMPLETE:           
 230:.\main.c      ****             connParameters = *(CYBLE_GAP_CONN_PARAM_UPDATED_IN_CONTROLLER_T *)eventParam;
 231:.\main.c      ****             DBG_PRINTF("CYBLE_EVT_GAPC_CONNECTION_UPDATE_COMPLETE: %x, %x(%d ms), %x, %x \r\n",
 232:.\main.c      ****                 connParameters.status,
 233:.\main.c      ****                 connParameters.connIntv,
 234:.\main.c      ****                 connParameters.connIntv *5 /4,
 235:.\main.c      ****                 connParameters.connLatency,
 236:.\main.c      ****                 connParameters.supervisionTO);
 237:.\main.c      ****             break;
 238:.\main.c      ****         case CYBLE_EVT_GAP_KEYINFO_EXCHNGE_CMPLT:
 239:.\main.c      ****             DBG_PRINTF("CYBLE_EVT_GAP_KEYINFO_EXCHNGE_CMPLT \r\n");
 240:.\main.c      ****             break;
 241:.\main.c      ****             
 242:.\main.c      ****         /**********************************************************
 243:.\main.c      ****         *                       GATT Events
 244:.\main.c      ****         ***********************************************************/
 245:.\main.c      **** 
 246:.\main.c      ****         case CYBLE_EVT_GATTC_ERROR_RSP:
 247:.\main.c      ****             DBG_PRINTF("GATT_ERROR_RSP: opcode: %x,  handle: %x,  errorcode: %x \r\n",
 248:.\main.c      ****                 ((CYBLE_GATTC_ERR_RSP_PARAM_T *)eventParam)->opCode,
 249:.\main.c      ****                 ((CYBLE_GATTC_ERR_RSP_PARAM_T *)eventParam)->attrHandle,
 250:.\main.c      ****                 ((CYBLE_GATTC_ERR_RSP_PARAM_T *)eventParam)->errorCode);
 251:.\main.c      ****             break;
 252:.\main.c      ****         case CYBLE_EVT_GATT_CONNECT_IND:
 253:.\main.c      ****             DBG_PRINTF("CYBLE_EVT_GATT_CONNECT_IND: %x, %x \r\n", 
 254:.\main.c      ****                 (*(CYBLE_CONN_HANDLE_T *)eventParam).attId, (*(CYBLE_CONN_HANDLE_T *)eventParam).bd
 255:.\main.c      ****             break;
 256:.\main.c      ****         case CYBLE_EVT_GATT_DISCONNECT_IND:
 257:.\main.c      ****             DBG_PRINTF("GATT_DISCONNECT_IND \r\n");
ARM GAS  C:\Users\Petro\AppData\Local\Temp\ccvLNIXl.s 			page 6


 258:.\main.c      ****             break;
 259:.\main.c      ****         case CYBLE_EVT_GATTC_HANDLE_VALUE_NTF:
 260:.\main.c      ****             DBG_PRINTF("CYBLE_EVT_GATT_HANDLE_VALUE_NTF: handle: %x, Value:", ((CYBLE_GATTC_HANDLE_
 261:.\main.c      ****             ShowValue(&((CYBLE_GATTC_HANDLE_VALUE_IND_PARAM_T *)eventParam)->handleValPair.value, 0
 262:.\main.c      ****             break;  
 263:.\main.c      ****         case CYBLE_EVT_GATTC_HANDLE_VALUE_IND:
 264:.\main.c      ****             DBG_PRINTF("CYBLE_EVT_GATTC_HANDLE_VALUE_IND: handle: %x, Value:", ((CYBLE_GATTC_HANDLE
 265:.\main.c      ****             ShowValue(&((CYBLE_GATTC_HANDLE_VALUE_IND_PARAM_T *)eventParam)->handleValPair.value, 0
 266:.\main.c      ****             break;
 267:.\main.c      ****         case CYBLE_EVT_GATTC_INDICATION:
 268:.\main.c      ****             DBG_PRINTF("CYBLE_EVT_GATTC_INDICATION: handle: %x, Value:", ((CYBLE_GATTC_HANDLE_VALUE
 269:.\main.c      ****             ShowValue(&((CYBLE_GATTC_HANDLE_VALUE_IND_PARAM_T *)eventParam)->handleValPair.value, 0
 270:.\main.c      ****             break;
 271:.\main.c      ****         case CYBLE_EVT_GATTC_READ_RSP:
 272:.\main.c      ****             DBG_PRINTF("CYBLE_EVT_GATT_READ_RSP: ");
 273:.\main.c      ****             ShowValue(&((CYBLE_GATTC_READ_RSP_PARAM_T *)eventParam)->value, 0u);
 274:.\main.c      ****             break;            
 275:.\main.c      ****         case CYBLE_EVT_GATTC_READ_BLOB_RSP:
 276:.\main.c      ****             DBG_PRINTF("CYBLE_EVT_GATTC_READ_BLOB_RSP: ");
 277:.\main.c      ****             ShowValue(&((CYBLE_GATTC_READ_RSP_PARAM_T *)eventParam)->value, 0u);
 278:.\main.c      ****             break;
 279:.\main.c      ****         case CYBLE_EVT_GATTC_WRITE_RSP:
 280:.\main.c      ****             DBG_PRINTF("CYBLE_EVT_GATT_WRITE_RSP \r\n");
 281:.\main.c      ****             break;            
 282:.\main.c      ****         case CYBLE_EVT_GATTC_XCHNG_MTU_RSP:
 283:.\main.c      ****             DBG_PRINTF("CYBLE_EVT_GATT_XCHNG_MTU_RSP \r\n");
 284:.\main.c      ****             break;
 285:.\main.c      ****         case CYBLE_EVT_GATTC_READ_BY_GROUP_TYPE_RSP: /* Response to CYBLE_DiscoverAllPrimServices()
 286:.\main.c      ****             DBG_PRINTF("CYBLE_EVT_GATT_READ_BY_GROUP_TYPE_RSP: ");
 287:.\main.c      ****             locAttrData = &(*(CYBLE_GATTC_READ_BY_GRP_RSP_PARAM_T *)eventParam).attrData;
 288:.\main.c      ****             for(i = 0u; i < locAttrData -> attrLen; i ++)
 289:.\main.c      ****             { 
 290:.\main.c      ****                 DBG_PRINTF("%2.2x ",*(uint8 *)(locAttrData->attrValue + i));
 291:.\main.c      ****             }
 292:.\main.c      ****                 DBG_PRINTF("\r\n");
 293:.\main.c      ****             break;        
 294:.\main.c      ****         case CYBLE_EVT_GATTC_READ_BY_TYPE_RSP:      /* Response to CYBLE_DiscoverAllCharacteristics
 295:.\main.c      ****             DBG_PRINTF("CYBLE_EVT_GATT_READ_BY_TYPE_RSP: ");
 296:.\main.c      ****             locAttrData = &(*(CYBLE_GATTC_READ_BY_TYPE_RSP_PARAM_T *)eventParam).attrData;
 297:.\main.c      ****             for(i = 0u; i < locAttrData -> attrLen; i ++)
 298:.\main.c      ****             { 
 299:.\main.c      ****                 DBG_PRINTF("%2.2x ",*(uint8 *)(locAttrData->attrValue + i));
 300:.\main.c      ****             }
 301:.\main.c      ****             DBG_PRINTF("\r\n");
 302:.\main.c      ****             break;
 303:.\main.c      ****         case CYBLE_EVT_GATTC_FIND_INFO_RSP:
 304:.\main.c      ****             DBG_PRINTF("CYBLE_EVT_GATT_FIND_INFO_RSP: ");
 305:.\main.c      ****             type = (*(CYBLE_GATTC_FIND_INFO_RSP_PARAM_T *)eventParam).uuidFormat;
 306:.\main.c      ****             locHndlUuidList = (*(CYBLE_GATTC_FIND_INFO_RSP_PARAM_T *)eventParam).handleValueList.li
 307:.\main.c      ****             (void)locHndlUuidList;
 308:.\main.c      ****             if(type == CYBLE_GATT_16_BIT_UUID_FORMAT)
 309:.\main.c      ****             {
 310:.\main.c      ****                 length = CYBLE_ATTR_HANDLE_LEN + CYBLE_GATT_16_BIT_UUID_SIZE;
 311:.\main.c      ****             }
 312:.\main.c      ****             else
 313:.\main.c      ****             {
 314:.\main.c      ****                 length = CYBLE_ATTR_HANDLE_LEN + CYBLE_GATT_128_BIT_UUID_SIZE;
ARM GAS  C:\Users\Petro\AppData\Local\Temp\ccvLNIXl.s 			page 7


 315:.\main.c      ****             }
 316:.\main.c      ****             for(i = 0u; i < (*(CYBLE_GATTC_FIND_INFO_RSP_PARAM_T *)eventParam).handleValueList.byte
 317:.\main.c      ****             {
 318:.\main.c      ****                 if(type == CYBLE_GATT_16_BIT_UUID_FORMAT)
 319:.\main.c      ****                 {
 320:.\main.c      ****                     DBG_PRINTF("%2.2x %2.2x,",CyBle_Get16ByPtr(locHndlUuidList + i),
 321:.\main.c      ****                                               CyBle_Get16ByPtr(locHndlUuidList + i + CYBLE_ATTR_HAN
 322:.\main.c      ****                 }
 323:.\main.c      ****                 else
 324:.\main.c      ****                 {
 325:.\main.c      ****                     DBG_PRINTF("UUID128");
 326:.\main.c      ****                 }
 327:.\main.c      ****             }
 328:.\main.c      ****             DBG_PRINTF("\r\n");
 329:.\main.c      ****             break;
 330:.\main.c      ****         case CYBLE_EVT_GATTC_FIND_BY_TYPE_VALUE_RSP:
 331:.\main.c      ****             DBG_PRINTF("CYBLE_EVT_GATT_FIND_BY_TYPE_VALUE_RSP \r\n");
 332:.\main.c      ****             break;
 333:.\main.c      ****                 
 334:.\main.c      ****         /**********************************************************
 335:.\main.c      ****         *                       Discovery Events 
 336:.\main.c      ****         ***********************************************************/
 337:.\main.c      ****         case CYBLE_EVT_GATTC_DISCOVERY_COMPLETE:
 338:.\main.c      ****             DBG_PRINTF("CYBLE_EVT_SERVER_DISCOVERY_COMPLETE \r\n");
 339:.\main.c      ****             DBG_PRINTF("GATT %x-%x Char: %x, cccd: %x, \r\n", 
 340:.\main.c      ****                 cyBle_serverInfo[CYBLE_SRVI_GATT].range.startHandle,
 341:.\main.c      ****                 cyBle_serverInfo[CYBLE_SRVI_GATT].range.endHandle,
 342:.\main.c      ****                 cyBle_gattc.serviceChanged.valueHandle,
 343:.\main.c      ****                 cyBle_gattc.cccdHandle);
 344:.\main.c      ****             DBG_PRINTF("\r\nWPTS %x-%x: ",  cyBle_serverInfo[CYBLE_SRVI_WPTS].range.startHandle,
 345:.\main.c      ****                                        cyBle_serverInfo[CYBLE_SRVI_WPTS].range.endHandle);
 346:.\main.c      ****             for(i = 0u; i < CYBLE_WPTS_CHAR_COUNT; i++)
 347:.\main.c      ****             {
 348:.\main.c      ****                 DBG_PRINTF("Char %x=%x, CCCD=%x ", i, CyBle_WptscGetCharacteristicValueHandle(i),
 349:.\main.c      ****                                                       CyBle_WptscGetCharacteristicDescriptorHandle(
 350:.\main.c      ****             }
 351:.\main.c      ****             DBG_PRINTF("\r\n");
 352:.\main.c      ****             DBG_PRINTF("\r\n");
 353:.\main.c      ****             /* Statrt configuration procedure */
 354:.\main.c      ****             if(state == STATE_CONNECTED) 
 355:.\main.c      ****             {
 356:.\main.c      ****                 /* Initiate reading the PRU Static Parameter characteristic value */
 357:.\main.c      ****                 customCommand = '4';
 358:.\main.c      ****             }
 359:.\main.c      ****         break;
 360:.\main.c      **** 
 361:.\main.c      ****         /**********************************************************
 362:.\main.c      ****         *                       Other Events
 363:.\main.c      ****         ***********************************************************/
 364:.\main.c      ****         case CYBLE_EVT_PENDING_FLASH_WRITE:
 365:.\main.c      ****             /* Inform application that flash write is pending. Stack internal data 
 366:.\main.c      ****             * structures are modified and require to be stored in Flash using 
 367:.\main.c      ****             * CyBle_StoreBondingData() */
 368:.\main.c      ****             DBG_PRINTF("CYBLE_EVT_PENDING_FLASH_WRITE\r\n");
 369:.\main.c      ****             break;
 370:.\main.c      **** 		default:
 371:.\main.c      ****             DBG_PRINTF("OTHER event: %lx \r\n", event);
ARM GAS  C:\Users\Petro\AppData\Local\Temp\ccvLNIXl.s 			page 8


 372:.\main.c      **** 			break;
 373:.\main.c      **** 	}
 374:.\main.c      **** }
 375:.\main.c      **** 
 376:.\main.c      **** 
 377:.\main.c      **** /*******************************************************************************
 378:.\main.c      **** * Function Name: Timer_Interrupt
 379:.\main.c      **** ********************************************************************************
 380:.\main.c      **** *
 381:.\main.c      **** * Summary:
 382:.\main.c      **** *  Handles the Interrupt Service Routine for the WDT timer.
 383:.\main.c      **** *  Blinking Blue LED during scanning process.
 384:.\main.c      **** *
 385:.\main.c      **** *******************************************************************************/
 386:.\main.c      **** CY_ISR(Timer_Interrupt)
 387:.\main.c      **** {
  29              		.loc 1 387 0
  30              		.cfi_startproc
  31 0000 08B5     		push	{r3, lr}
  32              		.cfi_def_cfa_offset 8
  33              		.cfi_offset 3, -8
  34              		.cfi_offset 14, -4
 388:.\main.c      ****     if(CySysWdtGetInterruptSource() & WDT_INTERRUPT_SOURCE)
  35              		.loc 1 388 0
  36 0002 FFF7FEFF 		bl	CySysWdtGetInterruptSource
  37              	.LVL0:
  38 0006 4305     		lsl	r3, r0, #21
  39 0008 1CD5     		bpl	.L1
  40              	.LBB2:
 389:.\main.c      ****     {
 390:.\main.c      ****         static uint8 led = LED_OFF;
 391:.\main.c      ****         
 392:.\main.c      ****         /* Blink LED to indicate that device scans */
 393:.\main.c      ****         if(CyBle_GetState() == CYBLE_STATE_SCANNING)
  41              		.loc 1 393 0
  42 000a 0F4B     		ldr	r3, .L5
  43 000c 1B78     		ldrb	r3, [r3]
  44 000e 032B     		cmp	r3, #3
  45 0010 07D1     		bne	.L3
 394:.\main.c      ****         {
 395:.\main.c      ****             led ^= LED_ON;
  46              		.loc 1 395 0
  47 0012 0E4A     		ldr	r2, .L5+4
  48 0014 1078     		ldrb	r0, [r2]
  49 0016 023B     		sub	r3, r3, #2
  50 0018 5840     		eor	r0, r3
  51 001a 1070     		strb	r0, [r2]
 396:.\main.c      ****             Scanning_LED_Write(led);
  52              		.loc 1 396 0
  53 001c FFF7FEFF 		bl	Scanning_LED_Write
  54              	.LVL1:
  55 0020 08E0     		b	.L4
  56              	.L3:
 397:.\main.c      ****         }
 398:.\main.c      ****         else if(CyBle_GetState() == CYBLE_STATE_CONNECTED)
  57              		.loc 1 398 0
  58 0022 022B     		cmp	r3, #2
ARM GAS  C:\Users\Petro\AppData\Local\Temp\ccvLNIXl.s 			page 9


  59 0024 06D1     		bne	.L4
 399:.\main.c      ****         {
 400:.\main.c      ****             if(readingDynChar != 0u)
  60              		.loc 1 400 0
  61 0026 094B     		ldr	r3, .L5+4
  62 0028 5B78     		ldrb	r3, [r3, #1]
  63 002a 002B     		cmp	r3, #0
  64 002c 02D0     		beq	.L4
 401:.\main.c      ****             {
 402:.\main.c      ****                 /* Send Read request for PRU Dynamic Parameter characteristic */
 403:.\main.c      ****                 customCommand = '5';
  65              		.loc 1 403 0
  66 002e 3522     		mov	r2, #53
  67 0030 064B     		ldr	r3, .L5+4
  68 0032 9A70     		strb	r2, [r3, #2]
  69              	.L4:
 404:.\main.c      ****             }
 405:.\main.c      ****         }
 406:.\main.c      ****         else
 407:.\main.c      ****         {
 408:.\main.c      ****             /* nothing else */
 409:.\main.c      ****         }
 410:.\main.c      ****         
 411:.\main.c      ****         /* Indicate that timer is raised to the main loop */
 412:.\main.c      ****         mainTimer++;
  70              		.loc 1 412 0
  71 0034 054A     		ldr	r2, .L5+4
  72 0036 5368     		ldr	r3, [r2, #4]
  73 0038 0133     		add	r3, r3, #1
  74 003a 5360     		str	r3, [r2, #4]
 413:.\main.c      ****         
 414:.\main.c      ****         /* Clears interrupt request  */
 415:.\main.c      ****         CySysWdtClearInterrupt(WDT_INTERRUPT_SOURCE);
  75              		.loc 1 415 0
  76 003c 8020     		mov	r0, #128
  77 003e C000     		lsl	r0, r0, #3
  78 0040 FFF7FEFF 		bl	CySysWdtClearInterrupt
  79              	.LVL2:
  80              	.L1:
  81              	.LBE2:
 416:.\main.c      ****     }
 417:.\main.c      **** }
  82              		.loc 1 417 0
  83              		@ sp needed
  84 0044 08BD     		pop	{r3, pc}
  85              	.L6:
  86 0046 C046     		.align	2
  87              	.L5:
  88 0048 00000000 		.word	cyBle_state
  89 004c 00000000 		.word	.LANCHOR0
  90              		.cfi_endproc
  91              	.LFE38:
  92              		.size	Timer_Interrupt, .-Timer_Interrupt
  93              		.section	.text.LowPowerImplementation,"ax",%progbits
  94              		.align	2
  95              		.code	16
  96              		.thumb_func
ARM GAS  C:\Users\Petro\AppData\Local\Temp\ccvLNIXl.s 			page 10


  97              		.type	LowPowerImplementation, %function
  98              	LowPowerImplementation:
  99              	.LFB42:
 418:.\main.c      **** 
 419:.\main.c      **** void UpdateLedState(void)
 420:.\main.c      **** {
 421:.\main.c      ****    
 422:.\main.c      ****     if(CyBle_GetState() == CYBLE_STATE_DISCONNECTED)
 423:.\main.c      ****     {   
 424:.\main.c      ****         Scanning_LED_Write(LED_OFF);
 425:.\main.c      ****     }
 426:.\main.c      ****     else if(CyBle_GetState() == CYBLE_STATE_CONNECTED)
 427:.\main.c      ****     {
 428:.\main.c      ****         Scanning_LED_Write(LED_ON);
 429:.\main.c      ****     }
 430:.\main.c      ****     else
 431:.\main.c      ****     {
 432:.\main.c      ****         /* Scanning LED is handled in Timer_Interrupt */
 433:.\main.c      ****     }
 434:.\main.c      **** }
 435:.\main.c      **** 
 436:.\main.c      **** /*******************************************************************************
 437:.\main.c      **** * Function Name: WDT_Start
 438:.\main.c      **** ********************************************************************************
 439:.\main.c      **** *
 440:.\main.c      **** * Summary:
 441:.\main.c      **** *  Configures WDT to trigger an interrupt every second.
 442:.\main.c      **** *
 443:.\main.c      **** *******************************************************************************/
 444:.\main.c      **** 
 445:.\main.c      **** void WDT_Start(void)
 446:.\main.c      **** {
 447:.\main.c      ****     /* Unlock the WDT registers for modification */
 448:.\main.c      ****     CySysWdtUnlock(); 
 449:.\main.c      ****     /* Setup ISR */
 450:.\main.c      ****     WDT_Interrupt_StartEx(&Timer_Interrupt);
 451:.\main.c      ****     /* Write the mode to generate interrupt on match */
 452:.\main.c      ****     CySysWdtWriteMode(WDT_COUNTER, CY_SYS_WDT_MODE_INT);
 453:.\main.c      ****     /* Configure the WDT counter clear on a match setting */
 454:.\main.c      ****     CySysWdtWriteClearOnMatch(WDT_COUNTER, WDT_COUNTER_ENABLE);
 455:.\main.c      ****     /* Configure the WDT counter match comparison value */
 456:.\main.c      ****     CySysWdtWriteMatch(WDT_COUNTER, WDT_1SEC);
 457:.\main.c      ****     /* Reset WDT counter */
 458:.\main.c      ****     CySysWdtResetCounters(WDT_COUNTER);
 459:.\main.c      ****     /* Enable the specified WDT counter */
 460:.\main.c      ****     CySysWdtEnable(WDT_COUNTER_MASK);
 461:.\main.c      ****     /* Lock out configuration changes to the Watchdog timer registers */
 462:.\main.c      ****     CySysWdtLock();    
 463:.\main.c      **** }
 464:.\main.c      **** 
 465:.\main.c      **** 
 466:.\main.c      **** /*******************************************************************************
 467:.\main.c      **** * Function Name: WDT_Stop
 468:.\main.c      **** ********************************************************************************
 469:.\main.c      **** *
 470:.\main.c      **** * Summary:
 471:.\main.c      **** *  This API stops the WDT timer.
ARM GAS  C:\Users\Petro\AppData\Local\Temp\ccvLNIXl.s 			page 11


 472:.\main.c      **** *
 473:.\main.c      **** *******************************************************************************/
 474:.\main.c      **** void WDT_Stop(void)
 475:.\main.c      **** {
 476:.\main.c      ****     /* Unlock the WDT registers for modification */
 477:.\main.c      ****     CySysWdtUnlock(); 
 478:.\main.c      ****     /* Disable the specified WDT counter */
 479:.\main.c      ****     CySysWdtDisable(WDT_COUNTER_MASK);
 480:.\main.c      ****     /* Locks out configuration changes to the Watchdog timer registers */
 481:.\main.c      ****     CySysWdtLock();    
 482:.\main.c      **** }
 483:.\main.c      **** 
 484:.\main.c      **** 
 485:.\main.c      **** /*******************************************************************************
 486:.\main.c      **** * Function Name: LowPowerImplementation()
 487:.\main.c      **** ********************************************************************************
 488:.\main.c      **** * Summary:
 489:.\main.c      **** * Implements low power in the project.
 490:.\main.c      **** *
 491:.\main.c      **** * Parameters:
 492:.\main.c      **** * None
 493:.\main.c      **** *
 494:.\main.c      **** * Return:
 495:.\main.c      **** * None
 496:.\main.c      **** *
 497:.\main.c      **** * Theory:
 498:.\main.c      **** * The function tries to enter deep sleep as much as possible - whenever the 
 499:.\main.c      **** * BLE is idle and the UART transmission/reception is not happening. At all other
 500:.\main.c      **** * times, the function tries to enter CPU sleep.
 501:.\main.c      **** *
 502:.\main.c      **** *******************************************************************************/
 503:.\main.c      **** static void LowPowerImplementation(void)
 504:.\main.c      **** {
 100              		.loc 1 504 0
 101              		.cfi_startproc
 102 0000 38B5     		push	{r3, r4, r5, lr}
 103              		.cfi_def_cfa_offset 16
 104              		.cfi_offset 3, -16
 105              		.cfi_offset 4, -12
 106              		.cfi_offset 5, -8
 107              		.cfi_offset 14, -4
 505:.\main.c      ****     CYBLE_LP_MODE_T bleMode;
 506:.\main.c      ****     uint8 interruptStatus;
 507:.\main.c      ****     
 508:.\main.c      ****     /* For advertising and connected states, implement deep sleep 
 509:.\main.c      ****      * functionality to achieve low power in the system. For more details
 510:.\main.c      ****      * on the low power implementation, refer to the Low Power Application 
 511:.\main.c      ****      * Note.
 512:.\main.c      ****      */
 513:.\main.c      ****     if((CyBle_GetState() == CYBLE_STATE_SCANNING) || 
 108              		.loc 1 513 0
 109 0002 114B     		ldr	r3, .L12
 110 0004 1B78     		ldrb	r3, [r3]
 111 0006 023B     		sub	r3, r3, #2
 112 0008 012B     		cmp	r3, #1
 113 000a 1CD8     		bhi	.L7
 514:.\main.c      ****        (CyBle_GetState() == CYBLE_STATE_CONNECTED))
ARM GAS  C:\Users\Petro\AppData\Local\Temp\ccvLNIXl.s 			page 12


 515:.\main.c      ****     {
 516:.\main.c      ****         /* Request BLE subsystem to enter into Deep-Sleep mode between connection and advertising i
 517:.\main.c      ****         bleMode = CyBle_EnterLPM(CYBLE_BLESS_DEEPSLEEP);
 114              		.loc 1 517 0
 115 000c 0320     		mov	r0, #3
 116 000e FFF7FEFF 		bl	CyBle_EnterLPM
 117              	.LVL3:
 118 0012 051C     		mov	r5, r0
 119              	.LVL4:
 518:.\main.c      ****         /* Disable global interrupts */
 519:.\main.c      ****         interruptStatus = CyEnterCriticalSection();
 120              		.loc 1 519 0
 121 0014 FFF7FEFF 		bl	CyEnterCriticalSection
 122              	.LVL5:
 123 0018 041C     		mov	r4, r0
 124              	.LVL6:
 520:.\main.c      ****         /* When BLE subsystem has been put into Deep-Sleep mode */
 521:.\main.c      ****         if(bleMode == CYBLE_BLESS_DEEPSLEEP)
 125              		.loc 1 521 0
 126 001a 032D     		cmp	r5, #3
 127 001c 0AD1     		bne	.L9
 522:.\main.c      ****         {
 523:.\main.c      ****             /* And it is still there or ECO is on */
 524:.\main.c      ****             if((CyBle_GetBleSsState() == CYBLE_BLESS_STATE_ECO_ON) || 
 128              		.loc 1 524 0
 129 001e FFF7FEFF 		bl	CyBle_GetBleSsState
 130              	.LVL7:
 131 0022 0428     		cmp	r0, #4
 132 0024 03D0     		beq	.L10
 525:.\main.c      ****                (CyBle_GetBleSsState() == CYBLE_BLESS_STATE_DEEPSLEEP))
 133              		.loc 1 525 0 discriminator 1
 134 0026 FFF7FEFF 		bl	CyBle_GetBleSsState
 135              	.LVL8:
 524:.\main.c      ****                (CyBle_GetBleSsState() == CYBLE_BLESS_STATE_DEEPSLEEP))
 136              		.loc 1 524 0 discriminator 1
 137 002a 0628     		cmp	r0, #6
 138 002c 08D1     		bne	.L11
 139              	.L10:
 526:.\main.c      ****             {
 527:.\main.c      ****                 /* Put the CPU into Sleep mode and let SCB to continue sending debug data and recei
 528:.\main.c      ****                 CySysPmSleep();
 140              		.loc 1 528 0
 141 002e FFF7FEFF 		bl	CySysPmSleep
 142              	.LVL9:
 143 0032 05E0     		b	.L11
 144              	.L9:
 529:.\main.c      ****             }
 530:.\main.c      ****         }
 531:.\main.c      ****         else /* When BLE subsystem has been put into Sleep mode or is active */
 532:.\main.c      ****         {
 533:.\main.c      ****             /* And hardware hasn't finished Tx/Rx operation - put the CPU into Sleep mode */
 534:.\main.c      ****             if(CyBle_GetBleSsState() != CYBLE_BLESS_STATE_EVENT_CLOSE)
 145              		.loc 1 534 0
 146 0034 FFF7FEFF 		bl	CyBle_GetBleSsState
 147              	.LVL10:
 148 0038 0228     		cmp	r0, #2
 149 003a 01D0     		beq	.L11
ARM GAS  C:\Users\Petro\AppData\Local\Temp\ccvLNIXl.s 			page 13


 535:.\main.c      ****             {
 536:.\main.c      ****                 CySysPmSleep();
 150              		.loc 1 536 0
 151 003c FFF7FEFF 		bl	CySysPmSleep
 152              	.LVL11:
 153              	.L11:
 537:.\main.c      ****             }
 538:.\main.c      ****         }
 539:.\main.c      ****         /* Enable global interrupt */
 540:.\main.c      ****         CyExitCriticalSection(interruptStatus);
 154              		.loc 1 540 0
 155 0040 201C     		mov	r0, r4
 156 0042 FFF7FEFF 		bl	CyExitCriticalSection
 157              	.LVL12:
 158              	.L7:
 541:.\main.c      ****     }
 542:.\main.c      **** }
 159              		.loc 1 542 0
 160              		@ sp needed
 161 0046 38BD     		pop	{r3, r4, r5, pc}
 162              	.L13:
 163              		.align	2
 164              	.L12:
 165 0048 00000000 		.word	cyBle_state
 166              		.cfi_endproc
 167              	.LFE42:
 168              		.size	LowPowerImplementation, .-LowPowerImplementation
 169              		.section	.text.UpdateLedState,"ax",%progbits
 170              		.align	2
 171              		.global	UpdateLedState
 172              		.code	16
 173              		.thumb_func
 174              		.type	UpdateLedState, %function
 175              	UpdateLedState:
 176              	.LFB39:
 420:.\main.c      ****    
 177              		.loc 1 420 0
 178              		.cfi_startproc
 179 0000 08B5     		push	{r3, lr}
 180              		.cfi_def_cfa_offset 8
 181              		.cfi_offset 3, -8
 182              		.cfi_offset 14, -4
 422:.\main.c      ****     {   
 183              		.loc 1 422 0
 184 0002 074B     		ldr	r3, .L17
 185 0004 1B78     		ldrb	r3, [r3]
 186 0006 052B     		cmp	r3, #5
 187 0008 03D1     		bne	.L15
 424:.\main.c      ****     }
 188              		.loc 1 424 0
 189 000a 0020     		mov	r0, #0
 190 000c FFF7FEFF 		bl	Scanning_LED_Write
 191              	.LVL13:
 192 0010 04E0     		b	.L14
 193              	.L15:
 426:.\main.c      ****     {
 194              		.loc 1 426 0
ARM GAS  C:\Users\Petro\AppData\Local\Temp\ccvLNIXl.s 			page 14


 195 0012 022B     		cmp	r3, #2
 196 0014 02D1     		bne	.L14
 428:.\main.c      ****     }
 197              		.loc 1 428 0
 198 0016 0120     		mov	r0, #1
 199 0018 FFF7FEFF 		bl	Scanning_LED_Write
 200              	.LVL14:
 201              	.L14:
 434:.\main.c      **** 
 202              		.loc 1 434 0
 203              		@ sp needed
 204 001c 08BD     		pop	{r3, pc}
 205              	.L18:
 206 001e C046     		.align	2
 207              	.L17:
 208 0020 00000000 		.word	cyBle_state
 209              		.cfi_endproc
 210              	.LFE39:
 211              		.size	UpdateLedState, .-UpdateLedState
 212              		.section	.text.AppCallback,"ax",%progbits
 213              		.align	2
 214              		.global	AppCallback
 215              		.code	16
 216              		.thumb_func
 217              		.type	AppCallback, %function
 218              	AppCallback:
 219              	.LFB37:
  61:.\main.c      ****     CYBLE_API_RESULT_T apiResult;
 220              		.loc 1 61 0
 221              		.cfi_startproc
 222              	.LVL15:
 223 0000 F0B5     		push	{r4, r5, r6, r7, lr}
 224              		.cfi_def_cfa_offset 20
 225              		.cfi_offset 4, -20
 226              		.cfi_offset 5, -16
 227              		.cfi_offset 6, -12
 228              		.cfi_offset 7, -8
 229              		.cfi_offset 14, -4
 230 0002 4F46     		mov	r7, r9
 231 0004 80B4     		push	{r7}
 232              		.cfi_def_cfa_offset 24
 233              		.cfi_offset 9, -24
 234 0006 86B0     		sub	sp, sp, #24
 235              		.cfi_def_cfa_offset 48
 236 0008 021C     		mov	r2, r0
 237 000a 0C1C     		mov	r4, r1
 238              	.LVL16:
  72:.\main.c      **** 	{
 239              		.loc 1 72 0
 240 000c 1223     		mov	r3, #18
 241 000e FF33     		add	r3, r3, #255
 242 0010 9842     		cmp	r0, r3
 243 0012 00D9     		bls	.LCB197
 244 0014 8CE2     		b	.L20	@long jump
 245              	.LCB197:
 246 0016 8300     		lsl	r3, r0, #2
 247 0018 CF49     		ldr	r1, .L90
ARM GAS  C:\Users\Petro\AppData\Local\Temp\ccvLNIXl.s 			page 15


 248              	.LVL17:
 249 001a CB58     		ldr	r3, [r1, r3]
 250 001c 9F46     		mov	pc, r3
 251              		.section	.rodata
 252              		.align	2
 253              	.L22:
 254 0000 30050000 		.word	.L20
 255 0004 1E000000 		.word	.L21
 256 0008 38000000 		.word	.L23
 257 000c 42000000 		.word	.L24
 258 0010 4C000000 		.word	.L25
 259 0014 56000000 		.word	.L26
 260 0018 30050000 		.word	.L20
 261 001c 30050000 		.word	.L20
 262 0020 30050000 		.word	.L20
 263 0024 30050000 		.word	.L20
 264 0028 30050000 		.word	.L20
 265 002c 30050000 		.word	.L20
 266 0030 30050000 		.word	.L20
 267 0034 30050000 		.word	.L20
 268 0038 30050000 		.word	.L20
 269 003c 30050000 		.word	.L20
 270 0040 30050000 		.word	.L20
 271 0044 30050000 		.word	.L20
 272 0048 30050000 		.word	.L20
 273 004c 30050000 		.word	.L20
 274 0050 30050000 		.word	.L20
 275 0054 30050000 		.word	.L20
 276 0058 30050000 		.word	.L20
 277 005c 30050000 		.word	.L20
 278 0060 30050000 		.word	.L20
 279 0064 30050000 		.word	.L20
 280 0068 30050000 		.word	.L20
 281 006c 30050000 		.word	.L20
 282 0070 30050000 		.word	.L20
 283 0074 30050000 		.word	.L20
 284 0078 30050000 		.word	.L20
 285 007c 30050000 		.word	.L20
 286 0080 64000000 		.word	.L27
 287 0084 30050000 		.word	.L20
 288 0088 30050000 		.word	.L20
 289 008c 30050000 		.word	.L20
 290 0090 B0010000 		.word	.L28
 291 0094 C2010000 		.word	.L29
 292 0098 30050000 		.word	.L20
 293 009c CC010000 		.word	.L30
 294 00a0 68020000 		.word	.L31
 295 00a4 8C020000 		.word	.L32
 296 00a8 96020000 		.word	.L33
 297 00ac 36010000 		.word	.L34
 298 00b0 BC020000 		.word	.L35
 299 00b4 30050000 		.word	.L20
 300 00b8 30050000 		.word	.L20
 301 00bc 30050000 		.word	.L20
 302 00c0 30050000 		.word	.L20
 303 00c4 30050000 		.word	.L20
 304 00c8 30050000 		.word	.L20
ARM GAS  C:\Users\Petro\AppData\Local\Temp\ccvLNIXl.s 			page 16


 305 00cc 30050000 		.word	.L20
 306 00d0 30050000 		.word	.L20
 307 00d4 30050000 		.word	.L20
 308 00d8 30050000 		.word	.L20
 309 00dc 30050000 		.word	.L20
 310 00e0 30050000 		.word	.L20
 311 00e4 30050000 		.word	.L20
 312 00e8 30050000 		.word	.L20
 313 00ec 30050000 		.word	.L20
 314 00f0 30050000 		.word	.L20
 315 00f4 30050000 		.word	.L20
 316 00f8 30050000 		.word	.L20
 317 00fc 30050000 		.word	.L20
 318 0100 C4020000 		.word	.L36
 319 0104 D2020000 		.word	.L37
 320 0108 DE020000 		.word	.L38
 321 010c 30050000 		.word	.L20
 322 0110 44030000 		.word	.L39
 323 0114 4C030000 		.word	.L40
 324 0118 30040000 		.word	.L41
 325 011c 56040000 		.word	.L42
 326 0120 AA040000 		.word	.L43
 327 0124 1C030000 		.word	.L44
 328 0128 2C030000 		.word	.L45
 329 012c 30050000 		.word	.L20
 330 0130 30050000 		.word	.L20
 331 0134 3C030000 		.word	.L46
 332 0138 30050000 		.word	.L20
 333 013c 30050000 		.word	.L20
 334 0140 30050000 		.word	.L20
 335 0144 30050000 		.word	.L20
 336 0148 E6020000 		.word	.L47
 337 014c F8020000 		.word	.L48
 338 0150 30050000 		.word	.L20
 339 0154 30050000 		.word	.L20
 340 0158 30050000 		.word	.L20
 341 015c 30050000 		.word	.L20
 342 0160 30050000 		.word	.L20
 343 0164 30050000 		.word	.L20
 344 0168 30050000 		.word	.L20
 345 016c 30050000 		.word	.L20
 346 0170 30050000 		.word	.L20
 347 0174 30050000 		.word	.L20
 348 0178 30050000 		.word	.L20
 349 017c 30050000 		.word	.L20
 350 0180 30050000 		.word	.L20
 351 0184 30050000 		.word	.L20
 352 0188 30050000 		.word	.L20
 353 018c 30050000 		.word	.L20
 354 0190 30050000 		.word	.L20
 355 0194 30050000 		.word	.L20
 356 0198 30050000 		.word	.L20
 357 019c 30050000 		.word	.L20
 358 01a0 30050000 		.word	.L20
 359 01a4 30050000 		.word	.L20
 360 01a8 30050000 		.word	.L20
 361 01ac 30050000 		.word	.L20
ARM GAS  C:\Users\Petro\AppData\Local\Temp\ccvLNIXl.s 			page 17


 362 01b0 30050000 		.word	.L20
 363 01b4 30050000 		.word	.L20
 364 01b8 30050000 		.word	.L20
 365 01bc 30050000 		.word	.L20
 366 01c0 30050000 		.word	.L20
 367 01c4 30050000 		.word	.L20
 368 01c8 30050000 		.word	.L20
 369 01cc 30050000 		.word	.L20
 370 01d0 30050000 		.word	.L20
 371 01d4 30050000 		.word	.L20
 372 01d8 30050000 		.word	.L20
 373 01dc 30050000 		.word	.L20
 374 01e0 30050000 		.word	.L20
 375 01e4 30050000 		.word	.L20
 376 01e8 30050000 		.word	.L20
 377 01ec 30050000 		.word	.L20
 378 01f0 30050000 		.word	.L20
 379 01f4 30050000 		.word	.L20
 380 01f8 30050000 		.word	.L20
 381 01fc 30050000 		.word	.L20
 382 0200 30050000 		.word	.L20
 383 0204 30050000 		.word	.L20
 384 0208 30050000 		.word	.L20
 385 020c 30050000 		.word	.L20
 386 0210 30050000 		.word	.L20
 387 0214 30050000 		.word	.L20
 388 0218 30050000 		.word	.L20
 389 021c 30050000 		.word	.L20
 390 0220 30050000 		.word	.L20
 391 0224 30050000 		.word	.L20
 392 0228 30050000 		.word	.L20
 393 022c 30050000 		.word	.L20
 394 0230 30050000 		.word	.L20
 395 0234 30050000 		.word	.L20
 396 0238 30050000 		.word	.L20
 397 023c 30050000 		.word	.L20
 398 0240 30050000 		.word	.L20
 399 0244 30050000 		.word	.L20
 400 0248 30050000 		.word	.L20
 401 024c 30050000 		.word	.L20
 402 0250 30050000 		.word	.L20
 403 0254 30050000 		.word	.L20
 404 0258 30050000 		.word	.L20
 405 025c 30050000 		.word	.L20
 406 0260 30050000 		.word	.L20
 407 0264 30050000 		.word	.L20
 408 0268 30050000 		.word	.L20
 409 026c 30050000 		.word	.L20
 410 0270 30050000 		.word	.L20
 411 0274 30050000 		.word	.L20
 412 0278 30050000 		.word	.L20
 413 027c 30050000 		.word	.L20
 414 0280 30050000 		.word	.L20
 415 0284 30050000 		.word	.L20
 416 0288 30050000 		.word	.L20
 417 028c 30050000 		.word	.L20
 418 0290 30050000 		.word	.L20
ARM GAS  C:\Users\Petro\AppData\Local\Temp\ccvLNIXl.s 			page 18


 419 0294 30050000 		.word	.L20
 420 0298 30050000 		.word	.L20
 421 029c 30050000 		.word	.L20
 422 02a0 30050000 		.word	.L20
 423 02a4 30050000 		.word	.L20
 424 02a8 30050000 		.word	.L20
 425 02ac 30050000 		.word	.L20
 426 02b0 30050000 		.word	.L20
 427 02b4 30050000 		.word	.L20
 428 02b8 30050000 		.word	.L20
 429 02bc 30050000 		.word	.L20
 430 02c0 30050000 		.word	.L20
 431 02c4 30050000 		.word	.L20
 432 02c8 30050000 		.word	.L20
 433 02cc 30050000 		.word	.L20
 434 02d0 30050000 		.word	.L20
 435 02d4 30050000 		.word	.L20
 436 02d8 30050000 		.word	.L20
 437 02dc 30050000 		.word	.L20
 438 02e0 30050000 		.word	.L20
 439 02e4 30050000 		.word	.L20
 440 02e8 30050000 		.word	.L20
 441 02ec 30050000 		.word	.L20
 442 02f0 30050000 		.word	.L20
 443 02f4 30050000 		.word	.L20
 444 02f8 30050000 		.word	.L20
 445 02fc 30050000 		.word	.L20
 446 0300 30050000 		.word	.L20
 447 0304 30050000 		.word	.L20
 448 0308 30050000 		.word	.L20
 449 030c 30050000 		.word	.L20
 450 0310 30050000 		.word	.L20
 451 0314 30050000 		.word	.L20
 452 0318 30050000 		.word	.L20
 453 031c 30050000 		.word	.L20
 454 0320 30050000 		.word	.L20
 455 0324 30050000 		.word	.L20
 456 0328 30050000 		.word	.L20
 457 032c 30050000 		.word	.L20
 458 0330 30050000 		.word	.L20
 459 0334 30050000 		.word	.L20
 460 0338 30050000 		.word	.L20
 461 033c 30050000 		.word	.L20
 462 0340 30050000 		.word	.L20
 463 0344 30050000 		.word	.L20
 464 0348 30050000 		.word	.L20
 465 034c 30050000 		.word	.L20
 466 0350 30050000 		.word	.L20
 467 0354 30050000 		.word	.L20
 468 0358 30050000 		.word	.L20
 469 035c 30050000 		.word	.L20
 470 0360 30050000 		.word	.L20
 471 0364 30050000 		.word	.L20
 472 0368 30050000 		.word	.L20
 473 036c 30050000 		.word	.L20
 474 0370 30050000 		.word	.L20
 475 0374 30050000 		.word	.L20
ARM GAS  C:\Users\Petro\AppData\Local\Temp\ccvLNIXl.s 			page 19


 476 0378 30050000 		.word	.L20
 477 037c 30050000 		.word	.L20
 478 0380 30050000 		.word	.L20
 479 0384 30050000 		.word	.L20
 480 0388 30050000 		.word	.L20
 481 038c 30050000 		.word	.L20
 482 0390 30050000 		.word	.L20
 483 0394 30050000 		.word	.L20
 484 0398 30050000 		.word	.L20
 485 039c 30050000 		.word	.L20
 486 03a0 30050000 		.word	.L20
 487 03a4 30050000 		.word	.L20
 488 03a8 30050000 		.word	.L20
 489 03ac 30050000 		.word	.L20
 490 03b0 30050000 		.word	.L20
 491 03b4 30050000 		.word	.L20
 492 03b8 30050000 		.word	.L20
 493 03bc 30050000 		.word	.L20
 494 03c0 30050000 		.word	.L20
 495 03c4 30050000 		.word	.L20
 496 03c8 30050000 		.word	.L20
 497 03cc 30050000 		.word	.L20
 498 03d0 30050000 		.word	.L20
 499 03d4 30050000 		.word	.L20
 500 03d8 30050000 		.word	.L20
 501 03dc 30050000 		.word	.L20
 502 03e0 30050000 		.word	.L20
 503 03e4 30050000 		.word	.L20
 504 03e8 28050000 		.word	.L49
 505 03ec 30050000 		.word	.L20
 506 03f0 30050000 		.word	.L20
 507 03f4 30050000 		.word	.L20
 508 03f8 30050000 		.word	.L20
 509 03fc 30050000 		.word	.L20
 510 0400 30050000 		.word	.L20
 511 0404 30050000 		.word	.L20
 512 0408 30050000 		.word	.L20
 513 040c 30050000 		.word	.L20
 514 0410 30050000 		.word	.L20
 515 0414 30050000 		.word	.L20
 516 0418 0A030000 		.word	.L50
 517 041c 30050000 		.word	.L20
 518 0420 30050000 		.word	.L20
 519 0424 30050000 		.word	.L20
 520 0428 30050000 		.word	.L20
 521 042c 30050000 		.word	.L20
 522 0430 30050000 		.word	.L20
 523 0434 30050000 		.word	.L20
 524 0438 30050000 		.word	.L20
 525 043c 30050000 		.word	.L20
 526 0440 30050000 		.word	.L20
 527 0444 B2040000 		.word	.L51
 528              		.section	.text.AppCallback
 529              	.L21:
  75:.\main.c      ****             apiResult = CyBle_GapcStartScan(CYBLE_SCANNING_FAST);                   /* Start Limite
 530              		.loc 1 75 0
 531 001e CF48     		ldr	r0, .L90+4
ARM GAS  C:\Users\Petro\AppData\Local\Temp\ccvLNIXl.s 			page 20


 532              	.LVL18:
 533 0020 FFF7FEFF 		bl	puts
 534              	.LVL19:
  76:.\main.c      ****             if(apiResult != CYBLE_ERROR_OK)
 535              		.loc 1 76 0
 536 0024 0020     		mov	r0, #0
 537 0026 FFF7FEFF 		bl	CyBle_GapcStartScan
 538              	.LVL20:
 539 002a 011E     		sub	r1, r0, #0
 540              	.LVL21:
  77:.\main.c      ****             {
 541              		.loc 1 77 0
 542 002c 00D1     		bne	.LCB222
 543 002e 83E2     		b	.L19	@long jump
 544              	.LCB222:
  79:.\main.c      ****             }
 545              		.loc 1 79 0
 546 0030 CB48     		ldr	r0, .L90+8
 547              	.LVL22:
 548 0032 FFF7FEFF 		bl	printf
 549              	.LVL23:
 550 0036 7FE2     		b	.L19
 551              	.LVL24:
 552              	.L23:
  83:.\main.c      **** 			break;
 553              		.loc 1 83 0
 554 0038 2178     		ldrb	r1, [r4]
 555 003a CA48     		ldr	r0, .L90+12
 556              	.LVL25:
 557 003c FFF7FEFF 		bl	printf
 558              	.LVL26:
  84:.\main.c      **** 		case CYBLE_EVT_HARDWARE_ERROR:    /* This event indicates that some internal HW error has occurre
 559              		.loc 1 84 0
 560 0040 7AE2     		b	.L19
 561              	.LVL27:
 562              	.L24:
  86:.\main.c      **** 			break;
 563              		.loc 1 86 0
 564 0042 2178     		ldrb	r1, [r4]
 565 0044 C848     		ldr	r0, .L90+16
 566              	.LVL28:
 567 0046 FFF7FEFF 		bl	printf
 568              	.LVL29:
  87:.\main.c      ****         case CYBLE_EVT_HCI_STATUS:
 569              		.loc 1 87 0
 570 004a 75E2     		b	.L19
 571              	.LVL30:
 572              	.L25:
  89:.\main.c      **** 			break;
 573              		.loc 1 89 0
 574 004c 2178     		ldrb	r1, [r4]
 575 004e C748     		ldr	r0, .L90+20
 576              	.LVL31:
 577 0050 FFF7FEFF 		bl	printf
 578              	.LVL32:
  90:.\main.c      ****     	case CYBLE_EVT_STACK_BUSY_STATUS:
 579              		.loc 1 90 0
ARM GAS  C:\Users\Petro\AppData\Local\Temp\ccvLNIXl.s 			page 21


 580 0054 70E2     		b	.L19
 581              	.LVL33:
 582              	.L26:
  92:.\main.c      ****             break;
 583              		.loc 1 92 0
 584 0056 C64B     		ldr	r3, .L90+24
 585 0058 1978     		ldrb	r1, [r3]
 586 005a C9B2     		uxtb	r1, r1
 587 005c C548     		ldr	r0, .L90+28
 588              	.LVL34:
 589 005e FFF7FEFF 		bl	printf
 590              	.LVL35:
  93:.\main.c      ****             
 591              		.loc 1 93 0
 592 0062 69E2     		b	.L19
 593              	.LVL36:
 594              	.L27:
 595              	.LBB3:
 104:.\main.c      ****                 {
 596              		.loc 1 104 0
 597 0064 201C     		mov	r0, r4
 598              	.LVL37:
 599 0066 05A9     		add	r1, sp, #20
 600 0068 FFF7FEFF 		bl	WptsScanProcessEventHandler
 601              	.LVL38:
 602 006c 0028     		cmp	r0, #0
 603 006e 00D1     		bne	.LCB291
 604 0070 62E2     		b	.L19	@long jump
 605              	.LCB291:
 106:.\main.c      ****                         advReport->eventType, advReport->peerAddrType);
 606              		.loc 1 106 0
 607 0072 2178     		ldrb	r1, [r4]
 608 0074 6278     		ldrb	r2, [r4, #1]
 609 0076 C048     		ldr	r0, .L90+32
 610 0078 FFF7FEFF 		bl	printf
 611              	.LVL39:
 108:.\main.c      ****                     for(newDevice = 1u, i = 0u; i < advDevices; i++)
 612              		.loc 1 108 0
 613 007c BF48     		ldr	r0, .L90+36
 614 007e FFF7FEFF 		bl	printf
 615              	.LVL40:
 109:.\main.c      ****                     {
 616              		.loc 1 109 0
 617 0082 0025     		mov	r5, #0
 618 0084 12E0     		b	.L54
 619              	.LVL41:
 620              	.L57:
 112:.\main.c      ****                         {
 621              		.loc 1 112 0
 622 0086 EB00     		lsl	r3, r5, #3
 623 0088 5B19     		add	r3, r3, r5
 624 008a 9B00     		lsl	r3, r3, #2
 625 008c BC48     		ldr	r0, .L90+40
 626 008e 1818     		add	r0, r3, r0
 627 0090 6168     		ldr	r1, [r4, #4]
 628 0092 0622     		mov	r2, #6
 629 0094 FFF7FEFF 		bl	memcmp
ARM GAS  C:\Users\Petro\AppData\Local\Temp\ccvLNIXl.s 			page 22


 630              	.LVL42:
 631 0098 0028     		cmp	r0, #0
 632 009a 05D1     		bne	.L55
 114:.\main.c      ****                             newDevice = 0u;
 633              		.loc 1 114 0
 634 009c B948     		ldr	r0, .L90+44
 635 009e 291C     		mov	r1, r5
 636 00a0 FFF7FEFF 		bl	printf
 637              	.LVL43:
 115:.\main.c      ****                             break;
 638              		.loc 1 115 0
 639 00a4 0023     		mov	r3, #0
 116:.\main.c      ****                         }
 640              		.loc 1 116 0
 641 00a6 06E0     		b	.L56
 642              	.LVL44:
 643              	.L55:
 109:.\main.c      ****                     {
 644              		.loc 1 109 0 discriminator 2
 645 00a8 0135     		add	r5, r5, #1
 646              	.LVL45:
 647 00aa ADB2     		uxth	r5, r5
 648              	.LVL46:
 649              	.L54:
 109:.\main.c      ****                     {
 650              		.loc 1 109 0 is_stmt 0 discriminator 1
 651 00ac B64B     		ldr	r3, .L90+48
 652 00ae 1B7A     		ldrb	r3, [r3, #8]
 653 00b0 AB42     		cmp	r3, r5
 654 00b2 E8D8     		bhi	.L57
 109:.\main.c      ****                     {
 655              		.loc 1 109 0
 656 00b4 0123     		mov	r3, #1
 657              	.LVL47:
 658              	.L56:
 119:.\main.c      ****                     {
 659              		.loc 1 119 0 is_stmt 1
 660 00b6 002B     		cmp	r3, #0
 661 00b8 1CD0     		beq	.L58
 121:.\main.c      ****                         {
 662              		.loc 1 121 0
 663 00ba B34B     		ldr	r3, .L90+48
 664              	.LVL48:
 665 00bc 1D7A     		ldrb	r5, [r3, #8]
 666              	.LVL49:
 667 00be 072D     		cmp	r5, #7
 668 00c0 18D8     		bhi	.L58
 123:.\main.c      ****                             peedDeviceInfo[advDevices].peerAddr.type = advReport->peerAddrType;
 669              		.loc 1 123 0
 670 00c2 EE00     		lsl	r6, r5, #3
 671 00c4 7319     		add	r3, r6, r5
 672 00c6 9B00     		lsl	r3, r3, #2
 673 00c8 AD4E     		ldr	r6, .L90+40
 674 00ca F618     		add	r6, r6, r3
 675 00cc 301C     		mov	r0, r6
 676 00ce 6168     		ldr	r1, [r4, #4]
 677 00d0 0622     		mov	r2, #6
ARM GAS  C:\Users\Petro\AppData\Local\Temp\ccvLNIXl.s 			page 23


 678 00d2 FFF7FEFF 		bl	memcpy
 679              	.LVL50:
 124:.\main.c      ****                             peedDeviceInfo[advDevices].peerAdvServData = serviceData;
 680              		.loc 1 124 0
 681 00d6 6378     		ldrb	r3, [r4, #1]
 682 00d8 B371     		strb	r3, [r6, #6]
 125:.\main.c      ****                             DBG_PRINTF("%x: ",advDevices);
 683              		.loc 1 125 0
 684 00da F01D     		add	r0, r6, #7
 685 00dc 05A9     		add	r1, sp, #20
 686 00de 0422     		mov	r2, #4
 687 00e0 FFF7FEFF 		bl	memcpy
 688              	.LVL51:
 126:.\main.c      ****                             advDevices++;
 689              		.loc 1 126 0
 690 00e4 A748     		ldr	r0, .L90+44
 691 00e6 291C     		mov	r1, r5
 692 00e8 FFF7FEFF 		bl	printf
 693              	.LVL52:
 127:.\main.c      ****                         }
 694              		.loc 1 127 0
 695 00ec A64A     		ldr	r2, .L90+48
 696 00ee 137A     		ldrb	r3, [r2, #8]
 697 00f0 0133     		add	r3, r3, #1
 698 00f2 1372     		strb	r3, [r2, #8]
 699              	.L58:
 109:.\main.c      ****                     {
 700              		.loc 1 109 0 discriminator 1
 701 00f4 0625     		mov	r5, #6
 702 00f6 08E0     		b	.L59
 703              	.LVL53:
 704              	.L60:
 132:.\main.c      ****                     }
 705              		.loc 1 132 0 discriminator 3
 706 00f8 6368     		ldr	r3, [r4, #4]
 707 00fa 5B19     		add	r3, r3, r5
 708 00fc 013B     		sub	r3, r3, #1
 709 00fe 1978     		ldrb	r1, [r3]
 710 0100 A248     		ldr	r0, .L90+52
 711 0102 FFF7FEFF 		bl	printf
 712              	.LVL54:
 130:.\main.c      ****                     {
 713              		.loc 1 130 0 discriminator 3
 714 0106 013D     		sub	r5, r5, #1
 715              	.LVL55:
 716 0108 ADB2     		uxth	r5, r5
 717              	.LVL56:
 718              	.L59:
 130:.\main.c      ****                     {
 719              		.loc 1 130 0 is_stmt 0 discriminator 1
 720 010a 002D     		cmp	r5, #0
 721 010c F4D1     		bne	.L60
 134:.\main.c      ****                     for( i = 0; i < advReport->dataLen; i++)
 722              		.loc 1 134 0 is_stmt 1
 723 010e 1021     		mov	r1, #16
 724 0110 6156     		ldrsb	r1, [r4, r1]
 725 0112 9F48     		ldr	r0, .L90+56
ARM GAS  C:\Users\Petro\AppData\Local\Temp\ccvLNIXl.s 			page 24


 726 0114 FFF7FEFF 		bl	printf
 727              	.LVL57:
 135:.\main.c      ****                     {
 728              		.loc 1 135 0
 729 0118 06E0     		b	.L61
 730              	.LVL58:
 731              	.L62:
 137:.\main.c      ****                     }
 732              		.loc 1 137 0 discriminator 3
 733 011a E368     		ldr	r3, [r4, #12]
 734 011c 595D     		ldrb	r1, [r3, r5]
 735 011e 9D48     		ldr	r0, .L90+60
 736 0120 FFF7FEFF 		bl	printf
 737              	.LVL59:
 135:.\main.c      ****                     {
 738              		.loc 1 135 0 discriminator 3
 739 0124 0135     		add	r5, r5, #1
 740              	.LVL60:
 741 0126 ADB2     		uxth	r5, r5
 742              	.LVL61:
 743              	.L61:
 135:.\main.c      ****                     {
 744              		.loc 1 135 0 is_stmt 0 discriminator 1
 745 0128 237A     		ldrb	r3, [r4, #8]
 746 012a AB42     		cmp	r3, r5
 747 012c F5D8     		bhi	.L62
 139:.\main.c      ****                 }
 748              		.loc 1 139 0 is_stmt 1
 749 012e 9A48     		ldr	r0, .L90+64
 750 0130 FFF7FEFF 		bl	puts
 751              	.LVL62:
 752              	.LBE3:
 142:.\main.c      **** 	    case CYBLE_EVT_GAPC_SCAN_START_STOP:
 753              		.loc 1 142 0
 754 0134 00E2     		b	.L19
 755              	.LVL63:
 756              	.L34:
 144:.\main.c      ****             if(CyBle_GetState() == CYBLE_STATE_DISCONNECTED)
 757              		.loc 1 144 0
 758 0136 994C     		ldr	r4, .L90+68
 759              	.LVL64:
 760 0138 2178     		ldrb	r1, [r4]
 761 013a 9948     		ldr	r0, .L90+72
 762              	.LVL65:
 763 013c FFF7FEFF 		bl	printf
 764              	.LVL66:
 145:.\main.c      ****             {
 765              		.loc 1 145 0
 766 0140 2378     		ldrb	r3, [r4]
 767 0142 052B     		cmp	r3, #5
 768 0144 00D0     		beq	.LCB477
 769 0146 F7E1     		b	.L19	@long jump
 770              	.LCB477:
 147:.\main.c      ****                 {
 771              		.loc 1 147 0
 772 0148 8F4B     		ldr	r3, .L90+48
 773 014a 5B7A     		ldrb	r3, [r3, #9]
ARM GAS  C:\Users\Petro\AppData\Local\Temp\ccvLNIXl.s 			page 25


 774 014c 012B     		cmp	r3, #1
 775 014e 15D1     		bne	.L63
 149:.\main.c      ****                     /* Connect to selected device */
 776              		.loc 1 149 0
 777 0150 9448     		ldr	r0, .L90+76
 778 0152 FFF7FEFF 		bl	puts
 779              	.LVL67:
 151:.\main.c      ****                     apiResult = CyBle_GapcConnectDevice(&peedDeviceInfo[deviceN].peerAddr);
 780              		.loc 1 151 0
 781 0156 0522     		mov	r2, #5
 782 0158 934B     		ldr	r3, .L90+80
 783 015a 1A80     		strh	r2, [r3]
 152:.\main.c      ****                     if(apiResult != CYBLE_ERROR_OK)
 784              		.loc 1 152 0
 785 015c 8A4B     		ldr	r3, .L90+48
 786 015e 9B7A     		ldrb	r3, [r3, #10]
 787 0160 D800     		lsl	r0, r3, #3
 788 0162 C318     		add	r3, r0, r3
 789 0164 9B00     		lsl	r3, r3, #2
 790 0166 8648     		ldr	r0, .L90+40
 791 0168 1818     		add	r0, r3, r0
 792 016a FFF7FEFF 		bl	CyBle_GapcConnectDevice
 793              	.LVL68:
 794 016e 011E     		sub	r1, r0, #0
 795              	.LVL69:
 153:.\main.c      ****                     {
 796              		.loc 1 153 0
 797 0170 00D1     		bne	.LCB502
 798 0172 E1E1     		b	.L19	@long jump
 799              	.LCB502:
 155:.\main.c      ****                     }
 800              		.loc 1 155 0
 801 0174 8D48     		ldr	r0, .L90+84
 802              	.LVL70:
 803 0176 FFF7FEFF 		bl	printf
 804              	.LVL71:
 805 017a DDE1     		b	.L19
 806              	.L63:
 163:.\main.c      ****                     UpdateLedState();
 807              		.loc 1 163 0
 808 017c 8C48     		ldr	r0, .L90+88
 809 017e FFF7FEFF 		bl	puts
 810              	.LVL72:
 164:.\main.c      ****                 #if (DEBUG_UART_ENABLED == ENABLED)
 811              		.loc 1 164 0
 812 0182 FFF7FEFF 		bl	UpdateLedState
 813              	.LVL73:
 814              	.L65:
 166:.\main.c      ****                 #endif /* (DEBUG_UART_ENABLED == ENABLED) */
 815              		.loc 1 166 0 discriminator 5
 816 0186 FFF7FEFF 		bl	UART_DEB_SpiUartGetTxBufferSize
 817              	.LVL74:
 818 018a 8A4B     		ldr	r3, .L90+92
 819 018c 1B68     		ldr	r3, [r3]
 820 018e 8022     		mov	r2, #128
 821 0190 1202     		lsl	r2, r2, #8
 822 0192 1340     		and	r3, r2
ARM GAS  C:\Users\Petro\AppData\Local\Temp\ccvLNIXl.s 			page 26


 823 0194 00D0     		beq	.L64
 166:.\main.c      ****                 #endif /* (DEBUG_UART_ENABLED == ENABLED) */
 824              		.loc 1 166 0 is_stmt 0
 825 0196 0123     		mov	r3, #1
 826              	.L64:
 166:.\main.c      ****                 #endif /* (DEBUG_UART_ENABLED == ENABLED) */
 827              		.loc 1 166 0 discriminator 4
 828 0198 C318     		add	r3, r0, r3
 829 019a 002B     		cmp	r3, #0
 830 019c F3D1     		bne	.L65
 168:.\main.c      ****                     Wakeup_Interrupt_ClearPending();
 831              		.loc 1 168 0 is_stmt 1
 832 019e FFF7FEFF 		bl	SW2_ClearInterrupt
 833              	.LVL75:
 169:.\main.c      ****                     Wakeup_Interrupt_Start();
 834              		.loc 1 169 0
 835 01a2 FFF7FEFF 		bl	Wakeup_Interrupt_ClearPending
 836              	.LVL76:
 170:.\main.c      ****                     CySysPmHibernate();
 837              		.loc 1 170 0
 838 01a6 FFF7FEFF 		bl	Wakeup_Interrupt_Start
 839              	.LVL77:
 171:.\main.c      ****                 }
 840              		.loc 1 171 0
 841 01aa FFF7FEFF 		bl	CySysPmHibernate
 842              	.LVL78:
 843 01ae C3E1     		b	.L19
 844              	.LVL79:
 845              	.L28:
 178:.\main.c      ****                                     authInfo->security, authInfo->bonding, authInfo->ekeySize, auth
 846              		.loc 1 178 0
 847 01b0 2178     		ldrb	r1, [r4]
 848 01b2 6278     		ldrb	r2, [r4, #1]
 849 01b4 A378     		ldrb	r3, [r4, #2]
 850 01b6 E078     		ldrb	r0, [r4, #3]
 851              	.LVL80:
 852 01b8 0090     		str	r0, [sp]
 853 01ba 7F48     		ldr	r0, .L90+96
 854 01bc FFF7FEFF 		bl	printf
 855              	.LVL81:
 180:.\main.c      ****         case CYBLE_EVT_GAP_AUTH_FAILED:
 856              		.loc 1 180 0
 857 01c0 BAE1     		b	.L19
 858              	.LVL82:
 859              	.L29:
 182:.\main.c      ****             break;
 860              		.loc 1 182 0
 861 01c2 2178     		ldrb	r1, [r4]
 862 01c4 7D48     		ldr	r0, .L90+100
 863              	.LVL83:
 864 01c6 FFF7FEFF 		bl	printf
 865              	.LVL84:
 183:.\main.c      ****         case CYBLE_EVT_GAP_DEVICE_CONNECTED:
 866              		.loc 1 183 0
 867 01ca B5E1     		b	.L19
 868              	.LVL85:
 869              	.L30:
ARM GAS  C:\Users\Petro\AppData\Local\Temp\ccvLNIXl.s 			page 27


 185:.\main.c      ****             DBG_PRINTF("CYBLE_EVT_GAP_DEVICE_CONNECTED: %x, %x(%d ms), %x, %x \r\n",   
 870              		.loc 1 185 0
 871 01cc 7C4D     		ldr	r5, .L90+104
 872 01ce 281C     		mov	r0, r5
 873              	.LVL86:
 874 01d0 211C     		mov	r1, r4
 875 01d2 0822     		mov	r2, #8
 876              	.LVL87:
 877 01d4 FFF7FEFF 		bl	memcpy
 878              	.LVL88:
 186:.\main.c      ****                 connParameters.status,
 879              		.loc 1 186 0
 880 01d8 2978     		ldrb	r1, [r5]
 881 01da 6A88     		ldrh	r2, [r5, #2]
 882 01dc 9300     		lsl	r3, r2, #2
 883 01de AC88     		ldrh	r4, [r5, #4]
 884              	.LVL89:
 885 01e0 E888     		ldrh	r0, [r5, #6]
 886 01e2 D318     		add	r3, r2, r3
 887 01e4 9B10     		asr	r3, r3, #2
 888 01e6 0094     		str	r4, [sp]
 889 01e8 0190     		str	r0, [sp, #4]
 890 01ea 7648     		ldr	r0, .L90+108
 891 01ec FFF7FEFF 		bl	printf
 892              	.LVL90:
 192:.\main.c      ****             UpdateLedState();
 893              		.loc 1 192 0
 894 01f0 654C     		ldr	r4, .L90+48
 895 01f2 0323     		mov	r3, #3
 896 01f4 6372     		strb	r3, [r4, #9]
 193:.\main.c      ****             
 897              		.loc 1 193 0
 898 01f6 FFF7FEFF 		bl	UpdateLedState
 899              	.LVL91:
 195:.\main.c      ****             {
 900              		.loc 1 195 0
 901 01fa A37A     		ldrb	r3, [r4, #10]
 902 01fc DA00     		lsl	r2, r3, #3
 903 01fe D318     		add	r3, r2, r3
 904 0200 9B00     		lsl	r3, r3, #2
 905 0202 5F4A     		ldr	r2, .L90+40
 906 0204 D318     		add	r3, r2, r3
 907 0206 DA79     		ldrb	r2, [r3, #7]
 908 0208 187A     		ldrb	r0, [r3, #8]
 909 020a 0002     		lsl	r0, r0, #8
 910 020c 1043     		orr	r0, r2
 911 020e 27D0     		beq	.L66
 198:.\main.c      ****                 
 912              		.loc 1 198 0
 913 0210 FFF7FEFF 		bl	CyBle_WptscDiscovery
 914              	.LVL92:
 200:.\main.c      ****                 for(i = 0u; i < CYBLE_WPTS_CHAR_COUNT; i++)
 915              		.loc 1 200 0
 916 0214 6C4B     		ldr	r3, .L90+112
 917 0216 1988     		ldrh	r1, [r3]
 918 0218 6C48     		ldr	r0, .L90+116
 919 021a FFF7FEFF 		bl	printf
ARM GAS  C:\Users\Petro\AppData\Local\Temp\ccvLNIXl.s 			page 28


 920              	.LVL93:
 201:.\main.c      ****                 {
 921              		.loc 1 201 0
 922 021e 0024     		mov	r4, #0
 923 0220 15E0     		b	.L67
 924              	.LVL94:
 925              	.L70:
 203:.\main.c      ****                                                           CyBle_WptscGetCharacteristicDescriptorHan
 926              		.loc 1 203 0
 927 0222 211E     		sub	r1, r4, #0
 928 0224 0429     		cmp	r1, #4
 929 0226 04D8     		bhi	.L85
 203:.\main.c      ****                                                           CyBle_WptscGetCharacteristicDescriptorHan
 930              		.loc 1 203 0 is_stmt 0 discriminator 1
 931 0228 E300     		lsl	r3, r4, #3
 932 022a 674A     		ldr	r2, .L90+112
 933 022c D318     		add	r3, r2, r3
 934 022e 9A88     		ldrh	r2, [r3, #4]
 935 0230 00E0     		b	.L68
 936              	.L85:
 203:.\main.c      ****                                                           CyBle_WptscGetCharacteristicDescriptorHan
 937              		.loc 1 203 0
 938 0232 0022     		mov	r2, #0
 939              	.L68:
 203:.\main.c      ****                                                           CyBle_WptscGetCharacteristicDescriptorHan
 940              		.loc 1 203 0 discriminator 4
 941 0234 042C     		cmp	r4, #4
 942 0236 04D8     		bhi	.L86
 203:.\main.c      ****                                                           CyBle_WptscGetCharacteristicDescriptorHan
 943              		.loc 1 203 0 discriminator 5
 944 0238 CB00     		lsl	r3, r1, #3
 945 023a 6348     		ldr	r0, .L90+112
 946 023c C318     		add	r3, r0, r3
 947 023e 5B88     		ldrh	r3, [r3, #2]
 948 0240 00E0     		b	.L69
 949              	.L86:
 203:.\main.c      ****                                                           CyBle_WptscGetCharacteristicDescriptorHan
 950              		.loc 1 203 0
 951 0242 0023     		mov	r3, #0
 952              	.L69:
 203:.\main.c      ****                                                           CyBle_WptscGetCharacteristicDescriptorHan
 953              		.loc 1 203 0 discriminator 8
 954 0244 6248     		ldr	r0, .L90+120
 955 0246 FFF7FEFF 		bl	printf
 956              	.LVL95:
 201:.\main.c      ****                 {
 957              		.loc 1 201 0 is_stmt 1 discriminator 8
 958 024a 0134     		add	r4, r4, #1
 959              	.LVL96:
 960 024c A4B2     		uxth	r4, r4
 961              	.LVL97:
 962              	.L67:
 201:.\main.c      ****                 {
 963              		.loc 1 201 0 is_stmt 0 discriminator 2
 964 024e 042C     		cmp	r4, #4
 965 0250 E7D9     		bls	.L70
 206:.\main.c      ****                 /* Initiate to read PRU Static Parameter characteristic value */
ARM GAS  C:\Users\Petro\AppData\Local\Temp\ccvLNIXl.s 			page 29


 966              		.loc 1 206 0 is_stmt 1
 967 0252 5148     		ldr	r0, .L90+64
 968 0254 FFF7FEFF 		bl	puts
 969              	.LVL98:
 208:.\main.c      ****             }
 970              		.loc 1 208 0
 971 0258 3422     		mov	r2, #52
 972 025a 4B4B     		ldr	r3, .L90+48
 973 025c 9A70     		strb	r2, [r3, #2]
 974 025e 6BE1     		b	.L19
 975              	.LVL99:
 976              	.L66:
 213:.\main.c      ****             }
 977              		.loc 1 213 0
 978 0260 7322     		mov	r2, #115
 979 0262 494B     		ldr	r3, .L90+48
 980 0264 9A70     		strb	r2, [r3, #2]
 981 0266 67E1     		b	.L19
 982              	.LVL100:
 983              	.L31:
 217:.\main.c      ****             apiResult = CyBle_GapcStartScan(CYBLE_SCANNING_FAST);                   /* Start Limite
 984              		.loc 1 217 0
 985 0268 5A48     		ldr	r0, .L90+124
 986              	.LVL101:
 987 026a FFF7FEFF 		bl	puts
 988              	.LVL102:
 218:.\main.c      ****             if(apiResult != CYBLE_ERROR_OK)
 989              		.loc 1 218 0
 990 026e 0020     		mov	r0, #0
 991 0270 FFF7FEFF 		bl	CyBle_GapcStartScan
 992              	.LVL103:
 993 0274 011E     		sub	r1, r0, #0
 994              	.LVL104:
 219:.\main.c      ****             {
 995              		.loc 1 219 0
 996 0276 02D0     		beq	.L71
 221:.\main.c      ****             }
 997              		.loc 1 221 0
 998 0278 3948     		ldr	r0, .L90+8
 999              	.LVL105:
 1000 027a FFF7FEFF 		bl	printf
 1001              	.LVL106:
 1002              	.L71:
 223:.\main.c      ****             state = STATE_DISCONNECTED;
 1003              		.loc 1 223 0
 1004 027e 0122     		mov	r2, #1
 1005 0280 554B     		ldr	r3, .L90+128
 1006 0282 1A70     		strb	r2, [r3]
 224:.\main.c      ****             break;
 1007              		.loc 1 224 0
 1008 0284 0132     		add	r2, r2, #1
 1009 0286 404B     		ldr	r3, .L90+48
 1010 0288 5A72     		strb	r2, [r3, #9]
 225:.\main.c      ****         case CYBLE_EVT_GAP_ENCRYPT_CHANGE:
 1011              		.loc 1 225 0
 1012 028a 55E1     		b	.L19
 1013              	.LVL107:
ARM GAS  C:\Users\Petro\AppData\Local\Temp\ccvLNIXl.s 			page 30


 1014              	.L32:
 227:.\main.c      ****             break;
 1015              		.loc 1 227 0
 1016 028c 2178     		ldrb	r1, [r4]
 1017 028e 5348     		ldr	r0, .L90+132
 1018              	.LVL108:
 1019 0290 FFF7FEFF 		bl	printf
 1020              	.LVL109:
 228:.\main.c      ****         case CYBLE_EVT_GAPC_CONNECTION_UPDATE_COMPLETE:           
 1021              		.loc 1 228 0
 1022 0294 50E1     		b	.L19
 1023              	.LVL110:
 1024              	.L33:
 230:.\main.c      ****             DBG_PRINTF("CYBLE_EVT_GAPC_CONNECTION_UPDATE_COMPLETE: %x, %x(%d ms), %x, %x \r\n",
 1025              		.loc 1 230 0
 1026 0296 4A4D     		ldr	r5, .L90+104
 1027 0298 281C     		mov	r0, r5
 1028              	.LVL111:
 1029 029a 211C     		mov	r1, r4
 1030 029c 0822     		mov	r2, #8
 1031              	.LVL112:
 1032 029e FFF7FEFF 		bl	memcpy
 1033              	.LVL113:
 231:.\main.c      ****                 connParameters.status,
 1034              		.loc 1 231 0
 1035 02a2 2978     		ldrb	r1, [r5]
 1036 02a4 6A88     		ldrh	r2, [r5, #2]
 1037 02a6 9300     		lsl	r3, r2, #2
 1038 02a8 AC88     		ldrh	r4, [r5, #4]
 1039              	.LVL114:
 1040 02aa E888     		ldrh	r0, [r5, #6]
 1041 02ac D318     		add	r3, r2, r3
 1042 02ae 9B10     		asr	r3, r3, #2
 1043 02b0 0094     		str	r4, [sp]
 1044 02b2 0190     		str	r0, [sp, #4]
 1045 02b4 4A48     		ldr	r0, .L90+136
 1046 02b6 FFF7FEFF 		bl	printf
 1047              	.LVL115:
 237:.\main.c      ****         case CYBLE_EVT_GAP_KEYINFO_EXCHNGE_CMPLT:
 1048              		.loc 1 237 0
 1049 02ba 3DE1     		b	.L19
 1050              	.LVL116:
 1051              	.L35:
 239:.\main.c      ****             break;
 1052              		.loc 1 239 0
 1053 02bc 4948     		ldr	r0, .L90+140
 1054              	.LVL117:
 1055 02be FFF7FEFF 		bl	puts
 1056              	.LVL118:
 240:.\main.c      ****             
 1057              		.loc 1 240 0
 1058 02c2 39E1     		b	.L19
 1059              	.LVL119:
 1060              	.L36:
 247:.\main.c      ****                 ((CYBLE_GATTC_ERR_RSP_PARAM_T *)eventParam)->opCode,
 1061              		.loc 1 247 0
 1062 02c4 A178     		ldrb	r1, [r4, #2]
ARM GAS  C:\Users\Petro\AppData\Local\Temp\ccvLNIXl.s 			page 31


 1063 02c6 A288     		ldrh	r2, [r4, #4]
 1064 02c8 A379     		ldrb	r3, [r4, #6]
 1065 02ca 4748     		ldr	r0, .L90+144
 1066              	.LVL120:
 1067 02cc FFF7FEFF 		bl	printf
 1068              	.LVL121:
 251:.\main.c      ****         case CYBLE_EVT_GATT_CONNECT_IND:
 1069              		.loc 1 251 0
 1070 02d0 32E1     		b	.L19
 1071              	.LVL122:
 1072              	.L37:
 253:.\main.c      ****                 (*(CYBLE_CONN_HANDLE_T *)eventParam).attId, (*(CYBLE_CONN_HANDLE_T *)eventParam).bd
 1073              		.loc 1 253 0
 1074 02d2 6178     		ldrb	r1, [r4, #1]
 1075 02d4 2278     		ldrb	r2, [r4]
 1076 02d6 4548     		ldr	r0, .L90+148
 1077              	.LVL123:
 1078 02d8 FFF7FEFF 		bl	printf
 1079              	.LVL124:
 255:.\main.c      ****         case CYBLE_EVT_GATT_DISCONNECT_IND:
 1080              		.loc 1 255 0
 1081 02dc 2CE1     		b	.L19
 1082              	.LVL125:
 1083              	.L38:
 257:.\main.c      ****             break;
 1084              		.loc 1 257 0
 1085 02de 4448     		ldr	r0, .L90+152
 1086              	.LVL126:
 1087 02e0 FFF7FEFF 		bl	puts
 1088              	.LVL127:
 258:.\main.c      ****         case CYBLE_EVT_GATTC_HANDLE_VALUE_NTF:
 1089              		.loc 1 258 0
 1090 02e4 28E1     		b	.L19
 1091              	.LVL128:
 1092              	.L47:
 260:.\main.c      ****             ShowValue(&((CYBLE_GATTC_HANDLE_VALUE_IND_PARAM_T *)eventParam)->handleValPair.value, 0
 1093              		.loc 1 260 0
 1094 02e6 A189     		ldrh	r1, [r4, #12]
 1095 02e8 4248     		ldr	r0, .L90+156
 1096              	.LVL129:
 1097 02ea FFF7FEFF 		bl	printf
 1098              	.LVL130:
 261:.\main.c      ****             break;  
 1099              		.loc 1 261 0
 1100 02ee 201D     		add	r0, r4, #4
 1101 02f0 0021     		mov	r1, #0
 1102 02f2 FFF7FEFF 		bl	ShowValue
 1103              	.LVL131:
 262:.\main.c      ****         case CYBLE_EVT_GATTC_HANDLE_VALUE_IND:
 1104              		.loc 1 262 0
 1105 02f6 1FE1     		b	.L19
 1106              	.LVL132:
 1107              	.L48:
 264:.\main.c      ****             ShowValue(&((CYBLE_GATTC_HANDLE_VALUE_IND_PARAM_T *)eventParam)->handleValPair.value, 0
 1108              		.loc 1 264 0
 1109 02f8 A189     		ldrh	r1, [r4, #12]
 1110 02fa 3F48     		ldr	r0, .L90+160
ARM GAS  C:\Users\Petro\AppData\Local\Temp\ccvLNIXl.s 			page 32


 1111              	.LVL133:
 1112 02fc FFF7FEFF 		bl	printf
 1113              	.LVL134:
 265:.\main.c      ****             break;
 1114              		.loc 1 265 0
 1115 0300 201D     		add	r0, r4, #4
 1116 0302 0021     		mov	r1, #0
 1117 0304 FFF7FEFF 		bl	ShowValue
 1118              	.LVL135:
 266:.\main.c      ****         case CYBLE_EVT_GATTC_INDICATION:
 1119              		.loc 1 266 0
 1120 0308 16E1     		b	.L19
 1121              	.LVL136:
 1122              	.L50:
 268:.\main.c      ****             ShowValue(&((CYBLE_GATTC_HANDLE_VALUE_IND_PARAM_T *)eventParam)->handleValPair.value, 0
 1123              		.loc 1 268 0
 1124 030a A189     		ldrh	r1, [r4, #12]
 1125 030c 3B48     		ldr	r0, .L90+164
 1126              	.LVL137:
 1127 030e FFF7FEFF 		bl	printf
 1128              	.LVL138:
 269:.\main.c      ****             break;
 1129              		.loc 1 269 0
 1130 0312 201D     		add	r0, r4, #4
 1131 0314 0021     		mov	r1, #0
 1132 0316 FFF7FEFF 		bl	ShowValue
 1133              	.LVL139:
 270:.\main.c      ****         case CYBLE_EVT_GATTC_READ_RSP:
 1134              		.loc 1 270 0
 1135 031a 0DE1     		b	.L19
 1136              	.LVL140:
 1137              	.L44:
 272:.\main.c      ****             ShowValue(&((CYBLE_GATTC_READ_RSP_PARAM_T *)eventParam)->value, 0u);
 1138              		.loc 1 272 0
 1139 031c 3848     		ldr	r0, .L90+168
 1140              	.LVL141:
 1141 031e FFF7FEFF 		bl	printf
 1142              	.LVL142:
 273:.\main.c      ****             break;            
 1143              		.loc 1 273 0
 1144 0322 201D     		add	r0, r4, #4
 1145 0324 0021     		mov	r1, #0
 1146 0326 FFF7FEFF 		bl	ShowValue
 1147              	.LVL143:
 274:.\main.c      ****         case CYBLE_EVT_GATTC_READ_BLOB_RSP:
 1148              		.loc 1 274 0
 1149 032a 05E1     		b	.L19
 1150              	.LVL144:
 1151              	.L45:
 276:.\main.c      ****             ShowValue(&((CYBLE_GATTC_READ_RSP_PARAM_T *)eventParam)->value, 0u);
 1152              		.loc 1 276 0
 1153 032c 3548     		ldr	r0, .L90+172
 1154              	.LVL145:
 1155 032e FFF7FEFF 		bl	printf
 1156              	.LVL146:
 277:.\main.c      ****             break;
 1157              		.loc 1 277 0
ARM GAS  C:\Users\Petro\AppData\Local\Temp\ccvLNIXl.s 			page 33


 1158 0332 201D     		add	r0, r4, #4
 1159 0334 0021     		mov	r1, #0
 1160 0336 FFF7FEFF 		bl	ShowValue
 1161              	.LVL147:
 278:.\main.c      ****         case CYBLE_EVT_GATTC_WRITE_RSP:
 1162              		.loc 1 278 0
 1163 033a FDE0     		b	.L19
 1164              	.LVL148:
 1165              	.L46:
 280:.\main.c      ****             break;            
 1166              		.loc 1 280 0
 1167 033c 3248     		ldr	r0, .L90+176
 1168              	.LVL149:
 1169 033e FFF7FEFF 		bl	puts
 1170              	.LVL150:
 281:.\main.c      ****         case CYBLE_EVT_GATTC_XCHNG_MTU_RSP:
 1171              		.loc 1 281 0
 1172 0342 F9E0     		b	.L19
 1173              	.LVL151:
 1174              	.L39:
 283:.\main.c      ****             break;
 1175              		.loc 1 283 0
 1176 0344 3148     		ldr	r0, .L90+180
 1177              	.LVL152:
 1178 0346 FFF7FEFF 		bl	puts
 1179              	.LVL153:
 284:.\main.c      ****         case CYBLE_EVT_GATTC_READ_BY_GROUP_TYPE_RSP: /* Response to CYBLE_DiscoverAllPrimServices()
 1180              		.loc 1 284 0
 1181 034a F5E0     		b	.L19
 1182              	.LVL154:
 1183              	.L40:
 286:.\main.c      ****             locAttrData = &(*(CYBLE_GATTC_READ_BY_GRP_RSP_PARAM_T *)eventParam).attrData;
 1184              		.loc 1 286 0
 1185 034c 3048     		ldr	r0, .L90+184
 1186              	.LVL155:
 1187 034e FFF7FEFF 		bl	printf
 1188              	.LVL156:
 288:.\main.c      ****             { 
 1189              		.loc 1 288 0
 1190 0352 0025     		mov	r5, #0
 1191 0354 65E0     		b	.L72
 1192              	.L91:
 1193 0356 C046     		.align	2
 1194              	.L90:
 1195 0358 00000000 		.word	.L22
 1196 035c 00000000 		.word	.LC5
 1197 0360 10000000 		.word	.LC7
 1198 0364 2C000000 		.word	.LC9
 1199 0368 48000000 		.word	.LC11
 1200 036c 60000000 		.word	.LC13
 1201 0370 00000000 		.word	cyBle_busyStatus
 1202 0374 7C000000 		.word	.LC16
 1203 0378 A0000000 		.word	.LC18
 1204 037c DC000000 		.word	.LC20
 1205 0380 00000000 		.word	peedDeviceInfo
 1206 0384 EC000000 		.word	.LC23
 1207 0388 00000000 		.word	.LANCHOR0
ARM GAS  C:\Users\Petro\AppData\Local\Temp\ccvLNIXl.s 			page 34


 1208 038c F4000000 		.word	.LC26
 1209 0390 FC000000 		.word	.LC28
 1210 0394 18010000 		.word	.LC30
 1211 0398 20010000 		.word	.LC32
 1212 039c 00000000 		.word	cyBle_state
 1213 03a0 24010000 		.word	.LC34
 1214 03a4 50010000 		.word	.LC37
 1215 03a8 00000000 		.word	cyBle_connectingTimeout
 1216 03ac 64010000 		.word	.LC40
 1217 03b0 84010000 		.word	.LC42
 1218 03b4 08022440 		.word	1076101640
 1219 03b8 90010000 		.word	.LC44
 1220 03bc D4010000 		.word	.LC46
 1221 03c0 00000000 		.word	connParameters
 1222 03c4 E8010000 		.word	.LC49
 1223 03c8 00000000 		.word	cyBle_wptsc
 1224 03cc 24020000 		.word	.LC52
 1225 03d0 30020000 		.word	.LC54
 1226 03d4 48020000 		.word	.LC56
 1227 03d8 00000000 		.word	.LANCHOR1
 1228 03dc 60020000 		.word	.LC59
 1229 03e0 78020000 		.word	.LC61
 1230 03e4 BC020000 		.word	.LC63
 1231 03e8 E4020000 		.word	.LC65
 1232 03ec 20030000 		.word	.LC67
 1233 03f0 48030000 		.word	.LC69
 1234 03f4 60030000 		.word	.LC71
 1235 03f8 94030000 		.word	.LC73
 1236 03fc CC030000 		.word	.LC75
 1237 0400 FC030000 		.word	.LC77
 1238 0404 18040000 		.word	.LC79
 1239 0408 38040000 		.word	.LC81
 1240 040c 54040000 		.word	.LC83
 1241 0410 74040000 		.word	.LC85
 1242              	.LVL157:
 1243              	.L73:
 290:.\main.c      ****             }
 1244              		.loc 1 290 0 discriminator 3
 1245 0414 6368     		ldr	r3, [r4, #4]
 1246 0416 595D     		ldrb	r1, [r3, r5]
 1247 0418 4948     		ldr	r0, .L92
 1248 041a FFF7FEFF 		bl	printf
 1249              	.LVL158:
 288:.\main.c      ****             { 
 1250              		.loc 1 288 0 discriminator 3
 1251 041e 0135     		add	r5, r5, #1
 1252              	.LVL159:
 1253 0420 ADB2     		uxth	r5, r5
 1254              	.LVL160:
 1255              	.L72:
 288:.\main.c      ****             { 
 1256              		.loc 1 288 0 is_stmt 0 discriminator 1
 1257 0422 6389     		ldrh	r3, [r4, #10]
 1258 0424 AB42     		cmp	r3, r5
 1259 0426 F5D8     		bhi	.L73
 292:.\main.c      ****             break;        
 1260              		.loc 1 292 0 is_stmt 1
ARM GAS  C:\Users\Petro\AppData\Local\Temp\ccvLNIXl.s 			page 35


 1261 0428 4648     		ldr	r0, .L92+4
 1262 042a FFF7FEFF 		bl	puts
 1263              	.LVL161:
 293:.\main.c      ****         case CYBLE_EVT_GATTC_READ_BY_TYPE_RSP:      /* Response to CYBLE_DiscoverAllCharacteristics
 1264              		.loc 1 293 0
 1265 042e 83E0     		b	.L19
 1266              	.LVL162:
 1267              	.L41:
 295:.\main.c      ****             locAttrData = &(*(CYBLE_GATTC_READ_BY_TYPE_RSP_PARAM_T *)eventParam).attrData;
 1268              		.loc 1 295 0
 1269 0430 4548     		ldr	r0, .L92+8
 1270              	.LVL163:
 1271 0432 FFF7FEFF 		bl	printf
 1272              	.LVL164:
 297:.\main.c      ****             { 
 1273              		.loc 1 297 0
 1274 0436 0025     		mov	r5, #0
 1275 0438 06E0     		b	.L74
 1276              	.LVL165:
 1277              	.L75:
 299:.\main.c      ****             }
 1278              		.loc 1 299 0 discriminator 3
 1279 043a 6368     		ldr	r3, [r4, #4]
 1280 043c 595D     		ldrb	r1, [r3, r5]
 1281 043e 4048     		ldr	r0, .L92
 1282 0440 FFF7FEFF 		bl	printf
 1283              	.LVL166:
 297:.\main.c      ****             { 
 1284              		.loc 1 297 0 discriminator 3
 1285 0444 0135     		add	r5, r5, #1
 1286              	.LVL167:
 1287 0446 ADB2     		uxth	r5, r5
 1288              	.LVL168:
 1289              	.L74:
 297:.\main.c      ****             { 
 1290              		.loc 1 297 0 is_stmt 0 discriminator 1
 1291 0448 6389     		ldrh	r3, [r4, #10]
 1292 044a AB42     		cmp	r3, r5
 1293 044c F5D8     		bhi	.L75
 301:.\main.c      ****             break;
 1294              		.loc 1 301 0 is_stmt 1
 1295 044e 3D48     		ldr	r0, .L92+4
 1296 0450 FFF7FEFF 		bl	puts
 1297              	.LVL169:
 302:.\main.c      ****         case CYBLE_EVT_GATTC_FIND_INFO_RSP:
 1298              		.loc 1 302 0
 1299 0454 70E0     		b	.L19
 1300              	.LVL170:
 1301              	.L42:
 304:.\main.c      ****             type = (*(CYBLE_GATTC_FIND_INFO_RSP_PARAM_T *)eventParam).uuidFormat;
 1302              		.loc 1 304 0
 1303 0456 3D48     		ldr	r0, .L92+12
 1304              	.LVL171:
 1305 0458 FFF7FEFF 		bl	printf
 1306              	.LVL172:
 305:.\main.c      ****             locHndlUuidList = (*(CYBLE_GATTC_FIND_INFO_RSP_PARAM_T *)eventParam).handleValueList.li
 1307              		.loc 1 305 0
ARM GAS  C:\Users\Petro\AppData\Local\Temp\ccvLNIXl.s 			page 36


 1308 045c 267B     		ldrb	r6, [r4, #12]
 1309              	.LVL173:
 306:.\main.c      ****             (void)locHndlUuidList;
 1310              		.loc 1 306 0
 1311 045e 6368     		ldr	r3, [r4, #4]
 1312 0460 9946     		mov	r9, r3
 1313              	.LVL174:
 308:.\main.c      ****             {
 1314              		.loc 1 308 0
 1315 0462 012E     		cmp	r6, #1
 1316 0464 01D1     		bne	.L87
 310:.\main.c      ****             }
 1317              		.loc 1 310 0
 1318 0466 0427     		mov	r7, #4
 1319 0468 00E0     		b	.L76
 1320              	.L87:
 314:.\main.c      ****             }
 1321              		.loc 1 314 0
 1322 046a 1227     		mov	r7, #18
 1323              	.L76:
 1324              	.LVL175:
 316:.\main.c      ****             {
 1325              		.loc 1 316 0
 1326 046c 0025     		mov	r5, #0
 1327 046e 15E0     		b	.L77
 1328              	.LVL176:
 1329              	.L80:
 318:.\main.c      ****                 {
 1330              		.loc 1 318 0
 1331 0470 012E     		cmp	r6, #1
 1332 0472 0ED1     		bne	.L78
 320:.\main.c      ****                                               CyBle_Get16ByPtr(locHndlUuidList + i + CYBLE_ATTR_HAN
 1333              		.loc 1 320 0
 1334 0474 4B46     		mov	r3, r9
 1335 0476 5819     		add	r0, r3, r5
 1336 0478 FFF7FEFF 		bl	CyBle_Get16ByPtr
 1337              	.LVL177:
 1338 047c 0390     		str	r0, [sp, #12]
 1339 047e A81C     		add	r0, r5, #2
 1340 0480 4844     		add	r0, r0, r9
 1341 0482 FFF7FEFF 		bl	CyBle_Get16ByPtr
 1342              	.LVL178:
 1343 0486 021C     		mov	r2, r0
 1344 0488 3148     		ldr	r0, .L92+16
 1345 048a 0399     		ldr	r1, [sp, #12]
 1346 048c FFF7FEFF 		bl	printf
 1347              	.LVL179:
 1348 0490 02E0     		b	.L79
 1349              	.L78:
 325:.\main.c      ****                 }
 1350              		.loc 1 325 0
 1351 0492 3048     		ldr	r0, .L92+20
 1352 0494 FFF7FEFF 		bl	printf
 1353              	.LVL180:
 1354              	.L79:
 316:.\main.c      ****             {
 1355              		.loc 1 316 0 discriminator 2
ARM GAS  C:\Users\Petro\AppData\Local\Temp\ccvLNIXl.s 			page 37


 1356 0498 ED19     		add	r5, r5, r7
 1357              	.LVL181:
 1358 049a ADB2     		uxth	r5, r5
 1359              	.LVL182:
 1360              	.L77:
 316:.\main.c      ****             {
 1361              		.loc 1 316 0 is_stmt 0 discriminator 1
 1362 049c 2389     		ldrh	r3, [r4, #8]
 1363 049e AB42     		cmp	r3, r5
 1364 04a0 E6D8     		bhi	.L80
 328:.\main.c      ****             break;
 1365              		.loc 1 328 0 is_stmt 1
 1366 04a2 2848     		ldr	r0, .L92+4
 1367 04a4 FFF7FEFF 		bl	puts
 1368              	.LVL183:
 329:.\main.c      ****         case CYBLE_EVT_GATTC_FIND_BY_TYPE_VALUE_RSP:
 1369              		.loc 1 329 0
 1370 04a8 46E0     		b	.L19
 1371              	.LVL184:
 1372              	.L43:
 331:.\main.c      ****             break;
 1373              		.loc 1 331 0
 1374 04aa 2B48     		ldr	r0, .L92+24
 1375              	.LVL185:
 1376 04ac FFF7FEFF 		bl	puts
 1377              	.LVL186:
 332:.\main.c      ****                 
 1378              		.loc 1 332 0
 1379 04b0 42E0     		b	.L19
 1380              	.LVL187:
 1381              	.L51:
 338:.\main.c      ****             DBG_PRINTF("GATT %x-%x Char: %x, cccd: %x, \r\n", 
 1382              		.loc 1 338 0
 1383 04b2 2A48     		ldr	r0, .L92+28
 1384              	.LVL188:
 1385 04b4 FFF7FEFF 		bl	puts
 1386              	.LVL189:
 339:.\main.c      ****                 cyBle_serverInfo[CYBLE_SRVI_GATT].range.startHandle,
 1387              		.loc 1 339 0
 1388 04b8 294C     		ldr	r4, .L92+32
 1389              	.LVL190:
 1390 04ba E188     		ldrh	r1, [r4, #6]
 1391 04bc 2289     		ldrh	r2, [r4, #8]
 1392 04be 2948     		ldr	r0, .L92+36
 1393 04c0 4388     		ldrh	r3, [r0, #2]
 1394 04c2 8088     		ldrh	r0, [r0, #4]
 1395 04c4 0090     		str	r0, [sp]
 1396 04c6 2848     		ldr	r0, .L92+40
 1397 04c8 FFF7FEFF 		bl	printf
 1398              	.LVL191:
 344:.\main.c      ****                                        cyBle_serverInfo[CYBLE_SRVI_WPTS].range.endHandle);
 1399              		.loc 1 344 0
 1400 04cc A189     		ldrh	r1, [r4, #12]
 1401 04ce E289     		ldrh	r2, [r4, #14]
 1402 04d0 2648     		ldr	r0, .L92+44
 1403 04d2 FFF7FEFF 		bl	printf
 1404              	.LVL192:
ARM GAS  C:\Users\Petro\AppData\Local\Temp\ccvLNIXl.s 			page 38


 346:.\main.c      ****             {
 1405              		.loc 1 346 0
 1406 04d6 0024     		mov	r4, #0
 1407 04d8 15E0     		b	.L81
 1408              	.LVL193:
 1409              	.L84:
 348:.\main.c      ****                                                       CyBle_WptscGetCharacteristicDescriptorHandle(
 1410              		.loc 1 348 0
 1411 04da 211E     		sub	r1, r4, #0
 1412 04dc 0429     		cmp	r1, #4
 1413 04de 04D8     		bhi	.L88
 348:.\main.c      ****                                                       CyBle_WptscGetCharacteristicDescriptorHandle(
 1414              		.loc 1 348 0 is_stmt 0 discriminator 1
 1415 04e0 E300     		lsl	r3, r4, #3
 1416 04e2 234A     		ldr	r2, .L92+48
 1417 04e4 D318     		add	r3, r2, r3
 1418 04e6 9A88     		ldrh	r2, [r3, #4]
 1419 04e8 00E0     		b	.L82
 1420              	.L88:
 348:.\main.c      ****                                                       CyBle_WptscGetCharacteristicDescriptorHandle(
 1421              		.loc 1 348 0
 1422 04ea 0022     		mov	r2, #0
 1423              	.L82:
 348:.\main.c      ****                                                       CyBle_WptscGetCharacteristicDescriptorHandle(
 1424              		.loc 1 348 0 discriminator 4
 1425 04ec 042C     		cmp	r4, #4
 1426 04ee 04D8     		bhi	.L89
 348:.\main.c      ****                                                       CyBle_WptscGetCharacteristicDescriptorHandle(
 1427              		.loc 1 348 0 discriminator 5
 1428 04f0 CB00     		lsl	r3, r1, #3
 1429 04f2 1F48     		ldr	r0, .L92+48
 1430 04f4 C318     		add	r3, r0, r3
 1431 04f6 5B88     		ldrh	r3, [r3, #2]
 1432 04f8 00E0     		b	.L83
 1433              	.L89:
 348:.\main.c      ****                                                       CyBle_WptscGetCharacteristicDescriptorHandle(
 1434              		.loc 1 348 0
 1435 04fa 0023     		mov	r3, #0
 1436              	.L83:
 348:.\main.c      ****                                                       CyBle_WptscGetCharacteristicDescriptorHandle(
 1437              		.loc 1 348 0 discriminator 8
 1438 04fc 1D48     		ldr	r0, .L92+52
 1439 04fe FFF7FEFF 		bl	printf
 1440              	.LVL194:
 346:.\main.c      ****             {
 1441              		.loc 1 346 0 is_stmt 1 discriminator 8
 1442 0502 0134     		add	r4, r4, #1
 1443              	.LVL195:
 1444 0504 A4B2     		uxth	r4, r4
 1445              	.LVL196:
 1446              	.L81:
 346:.\main.c      ****             {
 1447              		.loc 1 346 0 is_stmt 0 discriminator 2
 1448 0506 042C     		cmp	r4, #4
 1449 0508 E7D9     		bls	.L84
 351:.\main.c      ****             DBG_PRINTF("\r\n");
 1450              		.loc 1 351 0 is_stmt 1
ARM GAS  C:\Users\Petro\AppData\Local\Temp\ccvLNIXl.s 			page 39


 1451 050a 0E4C     		ldr	r4, .L92+4
 1452              	.LVL197:
 1453 050c 201C     		mov	r0, r4
 1454 050e FFF7FEFF 		bl	puts
 1455              	.LVL198:
 352:.\main.c      ****             /* Statrt configuration procedure */
 1456              		.loc 1 352 0
 1457 0512 201C     		mov	r0, r4
 1458 0514 FFF7FEFF 		bl	puts
 1459              	.LVL199:
 354:.\main.c      ****             {
 1460              		.loc 1 354 0
 1461 0518 174B     		ldr	r3, .L92+56
 1462 051a 5B7A     		ldrb	r3, [r3, #9]
 1463 051c 032B     		cmp	r3, #3
 1464 051e 0BD1     		bne	.L19
 357:.\main.c      ****             }
 1465              		.loc 1 357 0
 1466 0520 3422     		mov	r2, #52
 1467 0522 154B     		ldr	r3, .L92+56
 1468 0524 9A70     		strb	r2, [r3, #2]
 1469 0526 07E0     		b	.L19
 1470              	.LVL200:
 1471              	.L49:
 368:.\main.c      ****             break;
 1472              		.loc 1 368 0
 1473 0528 1448     		ldr	r0, .L92+60
 1474              	.LVL201:
 1475 052a FFF7FEFF 		bl	puts
 1476              	.LVL202:
 369:.\main.c      **** 		default:
 1477              		.loc 1 369 0
 1478 052e 03E0     		b	.L19
 1479              	.LVL203:
 1480              	.L20:
 371:.\main.c      **** 			break;
 1481              		.loc 1 371 0
 1482 0530 1348     		ldr	r0, .L92+64
 1483              	.LVL204:
 1484 0532 111C     		mov	r1, r2
 1485 0534 FFF7FEFF 		bl	printf
 1486              	.LVL205:
 1487              	.L19:
 374:.\main.c      **** 
 1488              		.loc 1 374 0
 1489 0538 06B0     		add	sp, sp, #24
 1490              		@ sp needed
 1491 053a 04BC     		pop	{r2}
 1492 053c 9146     		mov	r9, r2
 1493 053e F0BD     		pop	{r4, r5, r6, r7, pc}
 1494              	.L93:
 1495              		.align	2
 1496              	.L92:
 1497 0540 18010000 		.word	.LC30
 1498 0544 20010000 		.word	.LC32
 1499 0548 9C040000 		.word	.LC87
 1500 054c C0040000 		.word	.LC89
ARM GAS  C:\Users\Petro\AppData\Local\Temp\ccvLNIXl.s 			page 40


 1501 0550 E0040000 		.word	.LC91
 1502 0554 F0040000 		.word	.LC93
 1503 0558 F8040000 		.word	.LC95
 1504 055c 20050000 		.word	.LC97
 1505 0560 00000000 		.word	cyBle_serverInfo
 1506 0564 00000000 		.word	cyBle_gattc
 1507 0568 48050000 		.word	.LC101
 1508 056c 6C050000 		.word	.LC103
 1509 0570 00000000 		.word	cyBle_wptsc
 1510 0574 30020000 		.word	.LC54
 1511 0578 00000000 		.word	.LANCHOR0
 1512 057c 7C050000 		.word	.LC105
 1513 0580 9C050000 		.word	.LC107
 1514              		.cfi_endproc
 1515              	.LFE37:
 1516              		.size	AppCallback, .-AppCallback
 1517              		.section	.text.WDT_Start,"ax",%progbits
 1518              		.align	2
 1519              		.global	WDT_Start
 1520              		.code	16
 1521              		.thumb_func
 1522              		.type	WDT_Start, %function
 1523              	WDT_Start:
 1524              	.LFB40:
 446:.\main.c      ****     /* Unlock the WDT registers for modification */
 1525              		.loc 1 446 0
 1526              		.cfi_startproc
 1527 0000 08B5     		push	{r3, lr}
 1528              		.cfi_def_cfa_offset 8
 1529              		.cfi_offset 3, -8
 1530              		.cfi_offset 14, -4
 448:.\main.c      ****     /* Setup ISR */
 1531              		.loc 1 448 0
 1532 0002 FFF7FEFF 		bl	CySysWdtUnlock
 1533              	.LVL206:
 450:.\main.c      ****     /* Write the mode to generate interrupt on match */
 1534              		.loc 1 450 0
 1535 0006 0C48     		ldr	r0, .L95
 1536 0008 FFF7FEFF 		bl	WDT_Interrupt_StartEx
 1537              	.LVL207:
 452:.\main.c      ****     /* Configure the WDT counter clear on a match setting */
 1538              		.loc 1 452 0
 1539 000c 0120     		mov	r0, #1
 1540 000e 0121     		mov	r1, #1
 1541 0010 FFF7FEFF 		bl	CySysWdtSetMode
 1542              	.LVL208:
 454:.\main.c      ****     /* Configure the WDT counter match comparison value */
 1543              		.loc 1 454 0
 1544 0014 0120     		mov	r0, #1
 1545 0016 0121     		mov	r1, #1
 1546 0018 FFF7FEFF 		bl	CySysWdtSetClearOnMatch
 1547              	.LVL209:
 456:.\main.c      ****     /* Reset WDT counter */
 1548              		.loc 1 456 0
 1549 001c 0120     		mov	r0, #1
 1550 001e 0749     		ldr	r1, .L95+4
 1551 0020 FFF7FEFF 		bl	CySysWdtSetMatch
ARM GAS  C:\Users\Petro\AppData\Local\Temp\ccvLNIXl.s 			page 41


 1552              	.LVL210:
 458:.\main.c      ****     /* Enable the specified WDT counter */
 1553              		.loc 1 458 0
 1554 0024 0120     		mov	r0, #1
 1555 0026 FFF7FEFF 		bl	CySysWdtResetCounters
 1556              	.LVL211:
 460:.\main.c      ****     /* Lock out configuration changes to the Watchdog timer registers */
 1557              		.loc 1 460 0
 1558 002a 8020     		mov	r0, #128
 1559 002c 4000     		lsl	r0, r0, #1
 1560 002e FFF7FEFF 		bl	CySysWdtEnable
 1561              	.LVL212:
 462:.\main.c      **** }
 1562              		.loc 1 462 0
 1563 0032 FFF7FEFF 		bl	CySysWdtLock
 1564              	.LVL213:
 463:.\main.c      **** 
 1565              		.loc 1 463 0
 1566              		@ sp needed
 1567 0036 08BD     		pop	{r3, pc}
 1568              	.L96:
 1569              		.align	2
 1570              	.L95:
 1571 0038 00000000 		.word	Timer_Interrupt
 1572 003c FF7F0000 		.word	32767
 1573              		.cfi_endproc
 1574              	.LFE40:
 1575              		.size	WDT_Start, .-WDT_Start
 1576              		.section	.text.WDT_Stop,"ax",%progbits
 1577              		.align	2
 1578              		.global	WDT_Stop
 1579              		.code	16
 1580              		.thumb_func
 1581              		.type	WDT_Stop, %function
 1582              	WDT_Stop:
 1583              	.LFB41:
 475:.\main.c      ****     /* Unlock the WDT registers for modification */
 1584              		.loc 1 475 0
 1585              		.cfi_startproc
 1586 0000 08B5     		push	{r3, lr}
 1587              		.cfi_def_cfa_offset 8
 1588              		.cfi_offset 3, -8
 1589              		.cfi_offset 14, -4
 477:.\main.c      ****     /* Disable the specified WDT counter */
 1590              		.loc 1 477 0
 1591 0002 FFF7FEFF 		bl	CySysWdtUnlock
 1592              	.LVL214:
 479:.\main.c      ****     /* Locks out configuration changes to the Watchdog timer registers */
 1593              		.loc 1 479 0
 1594 0006 8020     		mov	r0, #128
 1595 0008 4000     		lsl	r0, r0, #1
 1596 000a FFF7FEFF 		bl	CySysWdtDisable
 1597              	.LVL215:
 481:.\main.c      **** }
 1598              		.loc 1 481 0
 1599 000e FFF7FEFF 		bl	CySysWdtLock
 1600              	.LVL216:
ARM GAS  C:\Users\Petro\AppData\Local\Temp\ccvLNIXl.s 			page 42


 482:.\main.c      **** 
 1601              		.loc 1 482 0
 1602              		@ sp needed
 1603 0012 08BD     		pop	{r3, pc}
 1604              		.cfi_endproc
 1605              	.LFE41:
 1606              		.size	WDT_Stop, .-WDT_Stop
 1607              		.section	.text.main,"ax",%progbits
 1608              		.align	2
 1609              		.global	main
 1610              		.code	16
 1611              		.thumb_func
 1612              		.type	main, %function
 1613              	main:
 1614              	.LFB43:
 543:.\main.c      **** 
 544:.\main.c      **** 
 545:.\main.c      **** /*******************************************************************************
 546:.\main.c      **** * Function Name: main()
 547:.\main.c      **** ********************************************************************************
 548:.\main.c      **** * Summary:
 549:.\main.c      **** *  Main function for the project.
 550:.\main.c      **** *
 551:.\main.c      **** * Parameters:
 552:.\main.c      **** *  None
 553:.\main.c      **** *
 554:.\main.c      **** * Return:
 555:.\main.c      **** *  None
 556:.\main.c      **** *
 557:.\main.c      **** * Theory:
 558:.\main.c      **** *  The function starts BLE and UART components.
 559:.\main.c      **** *  This function processes all BLE events and also implements the low power 
 560:.\main.c      **** *  functionality.
 561:.\main.c      **** *
 562:.\main.c      **** *******************************************************************************/
 563:.\main.c      **** int main()
 564:.\main.c      **** {
 1615              		.loc 1 564 0
 1616              		.cfi_startproc
 1617 0000 30B5     		push	{r4, r5, lr}
 1618              		.cfi_def_cfa_offset 12
 1619              		.cfi_offset 4, -12
 1620              		.cfi_offset 5, -8
 1621              		.cfi_offset 14, -4
 1622 0002 83B0     		sub	sp, sp, #12
 1623              		.cfi_def_cfa_offset 24
 1624              	.LVL217:
 565:.\main.c      ****     CYBLE_API_RESULT_T apiResult;
 566:.\main.c      ****     char8 command = 0u;
 567:.\main.c      ****     
 568:.\main.c      ****     CyGlobalIntEnable;              /* Enable interrupts */
 1625              		.loc 1 568 0
 1626              	@ 568 ".\main.c" 1
 1627 0004 62B6     		CPSIE   i
 1628              	@ 0 "" 2
 569:.\main.c      ****     UART_DEB_Start();               /* Start communication component */
 1629              		.loc 1 569 0
ARM GAS  C:\Users\Petro\AppData\Local\Temp\ccvLNIXl.s 			page 43


 1630              		.code	16
 1631 0006 FFF7FEFF 		bl	UART_DEB_Start
 1632              	.LVL218:
 570:.\main.c      ****     DBG_PRINTF("BLE Wireless Power Transmitter Example Project \r\n");
 1633              		.loc 1 570 0
 1634 000a C748     		ldr	r0, .L132
 1635 000c FFF7FEFF 		bl	puts
 1636              	.LVL219:
 571:.\main.c      ****     
 572:.\main.c      ****     /* Start BLE component */
 573:.\main.c      ****     CyBle_Start(AppCallback);    
 1637              		.loc 1 573 0
 1638 0010 C648     		ldr	r0, .L132+4
 1639 0012 FFF7FEFF 		bl	CyBle_Start
 1640              	.LVL220:
 574:.\main.c      ****     
 575:.\main.c      ****     /* Register service specific callback functions */
 576:.\main.c      ****     WptsInit();
 1641              		.loc 1 576 0
 1642 0016 FFF7FEFF 		bl	WptsInit
 1643              	.LVL221:
 577:.\main.c      ****     
 578:.\main.c      ****     /* Start general timer */
 579:.\main.c      ****     WDT_Start();
 1644              		.loc 1 579 0
 1645 001a FFF7FEFF 		bl	WDT_Start
 1646              	.LVL222:
 566:.\main.c      ****     
 1647              		.loc 1 566 0
 1648 001e 0024     		mov	r4, #0
 1649 0020 12E0     		b	.L99
 1650              	.LVL223:
 1651              	.L122:
 580:.\main.c      **** 
 581:.\main.c      ****     for(;;)
 582:.\main.c      ****     {
 583:.\main.c      ****         /* Process all the generated events. */
 584:.\main.c      ****         CyBle_ProcessEvents();
 585:.\main.c      **** 
 586:.\main.c      ****         /* To achieve low power in the device */
 587:.\main.c      ****         LowPowerImplementation();
 588:.\main.c      ****         
 589:.\main.c      ****         /* Get new command */
 590:.\main.c      ****         if(command == 0u)
 591:.\main.c      ****         {
 592:.\main.c      ****             command = UART_DEB_UartGetChar();
 593:.\main.c      ****         }
 594:.\main.c      ****         
 595:.\main.c      ****         /* Handle received from terminal locally generated commands */
 596:.\main.c      ****         if(((command != 0u) || (customCommand != 0u)) && (requestResponce != false))
 597:.\main.c      ****         {
 598:.\main.c      ****             if((command == 0u) && (customCommand != 0u))
 599:.\main.c      ****             {
 600:.\main.c      ****                 command = customCommand;
 601:.\main.c      ****                 customCommand = 0u;
 602:.\main.c      ****             }
 603:.\main.c      ****             switch(command)
ARM GAS  C:\Users\Petro\AppData\Local\Temp\ccvLNIXl.s 			page 44


 604:.\main.c      ****             {
 605:.\main.c      ****                 case 'c':                   /* connect  */
 606:.\main.c      ****                     CyBle_GapcStopScan(); 
 607:.\main.c      ****                     state = STATE_CONNECTING;
 608:.\main.c      ****                     break;
 609:.\main.c      ****                 case 'v':
 610:.\main.c      ****                     apiResult = CyBle_GapcCancelDeviceConnection();
 611:.\main.c      ****                     DBG_PRINTF("CyBle_GapcCancelDeviceConnection: %x\r\n" , apiResult);
 612:.\main.c      ****                     break;
 613:.\main.c      ****                 case 'd':                   /* disconnect */
 614:.\main.c      ****                     apiResult = CyBle_GapDisconnect(cyBle_connHandle.bdHandle); 
 615:.\main.c      ****                     if(apiResult != CYBLE_ERROR_OK)
 616:.\main.c      ****                     {
 617:.\main.c      ****                         DBG_PRINTF("DisconnectDevice API Error: %x \r\n", apiResult);
 618:.\main.c      ****                     }
 619:.\main.c      ****                     break;
 620:.\main.c      ****                 case 's':
 621:.\main.c      ****                     /* Disable sequential read of PRU Dynamic Parameter characteristic before disco
 622:.\main.c      ****                     readingDynChar = 0u;
 623:.\main.c      ****                     /* And clean pending command */
 624:.\main.c      ****                     customCommand = 0u;
 625:.\main.c      ****                     apiResult = CyBle_GattcStartDiscovery(cyBle_connHandle);
 626:.\main.c      ****                     DBG_PRINTF("StartDiscovery \r\n");
 627:.\main.c      ****                     if(apiResult != CYBLE_ERROR_OK)
 628:.\main.c      ****                     {
 629:.\main.c      ****                         DBG_PRINTF("StartDiscovery API Error: %x \r\n", apiResult);
 630:.\main.c      ****                     }
 631:.\main.c      ****                     break;
 632:.\main.c      ****                 case 'z':                   /* select peer device  */
 633:.\main.c      ****                     DBG_PRINTF("Select Device:\n"); 
 634:.\main.c      ****                     while((command = UART_DEB_UartGetChar()) == 0);
 635:.\main.c      ****                     if((command >= '0') && (command <= '9'))
 636:.\main.c      ****                     {
 637:.\main.c      ****                         deviceN = (uint8)(command - '0');
 638:.\main.c      ****                         DBG_PRINTF("%c\n",command); /* print number */
 639:.\main.c      ****                     }
 640:.\main.c      ****                     else
 641:.\main.c      ****                     {
 642:.\main.c      ****                         DBG_PRINTF(" Wrong digit \r\n");
 643:.\main.c      ****                         break;
 644:.\main.c      ****                     }
 645:.\main.c      ****                     break;
 646:.\main.c      ****                 case '1':                   /* Enable Notification */
 647:.\main.c      ****                     alertCCCD |= CYBLE_CCCD_NOTIFICATION;
 648:.\main.c      ****                     apiResult = CyBle_WptscSetCharacteristicDescriptor(cyBle_connHandle, CYBLE_WPTS
 649:.\main.c      ****                         CYBLE_WPTS_CCCD, sizeof(alertCCCD), (uint8 *)&alertCCCD);
 650:.\main.c      ****                     DBG_PRINTF("Enable Alert Notification, apiResult: %x \r\n", apiResult);
 651:.\main.c      ****                     if(apiResult == CYBLE_ERROR_OK)
 652:.\main.c      ****                     {
 653:.\main.c      ****                         requestResponce = false;
 654:.\main.c      ****                     }
 655:.\main.c      ****                     break;
 656:.\main.c      ****                 case '2':                   /* Enable Indication */
 657:.\main.c      ****                     alertCCCD |= CYBLE_CCCD_INDICATION;
 658:.\main.c      ****                     apiResult = CyBle_WptscSetCharacteristicDescriptor(cyBle_connHandle, CYBLE_WPTS
 659:.\main.c      ****                         CYBLE_WPTS_CCCD, sizeof(alertCCCD), (uint8 *)&alertCCCD);
 660:.\main.c      ****                     DBG_PRINTF("Enable Alert Indication, apiResult: %x \r\n", apiResult);
ARM GAS  C:\Users\Petro\AppData\Local\Temp\ccvLNIXl.s 			page 45


 661:.\main.c      ****                     if(apiResult == CYBLE_ERROR_OK)
 662:.\main.c      ****                     {
 663:.\main.c      ****                         requestResponce = false;
 664:.\main.c      ****                     }
 665:.\main.c      ****                     break;
 666:.\main.c      ****                 case '3':                   /* Disable Notification and Indication */
 667:.\main.c      ****                     alertCCCD = 0u;
 668:.\main.c      ****                     apiResult = CyBle_WptscSetCharacteristicDescriptor(cyBle_connHandle, CYBLE_WPTS
 669:.\main.c      ****                         CYBLE_WPTS_CCCD, sizeof(alertCCCD), (uint8 *)&alertCCCD);
 670:.\main.c      ****                     DBG_PRINTF("Disable Alert Notification and Indication, apiResult: %x \r\n", api
 671:.\main.c      ****                     if(apiResult == CYBLE_ERROR_OK)
 672:.\main.c      ****                     {
 673:.\main.c      ****                         requestResponce = false;
 674:.\main.c      ****                     }
 675:.\main.c      ****                     break;
 676:.\main.c      ****                 case '4':                   /* Send Read request for PRU Static Parameter character
 677:.\main.c      ****                     apiResult = CyBle_WptscGetCharacteristicValue(cyBle_connHandle, CYBLE_WPTS_PRU_
 678:.\main.c      ****                     DBG_PRINTF("Get PRU Static Parameter char value, apiResult: %x \r\n", apiResult
 679:.\main.c      ****                     if(apiResult == CYBLE_ERROR_OK)
 680:.\main.c      ****                     {
 681:.\main.c      ****                         requestResponce = false;
 682:.\main.c      ****                     }
 683:.\main.c      ****                     break;
 684:.\main.c      ****                 case '5':                   /* Send Read request for PRU Dynamic Parameter characte
 685:.\main.c      ****                     apiResult = CyBle_WptscGetCharacteristicValue(cyBle_connHandle, CYBLE_WPTS_PRU_
 686:.\main.c      ****                     DBG_PRINTF("Get PRU Dynamic Parameter char value, apiResult: %x \r\n", apiResul
 687:.\main.c      ****                     if(apiResult == CYBLE_ERROR_OK)
 688:.\main.c      ****                     {
 689:.\main.c      ****                         requestResponce = false;
 690:.\main.c      ****                     }
 691:.\main.c      ****                     break;
 692:.\main.c      ****                 case '6':                   /* Enable Charging */
 693:.\main.c      ****                     peedDeviceInfo[deviceN].pruControl.enables = PRU_CONTROL_ENABLES_ENABLE_CHARGE_
 694:.\main.c      ****                     apiResult = CyBle_WptscSetCharacteristicValue(cyBle_connHandle, CYBLE_WPTS_PRU_
 695:.\main.c      ****                         sizeof(peedDeviceInfo[deviceN].pruControl), (uint8 *)&peedDeviceInfo[device
 696:.\main.c      ****                     DBG_PRINTF("Set PRU Control char (enable charging), apiResult: %x \r\n", apiRes
 697:.\main.c      ****                     if(apiResult == CYBLE_ERROR_OK)
 698:.\main.c      ****                     {
 699:.\main.c      ****                         requestResponce = false;
 700:.\main.c      ****                     }
 701:.\main.c      ****                     break;
 702:.\main.c      ****                 case '7':                   /* Disable Charging */
 703:.\main.c      ****                     peedDeviceInfo[deviceN].pruControl.enables &= ~PRU_CONTROL_ENABLES_ENABLE_CHARG
 704:.\main.c      ****                     apiResult = CyBle_WptscSetCharacteristicValue(cyBle_connHandle, CYBLE_WPTS_PRU_
 705:.\main.c      ****                         sizeof(peedDeviceInfo[deviceN].pruControl), (uint8 *)&peedDeviceInfo[device
 706:.\main.c      ****                     DBG_PRINTF("Set PRU Control char (disable charging), apiResult: %x \r\n", apiRe
 707:.\main.c      ****                     if(apiResult == CYBLE_ERROR_OK)
 708:.\main.c      ****                     {
 709:.\main.c      ****                         requestResponce = false;
 710:.\main.c      ****                     }
 711:.\main.c      ****                     break;
 712:.\main.c      ****                 case '8':                   /* Enable sequential read of PRU Dynamic Parameter char
 713:.\main.c      ****                     readingDynChar = 1u;
 714:.\main.c      ****                     break;
 715:.\main.c      ****                 case '9':                   /* Disable sequential read of PRU Dynamic Parameter cha
 716:.\main.c      ****                     readingDynChar = 0u;
 717:.\main.c      ****                     break;
ARM GAS  C:\Users\Petro\AppData\Local\Temp\ccvLNIXl.s 			page 46


 718:.\main.c      ****                 case 'h':  /* Help menu */
 719:.\main.c      ****                     DBG_PRINTF("\r\n");
 720:.\main.c      ****                     DBG_PRINTF("Available commands:\r\n");
 721:.\main.c      ****                     DBG_PRINTF(" \'h\' - Help menu.\r\n");
 722:.\main.c      ****                     DBG_PRINTF(" \'z\' + 'Number' - Select peer device.\r\n");
 723:.\main.c      ****                     DBG_PRINTF(" \'c\' - Send connect request to peer device.\r\n");
 724:.\main.c      ****                     DBG_PRINTF(" \'d\' - Send disconnect request to peer device.\r\n");
 725:.\main.c      ****                     DBG_PRINTF(" \'v\' - Cancel connection request.\r\n");
 726:.\main.c      ****                     DBG_PRINTF(" \'s\' - Start discovery procedure.\r\n");
 727:.\main.c      ****                     DBG_PRINTF(" \'1\' - Enable notifications for Alert characteristic.\r\n");
 728:.\main.c      ****                     DBG_PRINTF(" \'2\' - Enable indications for Alert characteristic.\r\n");
 729:.\main.c      ****                     DBG_PRINTF(" \'3\' - Disable notifications and indication for Alert characteris
 730:.\main.c      ****                     DBG_PRINTF(" \'4\' - Send Read request for PRU Static Parameter characteristic.
 731:.\main.c      ****                     DBG_PRINTF(" \'5\' - Send Read request for PRU Dynamic Parameter characteristic
 732:.\main.c      ****                     DBG_PRINTF(" \'6\' - Send Enable Charging command to PRU control characteristic
 733:.\main.c      ****                     DBG_PRINTF(" \'7\' - Send Disable Charging command to PRU control characteristi
 734:.\main.c      ****                     DBG_PRINTF(" \'8\' - Enable sequential read of PRU Dynamic Parameter characteri
 735:.\main.c      ****                     DBG_PRINTF(" \'9\' - Disable sequential read of PRU Dynamic Parameter character
 736:.\main.c      ****                     break;
 737:.\main.c      ****             }
 738:.\main.c      ****             command = 0u;
 1652              		.loc 1 738 0
 1653 0022 0024     		mov	r4, #0
 1654 0024 10E0     		b	.L99
 1655              	.LVL224:
 1656              	.L123:
 1657 0026 0024     		mov	r4, #0
 1658 0028 0EE0     		b	.L99
 1659              	.LVL225:
 1660              	.L124:
 1661 002a 0024     		mov	r4, #0
 1662              	.LVL226:
 1663 002c 0CE0     		b	.L99
 1664              	.LVL227:
 1665              	.L125:
 1666 002e 0024     		mov	r4, #0
 1667              	.LVL228:
 1668 0030 0AE0     		b	.L99
 1669              	.LVL229:
 1670              	.L126:
 1671 0032 0024     		mov	r4, #0
 1672              	.LVL230:
 1673 0034 08E0     		b	.L99
 1674              	.LVL231:
 1675              	.L127:
 1676 0036 0024     		mov	r4, #0
 1677              	.LVL232:
 1678 0038 06E0     		b	.L99
 1679              	.LVL233:
 1680              	.L128:
 1681 003a 0024     		mov	r4, #0
 1682              	.LVL234:
 1683 003c 04E0     		b	.L99
 1684              	.LVL235:
 1685              	.L129:
 1686 003e 0024     		mov	r4, #0
 1687              	.LVL236:
ARM GAS  C:\Users\Petro\AppData\Local\Temp\ccvLNIXl.s 			page 47


 1688 0040 02E0     		b	.L99
 1689              	.LVL237:
 1690              	.L130:
 1691 0042 0024     		mov	r4, #0
 1692              	.LVL238:
 1693 0044 00E0     		b	.L99
 1694              	.LVL239:
 1695              	.L131:
 1696 0046 0024     		mov	r4, #0
 1697              	.LVL240:
 1698              	.L99:
 584:.\main.c      **** 
 1699              		.loc 1 584 0
 1700 0048 FFF7FEFF 		bl	CyBle_ProcessEvents
 1701              	.LVL241:
 587:.\main.c      ****         
 1702              		.loc 1 587 0
 1703 004c FFF7FEFF 		bl	LowPowerImplementation
 1704              	.LVL242:
 590:.\main.c      ****         {
 1705              		.loc 1 590 0
 1706 0050 002C     		cmp	r4, #0
 1707 0052 02D1     		bne	.L101
 592:.\main.c      ****         }
 1708              		.loc 1 592 0
 1709 0054 FFF7FEFF 		bl	UART_DEB_UartGetChar
 1710              	.LVL243:
 1711 0058 C4B2     		uxtb	r4, r0
 1712              	.LVL244:
 1713              	.L101:
 596:.\main.c      ****         {
 1714              		.loc 1 596 0
 1715 005a 002C     		cmp	r4, #0
 1716 005c 03D1     		bne	.L102
 596:.\main.c      ****         {
 1717              		.loc 1 596 0 is_stmt 0 discriminator 2
 1718 005e B44B     		ldr	r3, .L132+8
 1719 0060 9B78     		ldrb	r3, [r3, #2]
 1720 0062 002B     		cmp	r3, #0
 1721 0064 F0D0     		beq	.L99
 1722              	.L102:
 596:.\main.c      ****         {
 1723              		.loc 1 596 0 discriminator 3
 1724 0066 B34B     		ldr	r3, .L132+12
 1725 0068 1B78     		ldrb	r3, [r3]
 1726 006a 002B     		cmp	r3, #0
 1727 006c ECD0     		beq	.L99
 598:.\main.c      ****             {
 1728              		.loc 1 598 0 is_stmt 1
 1729 006e 002C     		cmp	r4, #0
 1730 0070 07D1     		bne	.L103
 598:.\main.c      ****             {
 1731              		.loc 1 598 0 is_stmt 0 discriminator 1
 1732 0072 AF4B     		ldr	r3, .L132+8
 1733 0074 9B78     		ldrb	r3, [r3, #2]
 1734 0076 002B     		cmp	r3, #0
 1735 0078 03D0     		beq	.L103
ARM GAS  C:\Users\Petro\AppData\Local\Temp\ccvLNIXl.s 			page 48


 1736              	.LVL245:
 601:.\main.c      ****             }
 1737              		.loc 1 601 0 is_stmt 1
 1738 007a 0021     		mov	r1, #0
 1739 007c AC4A     		ldr	r2, .L132+8
 1740 007e 9170     		strb	r1, [r2, #2]
 600:.\main.c      ****                 customCommand = 0u;
 1741              		.loc 1 600 0
 1742 0080 1C1C     		mov	r4, r3
 1743              	.LVL246:
 1744              	.L103:
 603:.\main.c      ****             {
 1745              		.loc 1 603 0
 1746 0082 313C     		sub	r4, r4, #49
 1747              	.LVL247:
 1748 0084 E3B2     		uxtb	r3, r4
 1749 0086 492B     		cmp	r3, #73
 1750 0088 CBD8     		bhi	.L122
 1751 008a 9C00     		lsl	r4, r3, #2
 1752 008c AA4B     		ldr	r3, .L132+16
 1753 008e 1B59     		ldr	r3, [r3, r4]
 1754 0090 9F46     		mov	pc, r3
 1755              		.section	.rodata
 1756              		.align	2
 1757              	.L105:
 1758 0448 28010000 		.word	.L104
 1759 044c 62010000 		.word	.L106
 1760 0450 9C010000 		.word	.L107
 1761 0454 D2010000 		.word	.L108
 1762 0458 FA010000 		.word	.L109
 1763 045c 22020000 		.word	.L110
 1764 0460 62020000 		.word	.L111
 1765 0464 AA020000 		.word	.L112
 1766 0468 B4020000 		.word	.L113
 1767 046c 22000000 		.word	.L122
 1768 0470 22000000 		.word	.L122
 1769 0474 22000000 		.word	.L122
 1770 0478 22000000 		.word	.L122
 1771 047c 22000000 		.word	.L122
 1772 0480 22000000 		.word	.L122
 1773 0484 22000000 		.word	.L122
 1774 0488 22000000 		.word	.L122
 1775 048c 22000000 		.word	.L122
 1776 0490 22000000 		.word	.L122
 1777 0494 22000000 		.word	.L122
 1778 0498 22000000 		.word	.L122
 1779 049c 22000000 		.word	.L122
 1780 04a0 22000000 		.word	.L122
 1781 04a4 22000000 		.word	.L122
 1782 04a8 22000000 		.word	.L122
 1783 04ac 22000000 		.word	.L122
 1784 04b0 22000000 		.word	.L122
 1785 04b4 22000000 		.word	.L122
 1786 04b8 22000000 		.word	.L122
 1787 04bc 22000000 		.word	.L122
 1788 04c0 22000000 		.word	.L122
 1789 04c4 22000000 		.word	.L122
ARM GAS  C:\Users\Petro\AppData\Local\Temp\ccvLNIXl.s 			page 49


 1790 04c8 22000000 		.word	.L122
 1791 04cc 22000000 		.word	.L122
 1792 04d0 22000000 		.word	.L122
 1793 04d4 22000000 		.word	.L122
 1794 04d8 22000000 		.word	.L122
 1795 04dc 22000000 		.word	.L122
 1796 04e0 22000000 		.word	.L122
 1797 04e4 22000000 		.word	.L122
 1798 04e8 22000000 		.word	.L122
 1799 04ec 22000000 		.word	.L122
 1800 04f0 22000000 		.word	.L122
 1801 04f4 22000000 		.word	.L122
 1802 04f8 22000000 		.word	.L122
 1803 04fc 22000000 		.word	.L122
 1804 0500 22000000 		.word	.L122
 1805 0504 22000000 		.word	.L122
 1806 0508 22000000 		.word	.L122
 1807 050c 22000000 		.word	.L122
 1808 0510 92000000 		.word	.L114
 1809 0514 B0000000 		.word	.L115
 1810 0518 22000000 		.word	.L122
 1811 051c 22000000 		.word	.L122
 1812 0520 22000000 		.word	.L122
 1813 0524 BE020000 		.word	.L116
 1814 0528 22000000 		.word	.L122
 1815 052c 22000000 		.word	.L122
 1816 0530 22000000 		.word	.L122
 1817 0534 22000000 		.word	.L122
 1818 0538 22000000 		.word	.L122
 1819 053c 22000000 		.word	.L122
 1820 0540 22000000 		.word	.L122
 1821 0544 22000000 		.word	.L122
 1822 0548 22000000 		.word	.L122
 1823 054c 22000000 		.word	.L122
 1824 0550 C6000000 		.word	.L117
 1825 0554 22000000 		.word	.L122
 1826 0558 22000000 		.word	.L122
 1827 055c A0000000 		.word	.L118
 1828 0560 22000000 		.word	.L122
 1829 0564 22000000 		.word	.L122
 1830 0568 22000000 		.word	.L122
 1831 056c F4000000 		.word	.L119
 1832              		.section	.text.main
 1833              	.L114:
 606:.\main.c      ****                     state = STATE_CONNECTING;
 1834              		.loc 1 606 0
 1835 0092 FFF7FEFF 		bl	CyBle_GapcStopScan
 1836              	.LVL248:
 607:.\main.c      ****                     break;
 1837              		.loc 1 607 0
 1838 0096 0122     		mov	r2, #1
 1839 0098 A54B     		ldr	r3, .L132+8
 1840 009a 5A72     		strb	r2, [r3, #9]
 1841              		.loc 1 738 0
 1842 009c 0024     		mov	r4, #0
 608:.\main.c      ****                 case 'v':
 1843              		.loc 1 608 0
ARM GAS  C:\Users\Petro\AppData\Local\Temp\ccvLNIXl.s 			page 50


 1844 009e D3E7     		b	.L99
 1845              	.L118:
 610:.\main.c      ****                     DBG_PRINTF("CyBle_GapcCancelDeviceConnection: %x\r\n" , apiResult);
 1846              		.loc 1 610 0
 1847 00a0 FFF7FEFF 		bl	CyBle_GapcCancelDeviceConnection
 1848              	.LVL249:
 1849 00a4 011C     		mov	r1, r0
 1850              	.LVL250:
 611:.\main.c      ****                     break;
 1851              		.loc 1 611 0
 1852 00a6 A548     		ldr	r0, .L132+20
 1853 00a8 FFF7FEFF 		bl	printf
 1854              	.LVL251:
 1855              		.loc 1 738 0
 1856 00ac 0024     		mov	r4, #0
 612:.\main.c      ****                 case 'd':                   /* disconnect */
 1857              		.loc 1 612 0
 1858 00ae CBE7     		b	.L99
 1859              	.L115:
 614:.\main.c      ****                     if(apiResult != CYBLE_ERROR_OK)
 1860              		.loc 1 614 0
 1861 00b0 A34B     		ldr	r3, .L132+24
 1862 00b2 1878     		ldrb	r0, [r3]
 1863 00b4 FFF7FEFF 		bl	CyBle_GapDisconnect
 1864              	.LVL252:
 1865 00b8 011E     		sub	r1, r0, #0
 1866              	.LVL253:
 615:.\main.c      ****                     {
 1867              		.loc 1 615 0
 1868 00ba B4D0     		beq	.L123
 617:.\main.c      ****                     }
 1869              		.loc 1 617 0
 1870 00bc A148     		ldr	r0, .L132+28
 1871              	.LVL254:
 1872 00be FFF7FEFF 		bl	printf
 1873              	.LVL255:
 1874              		.loc 1 738 0
 1875 00c2 0024     		mov	r4, #0
 1876 00c4 C0E7     		b	.L99
 1877              	.L117:
 622:.\main.c      ****                     /* And clean pending command */
 1878              		.loc 1 622 0
 1879 00c6 9A4B     		ldr	r3, .L132+8
 1880 00c8 0022     		mov	r2, #0
 1881 00ca 5A70     		strb	r2, [r3, #1]
 624:.\main.c      ****                     apiResult = CyBle_GattcStartDiscovery(cyBle_connHandle);
 1882              		.loc 1 624 0
 1883 00cc 9A70     		strb	r2, [r3, #2]
 625:.\main.c      ****                     DBG_PRINTF("StartDiscovery \r\n");
 1884              		.loc 1 625 0
 1885 00ce 9C4A     		ldr	r2, .L132+24
 1886 00d0 1378     		ldrb	r3, [r2]
 1887 00d2 5078     		ldrb	r0, [r2, #1]
 1888 00d4 0002     		lsl	r0, r0, #8
 1889 00d6 1843     		orr	r0, r3
 1890 00d8 FFF7FEFF 		bl	CyBle_GattcStartDiscovery
 1891              	.LVL256:
ARM GAS  C:\Users\Petro\AppData\Local\Temp\ccvLNIXl.s 			page 51


 1892 00dc 041C     		mov	r4, r0
 1893              	.LVL257:
 626:.\main.c      ****                     if(apiResult != CYBLE_ERROR_OK)
 1894              		.loc 1 626 0
 1895 00de 9A48     		ldr	r0, .L132+32
 1896 00e0 FFF7FEFF 		bl	puts
 1897              	.LVL258:
 627:.\main.c      ****                     {
 1898              		.loc 1 627 0
 1899 00e4 002C     		cmp	r4, #0
 1900 00e6 A0D0     		beq	.L124
 629:.\main.c      ****                     }
 1901              		.loc 1 629 0
 1902 00e8 9848     		ldr	r0, .L132+36
 1903 00ea 211C     		mov	r1, r4
 1904 00ec FFF7FEFF 		bl	printf
 1905              	.LVL259:
 1906              		.loc 1 738 0
 1907 00f0 0024     		mov	r4, #0
 1908              	.LVL260:
 1909 00f2 A9E7     		b	.L99
 1910              	.L119:
 633:.\main.c      ****                     while((command = UART_DEB_UartGetChar()) == 0);
 1911              		.loc 1 633 0
 1912 00f4 9648     		ldr	r0, .L132+40
 1913 00f6 FFF7FEFF 		bl	puts
 1914              	.LVL261:
 1915              	.L120:
 634:.\main.c      ****                     if((command >= '0') && (command <= '9'))
 1916              		.loc 1 634 0 discriminator 1
 1917 00fa FFF7FEFF 		bl	UART_DEB_UartGetChar
 1918              	.LVL262:
 1919 00fe C3B2     		uxtb	r3, r0
 1920              	.LVL263:
 1921 0100 002B     		cmp	r3, #0
 1922 0102 FAD0     		beq	.L120
 635:.\main.c      ****                     {
 1923              		.loc 1 635 0
 1924 0104 303B     		sub	r3, r3, #48
 1925              	.LVL264:
 1926 0106 DBB2     		uxtb	r3, r3
 1927              	.LVL265:
 1928 0108 092B     		cmp	r3, #9
 1929 010a 08D8     		bhi	.L121
 637:.\main.c      ****                         DBG_PRINTF("%c\n",command); /* print number */
 1930              		.loc 1 637 0
 1931 010c 884A     		ldr	r2, .L132+8
 1932 010e 9372     		strb	r3, [r2, #10]
 1933 0110 FF21     		mov	r1, #255
 1934 0112 0140     		and	r1, r0
 638:.\main.c      ****                     }
 1935              		.loc 1 638 0
 1936 0114 8F48     		ldr	r0, .L132+44
 1937              	.LVL266:
 1938 0116 FFF7FEFF 		bl	printf
 1939              	.LVL267:
 1940              		.loc 1 738 0
ARM GAS  C:\Users\Petro\AppData\Local\Temp\ccvLNIXl.s 			page 52


 1941 011a 0024     		mov	r4, #0
 645:.\main.c      ****                 case '1':                   /* Enable Notification */
 1942              		.loc 1 645 0
 1943 011c 94E7     		b	.L99
 1944              	.LVL268:
 1945              	.L121:
 642:.\main.c      ****                         break;
 1946              		.loc 1 642 0
 1947 011e 8E48     		ldr	r0, .L132+48
 1948              	.LVL269:
 1949 0120 FFF7FEFF 		bl	puts
 1950              	.LVL270:
 1951              		.loc 1 738 0
 1952 0124 0024     		mov	r4, #0
 643:.\main.c      ****                     }
 1953              		.loc 1 643 0
 1954 0126 8FE7     		b	.L99
 1955              	.L104:
 647:.\main.c      ****                     apiResult = CyBle_WptscSetCharacteristicDescriptor(cyBle_connHandle, CYBLE_WPTS
 1956              		.loc 1 647 0
 1957 0128 814B     		ldr	r3, .L132+8
 1958 012a 9989     		ldrh	r1, [r3, #12]
 1959 012c 0122     		mov	r2, #1
 1960 012e 0A43     		orr	r2, r1
 1961 0130 9A81     		strh	r2, [r3, #12]
 648:.\main.c      ****                         CYBLE_WPTS_CCCD, sizeof(alertCCCD), (uint8 *)&alertCCCD);
 1962              		.loc 1 648 0
 1963 0132 834A     		ldr	r2, .L132+24
 1964 0134 0C33     		add	r3, r3, #12
 1965 0136 0093     		str	r3, [sp]
 1966 0138 1378     		ldrb	r3, [r2]
 1967 013a 5078     		ldrb	r0, [r2, #1]
 1968 013c 0002     		lsl	r0, r0, #8
 1969 013e 1843     		orr	r0, r3
 1970 0140 0221     		mov	r1, #2
 1971 0142 0022     		mov	r2, #0
 1972 0144 0223     		mov	r3, #2
 1973 0146 FFF7FEFF 		bl	CyBle_WptscSetCharacteristicDescriptor
 1974              	.LVL271:
 1975 014a 041C     		mov	r4, r0
 1976              	.LVL272:
 650:.\main.c      ****                     if(apiResult == CYBLE_ERROR_OK)
 1977              		.loc 1 650 0
 1978 014c 8348     		ldr	r0, .L132+52
 1979 014e 211C     		mov	r1, r4
 1980 0150 FFF7FEFF 		bl	printf
 1981              	.LVL273:
 651:.\main.c      ****                     {
 1982              		.loc 1 651 0
 1983 0154 002C     		cmp	r4, #0
 1984 0156 00D0     		beq	.LCB1657
 1985 0158 69E7     		b	.L125	@long jump
 1986              	.LCB1657:
 653:.\main.c      ****                     }
 1987              		.loc 1 653 0
 1988 015a 0022     		mov	r2, #0
 1989 015c 754B     		ldr	r3, .L132+12
ARM GAS  C:\Users\Petro\AppData\Local\Temp\ccvLNIXl.s 			page 53


 1990 015e 1A70     		strb	r2, [r3]
 1991 0160 72E7     		b	.L99
 1992              	.LVL274:
 1993              	.L106:
 657:.\main.c      ****                     apiResult = CyBle_WptscSetCharacteristicDescriptor(cyBle_connHandle, CYBLE_WPTS
 1994              		.loc 1 657 0
 1995 0162 734B     		ldr	r3, .L132+8
 1996 0164 9989     		ldrh	r1, [r3, #12]
 1997 0166 0222     		mov	r2, #2
 1998 0168 0A43     		orr	r2, r1
 1999 016a 9A81     		strh	r2, [r3, #12]
 658:.\main.c      ****                         CYBLE_WPTS_CCCD, sizeof(alertCCCD), (uint8 *)&alertCCCD);
 2000              		.loc 1 658 0
 2001 016c 744A     		ldr	r2, .L132+24
 2002 016e 0C33     		add	r3, r3, #12
 2003 0170 0093     		str	r3, [sp]
 2004 0172 1378     		ldrb	r3, [r2]
 2005 0174 5078     		ldrb	r0, [r2, #1]
 2006 0176 0002     		lsl	r0, r0, #8
 2007 0178 1843     		orr	r0, r3
 2008 017a 0221     		mov	r1, #2
 2009 017c 0022     		mov	r2, #0
 2010 017e 0223     		mov	r3, #2
 2011 0180 FFF7FEFF 		bl	CyBle_WptscSetCharacteristicDescriptor
 2012              	.LVL275:
 2013 0184 041C     		mov	r4, r0
 2014              	.LVL276:
 660:.\main.c      ****                     if(apiResult == CYBLE_ERROR_OK)
 2015              		.loc 1 660 0
 2016 0186 7648     		ldr	r0, .L132+56
 2017 0188 211C     		mov	r1, r4
 2018 018a FFF7FEFF 		bl	printf
 2019              	.LVL277:
 661:.\main.c      ****                     {
 2020              		.loc 1 661 0
 2021 018e 002C     		cmp	r4, #0
 2022 0190 00D0     		beq	.LCB1692
 2023 0192 4EE7     		b	.L126	@long jump
 2024              	.LCB1692:
 663:.\main.c      ****                     }
 2025              		.loc 1 663 0
 2026 0194 0022     		mov	r2, #0
 2027 0196 674B     		ldr	r3, .L132+12
 2028 0198 1A70     		strb	r2, [r3]
 2029 019a 55E7     		b	.L99
 2030              	.LVL278:
 2031              	.L107:
 667:.\main.c      ****                     apiResult = CyBle_WptscSetCharacteristicDescriptor(cyBle_connHandle, CYBLE_WPTS
 2032              		.loc 1 667 0
 2033 019c 644B     		ldr	r3, .L132+8
 2034 019e 0022     		mov	r2, #0
 2035 01a0 9A81     		strh	r2, [r3, #12]
 668:.\main.c      ****                         CYBLE_WPTS_CCCD, sizeof(alertCCCD), (uint8 *)&alertCCCD);
 2036              		.loc 1 668 0
 2037 01a2 674A     		ldr	r2, .L132+24
 2038 01a4 0C33     		add	r3, r3, #12
 2039 01a6 0093     		str	r3, [sp]
ARM GAS  C:\Users\Petro\AppData\Local\Temp\ccvLNIXl.s 			page 54


 2040 01a8 1378     		ldrb	r3, [r2]
 2041 01aa 5078     		ldrb	r0, [r2, #1]
 2042 01ac 0002     		lsl	r0, r0, #8
 2043 01ae 1843     		orr	r0, r3
 2044 01b0 0221     		mov	r1, #2
 2045 01b2 0022     		mov	r2, #0
 2046 01b4 0223     		mov	r3, #2
 2047 01b6 FFF7FEFF 		bl	CyBle_WptscSetCharacteristicDescriptor
 2048              	.LVL279:
 2049 01ba 041C     		mov	r4, r0
 2050              	.LVL280:
 670:.\main.c      ****                     if(apiResult == CYBLE_ERROR_OK)
 2051              		.loc 1 670 0
 2052 01bc 6948     		ldr	r0, .L132+60
 2053 01be 211C     		mov	r1, r4
 2054 01c0 FFF7FEFF 		bl	printf
 2055              	.LVL281:
 671:.\main.c      ****                     {
 2056              		.loc 1 671 0
 2057 01c4 002C     		cmp	r4, #0
 2058 01c6 00D0     		beq	.LCB1725
 2059 01c8 35E7     		b	.L127	@long jump
 2060              	.LCB1725:
 673:.\main.c      ****                     }
 2061              		.loc 1 673 0
 2062 01ca 0022     		mov	r2, #0
 2063 01cc 594B     		ldr	r3, .L132+12
 2064 01ce 1A70     		strb	r2, [r3]
 2065 01d0 3AE7     		b	.L99
 2066              	.LVL282:
 2067              	.L108:
 677:.\main.c      ****                     DBG_PRINTF("Get PRU Static Parameter char value, apiResult: %x \r\n", apiResult
 2068              		.loc 1 677 0
 2069 01d2 5B4A     		ldr	r2, .L132+24
 2070 01d4 1378     		ldrb	r3, [r2]
 2071 01d6 5078     		ldrb	r0, [r2, #1]
 2072 01d8 0002     		lsl	r0, r0, #8
 2073 01da 1843     		orr	r0, r3
 2074 01dc 0321     		mov	r1, #3
 2075 01de FFF7FEFF 		bl	CyBle_WptscGetCharacteristicValue
 2076              	.LVL283:
 2077 01e2 041C     		mov	r4, r0
 2078              	.LVL284:
 678:.\main.c      ****                     if(apiResult == CYBLE_ERROR_OK)
 2079              		.loc 1 678 0
 2080 01e4 6048     		ldr	r0, .L132+64
 2081 01e6 211C     		mov	r1, r4
 2082 01e8 FFF7FEFF 		bl	printf
 2083              	.LVL285:
 679:.\main.c      ****                     {
 2084              		.loc 1 679 0
 2085 01ec 002C     		cmp	r4, #0
 2086 01ee 00D0     		beq	.LCB1751
 2087 01f0 23E7     		b	.L128	@long jump
 2088              	.LCB1751:
 681:.\main.c      ****                     }
 2089              		.loc 1 681 0
ARM GAS  C:\Users\Petro\AppData\Local\Temp\ccvLNIXl.s 			page 55


 2090 01f2 0022     		mov	r2, #0
 2091 01f4 4F4B     		ldr	r3, .L132+12
 2092 01f6 1A70     		strb	r2, [r3]
 2093 01f8 26E7     		b	.L99
 2094              	.LVL286:
 2095              	.L109:
 685:.\main.c      ****                     DBG_PRINTF("Get PRU Dynamic Parameter char value, apiResult: %x \r\n", apiResul
 2096              		.loc 1 685 0
 2097 01fa 514A     		ldr	r2, .L132+24
 2098 01fc 1378     		ldrb	r3, [r2]
 2099 01fe 5078     		ldrb	r0, [r2, #1]
 2100 0200 0002     		lsl	r0, r0, #8
 2101 0202 1843     		orr	r0, r3
 2102 0204 0421     		mov	r1, #4
 2103 0206 FFF7FEFF 		bl	CyBle_WptscGetCharacteristicValue
 2104              	.LVL287:
 2105 020a 041C     		mov	r4, r0
 2106              	.LVL288:
 686:.\main.c      ****                     if(apiResult == CYBLE_ERROR_OK)
 2107              		.loc 1 686 0
 2108 020c 5748     		ldr	r0, .L132+68
 2109 020e 211C     		mov	r1, r4
 2110 0210 FFF7FEFF 		bl	printf
 2111              	.LVL289:
 687:.\main.c      ****                     {
 2112              		.loc 1 687 0
 2113 0214 002C     		cmp	r4, #0
 2114 0216 00D0     		beq	.LCB1777
 2115 0218 11E7     		b	.L129	@long jump
 2116              	.LCB1777:
 689:.\main.c      ****                     }
 2117              		.loc 1 689 0
 2118 021a 0022     		mov	r2, #0
 2119 021c 454B     		ldr	r3, .L132+12
 2120 021e 1A70     		strb	r2, [r3]
 2121 0220 12E7     		b	.L99
 2122              	.LVL290:
 2123              	.L110:
 693:.\main.c      ****                     apiResult = CyBle_WptscSetCharacteristicValue(cyBle_connHandle, CYBLE_WPTS_PRU_
 2124              		.loc 1 693 0
 2125 0222 434B     		ldr	r3, .L132+8
 2126 0224 9A7A     		ldrb	r2, [r3, #10]
 2127 0226 5248     		ldr	r0, .L132+72
 2128 0228 D300     		lsl	r3, r2, #3
 2129 022a 9918     		add	r1, r3, r2
 2130 022c 8900     		lsl	r1, r1, #2
 2131 022e 4118     		add	r1, r0, r1
 2132 0230 4024     		mov	r4, #64
 2133 0232 CC72     		strb	r4, [r1, #11]
 695:.\main.c      ****                     DBG_PRINTF("Set PRU Control char (enable charging), apiResult: %x \r\n", apiRes
 2134              		.loc 1 695 0
 2135 0234 0B1C     		mov	r3, r1
 2136 0236 0B33     		add	r3, r3, #11
 694:.\main.c      ****                         sizeof(peedDeviceInfo[deviceN].pruControl), (uint8 *)&peedDeviceInfo[device
 2137              		.loc 1 694 0
 2138 0238 4149     		ldr	r1, .L132+24
 2139 023a 0A78     		ldrb	r2, [r1]
ARM GAS  C:\Users\Petro\AppData\Local\Temp\ccvLNIXl.s 			page 56


 2140 023c 4878     		ldrb	r0, [r1, #1]
 2141 023e 0002     		lsl	r0, r0, #8
 2142 0240 1043     		orr	r0, r2
 2143 0242 0021     		mov	r1, #0
 2144 0244 0522     		mov	r2, #5
 2145 0246 FFF7FEFF 		bl	CyBle_WptscSetCharacteristicValue
 2146              	.LVL291:
 2147 024a 041C     		mov	r4, r0
 2148              	.LVL292:
 696:.\main.c      ****                     if(apiResult == CYBLE_ERROR_OK)
 2149              		.loc 1 696 0
 2150 024c 4948     		ldr	r0, .L132+76
 2151 024e 211C     		mov	r1, r4
 2152 0250 FFF7FEFF 		bl	printf
 2153              	.LVL293:
 697:.\main.c      ****                     {
 2154              		.loc 1 697 0
 2155 0254 002C     		cmp	r4, #0
 2156 0256 00D0     		beq	.LCB1819
 2157 0258 F3E6     		b	.L130	@long jump
 2158              	.LCB1819:
 699:.\main.c      ****                     }
 2159              		.loc 1 699 0
 2160 025a 0022     		mov	r2, #0
 2161 025c 354B     		ldr	r3, .L132+12
 2162 025e 1A70     		strb	r2, [r3]
 2163 0260 F2E6     		b	.L99
 2164              	.LVL294:
 2165              	.L111:
 703:.\main.c      ****                     apiResult = CyBle_WptscSetCharacteristicValue(cyBle_connHandle, CYBLE_WPTS_PRU_
 2166              		.loc 1 703 0
 2167 0262 334B     		ldr	r3, .L132+8
 2168 0264 9A7A     		ldrb	r2, [r3, #10]
 2169 0266 424C     		ldr	r4, .L132+72
 2170 0268 D300     		lsl	r3, r2, #3
 2171 026a 9918     		add	r1, r3, r2
 2172 026c 8900     		lsl	r1, r1, #2
 2173 026e 6118     		add	r1, r4, r1
 2174 0270 C87A     		ldrb	r0, [r1, #11]
 2175 0272 4025     		mov	r5, #64
 2176 0274 A843     		bic	r0, r5
 2177 0276 C872     		strb	r0, [r1, #11]
 705:.\main.c      ****                     DBG_PRINTF("Set PRU Control char (disable charging), apiResult: %x \r\n", apiRe
 2178              		.loc 1 705 0
 2179 0278 9B18     		add	r3, r3, r2
 2180 027a 9B00     		lsl	r3, r3, #2
 2181 027c E318     		add	r3, r4, r3
 2182 027e 0B33     		add	r3, r3, #11
 704:.\main.c      ****                         sizeof(peedDeviceInfo[deviceN].pruControl), (uint8 *)&peedDeviceInfo[device
 2183              		.loc 1 704 0
 2184 0280 2F49     		ldr	r1, .L132+24
 2185 0282 0A78     		ldrb	r2, [r1]
 2186 0284 4878     		ldrb	r0, [r1, #1]
 2187 0286 0002     		lsl	r0, r0, #8
 2188 0288 1043     		orr	r0, r2
 2189 028a 0021     		mov	r1, #0
 2190 028c 0522     		mov	r2, #5
ARM GAS  C:\Users\Petro\AppData\Local\Temp\ccvLNIXl.s 			page 57


 2191 028e FFF7FEFF 		bl	CyBle_WptscSetCharacteristicValue
 2192              	.LVL295:
 2193 0292 041C     		mov	r4, r0
 2194              	.LVL296:
 706:.\main.c      ****                     if(apiResult == CYBLE_ERROR_OK)
 2195              		.loc 1 706 0
 2196 0294 3848     		ldr	r0, .L132+80
 2197 0296 211C     		mov	r1, r4
 2198 0298 FFF7FEFF 		bl	printf
 2199              	.LVL297:
 707:.\main.c      ****                     {
 2200              		.loc 1 707 0
 2201 029c 002C     		cmp	r4, #0
 2202 029e 00D0     		beq	.LCB1865
 2203 02a0 D1E6     		b	.L131	@long jump
 2204              	.LCB1865:
 709:.\main.c      ****                     }
 2205              		.loc 1 709 0
 2206 02a2 0022     		mov	r2, #0
 2207 02a4 234B     		ldr	r3, .L132+12
 2208 02a6 1A70     		strb	r2, [r3]
 2209 02a8 CEE6     		b	.L99
 2210              	.LVL298:
 2211              	.L112:
 713:.\main.c      ****                     break;
 2212              		.loc 1 713 0
 2213 02aa 0122     		mov	r2, #1
 2214 02ac 204B     		ldr	r3, .L132+8
 2215 02ae 5A70     		strb	r2, [r3, #1]
 2216              		.loc 1 738 0
 2217 02b0 0024     		mov	r4, #0
 714:.\main.c      ****                 case '9':                   /* Disable sequential read of PRU Dynamic Parameter cha
 2218              		.loc 1 714 0
 2219 02b2 C9E6     		b	.L99
 2220              	.L113:
 716:.\main.c      ****                     break;
 2221              		.loc 1 716 0
 2222 02b4 0022     		mov	r2, #0
 2223 02b6 1E4B     		ldr	r3, .L132+8
 2224 02b8 5A70     		strb	r2, [r3, #1]
 2225              		.loc 1 738 0
 2226 02ba 0024     		mov	r4, #0
 717:.\main.c      ****                 case 'h':  /* Help menu */
 2227              		.loc 1 717 0
 2228 02bc C4E6     		b	.L99
 2229              	.L116:
 719:.\main.c      ****                     DBG_PRINTF("Available commands:\r\n");
 2230              		.loc 1 719 0
 2231 02be 2F48     		ldr	r0, .L132+84
 2232 02c0 FFF7FEFF 		bl	puts
 2233              	.LVL299:
 720:.\main.c      ****                     DBG_PRINTF(" \'h\' - Help menu.\r\n");
 2234              		.loc 1 720 0
 2235 02c4 2E48     		ldr	r0, .L132+88
 2236 02c6 FFF7FEFF 		bl	puts
 2237              	.LVL300:
 721:.\main.c      ****                     DBG_PRINTF(" \'z\' + 'Number' - Select peer device.\r\n");
ARM GAS  C:\Users\Petro\AppData\Local\Temp\ccvLNIXl.s 			page 58


 2238              		.loc 1 721 0
 2239 02ca 2E48     		ldr	r0, .L132+92
 2240 02cc FFF7FEFF 		bl	puts
 2241              	.LVL301:
 722:.\main.c      ****                     DBG_PRINTF(" \'c\' - Send connect request to peer device.\r\n");
 2242              		.loc 1 722 0
 2243 02d0 2D48     		ldr	r0, .L132+96
 2244 02d2 FFF7FEFF 		bl	puts
 2245              	.LVL302:
 723:.\main.c      ****                     DBG_PRINTF(" \'d\' - Send disconnect request to peer device.\r\n");
 2246              		.loc 1 723 0
 2247 02d6 2D48     		ldr	r0, .L132+100
 2248 02d8 FFF7FEFF 		bl	puts
 2249              	.LVL303:
 724:.\main.c      ****                     DBG_PRINTF(" \'v\' - Cancel connection request.\r\n");
 2250              		.loc 1 724 0
 2251 02dc 2C48     		ldr	r0, .L132+104
 2252 02de FFF7FEFF 		bl	puts
 2253              	.LVL304:
 725:.\main.c      ****                     DBG_PRINTF(" \'s\' - Start discovery procedure.\r\n");
 2254              		.loc 1 725 0
 2255 02e2 2C48     		ldr	r0, .L132+108
 2256 02e4 FFF7FEFF 		bl	puts
 2257              	.LVL305:
 726:.\main.c      ****                     DBG_PRINTF(" \'1\' - Enable notifications for Alert characteristic.\r\n");
 2258              		.loc 1 726 0
 2259 02e8 2B48     		ldr	r0, .L132+112
 2260 02ea FFF7FEFF 		bl	puts
 2261              	.LVL306:
 727:.\main.c      ****                     DBG_PRINTF(" \'2\' - Enable indications for Alert characteristic.\r\n");
 2262              		.loc 1 727 0
 2263 02ee 2B48     		ldr	r0, .L132+116
 2264 02f0 FFF7FEFF 		bl	puts
 2265              	.LVL307:
 728:.\main.c      ****                     DBG_PRINTF(" \'3\' - Disable notifications and indication for Alert characteris
 2266              		.loc 1 728 0
 2267 02f4 2A48     		ldr	r0, .L132+120
 2268 02f6 FFF7FEFF 		bl	puts
 2269              	.LVL308:
 729:.\main.c      ****                     DBG_PRINTF(" \'4\' - Send Read request for PRU Static Parameter characteristic.
 2270              		.loc 1 729 0
 2271 02fa 2A48     		ldr	r0, .L132+124
 2272 02fc FFF7FEFF 		bl	puts
 2273              	.LVL309:
 730:.\main.c      ****                     DBG_PRINTF(" \'5\' - Send Read request for PRU Dynamic Parameter characteristic
 2274              		.loc 1 730 0
 2275 0300 2948     		ldr	r0, .L132+128
 2276 0302 FFF7FEFF 		bl	puts
 2277              	.LVL310:
 731:.\main.c      ****                     DBG_PRINTF(" \'6\' - Send Enable Charging command to PRU control characteristic
 2278              		.loc 1 731 0
 2279 0306 2948     		ldr	r0, .L132+132
 2280 0308 FFF7FEFF 		bl	puts
 2281              	.LVL311:
 732:.\main.c      ****                     DBG_PRINTF(" \'7\' - Send Disable Charging command to PRU control characteristi
 2282              		.loc 1 732 0
 2283 030c 2848     		ldr	r0, .L132+136
ARM GAS  C:\Users\Petro\AppData\Local\Temp\ccvLNIXl.s 			page 59


 2284 030e FFF7FEFF 		bl	puts
 2285              	.LVL312:
 733:.\main.c      ****                     DBG_PRINTF(" \'8\' - Enable sequential read of PRU Dynamic Parameter characteri
 2286              		.loc 1 733 0
 2287 0312 2848     		ldr	r0, .L132+140
 2288 0314 FFF7FEFF 		bl	puts
 2289              	.LVL313:
 734:.\main.c      ****                     DBG_PRINTF(" \'9\' - Disable sequential read of PRU Dynamic Parameter character
 2290              		.loc 1 734 0
 2291 0318 2748     		ldr	r0, .L132+144
 2292 031a FFF7FEFF 		bl	puts
 2293              	.LVL314:
 735:.\main.c      ****                     break;
 2294              		.loc 1 735 0
 2295 031e 2748     		ldr	r0, .L132+148
 2296 0320 FFF7FEFF 		bl	puts
 2297              	.LVL315:
 2298              		.loc 1 738 0
 2299 0324 0024     		mov	r4, #0
 736:.\main.c      ****             }
 2300              		.loc 1 736 0
 2301 0326 8FE6     		b	.L99
 2302              	.L133:
 2303              		.align	2
 2304              	.L132:
 2305 0328 B0050000 		.word	.LC110
 2306 032c 00000000 		.word	AppCallback
 2307 0330 00000000 		.word	.LANCHOR0
 2308 0334 00000000 		.word	.LANCHOR1
 2309 0338 48040000 		.word	.L105
 2310 033c E4050000 		.word	.LC116
 2311 0340 00000000 		.word	cyBle_connHandle
 2312 0344 0C060000 		.word	.LC119
 2313 0348 30060000 		.word	.LC121
 2314 034c 44060000 		.word	.LC123
 2315 0350 64060000 		.word	.LC125
 2316 0354 74060000 		.word	.LC127
 2317 0358 78060000 		.word	.LC129
 2318 035c 88060000 		.word	.LC131
 2319 0360 B4060000 		.word	.LC133
 2320 0364 E0060000 		.word	.LC135
 2321 0368 1C070000 		.word	.LC137
 2322 036c 54070000 		.word	.LC139
 2323 0370 00000000 		.word	peedDeviceInfo
 2324 0374 8C070000 		.word	.LC142
 2325 0378 C8070000 		.word	.LC144
 2326 037c 20010000 		.word	.LC32
 2327 0380 04080000 		.word	.LC147
 2328 0384 1C080000 		.word	.LC149
 2329 0388 30080000 		.word	.LC151
 2330 038c 58080000 		.word	.LC153
 2331 0390 88080000 		.word	.LC155
 2332 0394 B8080000 		.word	.LC157
 2333 0398 DC080000 		.word	.LC159
 2334 039c 00090000 		.word	.LC161
 2335 03a0 38090000 		.word	.LC163
 2336 03a4 70090000 		.word	.LC165
ARM GAS  C:\Users\Petro\AppData\Local\Temp\ccvLNIXl.s 			page 60


 2337 03a8 B8090000 		.word	.LC167
 2338 03ac FC090000 		.word	.LC169
 2339 03b0 400A0000 		.word	.LC171
 2340 03b4 840A0000 		.word	.LC173
 2341 03b8 CC0A0000 		.word	.LC175
 2342 03bc 140B0000 		.word	.LC177
 2343              		.cfi_endproc
 2344              	.LFE43:
 2345              		.size	main, .-main
 2346              		.comm	connParameters,8,4
 2347              		.global	requestResponce
 2348              		.global	alertCCCD
 2349              		.global	customCommand
 2350              		.global	readingDynChar
 2351              		.global	state
 2352              		.global	deviceN
 2353              		.global	advDevices
 2354              		.comm	peedDeviceInfo,288,4
 2355              		.global	mainTimer
 2356              		.data
 2357              		.set	.LANCHOR1,. + 0
 2358              		.type	requestResponce, %object
 2359              		.size	requestResponce, 1
 2360              	requestResponce:
 2361 0000 01       		.byte	1
 2362              		.section	.rodata.str1.4,"aMS",%progbits,1
 2363              		.align	2
 2364              	.LC5:
 2365 0000 426C7565 		.ascii	"Bluetooth On \015\000"
 2365      746F6F74 
 2365      68204F6E 
 2365      200D00
 2366 000f 00       		.space	1
 2367              	.LC7:
 2368 0010 53746172 		.ascii	"StartScan API Error: %xd \015\012\000"
 2368      74536361 
 2368      6E204150 
 2368      49204572 
 2368      726F723A 
 2369              	.LC9:
 2370 002c 4359424C 		.ascii	"CYBLE_EVT_TIMEOUT: %x \015\012\000"
 2370      455F4556 
 2370      545F5449 
 2370      4D454F55 
 2370      543A2025 
 2371 0045 000000   		.space	3
 2372              	.LC11:
 2373 0048 48617264 		.ascii	"Hardware Error: %x \015\012\000"
 2373      77617265 
 2373      20457272 
 2373      6F723A20 
 2373      2578200D 
 2374 005e 0000     		.space	2
 2375              	.LC13:
 2376 0060 4359424C 		.ascii	"CYBLE_EVT_HCI_STATUS: %x \015\012\000"
 2376      455F4556 
 2376      545F4843 
ARM GAS  C:\Users\Petro\AppData\Local\Temp\ccvLNIXl.s 			page 61


 2376      495F5354 
 2376      41545553 
 2377              	.LC16:
 2378 007c 4359424C 		.ascii	"CYBLE_EVT_STACK_BUSY_STATUS: %x\015\012\000"
 2378      455F4556 
 2378      545F5354 
 2378      41434B5F 
 2378      42555359 
 2379 009e 0000     		.space	2
 2380              	.LC18:
 2381 00a0 41647665 		.ascii	"Advertisement report: eventType = %x, peerAddrType "
 2381      72746973 
 2381      656D656E 
 2381      74207265 
 2381      706F7274 
 2382 00d3 2D202578 		.ascii	"- %x, \000"
 2382      2C2000
 2383 00da 0000     		.space	2
 2384              	.LC20:
 2385 00dc 70656572 		.ascii	"peerBdAddr - #\000"
 2385      42644164 
 2385      6472202D 
 2385      202300
 2386 00eb 00       		.space	1
 2387              	.LC23:
 2388 00ec 25783A20 		.ascii	"%x: \000"
 2388      00
 2389 00f1 000000   		.space	3
 2390              	.LC26:
 2391 00f4 25322E32 		.ascii	"%2.2x\000"
 2391      7800
 2392 00fa 0000     		.space	2
 2393              	.LC28:
 2394 00fc 2C207273 		.ascii	", rssi - %d dBm,\015\012 data - \000"
 2394      7369202D 
 2394      20256420 
 2394      64426D2C 
 2394      0D0A2064 
 2395 0117 00       		.space	1
 2396              	.LC30:
 2397 0118 25322E32 		.ascii	"%2.2x \000"
 2397      782000
 2398 011f 00       		.space	1
 2399              	.LC32:
 2400 0120 0D00     		.ascii	"\015\000"
 2401 0122 0000     		.space	2
 2402              	.LC34:
 2403 0124 4359424C 		.ascii	"CYBLE_EVT_GAPC_SCAN_START_STOP, state: %x\015\012\000"
 2403      455F4556 
 2403      545F4741 
 2403      50435F53 
 2403      43414E5F 
 2404              	.LC37:
 2405 0150 47415043 		.ascii	"GAPC_END_SCANNING\015\000"
 2405      5F454E44 
 2405      5F534341 
 2405      4E4E494E 
ARM GAS  C:\Users\Petro\AppData\Local\Temp\ccvLNIXl.s 			page 62


 2405      470D00
 2406 0163 00       		.space	1
 2407              	.LC40:
 2408 0164 436F6E6E 		.ascii	"ConnectDevice API Error: %x \015\012\000"
 2408      65637444 
 2408      65766963 
 2408      65204150 
 2408      49204572 
 2409 0183 00       		.space	1
 2410              	.LC42:
 2411 0184 48696265 		.ascii	"Hibernate \015\000"
 2411      726E6174 
 2411      65200D00 
 2412              	.LC44:
 2413 0190 41555448 		.ascii	"AUTH_COMPLETE: security:%x, bonding:%x, ekeySize:%x"
 2413      5F434F4D 
 2413      504C4554 
 2413      453A2073 
 2413      65637572 
 2414 01c3 2C206175 		.ascii	", authErr %x \015\012\000"
 2414      74684572 
 2414      72202578 
 2414      200D0A00 
 2415 01d3 00       		.space	1
 2416              	.LC46:
 2417 01d4 41555448 		.ascii	"AUTH_FAILED: %x \015\012\000"
 2417      5F464149 
 2417      4C45443A 
 2417      20257820 
 2417      0D0A00
 2418 01e7 00       		.space	1
 2419              	.LC49:
 2420 01e8 4359424C 		.ascii	"CYBLE_EVT_GAP_DEVICE_CONNECTED: %x, %x(%d ms), %x, "
 2420      455F4556 
 2420      545F4741 
 2420      505F4445 
 2420      56494345 
 2421 021b 2578200D 		.ascii	"%x \015\012\000"
 2421      0A00
 2422 0221 000000   		.space	3
 2423              	.LC52:
 2424 0224 57505453 		.ascii	"WPTS %x: \000"
 2424      2025783A 
 2424      2000
 2425 022e 0000     		.space	2
 2426              	.LC54:
 2427 0230 43686172 		.ascii	"Char %x=%x, CCCD=%x \000"
 2427      2025783D 
 2427      25782C20 
 2427      43434344 
 2427      3D257820 
 2428 0245 000000   		.space	3
 2429              	.LC56:
 2430 0248 44455649 		.ascii	"DEVICE_DISCONNECTED: \015\000"
 2430      43455F44 
 2430      4953434F 
 2430      4E4E4543 
ARM GAS  C:\Users\Petro\AppData\Local\Temp\ccvLNIXl.s 			page 63


 2430      5445443A 
 2431 025f 00       		.space	1
 2432              	.LC59:
 2433 0260 454E4352 		.ascii	"ENCRYPT_CHANGE: %d \015\012\000"
 2433      5950545F 
 2433      4348414E 
 2433      47453A20 
 2433      2564200D 
 2434 0276 0000     		.space	2
 2435              	.LC61:
 2436 0278 4359424C 		.ascii	"CYBLE_EVT_GAPC_CONNECTION_UPDATE_COMPLETE: %x, %x(%"
 2436      455F4556 
 2436      545F4741 
 2436      50435F43 
 2436      4F4E4E45 
 2437 02ab 64206D73 		.ascii	"d ms), %x, %x \015\012\000"
 2437      292C2025 
 2437      782C2025 
 2437      78200D0A 
 2437      00
 2438              	.LC63:
 2439 02bc 4359424C 		.ascii	"CYBLE_EVT_GAP_KEYINFO_EXCHNGE_CMPLT \015\000"
 2439      455F4556 
 2439      545F4741 
 2439      505F4B45 
 2439      59494E46 
 2440 02e2 0000     		.space	2
 2441              	.LC65:
 2442 02e4 47415454 		.ascii	"GATT_ERROR_RSP: opcode: %x,  handle: %x,  errorcode"
 2442      5F455252 
 2442      4F525F52 
 2442      53503A20 
 2442      6F70636F 
 2443 0317 3A202578 		.ascii	": %x \015\012\000"
 2443      200D0A00 
 2444 031f 00       		.space	1
 2445              	.LC67:
 2446 0320 4359424C 		.ascii	"CYBLE_EVT_GATT_CONNECT_IND: %x, %x \015\012\000"
 2446      455F4556 
 2446      545F4741 
 2446      54545F43 
 2446      4F4E4E45 
 2447 0346 0000     		.space	2
 2448              	.LC69:
 2449 0348 47415454 		.ascii	"GATT_DISCONNECT_IND \015\000"
 2449      5F444953 
 2449      434F4E4E 
 2449      4543545F 
 2449      494E4420 
 2450 035e 0000     		.space	2
 2451              	.LC71:
 2452 0360 4359424C 		.ascii	"CYBLE_EVT_GATT_HANDLE_VALUE_NTF: handle: %x, Value:"
 2452      455F4556 
 2452      545F4741 
 2452      54545F48 
 2452      414E444C 
 2453 0393 00       		.ascii	"\000"
ARM GAS  C:\Users\Petro\AppData\Local\Temp\ccvLNIXl.s 			page 64


 2454              	.LC73:
 2455 0394 4359424C 		.ascii	"CYBLE_EVT_GATTC_HANDLE_VALUE_IND: handle: %x, Value"
 2455      455F4556 
 2455      545F4741 
 2455      5454435F 
 2455      48414E44 
 2456 03c7 3A00     		.ascii	":\000"
 2457 03c9 000000   		.space	3
 2458              	.LC75:
 2459 03cc 4359424C 		.ascii	"CYBLE_EVT_GATTC_INDICATION: handle: %x, Value:\000"
 2459      455F4556 
 2459      545F4741 
 2459      5454435F 
 2459      494E4449 
 2460 03fb 00       		.space	1
 2461              	.LC77:
 2462 03fc 4359424C 		.ascii	"CYBLE_EVT_GATT_READ_RSP: \000"
 2462      455F4556 
 2462      545F4741 
 2462      54545F52 
 2462      4541445F 
 2463 0416 0000     		.space	2
 2464              	.LC79:
 2465 0418 4359424C 		.ascii	"CYBLE_EVT_GATTC_READ_BLOB_RSP: \000"
 2465      455F4556 
 2465      545F4741 
 2465      5454435F 
 2465      52454144 
 2466              	.LC81:
 2467 0438 4359424C 		.ascii	"CYBLE_EVT_GATT_WRITE_RSP \015\000"
 2467      455F4556 
 2467      545F4741 
 2467      54545F57 
 2467      52495445 
 2468 0453 00       		.space	1
 2469              	.LC83:
 2470 0454 4359424C 		.ascii	"CYBLE_EVT_GATT_XCHNG_MTU_RSP \015\000"
 2470      455F4556 
 2470      545F4741 
 2470      54545F58 
 2470      43484E47 
 2471 0473 00       		.space	1
 2472              	.LC85:
 2473 0474 4359424C 		.ascii	"CYBLE_EVT_GATT_READ_BY_GROUP_TYPE_RSP: \000"
 2473      455F4556 
 2473      545F4741 
 2473      54545F52 
 2473      4541445F 
 2474              	.LC87:
 2475 049c 4359424C 		.ascii	"CYBLE_EVT_GATT_READ_BY_TYPE_RSP: \000"
 2475      455F4556 
 2475      545F4741 
 2475      54545F52 
 2475      4541445F 
 2476 04be 0000     		.space	2
 2477              	.LC89:
 2478 04c0 4359424C 		.ascii	"CYBLE_EVT_GATT_FIND_INFO_RSP: \000"
ARM GAS  C:\Users\Petro\AppData\Local\Temp\ccvLNIXl.s 			page 65


 2478      455F4556 
 2478      545F4741 
 2478      54545F46 
 2478      494E445F 
 2479 04df 00       		.space	1
 2480              	.LC91:
 2481 04e0 25322E32 		.ascii	"%2.2x %2.2x,\000"
 2481      78202532 
 2481      2E32782C 
 2481      00
 2482 04ed 000000   		.space	3
 2483              	.LC93:
 2484 04f0 55554944 		.ascii	"UUID128\000"
 2484      31323800 
 2485              	.LC95:
 2486 04f8 4359424C 		.ascii	"CYBLE_EVT_GATT_FIND_BY_TYPE_VALUE_RSP \015\000"
 2486      455F4556 
 2486      545F4741 
 2486      54545F46 
 2486      494E445F 
 2487              	.LC97:
 2488 0520 4359424C 		.ascii	"CYBLE_EVT_SERVER_DISCOVERY_COMPLETE \015\000"
 2488      455F4556 
 2488      545F5345 
 2488      52564552 
 2488      5F444953 
 2489 0546 0000     		.space	2
 2490              	.LC101:
 2491 0548 47415454 		.ascii	"GATT %x-%x Char: %x, cccd: %x, \015\012\000"
 2491      2025782D 
 2491      25782043 
 2491      6861723A 
 2491      2025782C 
 2492 056a 0000     		.space	2
 2493              	.LC103:
 2494 056c 0D0A5750 		.ascii	"\015\012WPTS %x-%x: \000"
 2494      54532025 
 2494      782D2578 
 2494      3A2000
 2495 057b 00       		.space	1
 2496              	.LC105:
 2497 057c 4359424C 		.ascii	"CYBLE_EVT_PENDING_FLASH_WRITE\015\000"
 2497      455F4556 
 2497      545F5045 
 2497      4E44494E 
 2497      475F464C 
 2498 059b 00       		.space	1
 2499              	.LC107:
 2500 059c 4F544845 		.ascii	"OTHER event: %lx \015\012\000"
 2500      52206576 
 2500      656E743A 
 2500      20256C78 
 2500      200D0A00 
 2501              	.LC110:
 2502 05b0 424C4520 		.ascii	"BLE Wireless Power Transmitter Example Project \015"
 2502      57697265 
 2502      6C657373 
ARM GAS  C:\Users\Petro\AppData\Local\Temp\ccvLNIXl.s 			page 66


 2502      20506F77 
 2502      65722054 
 2503 05e0 00       		.ascii	"\000"
 2504 05e1 000000   		.space	3
 2505              	.LC116:
 2506 05e4 4379426C 		.ascii	"CyBle_GapcCancelDeviceConnection: %x\015\012\000"
 2506      655F4761 
 2506      70634361 
 2506      6E63656C 
 2506      44657669 
 2507 060b 00       		.space	1
 2508              	.LC119:
 2509 060c 44697363 		.ascii	"DisconnectDevice API Error: %x \015\012\000"
 2509      6F6E6E65 
 2509      63744465 
 2509      76696365 
 2509      20415049 
 2510 062e 0000     		.space	2
 2511              	.LC121:
 2512 0630 53746172 		.ascii	"StartDiscovery \015\000"
 2512      74446973 
 2512      636F7665 
 2512      7279200D 
 2512      00
 2513 0641 000000   		.space	3
 2514              	.LC123:
 2515 0644 53746172 		.ascii	"StartDiscovery API Error: %x \015\012\000"
 2515      74446973 
 2515      636F7665 
 2515      72792041 
 2515      50492045 
 2516              	.LC125:
 2517 0664 53656C65 		.ascii	"Select Device:\000"
 2517      63742044 
 2517      65766963 
 2517      653A00
 2518 0673 00       		.space	1
 2519              	.LC127:
 2520 0674 25630A00 		.ascii	"%c\012\000"
 2521              	.LC129:
 2522 0678 2057726F 		.ascii	" Wrong digit \015\000"
 2522      6E672064 
 2522      69676974 
 2522      200D00
 2523 0687 00       		.space	1
 2524              	.LC131:
 2525 0688 456E6162 		.ascii	"Enable Alert Notification, apiResult: %x \015\012\000"
 2525      6C652041 
 2525      6C657274 
 2525      204E6F74 
 2525      69666963 
 2526              	.LC133:
 2527 06b4 456E6162 		.ascii	"Enable Alert Indication, apiResult: %x \015\012\000"
 2527      6C652041 
 2527      6C657274 
 2527      20496E64 
 2527      69636174 
ARM GAS  C:\Users\Petro\AppData\Local\Temp\ccvLNIXl.s 			page 67


 2528 06de 0000     		.space	2
 2529              	.LC135:
 2530 06e0 44697361 		.ascii	"Disable Alert Notification and Indication, apiResul"
 2530      626C6520 
 2530      416C6572 
 2530      74204E6F 
 2530      74696669 
 2531 0713 743A2025 		.ascii	"t: %x \015\012\000"
 2531      78200D0A 
 2531      00
 2532              	.LC137:
 2533 071c 47657420 		.ascii	"Get PRU Static Parameter char value, apiResult: %x "
 2533      50525520 
 2533      53746174 
 2533      69632050 
 2533      6172616D 
 2534 074f 0D0A00   		.ascii	"\015\012\000"
 2535 0752 0000     		.space	2
 2536              	.LC139:
 2537 0754 47657420 		.ascii	"Get PRU Dynamic Parameter char value, apiResult: %x"
 2537      50525520 
 2537      44796E61 
 2537      6D696320 
 2537      50617261 
 2538 0787 200D0A00 		.ascii	" \015\012\000"
 2539 078b 00       		.space	1
 2540              	.LC142:
 2541 078c 53657420 		.ascii	"Set PRU Control char (enable charging), apiResult: "
 2541      50525520 
 2541      436F6E74 
 2541      726F6C20 
 2541      63686172 
 2542 07bf 2578200D 		.ascii	"%x \015\012\000"
 2542      0A00
 2543 07c5 000000   		.space	3
 2544              	.LC144:
 2545 07c8 53657420 		.ascii	"Set PRU Control char (disable charging), apiResult:"
 2545      50525520 
 2545      436F6E74 
 2545      726F6C20 
 2545      63686172 
 2546 07fb 20257820 		.ascii	" %x \015\012\000"
 2546      0D0A00
 2547 0802 0000     		.space	2
 2548              	.LC147:
 2549 0804 41766169 		.ascii	"Available commands:\015\000"
 2549      6C61626C 
 2549      6520636F 
 2549      6D6D616E 
 2549      64733A0D 
 2550 0819 000000   		.space	3
 2551              	.LC149:
 2552 081c 20276827 		.ascii	" 'h' - Help menu.\015\000"
 2552      202D2048 
 2552      656C7020 
 2552      6D656E75 
 2552      2E0D00
ARM GAS  C:\Users\Petro\AppData\Local\Temp\ccvLNIXl.s 			page 68


 2553 082f 00       		.space	1
 2554              	.LC151:
 2555 0830 20277A27 		.ascii	" 'z' + 'Number' - Select peer device.\015\000"
 2555      202B2027 
 2555      4E756D62 
 2555      65722720 
 2555      2D205365 
 2556 0857 00       		.space	1
 2557              	.LC153:
 2558 0858 20276327 		.ascii	" 'c' - Send connect request to peer device.\015\000"
 2558      202D2053 
 2558      656E6420 
 2558      636F6E6E 
 2558      65637420 
 2559 0885 000000   		.space	3
 2560              	.LC155:
 2561 0888 20276427 		.ascii	" 'd' - Send disconnect request to peer device.\015\000"
 2561      202D2053 
 2561      656E6420 
 2561      64697363 
 2561      6F6E6E65 
 2562              	.LC157:
 2563 08b8 20277627 		.ascii	" 'v' - Cancel connection request.\015\000"
 2563      202D2043 
 2563      616E6365 
 2563      6C20636F 
 2563      6E6E6563 
 2564 08db 00       		.space	1
 2565              	.LC159:
 2566 08dc 20277327 		.ascii	" 's' - Start discovery procedure.\015\000"
 2566      202D2053 
 2566      74617274 
 2566      20646973 
 2566      636F7665 
 2567 08ff 00       		.space	1
 2568              	.LC161:
 2569 0900 20273127 		.ascii	" '1' - Enable notifications for Alert characteristi"
 2569      202D2045 
 2569      6E61626C 
 2569      65206E6F 
 2569      74696669 
 2570 0933 632E0D00 		.ascii	"c.\015\000"
 2571 0937 00       		.space	1
 2572              	.LC163:
 2573 0938 20273227 		.ascii	" '2' - Enable indications for Alert characteristic."
 2573      202D2045 
 2573      6E61626C 
 2573      6520696E 
 2573      64696361 
 2574 096b 0D00     		.ascii	"\015\000"
 2575 096d 000000   		.space	3
 2576              	.LC165:
 2577 0970 20273327 		.ascii	" '3' - Disable notifications and indication for Ale"
 2577      202D2044 
 2577      69736162 
 2577      6C65206E 
 2577      6F746966 
ARM GAS  C:\Users\Petro\AppData\Local\Temp\ccvLNIXl.s 			page 69


 2578 09a3 72742063 		.ascii	"rt characteristic.\015\000"
 2578      68617261 
 2578      63746572 
 2578      69737469 
 2578      632E0D00 
 2579 09b7 00       		.space	1
 2580              	.LC167:
 2581 09b8 20273427 		.ascii	" '4' - Send Read request for PRU Static Parameter c"
 2581      202D2053 
 2581      656E6420 
 2581      52656164 
 2581      20726571 
 2582 09eb 68617261 		.ascii	"haracteristic.\015\000"
 2582      63746572 
 2582      69737469 
 2582      632E0D00 
 2583 09fb 00       		.space	1
 2584              	.LC169:
 2585 09fc 20273527 		.ascii	" '5' - Send Read request for PRU Dynamic Parameter "
 2585      202D2053 
 2585      656E6420 
 2585      52656164 
 2585      20726571 
 2586 0a2f 63686172 		.ascii	"characteristic.\015\000"
 2586      61637465 
 2586      72697374 
 2586      69632E0D 
 2586      00
 2587              	.LC171:
 2588 0a40 20273627 		.ascii	" '6' - Send Enable Charging command to PRU control "
 2588      202D2053 
 2588      656E6420 
 2588      456E6162 
 2588      6C652043 
 2589 0a73 63686172 		.ascii	"characteristic.\015\000"
 2589      61637465 
 2589      72697374 
 2589      69632E0D 
 2589      00
 2590              	.LC173:
 2591 0a84 20273727 		.ascii	" '7' - Send Disable Charging command to PRU control"
 2591      202D2053 
 2591      656E6420 
 2591      44697361 
 2591      626C6520 
 2592 0ab7 20636861 		.ascii	" characteristic.\015\000"
 2592      72616374 
 2592      65726973 
 2592      7469632E 
 2592      0D00
 2593 0ac9 000000   		.space	3
 2594              	.LC175:
 2595 0acc 20273827 		.ascii	" '8' - Enable sequential read of PRU Dynamic Parame"
 2595      202D2045 
 2595      6E61626C 
 2595      65207365 
 2595      7175656E 
ARM GAS  C:\Users\Petro\AppData\Local\Temp\ccvLNIXl.s 			page 70


 2596 0aff 74657220 		.ascii	"ter characteristic.\015\000"
 2596      63686172 
 2596      61637465 
 2596      72697374 
 2596      69632E0D 
 2597              	.LC177:
 2598 0b14 20273927 		.ascii	" '9' - Disable sequential read of PRU Dynamic Param"
 2598      202D2044 
 2598      69736162 
 2598      6C652073 
 2598      65717565 
 2599 0b47 65746572 		.ascii	"eter characteristic.\015\000"
 2599      20636861 
 2599      72616374 
 2599      65726973 
 2599      7469632E 
 2600 0b5d 000000   		.bss
 2601              		.align	2
 2602              		.set	.LANCHOR0,. + 0
 2603              		.type	led.7669, %object
 2604              		.size	led.7669, 1
 2605              	led.7669:
 2606 0000 00       		.space	1
 2607              		.type	readingDynChar, %object
 2608              		.size	readingDynChar, 1
 2609              	readingDynChar:
 2610 0001 00       		.space	1
 2611              		.type	customCommand, %object
 2612              		.size	customCommand, 1
 2613              	customCommand:
 2614 0002 00       		.space	1
 2615 0003 00       		.space	1
 2616              		.type	mainTimer, %object
 2617              		.size	mainTimer, 4
 2618              	mainTimer:
 2619 0004 00000000 		.space	4
 2620              		.type	advDevices, %object
 2621              		.size	advDevices, 1
 2622              	advDevices:
 2623 0008 00       		.space	1
 2624              		.type	state, %object
 2625              		.size	state, 1
 2626              	state:
 2627 0009 00       		.space	1
 2628              		.type	deviceN, %object
 2629              		.size	deviceN, 1
 2630              	deviceN:
 2631 000a 00       		.space	1
 2632 000b 00       		.space	1
 2633              		.type	alertCCCD, %object
 2634              		.size	alertCCCD, 2
 2635              	alertCCCD:
 2636 000c 0000     		.space	2
 2637 000e 0000     		.text
 2638              	.Letext0:
 2639              		.file 2 "Generated_Source\\PSoC4/cytypes.h"
 2640              		.file 3 "c:\\program files (x86)\\cypress\\psoc creator\\3.3\\psoc creator\\import\\gnu\\arm\\4.9.
ARM GAS  C:\Users\Petro\AppData\Local\Temp\ccvLNIXl.s 			page 71


 2641              		.file 4 "Generated_Source\\PSoC4/BLE_Stack.h"
 2642              		.file 5 "Generated_Source\\PSoC4/BLE_StackHostMain.h"
 2643              		.file 6 "Generated_Source\\PSoC4/BLE_StackGap.h"
 2644              		.file 7 "Generated_Source\\PSoC4/BLE_StackGatt.h"
 2645              		.file 8 "Generated_Source\\PSoC4/BLE_StackGattClient.h"
 2646              		.file 9 "Generated_Source\\PSoC4/BLE.h"
 2647              		.file 10 "Generated_Source\\PSoC4/BLE_gatt.h"
 2648              		.file 11 "Generated_Source\\PSoC4/BLE_wpts.h"
 2649              		.file 12 "Generated_Source\\PSoC4/BLE_eventHandler.h"
 2650              		.file 13 ".\\wptu.h"
 2651              		.file 14 "Generated_Source\\PSoC4/Scanning_LED.h"
 2652              		.file 15 "Generated_Source\\PSoC4/CyLFClk.h"
 2653              		.file 16 "Generated_Source\\PSoC4/CyLib.h"
 2654              		.file 17 "c:\\program files (x86)\\cypress\\psoc creator\\3.3\\psoc creator\\import\\gnu\\arm\\4.9
 2655              		.file 18 "c:\\program files (x86)\\cypress\\psoc creator\\3.3\\psoc creator\\import\\gnu\\arm\\4.9
 2656              		.file 19 "Generated_Source\\PSoC4/UART_DEB_SPI_UART.h"
 2657              		.file 20 "Generated_Source\\PSoC4/SW2.h"
 2658              		.file 21 "Generated_Source\\PSoC4/cyPm.h"
 2659              		.file 22 "Generated_Source\\PSoC4/Wakeup_Interrupt.h"
 2660              		.file 23 ".\\common.h"
 2661              		.file 24 "Generated_Source\\PSoC4/WDT_Interrupt.h"
 2662              		.file 25 "Generated_Source\\PSoC4/UART_DEB.h"
 2663              		.file 26 "<built-in>"
 2664              		.section	.debug_info,"",%progbits
 2665              	.Ldebug_info0:
 2666 0000 3C270000 		.4byte	0x273c
 2667 0004 0400     		.2byte	0x4
 2668 0006 00000000 		.4byte	.Ldebug_abbrev0
 2669 000a 04       		.byte	0x4
 2670 000b 01       		.uleb128 0x1
 2671 000c 8A1F0000 		.4byte	.LASF660
 2672 0010 01       		.byte	0x1
 2673 0011 EE410000 		.4byte	.LASF661
 2674 0015 BA1C0000 		.4byte	.LASF662
 2675 0019 00000000 		.4byte	.Ldebug_ranges0+0
 2676 001d 00000000 		.4byte	0
 2677 0021 00000000 		.4byte	.Ldebug_line0
 2678 0025 02       		.uleb128 0x2
 2679 0026 01       		.byte	0x1
 2680 0027 06       		.byte	0x6
 2681 0028 7B0F0000 		.4byte	.LASF0
 2682 002c 02       		.uleb128 0x2
 2683 002d 01       		.byte	0x1
 2684 002e 08       		.byte	0x8
 2685 002f E0100000 		.4byte	.LASF1
 2686 0033 02       		.uleb128 0x2
 2687 0034 02       		.byte	0x2
 2688 0035 05       		.byte	0x5
 2689 0036 87390000 		.4byte	.LASF2
 2690 003a 02       		.uleb128 0x2
 2691 003b 02       		.byte	0x2
 2692 003c 07       		.byte	0x7
 2693 003d 55420000 		.4byte	.LASF3
 2694 0041 02       		.uleb128 0x2
 2695 0042 04       		.byte	0x4
 2696 0043 05       		.byte	0x5
 2697 0044 130C0000 		.4byte	.LASF4
ARM GAS  C:\Users\Petro\AppData\Local\Temp\ccvLNIXl.s 			page 72


 2698 0048 02       		.uleb128 0x2
 2699 0049 04       		.byte	0x4
 2700 004a 07       		.byte	0x7
 2701 004b FC1D0000 		.4byte	.LASF5
 2702 004f 02       		.uleb128 0x2
 2703 0050 08       		.byte	0x8
 2704 0051 05       		.byte	0x5
 2705 0052 F3220000 		.4byte	.LASF6
 2706 0056 02       		.uleb128 0x2
 2707 0057 08       		.byte	0x8
 2708 0058 07       		.byte	0x7
 2709 0059 1C310000 		.4byte	.LASF7
 2710 005d 03       		.uleb128 0x3
 2711 005e 04       		.byte	0x4
 2712 005f 05       		.byte	0x5
 2713 0060 696E7400 		.ascii	"int\000"
 2714 0064 02       		.uleb128 0x2
 2715 0065 04       		.byte	0x4
 2716 0066 07       		.byte	0x7
 2717 0067 D2270000 		.4byte	.LASF8
 2718 006b 04       		.uleb128 0x4
 2719 006c FC380000 		.4byte	.LASF9
 2720 0070 02       		.byte	0x2
 2721 0071 3801     		.2byte	0x138
 2722 0073 2C000000 		.4byte	0x2c
 2723 0077 04       		.uleb128 0x4
 2724 0078 68450000 		.4byte	.LASF10
 2725 007c 02       		.byte	0x2
 2726 007d 3901     		.2byte	0x139
 2727 007f 3A000000 		.4byte	0x3a
 2728 0083 04       		.uleb128 0x4
 2729 0084 C2030000 		.4byte	.LASF11
 2730 0088 02       		.byte	0x2
 2731 0089 3A01     		.2byte	0x13a
 2732 008b 48000000 		.4byte	0x48
 2733 008f 04       		.uleb128 0x4
 2734 0090 20090000 		.4byte	.LASF12
 2735 0094 02       		.byte	0x2
 2736 0095 3B01     		.2byte	0x13b
 2737 0097 25000000 		.4byte	0x25
 2738 009b 02       		.uleb128 0x2
 2739 009c 04       		.byte	0x4
 2740 009d 04       		.byte	0x4
 2741 009e 3F260000 		.4byte	.LASF13
 2742 00a2 02       		.uleb128 0x2
 2743 00a3 08       		.byte	0x8
 2744 00a4 04       		.byte	0x4
 2745 00a5 3E240000 		.4byte	.LASF14
 2746 00a9 04       		.uleb128 0x4
 2747 00aa 09070000 		.4byte	.LASF15
 2748 00ae 02       		.byte	0x2
 2749 00af 4901     		.2byte	0x149
 2750 00b1 B5000000 		.4byte	0xb5
 2751 00b5 02       		.uleb128 0x2
 2752 00b6 01       		.byte	0x1
 2753 00b7 08       		.byte	0x8
 2754 00b8 A2130000 		.4byte	.LASF16
ARM GAS  C:\Users\Petro\AppData\Local\Temp\ccvLNIXl.s 			page 73


 2755 00bc 05       		.uleb128 0x5
 2756 00bd 6B000000 		.4byte	0x6b
 2757 00c1 04       		.uleb128 0x4
 2758 00c2 BB310000 		.4byte	.LASF17
 2759 00c6 02       		.byte	0x2
 2760 00c7 E401     		.2byte	0x1e4
 2761 00c9 CD000000 		.4byte	0xcd
 2762 00cd 05       		.uleb128 0x5
 2763 00ce 83000000 		.4byte	0x83
 2764 00d2 04       		.uleb128 0x4
 2765 00d3 E82F0000 		.4byte	.LASF18
 2766 00d7 02       		.byte	0x2
 2767 00d8 F401     		.2byte	0x1f4
 2768 00da DE000000 		.4byte	0xde
 2769 00de 06       		.uleb128 0x6
 2770 00df 04       		.byte	0x4
 2771 00e0 E4000000 		.4byte	0xe4
 2772 00e4 07       		.uleb128 0x7
 2773 00e5 08       		.uleb128 0x8
 2774 00e6 9A000000 		.4byte	.LASF19
 2775 00ea 03       		.byte	0x3
 2776 00eb D4       		.byte	0xd4
 2777 00ec 64000000 		.4byte	0x64
 2778 00f0 02       		.uleb128 0x2
 2779 00f1 04       		.byte	0x4
 2780 00f2 07       		.byte	0x7
 2781 00f3 A1000000 		.4byte	.LASF20
 2782 00f7 09       		.uleb128 0x9
 2783 00f8 04       		.byte	0x4
 2784 00f9 06       		.uleb128 0x6
 2785 00fa 04       		.byte	0x4
 2786 00fb FF000000 		.4byte	0xff
 2787 00ff 0A       		.uleb128 0xa
 2788 0100 B5000000 		.4byte	0xb5
 2789 0104 0B       		.uleb128 0xb
 2790 0105 01       		.byte	0x1
 2791 0106 04       		.byte	0x4
 2792 0107 A4       		.byte	0xa4
 2793 0108 89020000 		.4byte	0x289
 2794 010c 0C       		.uleb128 0xc
 2795 010d 24140000 		.4byte	.LASF21
 2796 0111 00       		.sleb128 0
 2797 0112 0C       		.uleb128 0xc
 2798 0113 0F0D0000 		.4byte	.LASF22
 2799 0117 01       		.sleb128 1
 2800 0118 0C       		.uleb128 0xc
 2801 0119 65310000 		.4byte	.LASF23
 2802 011d 02       		.sleb128 2
 2803 011e 0C       		.uleb128 0xc
 2804 011f 1F100000 		.4byte	.LASF24
 2805 0123 03       		.sleb128 3
 2806 0124 0C       		.uleb128 0xc
 2807 0125 97430000 		.4byte	.LASF25
 2808 0129 04       		.sleb128 4
 2809 012a 0C       		.uleb128 0xc
 2810 012b BF400000 		.4byte	.LASF26
 2811 012f 05       		.sleb128 5
ARM GAS  C:\Users\Petro\AppData\Local\Temp\ccvLNIXl.s 			page 74


 2812 0130 0C       		.uleb128 0xc
 2813 0131 E43B0000 		.4byte	.LASF27
 2814 0135 20       		.sleb128 32
 2815 0136 0C       		.uleb128 0xc
 2816 0137 09090000 		.4byte	.LASF28
 2817 013b 21       		.sleb128 33
 2818 013c 0C       		.uleb128 0xc
 2819 013d 33220000 		.4byte	.LASF29
 2820 0141 22       		.sleb128 34
 2821 0142 0C       		.uleb128 0xc
 2822 0143 802B0000 		.4byte	.LASF30
 2823 0147 23       		.sleb128 35
 2824 0148 0C       		.uleb128 0xc
 2825 0149 0C1C0000 		.4byte	.LASF31
 2826 014d 24       		.sleb128 36
 2827 014e 0C       		.uleb128 0xc
 2828 014f 6F1C0000 		.4byte	.LASF32
 2829 0153 25       		.sleb128 37
 2830 0154 0C       		.uleb128 0xc
 2831 0155 27380000 		.4byte	.LASF33
 2832 0159 26       		.sleb128 38
 2833 015a 0C       		.uleb128 0xc
 2834 015b E5020000 		.4byte	.LASF34
 2835 015f 27       		.sleb128 39
 2836 0160 0C       		.uleb128 0xc
 2837 0161 B9440000 		.4byte	.LASF35
 2838 0165 28       		.sleb128 40
 2839 0166 0C       		.uleb128 0xc
 2840 0167 CC2E0000 		.4byte	.LASF36
 2841 016b 29       		.sleb128 41
 2842 016c 0C       		.uleb128 0xc
 2843 016d 24210000 		.4byte	.LASF37
 2844 0171 2A       		.sleb128 42
 2845 0172 0C       		.uleb128 0xc
 2846 0173 5B2A0000 		.4byte	.LASF38
 2847 0177 2B       		.sleb128 43
 2848 0178 0C       		.uleb128 0xc
 2849 0179 25410000 		.4byte	.LASF39
 2850 017d 2C       		.sleb128 44
 2851 017e 0C       		.uleb128 0xc
 2852 017f 783A0000 		.4byte	.LASF40
 2853 0183 C000     		.sleb128 64
 2854 0185 0C       		.uleb128 0xc
 2855 0186 27030000 		.4byte	.LASF41
 2856 018a C100     		.sleb128 65
 2857 018c 0C       		.uleb128 0xc
 2858 018d AC430000 		.4byte	.LASF42
 2859 0191 C200     		.sleb128 66
 2860 0193 0C       		.uleb128 0xc
 2861 0194 612F0000 		.4byte	.LASF43
 2862 0198 C300     		.sleb128 67
 2863 019a 0C       		.uleb128 0xc
 2864 019b EE100000 		.4byte	.LASF44
 2865 019f C400     		.sleb128 68
 2866 01a1 0C       		.uleb128 0xc
 2867 01a2 82100000 		.4byte	.LASF45
 2868 01a6 C500     		.sleb128 69
ARM GAS  C:\Users\Petro\AppData\Local\Temp\ccvLNIXl.s 			page 75


 2869 01a8 0C       		.uleb128 0xc
 2870 01a9 FF350000 		.4byte	.LASF46
 2871 01ad C600     		.sleb128 70
 2872 01af 0C       		.uleb128 0xc
 2873 01b0 E1350000 		.4byte	.LASF47
 2874 01b4 C700     		.sleb128 71
 2875 01b6 0C       		.uleb128 0xc
 2876 01b7 24130000 		.4byte	.LASF48
 2877 01bb C800     		.sleb128 72
 2878 01bd 0C       		.uleb128 0xc
 2879 01be 0C2C0000 		.4byte	.LASF49
 2880 01c2 C900     		.sleb128 73
 2881 01c4 0C       		.uleb128 0xc
 2882 01c5 CD140000 		.4byte	.LASF50
 2883 01c9 CA00     		.sleb128 74
 2884 01cb 0C       		.uleb128 0xc
 2885 01cc D8130000 		.4byte	.LASF51
 2886 01d0 CB00     		.sleb128 75
 2887 01d2 0C       		.uleb128 0xc
 2888 01d3 E62A0000 		.4byte	.LASF52
 2889 01d7 CC00     		.sleb128 76
 2890 01d9 0C       		.uleb128 0xc
 2891 01da 90370000 		.4byte	.LASF53
 2892 01de CD00     		.sleb128 77
 2893 01e0 0C       		.uleb128 0xc
 2894 01e1 9C0B0000 		.4byte	.LASF54
 2895 01e5 CE00     		.sleb128 78
 2896 01e7 0C       		.uleb128 0xc
 2897 01e8 EA270000 		.4byte	.LASF55
 2898 01ec CF00     		.sleb128 79
 2899 01ee 0C       		.uleb128 0xc
 2900 01ef C53B0000 		.4byte	.LASF56
 2901 01f3 D000     		.sleb128 80
 2902 01f5 0C       		.uleb128 0xc
 2903 01f6 31150000 		.4byte	.LASF57
 2904 01fa D100     		.sleb128 81
 2905 01fc 0C       		.uleb128 0xc
 2906 01fd E8080000 		.4byte	.LASF58
 2907 0201 D200     		.sleb128 82
 2908 0203 0C       		.uleb128 0xc
 2909 0204 1C400000 		.4byte	.LASF59
 2910 0208 D300     		.sleb128 83
 2911 020a 0C       		.uleb128 0xc
 2912 020b FB440000 		.4byte	.LASF60
 2913 020f D400     		.sleb128 84
 2914 0211 0C       		.uleb128 0xc
 2915 0212 0F2B0000 		.4byte	.LASF61
 2916 0216 D500     		.sleb128 85
 2917 0218 0C       		.uleb128 0xc
 2918 0219 1A160000 		.4byte	.LASF62
 2919 021d D600     		.sleb128 86
 2920 021f 0C       		.uleb128 0xc
 2921 0220 FA260000 		.4byte	.LASF63
 2922 0224 D700     		.sleb128 87
 2923 0226 0C       		.uleb128 0xc
 2924 0227 A2410000 		.4byte	.LASF64
 2925 022b F000     		.sleb128 112
ARM GAS  C:\Users\Petro\AppData\Local\Temp\ccvLNIXl.s 			page 76


 2926 022d 0C       		.uleb128 0xc
 2927 022e 6E1A0000 		.4byte	.LASF65
 2928 0232 F100     		.sleb128 113
 2929 0234 0C       		.uleb128 0xc
 2930 0235 E10E0000 		.4byte	.LASF66
 2931 0239 F200     		.sleb128 114
 2932 023b 0C       		.uleb128 0xc
 2933 023c A73B0000 		.4byte	.LASF67
 2934 0240 F300     		.sleb128 115
 2935 0242 0C       		.uleb128 0xc
 2936 0243 792C0000 		.4byte	.LASF68
 2937 0247 F400     		.sleb128 116
 2938 0249 0C       		.uleb128 0xc
 2939 024a BA210000 		.4byte	.LASF69
 2940 024e F500     		.sleb128 117
 2941 0250 0C       		.uleb128 0xc
 2942 0251 03130000 		.4byte	.LASF70
 2943 0255 F600     		.sleb128 118
 2944 0257 0C       		.uleb128 0xc
 2945 0258 22320000 		.4byte	.LASF71
 2946 025c F700     		.sleb128 119
 2947 025e 0C       		.uleb128 0xc
 2948 025f 0F070000 		.4byte	.LASF72
 2949 0263 F800     		.sleb128 120
 2950 0265 0C       		.uleb128 0xc
 2951 0266 04120000 		.4byte	.LASF73
 2952 026a F900     		.sleb128 121
 2953 026c 0C       		.uleb128 0xc
 2954 026d 10440000 		.4byte	.LASF74
 2955 0271 FA00     		.sleb128 122
 2956 0273 0C       		.uleb128 0xc
 2957 0274 8A240000 		.4byte	.LASF75
 2958 0278 FA01     		.sleb128 250
 2959 027a 0C       		.uleb128 0xc
 2960 027b C23E0000 		.4byte	.LASF76
 2961 027f FB01     		.sleb128 251
 2962 0281 0C       		.uleb128 0xc
 2963 0282 4D2A0000 		.4byte	.LASF77
 2964 0286 FF01     		.sleb128 255
 2965 0288 00       		.byte	0
 2966 0289 0D       		.uleb128 0xd
 2967 028a 02       		.byte	0x2
 2968 028b 04       		.byte	0x4
 2969 028c 0C02     		.2byte	0x20c
 2970 028e 40030000 		.4byte	0x340
 2971 0292 0C       		.uleb128 0xc
 2972 0293 38100000 		.4byte	.LASF78
 2973 0297 00       		.sleb128 0
 2974 0298 0C       		.uleb128 0xc
 2975 0299 13170000 		.4byte	.LASF79
 2976 029d 01       		.sleb128 1
 2977 029e 0C       		.uleb128 0xc
 2978 029f 63430000 		.4byte	.LASF80
 2979 02a3 02       		.sleb128 2
 2980 02a4 0C       		.uleb128 0xc
 2981 02a5 9E180000 		.4byte	.LASF81
 2982 02a9 03       		.sleb128 3
ARM GAS  C:\Users\Petro\AppData\Local\Temp\ccvLNIXl.s 			page 77


 2983 02aa 0C       		.uleb128 0xc
 2984 02ab 6A1D0000 		.4byte	.LASF82
 2985 02af 04       		.sleb128 4
 2986 02b0 0C       		.uleb128 0xc
 2987 02b1 E9230000 		.4byte	.LASF83
 2988 02b5 05       		.sleb128 5
 2989 02b6 0C       		.uleb128 0xc
 2990 02b7 443E0000 		.4byte	.LASF84
 2991 02bb 06       		.sleb128 6
 2992 02bc 0C       		.uleb128 0xc
 2993 02bd B0140000 		.4byte	.LASF85
 2994 02c1 07       		.sleb128 7
 2995 02c2 0C       		.uleb128 0xc
 2996 02c3 C8250000 		.4byte	.LASF86
 2997 02c7 08       		.sleb128 8
 2998 02c8 0C       		.uleb128 0xc
 2999 02c9 AC3C0000 		.4byte	.LASF87
 3000 02cd 09       		.sleb128 9
 3001 02ce 0C       		.uleb128 0xc
 3002 02cf A5450000 		.4byte	.LASF88
 3003 02d3 0A       		.sleb128 10
 3004 02d4 0C       		.uleb128 0xc
 3005 02d5 84090000 		.4byte	.LASF89
 3006 02d9 0B       		.sleb128 11
 3007 02da 0C       		.uleb128 0xc
 3008 02db A0400000 		.4byte	.LASF90
 3009 02df 0C       		.sleb128 12
 3010 02e0 0C       		.uleb128 0xc
 3011 02e1 72290000 		.4byte	.LASF91
 3012 02e5 0D       		.sleb128 13
 3013 02e6 0C       		.uleb128 0xc
 3014 02e7 611F0000 		.4byte	.LASF92
 3015 02eb 0E       		.sleb128 14
 3016 02ec 0C       		.uleb128 0xc
 3017 02ed C4230000 		.4byte	.LASF93
 3018 02f1 0F       		.sleb128 15
 3019 02f2 0C       		.uleb128 0xc
 3020 02f3 41060000 		.4byte	.LASF94
 3021 02f7 10       		.sleb128 16
 3022 02f8 0C       		.uleb128 0xc
 3023 02f9 A4250000 		.4byte	.LASF95
 3024 02fd 11       		.sleb128 17
 3025 02fe 0C       		.uleb128 0xc
 3026 02ff 220D0000 		.4byte	.LASF96
 3027 0303 12       		.sleb128 18
 3028 0304 0C       		.uleb128 0xc
 3029 0305 530F0000 		.4byte	.LASF97
 3030 0309 13       		.sleb128 19
 3031 030a 0C       		.uleb128 0xc
 3032 030b 45240000 		.4byte	.LASF98
 3033 030f 27       		.sleb128 39
 3034 0310 0C       		.uleb128 0xc
 3035 0311 A0260000 		.4byte	.LASF99
 3036 0315 28       		.sleb128 40
 3037 0316 0C       		.uleb128 0xc
 3038 0317 A4060000 		.4byte	.LASF100
 3039 031b 29       		.sleb128 41
ARM GAS  C:\Users\Petro\AppData\Local\Temp\ccvLNIXl.s 			page 78


 3040 031c 0C       		.uleb128 0xc
 3041 031d 3B1A0000 		.4byte	.LASF101
 3042 0321 FF01     		.sleb128 255
 3043 0323 0C       		.uleb128 0xc
 3044 0324 BF2B0000 		.4byte	.LASF102
 3045 0328 8002     		.sleb128 256
 3046 032a 0C       		.uleb128 0xc
 3047 032b A62B0000 		.4byte	.LASF103
 3048 032f 8102     		.sleb128 257
 3049 0331 0C       		.uleb128 0xc
 3050 0332 0D0E0000 		.4byte	.LASF104
 3051 0336 8202     		.sleb128 258
 3052 0338 0C       		.uleb128 0xc
 3053 0339 EC310000 		.4byte	.LASF105
 3054 033d 8302     		.sleb128 259
 3055 033f 00       		.byte	0
 3056 0340 04       		.uleb128 0x4
 3057 0341 E13E0000 		.4byte	.LASF106
 3058 0345 04       		.byte	0x4
 3059 0346 6902     		.2byte	0x269
 3060 0348 89020000 		.4byte	0x289
 3061 034c 0D       		.uleb128 0xd
 3062 034d 01       		.byte	0x1
 3063 034e 04       		.byte	0x4
 3064 034f 6D02     		.2byte	0x26d
 3065 0351 75030000 		.4byte	0x375
 3066 0355 0C       		.uleb128 0xc
 3067 0356 AB300000 		.4byte	.LASF107
 3068 035a 01       		.sleb128 1
 3069 035b 0C       		.uleb128 0xc
 3070 035c F2110000 		.4byte	.LASF108
 3071 0360 02       		.sleb128 2
 3072 0361 0C       		.uleb128 0xc
 3073 0362 01230000 		.4byte	.LASF109
 3074 0366 03       		.sleb128 3
 3075 0367 0C       		.uleb128 0xc
 3076 0368 893E0000 		.4byte	.LASF110
 3077 036c 04       		.sleb128 4
 3078 036d 0C       		.uleb128 0xc
 3079 036e 561B0000 		.4byte	.LASF111
 3080 0372 FF01     		.sleb128 255
 3081 0374 00       		.byte	0
 3082 0375 04       		.uleb128 0x4
 3083 0376 70130000 		.4byte	.LASF112
 3084 037a 04       		.byte	0x4
 3085 037b 8902     		.2byte	0x289
 3086 037d 4C030000 		.4byte	0x34c
 3087 0381 0D       		.uleb128 0xd
 3088 0382 01       		.byte	0x1
 3089 0383 04       		.byte	0x4
 3090 0384 8D02     		.2byte	0x28d
 3091 0386 BC030000 		.4byte	0x3bc
 3092 038a 0C       		.uleb128 0xc
 3093 038b BA120000 		.4byte	.LASF113
 3094 038f 01       		.sleb128 1
 3095 0390 0C       		.uleb128 0xc
 3096 0391 650E0000 		.4byte	.LASF114
ARM GAS  C:\Users\Petro\AppData\Local\Temp\ccvLNIXl.s 			page 79


 3097 0395 02       		.sleb128 2
 3098 0396 0C       		.uleb128 0xc
 3099 0397 4A0D0000 		.4byte	.LASF115
 3100 039b 03       		.sleb128 3
 3101 039c 0C       		.uleb128 0xc
 3102 039d A9030000 		.4byte	.LASF116
 3103 03a1 04       		.sleb128 4
 3104 03a2 0C       		.uleb128 0xc
 3105 03a3 103E0000 		.4byte	.LASF117
 3106 03a7 05       		.sleb128 5
 3107 03a8 0C       		.uleb128 0xc
 3108 03a9 30460000 		.4byte	.LASF118
 3109 03ad 06       		.sleb128 6
 3110 03ae 0C       		.uleb128 0xc
 3111 03af DE030000 		.4byte	.LASF119
 3112 03b3 07       		.sleb128 7
 3113 03b4 0C       		.uleb128 0xc
 3114 03b5 713F0000 		.4byte	.LASF120
 3115 03b9 FF01     		.sleb128 255
 3116 03bb 00       		.byte	0
 3117 03bc 04       		.uleb128 0x4
 3118 03bd A61C0000 		.4byte	.LASF121
 3119 03c1 04       		.byte	0x4
 3120 03c2 9602     		.2byte	0x296
 3121 03c4 81030000 		.4byte	0x381
 3122 03c8 0E       		.uleb128 0xe
 3123 03c9 07       		.byte	0x7
 3124 03ca 04       		.byte	0x4
 3125 03cb 0503     		.2byte	0x305
 3126 03cd EC030000 		.4byte	0x3ec
 3127 03d1 0F       		.uleb128 0xf
 3128 03d2 723D0000 		.4byte	.LASF122
 3129 03d6 04       		.byte	0x4
 3130 03d7 0803     		.2byte	0x308
 3131 03d9 EC030000 		.4byte	0x3ec
 3132 03dd 00       		.byte	0
 3133 03de 0F       		.uleb128 0xf
 3134 03df AA070000 		.4byte	.LASF123
 3135 03e3 04       		.byte	0x4
 3136 03e4 0A03     		.2byte	0x30a
 3137 03e6 6B000000 		.4byte	0x6b
 3138 03ea 06       		.byte	0x6
 3139 03eb 00       		.byte	0
 3140 03ec 10       		.uleb128 0x10
 3141 03ed 6B000000 		.4byte	0x6b
 3142 03f1 FC030000 		.4byte	0x3fc
 3143 03f5 11       		.uleb128 0x11
 3144 03f6 F0000000 		.4byte	0xf0
 3145 03fa 05       		.byte	0x5
 3146 03fb 00       		.byte	0
 3147 03fc 04       		.uleb128 0x4
 3148 03fd 06340000 		.4byte	.LASF124
 3149 0401 04       		.byte	0x4
 3150 0402 0B03     		.2byte	0x30b
 3151 0404 C8030000 		.4byte	0x3c8
 3152 0408 0B       		.uleb128 0xb
 3153 0409 01       		.byte	0x1
ARM GAS  C:\Users\Petro\AppData\Local\Temp\ccvLNIXl.s 			page 80


 3154 040a 05       		.byte	0x5
 3155 040b 4B       		.byte	0x4b
 3156 040c 29040000 		.4byte	0x429
 3157 0410 0C       		.uleb128 0xc
 3158 0411 33340000 		.4byte	.LASF125
 3159 0415 01       		.sleb128 1
 3160 0416 0C       		.uleb128 0xc
 3161 0417 74330000 		.4byte	.LASF126
 3162 041b 02       		.sleb128 2
 3163 041c 0C       		.uleb128 0xc
 3164 041d D8430000 		.4byte	.LASF127
 3165 0421 03       		.sleb128 3
 3166 0422 0C       		.uleb128 0xc
 3167 0423 8D350000 		.4byte	.LASF128
 3168 0427 04       		.sleb128 4
 3169 0428 00       		.byte	0
 3170 0429 08       		.uleb128 0x8
 3171 042a AF070000 		.4byte	.LASF129
 3172 042e 05       		.byte	0x5
 3173 042f 58       		.byte	0x58
 3174 0430 08040000 		.4byte	0x408
 3175 0434 0B       		.uleb128 0xb
 3176 0435 01       		.byte	0x1
 3177 0436 06       		.byte	0x6
 3178 0437 A4       		.byte	0xa4
 3179 0438 5B040000 		.4byte	0x45b
 3180 043c 0C       		.uleb128 0xc
 3181 043d DE0B0000 		.4byte	.LASF130
 3182 0441 00       		.sleb128 0
 3183 0442 0C       		.uleb128 0xc
 3184 0443 A6330000 		.4byte	.LASF131
 3185 0447 01       		.sleb128 1
 3186 0448 0C       		.uleb128 0xc
 3187 0449 E0390000 		.4byte	.LASF132
 3188 044d 02       		.sleb128 2
 3189 044e 0C       		.uleb128 0xc
 3190 044f A10A0000 		.4byte	.LASF133
 3191 0453 03       		.sleb128 3
 3192 0454 0C       		.uleb128 0xc
 3193 0455 86000000 		.4byte	.LASF134
 3194 0459 04       		.sleb128 4
 3195 045a 00       		.byte	0
 3196 045b 08       		.uleb128 0x8
 3197 045c 2D3E0000 		.4byte	.LASF135
 3198 0460 06       		.byte	0x6
 3199 0461 B4       		.byte	0xb4
 3200 0462 34040000 		.4byte	0x434
 3201 0466 0B       		.uleb128 0xb
 3202 0467 01       		.byte	0x1
 3203 0468 06       		.byte	0x6
 3204 0469 E8       		.byte	0xe8
 3205 046a BD040000 		.4byte	0x4bd
 3206 046e 0C       		.uleb128 0xc
 3207 046f B22E0000 		.4byte	.LASF136
 3208 0473 00       		.sleb128 0
 3209 0474 0C       		.uleb128 0xc
 3210 0475 430A0000 		.4byte	.LASF137
ARM GAS  C:\Users\Petro\AppData\Local\Temp\ccvLNIXl.s 			page 81


 3211 0479 01       		.sleb128 1
 3212 047a 0C       		.uleb128 0xc
 3213 047b BC2F0000 		.4byte	.LASF138
 3214 047f 02       		.sleb128 2
 3215 0480 0C       		.uleb128 0xc
 3216 0481 B21E0000 		.4byte	.LASF139
 3217 0485 03       		.sleb128 3
 3218 0486 0C       		.uleb128 0xc
 3219 0487 E00D0000 		.4byte	.LASF140
 3220 048b 04       		.sleb128 4
 3221 048c 0C       		.uleb128 0xc
 3222 048d 3F350000 		.4byte	.LASF141
 3223 0491 05       		.sleb128 5
 3224 0492 0C       		.uleb128 0xc
 3225 0493 A1220000 		.4byte	.LASF142
 3226 0497 06       		.sleb128 6
 3227 0498 0C       		.uleb128 0xc
 3228 0499 871E0000 		.4byte	.LASF143
 3229 049d 07       		.sleb128 7
 3230 049e 0C       		.uleb128 0xc
 3231 049f 37080000 		.4byte	.LASF144
 3232 04a3 08       		.sleb128 8
 3233 04a4 0C       		.uleb128 0xc
 3234 04a5 93210000 		.4byte	.LASF145
 3235 04a9 09       		.sleb128 9
 3236 04aa 0C       		.uleb128 0xc
 3237 04ab 8C120000 		.4byte	.LASF146
 3238 04af 0A       		.sleb128 10
 3239 04b0 0C       		.uleb128 0xc
 3240 04b1 E9070000 		.4byte	.LASF147
 3241 04b5 15       		.sleb128 21
 3242 04b6 0C       		.uleb128 0xc
 3243 04b7 941A0000 		.4byte	.LASF148
 3244 04bb 18       		.sleb128 24
 3245 04bc 00       		.byte	0
 3246 04bd 04       		.uleb128 0x4
 3247 04be C72A0000 		.4byte	.LASF149
 3248 04c2 06       		.byte	0x6
 3249 04c3 1401     		.2byte	0x114
 3250 04c5 66040000 		.4byte	0x466
 3251 04c9 0E       		.uleb128 0xe
 3252 04ca 04       		.byte	0x4
 3253 04cb 06       		.byte	0x6
 3254 04cc 2D01     		.2byte	0x12d
 3255 04ce 07050000 		.4byte	0x507
 3256 04d2 0F       		.uleb128 0xf
 3257 04d3 3C390000 		.4byte	.LASF150
 3258 04d7 06       		.byte	0x6
 3259 04d8 3601     		.2byte	0x136
 3260 04da 6B000000 		.4byte	0x6b
 3261 04de 00       		.byte	0
 3262 04df 0F       		.uleb128 0xf
 3263 04e0 C5270000 		.4byte	.LASF151
 3264 04e4 06       		.byte	0x6
 3265 04e5 3C01     		.2byte	0x13c
 3266 04e7 6B000000 		.4byte	0x6b
 3267 04eb 01       		.byte	0x1
ARM GAS  C:\Users\Petro\AppData\Local\Temp\ccvLNIXl.s 			page 82


 3268 04ec 0F       		.uleb128 0xf
 3269 04ed 1A010000 		.4byte	.LASF152
 3270 04f1 06       		.byte	0x6
 3271 04f2 4201     		.2byte	0x142
 3272 04f4 6B000000 		.4byte	0x6b
 3273 04f8 02       		.byte	0x2
 3274 04f9 0F       		.uleb128 0xf
 3275 04fa 91390000 		.4byte	.LASF153
 3276 04fe 06       		.byte	0x6
 3277 04ff 4601     		.2byte	0x146
 3278 0501 BD040000 		.4byte	0x4bd
 3279 0505 03       		.byte	0x3
 3280 0506 00       		.byte	0
 3281 0507 04       		.uleb128 0x4
 3282 0508 F7130000 		.4byte	.LASF154
 3283 050c 06       		.byte	0x6
 3284 050d 4801     		.2byte	0x148
 3285 050f C9040000 		.4byte	0x4c9
 3286 0513 0E       		.uleb128 0xe
 3287 0514 14       		.byte	0x14
 3288 0515 06       		.byte	0x6
 3289 0516 6802     		.2byte	0x268
 3290 0518 6B050000 		.4byte	0x56b
 3291 051c 0F       		.uleb128 0xf
 3292 051d 12400000 		.4byte	.LASF155
 3293 0521 06       		.byte	0x6
 3294 0522 7102     		.2byte	0x271
 3295 0524 5B040000 		.4byte	0x45b
 3296 0528 00       		.byte	0
 3297 0529 0F       		.uleb128 0xf
 3298 052a 27120000 		.4byte	.LASF156
 3299 052e 06       		.byte	0x6
 3300 052f 7702     		.2byte	0x277
 3301 0531 6B000000 		.4byte	0x6b
 3302 0535 01       		.byte	0x1
 3303 0536 0F       		.uleb128 0xf
 3304 0537 4D100000 		.4byte	.LASF157
 3305 053b 06       		.byte	0x6
 3306 053c 7B02     		.2byte	0x27b
 3307 053e 6B050000 		.4byte	0x56b
 3308 0542 04       		.byte	0x4
 3309 0543 0F       		.uleb128 0xf
 3310 0544 AC0C0000 		.4byte	.LASF158
 3311 0548 06       		.byte	0x6
 3312 0549 7E02     		.2byte	0x27e
 3313 054b 6B000000 		.4byte	0x6b
 3314 054f 08       		.byte	0x8
 3315 0550 0F       		.uleb128 0xf
 3316 0551 99440000 		.4byte	.LASF159
 3317 0555 06       		.byte	0x6
 3318 0556 8102     		.2byte	0x281
 3319 0558 6B050000 		.4byte	0x56b
 3320 055c 0C       		.byte	0xc
 3321 055d 0F       		.uleb128 0xf
 3322 055e 56440000 		.4byte	.LASF160
 3323 0562 06       		.byte	0x6
 3324 0563 8602     		.2byte	0x286
ARM GAS  C:\Users\Petro\AppData\Local\Temp\ccvLNIXl.s 			page 83


 3325 0565 8F000000 		.4byte	0x8f
 3326 0569 10       		.byte	0x10
 3327 056a 00       		.byte	0
 3328 056b 06       		.uleb128 0x6
 3329 056c 04       		.byte	0x4
 3330 056d 6B000000 		.4byte	0x6b
 3331 0571 04       		.uleb128 0x4
 3332 0572 50450000 		.4byte	.LASF161
 3333 0576 06       		.byte	0x6
 3334 0577 8802     		.2byte	0x288
 3335 0579 13050000 		.4byte	0x513
 3336 057d 0E       		.uleb128 0xe
 3337 057e 08       		.byte	0x8
 3338 057f 06       		.byte	0x6
 3339 0580 B402     		.2byte	0x2b4
 3340 0582 BB050000 		.4byte	0x5bb
 3341 0586 0F       		.uleb128 0xf
 3342 0587 401E0000 		.4byte	.LASF162
 3343 058b 06       		.byte	0x6
 3344 058c B802     		.2byte	0x2b8
 3345 058e 6B000000 		.4byte	0x6b
 3346 0592 00       		.byte	0
 3347 0593 0F       		.uleb128 0xf
 3348 0594 4C420000 		.4byte	.LASF163
 3349 0598 06       		.byte	0x6
 3350 0599 BE02     		.2byte	0x2be
 3351 059b 77000000 		.4byte	0x77
 3352 059f 02       		.byte	0x2
 3353 05a0 0F       		.uleb128 0xf
 3354 05a1 EA400000 		.4byte	.LASF164
 3355 05a5 06       		.byte	0x6
 3356 05a6 C302     		.2byte	0x2c3
 3357 05a8 77000000 		.4byte	0x77
 3358 05ac 04       		.byte	0x4
 3359 05ad 0F       		.uleb128 0xf
 3360 05ae CA430000 		.4byte	.LASF165
 3361 05b2 06       		.byte	0x6
 3362 05b3 C902     		.2byte	0x2c9
 3363 05b5 77000000 		.4byte	0x77
 3364 05b9 06       		.byte	0x6
 3365 05ba 00       		.byte	0
 3366 05bb 04       		.uleb128 0x4
 3367 05bc BE300000 		.4byte	.LASF166
 3368 05c0 06       		.byte	0x6
 3369 05c1 CB02     		.2byte	0x2cb
 3370 05c3 7D050000 		.4byte	0x57d
 3371 05c7 0B       		.uleb128 0xb
 3372 05c8 01       		.byte	0x1
 3373 05c9 07       		.byte	0x7
 3374 05ca 4E       		.byte	0x4e
 3375 05cb 81060000 		.4byte	0x681
 3376 05cf 0C       		.uleb128 0xc
 3377 05d0 FE160000 		.4byte	.LASF167
 3378 05d4 01       		.sleb128 1
 3379 05d5 0C       		.uleb128 0xc
 3380 05d6 97140000 		.4byte	.LASF168
 3381 05da 02       		.sleb128 2
ARM GAS  C:\Users\Petro\AppData\Local\Temp\ccvLNIXl.s 			page 84


 3382 05db 0C       		.uleb128 0xc
 3383 05dc 300B0000 		.4byte	.LASF169
 3384 05e0 03       		.sleb128 3
 3385 05e1 0C       		.uleb128 0xc
 3386 05e2 06100000 		.4byte	.LASF170
 3387 05e6 04       		.sleb128 4
 3388 05e7 0C       		.uleb128 0xc
 3389 05e8 A32F0000 		.4byte	.LASF171
 3390 05ec 05       		.sleb128 5
 3391 05ed 0C       		.uleb128 0xc
 3392 05ee AD2D0000 		.4byte	.LASF172
 3393 05f2 06       		.sleb128 6
 3394 05f3 0C       		.uleb128 0xc
 3395 05f4 ED0C0000 		.4byte	.LASF173
 3396 05f8 07       		.sleb128 7
 3397 05f9 0C       		.uleb128 0xc
 3398 05fa 5D2C0000 		.4byte	.LASF174
 3399 05fe 08       		.sleb128 8
 3400 05ff 0C       		.uleb128 0xc
 3401 0600 7B080000 		.4byte	.LASF175
 3402 0604 09       		.sleb128 9
 3403 0605 0C       		.uleb128 0xc
 3404 0606 0E1E0000 		.4byte	.LASF176
 3405 060a 0A       		.sleb128 10
 3406 060b 0C       		.uleb128 0xc
 3407 060c F33D0000 		.4byte	.LASF177
 3408 0610 0B       		.sleb128 11
 3409 0611 0C       		.uleb128 0xc
 3410 0612 1A340000 		.4byte	.LASF178
 3411 0616 0C       		.sleb128 12
 3412 0617 0C       		.uleb128 0xc
 3413 0618 FD0E0000 		.4byte	.LASF179
 3414 061c 0D       		.sleb128 13
 3415 061d 0C       		.uleb128 0xc
 3416 061e D82B0000 		.4byte	.LASF180
 3417 0622 0E       		.sleb128 14
 3418 0623 0C       		.uleb128 0xc
 3419 0624 73070000 		.4byte	.LASF181
 3420 0628 0F       		.sleb128 15
 3421 0629 0C       		.uleb128 0xc
 3422 062a DD420000 		.4byte	.LASF182
 3423 062e 10       		.sleb128 16
 3424 062f 0C       		.uleb128 0xc
 3425 0630 451D0000 		.4byte	.LASF183
 3426 0634 11       		.sleb128 17
 3427 0635 0C       		.uleb128 0xc
 3428 0636 6A390000 		.4byte	.LASF184
 3429 063a 12       		.sleb128 18
 3430 063b 0C       		.uleb128 0xc
 3431 063c C3130000 		.4byte	.LASF185
 3432 0640 13       		.sleb128 19
 3433 0641 0C       		.uleb128 0xc
 3434 0642 7A110000 		.4byte	.LASF186
 3435 0646 D200     		.sleb128 82
 3436 0648 0C       		.uleb128 0xc
 3437 0649 FE050000 		.4byte	.LASF187
 3438 064d 16       		.sleb128 22
ARM GAS  C:\Users\Petro\AppData\Local\Temp\ccvLNIXl.s 			page 85


 3439 064e 0C       		.uleb128 0xc
 3440 064f 97290000 		.4byte	.LASF188
 3441 0653 17       		.sleb128 23
 3442 0654 0C       		.uleb128 0xc
 3443 0655 49410000 		.4byte	.LASF189
 3444 0659 18       		.sleb128 24
 3445 065a 0C       		.uleb128 0xc
 3446 065b 161A0000 		.4byte	.LASF190
 3447 065f 19       		.sleb128 25
 3448 0660 0C       		.uleb128 0xc
 3449 0661 131F0000 		.4byte	.LASF191
 3450 0665 1B       		.sleb128 27
 3451 0666 0C       		.uleb128 0xc
 3452 0667 30110000 		.4byte	.LASF192
 3453 066b 1D       		.sleb128 29
 3454 066c 0C       		.uleb128 0xc
 3455 066d 4E010000 		.4byte	.LASF193
 3456 0671 1E       		.sleb128 30
 3457 0672 0C       		.uleb128 0xc
 3458 0673 68190000 		.4byte	.LASF194
 3459 0677 D201     		.sleb128 210
 3460 0679 0C       		.uleb128 0xc
 3461 067a C1310000 		.4byte	.LASF195
 3462 067e FF01     		.sleb128 255
 3463 0680 00       		.byte	0
 3464 0681 08       		.uleb128 0x8
 3465 0682 770C0000 		.4byte	.LASF196
 3466 0686 07       		.byte	0x7
 3467 0687 A6       		.byte	0xa6
 3468 0688 C7050000 		.4byte	0x5c7
 3469 068c 0B       		.uleb128 0xb
 3470 068d 01       		.byte	0x1
 3471 068e 07       		.byte	0x7
 3472 068f AA       		.byte	0xaa
 3473 0690 7F070000 		.4byte	0x77f
 3474 0694 0C       		.uleb128 0xc
 3475 0695 41320000 		.4byte	.LASF197
 3476 0699 00       		.sleb128 0
 3477 069a 0C       		.uleb128 0xc
 3478 069b 47310000 		.4byte	.LASF198
 3479 069f 01       		.sleb128 1
 3480 06a0 0C       		.uleb128 0xc
 3481 06a1 B7050000 		.4byte	.LASF199
 3482 06a5 02       		.sleb128 2
 3483 06a6 0C       		.uleb128 0xc
 3484 06a7 1D420000 		.4byte	.LASF200
 3485 06ab 03       		.sleb128 3
 3486 06ac 0C       		.uleb128 0xc
 3487 06ad C50D0000 		.4byte	.LASF201
 3488 06b1 04       		.sleb128 4
 3489 06b2 0C       		.uleb128 0xc
 3490 06b3 09280000 		.4byte	.LASF202
 3491 06b7 05       		.sleb128 5
 3492 06b8 0C       		.uleb128 0xc
 3493 06b9 533A0000 		.4byte	.LASF203
 3494 06bd 06       		.sleb128 6
 3495 06be 0C       		.uleb128 0xc
ARM GAS  C:\Users\Petro\AppData\Local\Temp\ccvLNIXl.s 			page 86


 3496 06bf 3F2C0000 		.4byte	.LASF204
 3497 06c3 07       		.sleb128 7
 3498 06c4 0C       		.uleb128 0xc
 3499 06c5 50270000 		.4byte	.LASF205
 3500 06c9 08       		.sleb128 8
 3501 06ca 0C       		.uleb128 0xc
 3502 06cb 9C230000 		.4byte	.LASF206
 3503 06cf 09       		.sleb128 9
 3504 06d0 0C       		.uleb128 0xc
 3505 06d1 D9290000 		.4byte	.LASF207
 3506 06d5 0A       		.sleb128 10
 3507 06d6 0C       		.uleb128 0xc
 3508 06d7 AA150000 		.4byte	.LASF208
 3509 06db 0B       		.sleb128 11
 3510 06dc 0C       		.uleb128 0xc
 3511 06dd A8240000 		.4byte	.LASF209
 3512 06e1 0C       		.sleb128 12
 3513 06e2 0C       		.uleb128 0xc
 3514 06e3 160F0000 		.4byte	.LASF210
 3515 06e7 0D       		.sleb128 13
 3516 06e8 0C       		.uleb128 0xc
 3517 06e9 56140000 		.4byte	.LASF211
 3518 06ed 0E       		.sleb128 14
 3519 06ee 0C       		.uleb128 0xc
 3520 06ef 68420000 		.4byte	.LASF212
 3521 06f3 0F       		.sleb128 15
 3522 06f4 0C       		.uleb128 0xc
 3523 06f5 1B060000 		.4byte	.LASF213
 3524 06f9 10       		.sleb128 16
 3525 06fa 0C       		.uleb128 0xc
 3526 06fb D9050000 		.4byte	.LASF214
 3527 06ff 11       		.sleb128 17
 3528 0700 0C       		.uleb128 0xc
 3529 0701 50150000 		.4byte	.LASF215
 3530 0705 8001     		.sleb128 128
 3531 0707 0C       		.uleb128 0xc
 3532 0708 9E1B0000 		.4byte	.LASF216
 3533 070c 8001     		.sleb128 128
 3534 070e 0C       		.uleb128 0xc
 3535 070f FF390000 		.4byte	.LASF217
 3536 0713 8001     		.sleb128 128
 3537 0715 0C       		.uleb128 0xc
 3538 0716 86330000 		.4byte	.LASF218
 3539 071a 8001     		.sleb128 128
 3540 071c 0C       		.uleb128 0xc
 3541 071d 07290000 		.4byte	.LASF219
 3542 0721 8001     		.sleb128 128
 3543 0723 0C       		.uleb128 0xc
 3544 0724 B31D0000 		.4byte	.LASF220
 3545 0728 8001     		.sleb128 128
 3546 072a 0C       		.uleb128 0xc
 3547 072b 3B140000 		.4byte	.LASF221
 3548 072f 8001     		.sleb128 128
 3549 0731 0C       		.uleb128 0xc
 3550 0732 C8190000 		.4byte	.LASF222
 3551 0736 8101     		.sleb128 129
 3552 0738 0C       		.uleb128 0xc
ARM GAS  C:\Users\Petro\AppData\Local\Temp\ccvLNIXl.s 			page 87


 3553 0739 8D360000 		.4byte	.LASF223
 3554 073d 8101     		.sleb128 129
 3555 073f 0C       		.uleb128 0xc
 3556 0740 6B000000 		.4byte	.LASF224
 3557 0744 8101     		.sleb128 129
 3558 0746 0C       		.uleb128 0xc
 3559 0747 8C3D0000 		.4byte	.LASF225
 3560 074b A001     		.sleb128 160
 3561 074d 0C       		.uleb128 0xc
 3562 074e 2B200000 		.4byte	.LASF226
 3563 0752 A001     		.sleb128 160
 3564 0754 0C       		.uleb128 0xc
 3565 0755 6D0A0000 		.4byte	.LASF227
 3566 0759 A101     		.sleb128 161
 3567 075b 0C       		.uleb128 0xc
 3568 075c 6E3C0000 		.4byte	.LASF228
 3569 0760 A201     		.sleb128 162
 3570 0762 0C       		.uleb128 0xc
 3571 0763 7B160000 		.4byte	.LASF229
 3572 0767 A301     		.sleb128 163
 3573 0769 0C       		.uleb128 0xc
 3574 076a 58100000 		.4byte	.LASF230
 3575 076e FD01     		.sleb128 253
 3576 0770 0C       		.uleb128 0xc
 3577 0771 FD240000 		.4byte	.LASF231
 3578 0775 FE01     		.sleb128 254
 3579 0777 0C       		.uleb128 0xc
 3580 0778 152D0000 		.4byte	.LASF232
 3581 077c FF01     		.sleb128 255
 3582 077e 00       		.byte	0
 3583 077f 04       		.uleb128 0x4
 3584 0780 3B330000 		.4byte	.LASF233
 3585 0784 07       		.byte	0x7
 3586 0785 5901     		.2byte	0x159
 3587 0787 8C060000 		.4byte	0x68c
 3588 078b 04       		.uleb128 0x4
 3589 078c 06320000 		.4byte	.LASF234
 3590 0790 07       		.byte	0x7
 3591 0791 8801     		.2byte	0x188
 3592 0793 77000000 		.4byte	0x77
 3593 0797 0E       		.uleb128 0xe
 3594 0798 02       		.byte	0x2
 3595 0799 07       		.byte	0x7
 3596 079a 9201     		.2byte	0x192
 3597 079c BB070000 		.4byte	0x7bb
 3598 07a0 0F       		.uleb128 0xf
 3599 07a1 150A0000 		.4byte	.LASF235
 3600 07a5 07       		.byte	0x7
 3601 07a6 9901     		.2byte	0x199
 3602 07a8 6B000000 		.4byte	0x6b
 3603 07ac 00       		.byte	0
 3604 07ad 0F       		.uleb128 0xf
 3605 07ae 5D430000 		.4byte	.LASF236
 3606 07b2 07       		.byte	0x7
 3607 07b3 9F01     		.2byte	0x19f
 3608 07b5 6B000000 		.4byte	0x6b
 3609 07b9 01       		.byte	0x1
ARM GAS  C:\Users\Petro\AppData\Local\Temp\ccvLNIXl.s 			page 88


 3610 07ba 00       		.byte	0
 3611 07bb 04       		.uleb128 0x4
 3612 07bc 4D090000 		.4byte	.LASF237
 3613 07c0 07       		.byte	0x7
 3614 07c1 A101     		.2byte	0x1a1
 3615 07c3 97070000 		.4byte	0x797
 3616 07c7 0E       		.uleb128 0xe
 3617 07c8 08       		.byte	0x8
 3618 07c9 07       		.byte	0x7
 3619 07ca BD01     		.2byte	0x1bd
 3620 07cc F8070000 		.4byte	0x7f8
 3621 07d0 12       		.uleb128 0x12
 3622 07d1 76616C00 		.ascii	"val\000"
 3623 07d5 07       		.byte	0x7
 3624 07d6 C001     		.2byte	0x1c0
 3625 07d8 6B050000 		.4byte	0x56b
 3626 07dc 00       		.byte	0
 3627 07dd 12       		.uleb128 0x12
 3628 07de 6C656E00 		.ascii	"len\000"
 3629 07e2 07       		.byte	0x7
 3630 07e3 C301     		.2byte	0x1c3
 3631 07e5 77000000 		.4byte	0x77
 3632 07e9 04       		.byte	0x4
 3633 07ea 0F       		.uleb128 0xf
 3634 07eb C8420000 		.4byte	.LASF238
 3635 07ef 07       		.byte	0x7
 3636 07f0 CA01     		.2byte	0x1ca
 3637 07f2 77000000 		.4byte	0x77
 3638 07f6 06       		.byte	0x6
 3639 07f7 00       		.byte	0
 3640 07f8 04       		.uleb128 0x4
 3641 07f9 32070000 		.4byte	.LASF239
 3642 07fd 07       		.byte	0x7
 3643 07fe CC01     		.2byte	0x1cc
 3644 0800 C7070000 		.4byte	0x7c7
 3645 0804 0E       		.uleb128 0xe
 3646 0805 0C       		.byte	0xc
 3647 0806 07       		.byte	0x7
 3648 0807 CF01     		.2byte	0x1cf
 3649 0809 28080000 		.4byte	0x828
 3650 080d 0F       		.uleb128 0xf
 3651 080e 55320000 		.4byte	.LASF240
 3652 0812 07       		.byte	0x7
 3653 0813 D201     		.2byte	0x1d2
 3654 0815 F8070000 		.4byte	0x7f8
 3655 0819 00       		.byte	0
 3656 081a 0F       		.uleb128 0xf
 3657 081b 7A270000 		.4byte	.LASF241
 3658 081f 07       		.byte	0x7
 3659 0820 D501     		.2byte	0x1d5
 3660 0822 8B070000 		.4byte	0x78b
 3661 0826 08       		.byte	0x8
 3662 0827 00       		.byte	0
 3663 0828 04       		.uleb128 0x4
 3664 0829 830E0000 		.4byte	.LASF242
 3665 082d 07       		.byte	0x7
 3666 082e D701     		.2byte	0x1d7
ARM GAS  C:\Users\Petro\AppData\Local\Temp\ccvLNIXl.s 			page 89


 3667 0830 04080000 		.4byte	0x804
 3668 0834 0E       		.uleb128 0xe
 3669 0835 04       		.byte	0x4
 3670 0836 07       		.byte	0x7
 3671 0837 DA01     		.2byte	0x1da
 3672 0839 58080000 		.4byte	0x858
 3673 083d 0F       		.uleb128 0xf
 3674 083e 921B0000 		.4byte	.LASF243
 3675 0842 07       		.byte	0x7
 3676 0843 DD01     		.2byte	0x1dd
 3677 0845 8B070000 		.4byte	0x78b
 3678 0849 00       		.byte	0
 3679 084a 0F       		.uleb128 0xf
 3680 084b 2A3D0000 		.4byte	.LASF244
 3681 084f 07       		.byte	0x7
 3682 0850 E001     		.2byte	0x1e0
 3683 0852 8B070000 		.4byte	0x78b
 3684 0856 02       		.byte	0x2
 3685 0857 00       		.byte	0
 3686 0858 04       		.uleb128 0x4
 3687 0859 923A0000 		.4byte	.LASF245
 3688 085d 07       		.byte	0x7
 3689 085e E201     		.2byte	0x1e2
 3690 0860 34080000 		.4byte	0x834
 3691 0864 13       		.uleb128 0x13
 3692 0865 08       		.byte	0x8
 3693 0866 08       		.byte	0x8
 3694 0867 2D       		.byte	0x2d
 3695 0868 9D080000 		.4byte	0x89d
 3696 086c 14       		.uleb128 0x14
 3697 086d C4340000 		.4byte	.LASF246
 3698 0871 08       		.byte	0x8
 3699 0872 30       		.byte	0x30
 3700 0873 BB070000 		.4byte	0x7bb
 3701 0877 00       		.byte	0
 3702 0878 14       		.uleb128 0x14
 3703 0879 F6240000 		.4byte	.LASF247
 3704 087d 08       		.byte	0x8
 3705 087e 33       		.byte	0x33
 3706 087f 81060000 		.4byte	0x681
 3707 0883 02       		.byte	0x2
 3708 0884 14       		.uleb128 0x14
 3709 0885 7A270000 		.4byte	.LASF241
 3710 0889 08       		.byte	0x8
 3711 088a 36       		.byte	0x36
 3712 088b 8B070000 		.4byte	0x78b
 3713 088f 04       		.byte	0x4
 3714 0890 14       		.uleb128 0x14
 3715 0891 82120000 		.4byte	.LASF248
 3716 0895 08       		.byte	0x8
 3717 0896 39       		.byte	0x39
 3718 0897 7F070000 		.4byte	0x77f
 3719 089b 06       		.byte	0x6
 3720 089c 00       		.byte	0
 3721 089d 08       		.uleb128 0x8
 3722 089e 1F330000 		.4byte	.LASF249
 3723 08a2 08       		.byte	0x8
ARM GAS  C:\Users\Petro\AppData\Local\Temp\ccvLNIXl.s 			page 90


 3724 08a3 3B       		.byte	0x3b
 3725 08a4 64080000 		.4byte	0x864
 3726 08a8 13       		.uleb128 0x13
 3727 08a9 0C       		.byte	0xc
 3728 08aa 08       		.byte	0x8
 3729 08ab 7D       		.byte	0x7d
 3730 08ac C9080000 		.4byte	0x8c9
 3731 08b0 14       		.uleb128 0x14
 3732 08b1 C4340000 		.4byte	.LASF246
 3733 08b5 08       		.byte	0x8
 3734 08b6 80       		.byte	0x80
 3735 08b7 BB070000 		.4byte	0x7bb
 3736 08bb 00       		.byte	0
 3737 08bc 14       		.uleb128 0x14
 3738 08bd 55320000 		.4byte	.LASF240
 3739 08c1 08       		.byte	0x8
 3740 08c2 83       		.byte	0x83
 3741 08c3 F8070000 		.4byte	0x7f8
 3742 08c7 04       		.byte	0x4
 3743 08c8 00       		.byte	0
 3744 08c9 08       		.uleb128 0x8
 3745 08ca D43A0000 		.4byte	.LASF250
 3746 08ce 08       		.byte	0x8
 3747 08cf 85       		.byte	0x85
 3748 08d0 A8080000 		.4byte	0x8a8
 3749 08d4 13       		.uleb128 0x13
 3750 08d5 10       		.byte	0x10
 3751 08d6 08       		.byte	0x8
 3752 08d7 88       		.byte	0x88
 3753 08d8 F5080000 		.4byte	0x8f5
 3754 08dc 14       		.uleb128 0x14
 3755 08dd C4340000 		.4byte	.LASF246
 3756 08e1 08       		.byte	0x8
 3757 08e2 8B       		.byte	0x8b
 3758 08e3 BB070000 		.4byte	0x7bb
 3759 08e7 00       		.byte	0
 3760 08e8 14       		.uleb128 0x14
 3761 08e9 6E340000 		.4byte	.LASF251
 3762 08ed 08       		.byte	0x8
 3763 08ee 8E       		.byte	0x8e
 3764 08ef 28080000 		.4byte	0x828
 3765 08f3 04       		.byte	0x4
 3766 08f4 00       		.byte	0
 3767 08f5 08       		.uleb128 0x8
 3768 08f6 C3080000 		.4byte	.LASF252
 3769 08fa 08       		.byte	0x8
 3770 08fb 90       		.byte	0x90
 3771 08fc D4080000 		.4byte	0x8d4
 3772 0900 08       		.uleb128 0x8
 3773 0901 AA320000 		.4byte	.LASF253
 3774 0905 08       		.byte	0x8
 3775 0906 93       		.byte	0x93
 3776 0907 F5080000 		.4byte	0x8f5
 3777 090b 13       		.uleb128 0x13
 3778 090c 08       		.byte	0x8
 3779 090d 08       		.byte	0x8
 3780 090e 96       		.byte	0x96
ARM GAS  C:\Users\Petro\AppData\Local\Temp\ccvLNIXl.s 			page 91


 3781 090f 38090000 		.4byte	0x938
 3782 0913 14       		.uleb128 0x14
 3783 0914 3C190000 		.4byte	.LASF254
 3784 0918 08       		.byte	0x8
 3785 0919 99       		.byte	0x99
 3786 091a 6B050000 		.4byte	0x56b
 3787 091e 00       		.byte	0
 3788 091f 14       		.uleb128 0x14
 3789 0920 B4310000 		.4byte	.LASF255
 3790 0924 08       		.byte	0x8
 3791 0925 9C       		.byte	0x9c
 3792 0926 77000000 		.4byte	0x77
 3793 092a 04       		.byte	0x4
 3794 092b 14       		.uleb128 0x14
 3795 092c 8B410000 		.4byte	.LASF256
 3796 0930 08       		.byte	0x8
 3797 0931 9F       		.byte	0x9f
 3798 0932 77000000 		.4byte	0x77
 3799 0936 06       		.byte	0x6
 3800 0937 00       		.byte	0
 3801 0938 08       		.uleb128 0x8
 3802 0939 72020000 		.4byte	.LASF257
 3803 093d 08       		.byte	0x8
 3804 093e A0       		.byte	0xa0
 3805 093f 0B090000 		.4byte	0x90b
 3806 0943 13       		.uleb128 0x13
 3807 0944 0C       		.byte	0xc
 3808 0945 08       		.byte	0x8
 3809 0946 A4       		.byte	0xa4
 3810 0947 64090000 		.4byte	0x964
 3811 094b 14       		.uleb128 0x14
 3812 094c C4340000 		.4byte	.LASF246
 3813 0950 08       		.byte	0x8
 3814 0951 A7       		.byte	0xa7
 3815 0952 BB070000 		.4byte	0x7bb
 3816 0956 00       		.byte	0
 3817 0957 14       		.uleb128 0x14
 3818 0958 F6210000 		.4byte	.LASF258
 3819 095c 08       		.byte	0x8
 3820 095d AA       		.byte	0xaa
 3821 095e 38090000 		.4byte	0x938
 3822 0962 04       		.byte	0x4
 3823 0963 00       		.byte	0
 3824 0964 08       		.uleb128 0x8
 3825 0965 211D0000 		.4byte	.LASF259
 3826 0969 08       		.byte	0x8
 3827 096a AC       		.byte	0xac
 3828 096b 43090000 		.4byte	0x943
 3829 096f 08       		.uleb128 0x8
 3830 0970 AA370000 		.4byte	.LASF260
 3831 0974 08       		.byte	0x8
 3832 0975 AF       		.byte	0xaf
 3833 0976 64090000 		.4byte	0x964
 3834 097a 13       		.uleb128 0x13
 3835 097b 08       		.byte	0x8
 3836 097c 08       		.byte	0x8
 3837 097d C0       		.byte	0xc0
ARM GAS  C:\Users\Petro\AppData\Local\Temp\ccvLNIXl.s 			page 92


 3838 097e 9B090000 		.4byte	0x99b
 3839 0982 14       		.uleb128 0x14
 3840 0983 302A0000 		.4byte	.LASF261
 3841 0987 08       		.byte	0x8
 3842 0988 C4       		.byte	0xc4
 3843 0989 6B050000 		.4byte	0x56b
 3844 098d 00       		.byte	0
 3845 098e 14       		.uleb128 0x14
 3846 098f CC1B0000 		.4byte	.LASF262
 3847 0993 08       		.byte	0x8
 3848 0994 C7       		.byte	0xc7
 3849 0995 77000000 		.4byte	0x77
 3850 0999 04       		.byte	0x4
 3851 099a 00       		.byte	0
 3852 099b 08       		.uleb128 0x8
 3853 099c AA110000 		.4byte	.LASF263
 3854 09a0 08       		.byte	0x8
 3855 09a1 C9       		.byte	0xc9
 3856 09a2 7A090000 		.4byte	0x97a
 3857 09a6 13       		.uleb128 0x13
 3858 09a7 10       		.byte	0x10
 3859 09a8 08       		.byte	0x8
 3860 09a9 CC       		.byte	0xcc
 3861 09aa D3090000 		.4byte	0x9d3
 3862 09ae 14       		.uleb128 0x14
 3863 09af C4340000 		.4byte	.LASF246
 3864 09b3 08       		.byte	0x8
 3865 09b4 CF       		.byte	0xcf
 3866 09b5 BB070000 		.4byte	0x7bb
 3867 09b9 00       		.byte	0
 3868 09ba 14       		.uleb128 0x14
 3869 09bb DC310000 		.4byte	.LASF264
 3870 09bf 08       		.byte	0x8
 3871 09c0 D2       		.byte	0xd2
 3872 09c1 9B090000 		.4byte	0x99b
 3873 09c5 04       		.byte	0x4
 3874 09c6 14       		.uleb128 0x14
 3875 09c7 D3120000 		.4byte	.LASF265
 3876 09cb 08       		.byte	0x8
 3877 09cc D5       		.byte	0xd5
 3878 09cd 6B000000 		.4byte	0x6b
 3879 09d1 0C       		.byte	0xc
 3880 09d2 00       		.byte	0
 3881 09d3 08       		.uleb128 0x8
 3882 09d4 D92D0000 		.4byte	.LASF266
 3883 09d8 08       		.byte	0x8
 3884 09d9 D7       		.byte	0xd7
 3885 09da A6090000 		.4byte	0x9a6
 3886 09de 04       		.uleb128 0x4
 3887 09df 97080000 		.4byte	.LASF267
 3888 09e3 09       		.byte	0x9
 3889 09e4 3C01     		.2byte	0x13c
 3890 09e6 EA090000 		.4byte	0x9ea
 3891 09ea 06       		.uleb128 0x6
 3892 09eb 04       		.byte	0x4
 3893 09ec F0090000 		.4byte	0x9f0
 3894 09f0 15       		.uleb128 0x15
ARM GAS  C:\Users\Petro\AppData\Local\Temp\ccvLNIXl.s 			page 93


 3895 09f1 000A0000 		.4byte	0xa00
 3896 09f5 16       		.uleb128 0x16
 3897 09f6 83000000 		.4byte	0x83
 3898 09fa 16       		.uleb128 0x16
 3899 09fb F7000000 		.4byte	0xf7
 3900 09ff 00       		.byte	0
 3901 0a00 13       		.uleb128 0x13
 3902 0a01 06       		.byte	0x6
 3903 0a02 0A       		.byte	0xa
 3904 0a03 4F       		.byte	0x4f
 3905 0a04 210A0000 		.4byte	0xa21
 3906 0a08 14       		.uleb128 0x14
 3907 0a09 AF010000 		.4byte	.LASF268
 3908 0a0d 0A       		.byte	0xa
 3909 0a0e 51       		.byte	0x51
 3910 0a0f 58080000 		.4byte	0x858
 3911 0a13 00       		.byte	0
 3912 0a14 14       		.uleb128 0x14
 3913 0a15 CD270000 		.4byte	.LASF269
 3914 0a19 0A       		.byte	0xa
 3915 0a1a 52       		.byte	0x52
 3916 0a1b 77000000 		.4byte	0x77
 3917 0a1f 04       		.byte	0x4
 3918 0a20 00       		.byte	0
 3919 0a21 08       		.uleb128 0x8
 3920 0a22 F0280000 		.4byte	.LASF270
 3921 0a26 0A       		.byte	0xa
 3922 0a27 53       		.byte	0x53
 3923 0a28 000A0000 		.4byte	0xa00
 3924 0a2c 13       		.uleb128 0x13
 3925 0a2d 04       		.byte	0x4
 3926 0a2e 0A       		.byte	0xa
 3927 0a2f 70       		.byte	0x70
 3928 0a30 4D0A0000 		.4byte	0xa4d
 3929 0a34 14       		.uleb128 0x14
 3930 0a35 EB340000 		.4byte	.LASF271
 3931 0a39 0A       		.byte	0xa
 3932 0a3a 73       		.byte	0x73
 3933 0a3b 6B000000 		.4byte	0x6b
 3934 0a3f 00       		.byte	0
 3935 0a40 14       		.uleb128 0x14
 3936 0a41 66460000 		.4byte	.LASF272
 3937 0a45 0A       		.byte	0xa
 3938 0a46 76       		.byte	0x76
 3939 0a47 8B070000 		.4byte	0x78b
 3940 0a4b 02       		.byte	0x2
 3941 0a4c 00       		.byte	0
 3942 0a4d 08       		.uleb128 0x8
 3943 0a4e FC1E0000 		.4byte	.LASF273
 3944 0a52 0A       		.byte	0xa
 3945 0a53 77       		.byte	0x77
 3946 0a54 2C0A0000 		.4byte	0xa2c
 3947 0a58 13       		.uleb128 0x13
 3948 0a59 06       		.byte	0x6
 3949 0a5a 0A       		.byte	0xa
 3950 0a5b 92       		.byte	0x92
 3951 0a5c 790A0000 		.4byte	0xa79
ARM GAS  C:\Users\Petro\AppData\Local\Temp\ccvLNIXl.s 			page 94


 3952 0a60 14       		.uleb128 0x14
 3953 0a61 75030000 		.4byte	.LASF274
 3954 0a65 0A       		.byte	0xa
 3955 0a66 94       		.byte	0x94
 3956 0a67 4D0A0000 		.4byte	0xa4d
 3957 0a6b 00       		.byte	0
 3958 0a6c 14       		.uleb128 0x14
 3959 0a6d D2420000 		.4byte	.LASF275
 3960 0a71 0A       		.byte	0xa
 3961 0a72 95       		.byte	0x95
 3962 0a73 8B070000 		.4byte	0x78b
 3963 0a77 04       		.byte	0x4
 3964 0a78 00       		.byte	0
 3965 0a79 08       		.uleb128 0x8
 3966 0a7a 59120000 		.4byte	.LASF276
 3967 0a7e 0A       		.byte	0xa
 3968 0a7f 96       		.byte	0x96
 3969 0a80 580A0000 		.4byte	0xa58
 3970 0a84 0B       		.uleb128 0xb
 3971 0a85 01       		.byte	0x1
 3972 0a86 0B       		.byte	0xb
 3973 0a87 21       		.byte	0x21
 3974 0a88 B10A0000 		.4byte	0xab1
 3975 0a8c 0C       		.uleb128 0xc
 3976 0a8d F52B0000 		.4byte	.LASF277
 3977 0a91 00       		.sleb128 0
 3978 0a92 0C       		.uleb128 0xc
 3979 0a93 9A310000 		.4byte	.LASF278
 3980 0a97 01       		.sleb128 1
 3981 0a98 0C       		.uleb128 0xc
 3982 0a99 C9030000 		.4byte	.LASF279
 3983 0a9d 02       		.sleb128 2
 3984 0a9e 0C       		.uleb128 0xc
 3985 0a9f 01260000 		.4byte	.LASF280
 3986 0aa3 03       		.sleb128 3
 3987 0aa4 0C       		.uleb128 0xc
 3988 0aa5 9E440000 		.4byte	.LASF281
 3989 0aa9 04       		.sleb128 4
 3990 0aaa 0C       		.uleb128 0xc
 3991 0aab FD0B0000 		.4byte	.LASF282
 3992 0aaf 05       		.sleb128 5
 3993 0ab0 00       		.byte	0
 3994 0ab1 08       		.uleb128 0x8
 3995 0ab2 24390000 		.4byte	.LASF283
 3996 0ab6 0B       		.byte	0xb
 3997 0ab7 28       		.byte	0x28
 3998 0ab8 840A0000 		.4byte	0xa84
 3999 0abc 0B       		.uleb128 0xb
 4000 0abd 01       		.byte	0x1
 4001 0abe 0B       		.byte	0xb
 4002 0abf 2C       		.byte	0x2c
 4003 0ac0 D10A0000 		.4byte	0xad1
 4004 0ac4 0C       		.uleb128 0xc
 4005 0ac5 323C0000 		.4byte	.LASF284
 4006 0ac9 00       		.sleb128 0
 4007 0aca 0C       		.uleb128 0xc
 4008 0acb 9D160000 		.4byte	.LASF285
ARM GAS  C:\Users\Petro\AppData\Local\Temp\ccvLNIXl.s 			page 95


 4009 0acf 01       		.sleb128 1
 4010 0ad0 00       		.byte	0
 4011 0ad1 08       		.uleb128 0x8
 4012 0ad2 083C0000 		.4byte	.LASF286
 4013 0ad6 0B       		.byte	0xb
 4014 0ad7 2F       		.byte	0x2f
 4015 0ad8 BC0A0000 		.4byte	0xabc
 4016 0adc 10       		.uleb128 0x10
 4017 0add 8B070000 		.4byte	0x78b
 4018 0ae1 EC0A0000 		.4byte	0xaec
 4019 0ae5 11       		.uleb128 0x11
 4020 0ae6 F0000000 		.4byte	0xf0
 4021 0aea 00       		.byte	0
 4022 0aeb 00       		.byte	0
 4023 0aec 06       		.uleb128 0x6
 4024 0aed 04       		.byte	0x4
 4025 0aee F8070000 		.4byte	0x7f8
 4026 0af2 13       		.uleb128 0x13
 4027 0af3 08       		.byte	0x8
 4028 0af4 0B       		.byte	0xb
 4029 0af5 59       		.byte	0x59
 4030 0af6 2B0B0000 		.4byte	0xb2b
 4031 0afa 14       		.uleb128 0x14
 4032 0afb 090A0000 		.4byte	.LASF287
 4033 0aff 0B       		.byte	0xb
 4034 0b00 5B       		.byte	0x5b
 4035 0b01 DC0A0000 		.4byte	0xadc
 4036 0b05 00       		.byte	0
 4037 0b06 14       		.uleb128 0x14
 4038 0b07 66460000 		.4byte	.LASF272
 4039 0b0b 0B       		.byte	0xb
 4040 0b0c 5C       		.byte	0x5c
 4041 0b0d 8B070000 		.4byte	0x78b
 4042 0b11 02       		.byte	0x2
 4043 0b12 14       		.uleb128 0x14
 4044 0b13 2A3D0000 		.4byte	.LASF244
 4045 0b17 0B       		.byte	0xb
 4046 0b18 5D       		.byte	0x5d
 4047 0b19 8B070000 		.4byte	0x78b
 4048 0b1d 04       		.byte	0x4
 4049 0b1e 14       		.uleb128 0x14
 4050 0b1f EB340000 		.4byte	.LASF271
 4051 0b23 0B       		.byte	0xb
 4052 0b24 5E       		.byte	0x5e
 4053 0b25 6B000000 		.4byte	0x6b
 4054 0b29 06       		.byte	0x6
 4055 0b2a 00       		.byte	0
 4056 0b2b 08       		.uleb128 0x8
 4057 0b2c 1C0C0000 		.4byte	.LASF288
 4058 0b30 0B       		.byte	0xb
 4059 0b31 5F       		.byte	0x5f
 4060 0b32 F20A0000 		.4byte	0xaf2
 4061 0b36 13       		.uleb128 0x13
 4062 0b37 2A       		.byte	0x2a
 4063 0b38 0B       		.byte	0xb
 4064 0b39 62       		.byte	0x62
 4065 0b3a 570B0000 		.4byte	0xb57
ARM GAS  C:\Users\Petro\AppData\Local\Temp\ccvLNIXl.s 			page 96


 4066 0b3e 14       		.uleb128 0x14
 4067 0b3f 930D0000 		.4byte	.LASF289
 4068 0b43 0B       		.byte	0xb
 4069 0b44 65       		.byte	0x65
 4070 0b45 8B070000 		.4byte	0x78b
 4071 0b49 00       		.byte	0
 4072 0b4a 14       		.uleb128 0x14
 4073 0b4b 073E0000 		.4byte	.LASF290
 4074 0b4f 0B       		.byte	0xb
 4075 0b50 67       		.byte	0x67
 4076 0b51 570B0000 		.4byte	0xb57
 4077 0b55 02       		.byte	0x2
 4078 0b56 00       		.byte	0
 4079 0b57 10       		.uleb128 0x10
 4080 0b58 2B0B0000 		.4byte	0xb2b
 4081 0b5c 670B0000 		.4byte	0xb67
 4082 0b60 11       		.uleb128 0x11
 4083 0b61 F0000000 		.4byte	0xf0
 4084 0b65 04       		.byte	0x4
 4085 0b66 00       		.byte	0
 4086 0b67 08       		.uleb128 0x8
 4087 0b68 EF1B0000 		.4byte	.LASF291
 4088 0b6c 0B       		.byte	0xb
 4089 0b6d 68       		.byte	0x68
 4090 0b6e 360B0000 		.4byte	0xb36
 4091 0b72 0B       		.uleb128 0xb
 4092 0b73 02       		.byte	0x2
 4093 0b74 0C       		.byte	0xc
 4094 0b75 9D       		.byte	0x9d
 4095 0b76 67120000 		.4byte	0x1267
 4096 0b7a 0C       		.uleb128 0xc
 4097 0b7b 35290000 		.4byte	.LASF292
 4098 0b7f 8002     		.sleb128 256
 4099 0b81 0C       		.uleb128 0xc
 4100 0b82 34440000 		.4byte	.LASF293
 4101 0b86 8102     		.sleb128 257
 4102 0b88 0C       		.uleb128 0xc
 4103 0b89 CB0C0000 		.4byte	.LASF294
 4104 0b8d 8202     		.sleb128 258
 4105 0b8f 0C       		.uleb128 0xc
 4106 0b90 EA430000 		.4byte	.LASF295
 4107 0b94 8302     		.sleb128 259
 4108 0b96 0C       		.uleb128 0xc
 4109 0b97 F9300000 		.4byte	.LASF296
 4110 0b9b 8402     		.sleb128 260
 4111 0b9d 0C       		.uleb128 0xc
 4112 0b9e BC390000 		.4byte	.LASF297
 4113 0ba2 8502     		.sleb128 261
 4114 0ba4 0C       		.uleb128 0xc
 4115 0ba5 67120000 		.4byte	.LASF298
 4116 0ba9 8602     		.sleb128 262
 4117 0bab 0C       		.uleb128 0xc
 4118 0bac 343B0000 		.4byte	.LASF299
 4119 0bb0 8702     		.sleb128 263
 4120 0bb2 0C       		.uleb128 0xc
 4121 0bb3 F7410000 		.4byte	.LASF300
 4122 0bb7 8802     		.sleb128 264
ARM GAS  C:\Users\Petro\AppData\Local\Temp\ccvLNIXl.s 			page 97


 4123 0bb9 0C       		.uleb128 0xc
 4124 0bba D5060000 		.4byte	.LASF301
 4125 0bbe 8902     		.sleb128 265
 4126 0bc0 0C       		.uleb128 0xc
 4127 0bc1 CA040000 		.4byte	.LASF302
 4128 0bc5 8A02     		.sleb128 266
 4129 0bc7 0C       		.uleb128 0xc
 4130 0bc8 C3330000 		.4byte	.LASF303
 4131 0bcc 8B02     		.sleb128 267
 4132 0bce 0C       		.uleb128 0xc
 4133 0bcf 49230000 		.4byte	.LASF304
 4134 0bd3 8C02     		.sleb128 268
 4135 0bd5 0C       		.uleb128 0xc
 4136 0bd6 302F0000 		.4byte	.LASF305
 4137 0bda 8D02     		.sleb128 269
 4138 0bdc 0C       		.uleb128 0xc
 4139 0bdd A2040000 		.4byte	.LASF306
 4140 0be1 8E02     		.sleb128 270
 4141 0be3 0C       		.uleb128 0xc
 4142 0be4 87010000 		.4byte	.LASF307
 4143 0be8 8F02     		.sleb128 271
 4144 0bea 0C       		.uleb128 0xc
 4145 0beb 25090000 		.4byte	.LASF308
 4146 0bef 9002     		.sleb128 272
 4147 0bf1 0C       		.uleb128 0xc
 4148 0bf2 B03F0000 		.4byte	.LASF309
 4149 0bf6 9102     		.sleb128 273
 4150 0bf8 0C       		.uleb128 0xc
 4151 0bf9 4B130000 		.4byte	.LASF310
 4152 0bfd 9202     		.sleb128 274
 4153 0bff 0C       		.uleb128 0xc
 4154 0c00 7C340000 		.4byte	.LASF311
 4155 0c04 9302     		.sleb128 275
 4156 0c06 0C       		.uleb128 0xc
 4157 0c07 0C050000 		.4byte	.LASF312
 4158 0c0b 9402     		.sleb128 276
 4159 0c0d 0C       		.uleb128 0xc
 4160 0c0e 97380000 		.4byte	.LASF313
 4161 0c12 9502     		.sleb128 277
 4162 0c14 0C       		.uleb128 0xc
 4163 0c15 540C0000 		.4byte	.LASF314
 4164 0c19 9602     		.sleb128 278
 4165 0c1b 0C       		.uleb128 0xc
 4166 0c1c 6F450000 		.4byte	.LASF315
 4167 0c20 9702     		.sleb128 279
 4168 0c22 0C       		.uleb128 0xc
 4169 0c23 23270000 		.4byte	.LASF316
 4170 0c27 9802     		.sleb128 280
 4171 0c29 0C       		.uleb128 0xc
 4172 0c2a 4B170000 		.4byte	.LASF317
 4173 0c2e 9902     		.sleb128 281
 4174 0c30 0C       		.uleb128 0xc
 4175 0c31 F13A0000 		.4byte	.LASF318
 4176 0c35 9A02     		.sleb128 282
 4177 0c37 0C       		.uleb128 0xc
 4178 0c38 972A0000 		.4byte	.LASF319
 4179 0c3c 9B02     		.sleb128 283
ARM GAS  C:\Users\Petro\AppData\Local\Temp\ccvLNIXl.s 			page 98


 4180 0c3e 0C       		.uleb128 0xc
 4181 0c3f 8B3F0000 		.4byte	.LASF320
 4182 0c43 9C02     		.sleb128 284
 4183 0c45 0C       		.uleb128 0xc
 4184 0c46 7C3B0000 		.4byte	.LASF321
 4185 0c4a 9D02     		.sleb128 285
 4186 0c4c 0C       		.uleb128 0xc
 4187 0c4d 8F300000 		.4byte	.LASF322
 4188 0c51 9E02     		.sleb128 286
 4189 0c53 0C       		.uleb128 0xc
 4190 0c54 2F1F0000 		.4byte	.LASF323
 4191 0c58 9F02     		.sleb128 287
 4192 0c5a 0C       		.uleb128 0xc
 4193 0c5b BB1A0000 		.4byte	.LASF324
 4194 0c5f A002     		.sleb128 288
 4195 0c61 0C       		.uleb128 0xc
 4196 0c62 94050000 		.4byte	.LASF325
 4197 0c66 A102     		.sleb128 289
 4198 0c68 0C       		.uleb128 0xc
 4199 0c69 3C300000 		.4byte	.LASF326
 4200 0c6d A202     		.sleb128 290
 4201 0c6f 0C       		.uleb128 0xc
 4202 0c70 4F200000 		.4byte	.LASF327
 4203 0c74 A302     		.sleb128 291
 4204 0c76 0C       		.uleb128 0xc
 4205 0c77 F6340000 		.4byte	.LASF328
 4206 0c7b A402     		.sleb128 292
 4207 0c7d 0C       		.uleb128 0xc
 4208 0c7e 962E0000 		.4byte	.LASF329
 4209 0c82 A502     		.sleb128 293
 4210 0c84 0C       		.uleb128 0xc
 4211 0c85 343D0000 		.4byte	.LASF330
 4212 0c89 A602     		.sleb128 294
 4213 0c8b 0C       		.uleb128 0xc
 4214 0c8c CE0F0000 		.4byte	.LASF331
 4215 0c90 A702     		.sleb128 295
 4216 0c92 0C       		.uleb128 0xc
 4217 0c93 103B0000 		.4byte	.LASF332
 4218 0c97 A802     		.sleb128 296
 4219 0c99 0C       		.uleb128 0xc
 4220 0c9a A6190000 		.4byte	.LASF333
 4221 0c9e A902     		.sleb128 297
 4222 0ca0 0C       		.uleb128 0xc
 4223 0ca1 6A1B0000 		.4byte	.LASF334
 4224 0ca5 AA02     		.sleb128 298
 4225 0ca7 0C       		.uleb128 0xc
 4226 0ca8 1F040000 		.4byte	.LASF335
 4227 0cac AB02     		.sleb128 299
 4228 0cae 0C       		.uleb128 0xc
 4229 0caf 43040000 		.4byte	.LASF336
 4230 0cb3 AC02     		.sleb128 300
 4231 0cb5 0C       		.uleb128 0xc
 4232 0cb6 AA000000 		.4byte	.LASF337
 4233 0cba AD02     		.sleb128 301
 4234 0cbc 0C       		.uleb128 0xc
 4235 0cbd 870F0000 		.4byte	.LASF338
 4236 0cc1 AE02     		.sleb128 302
ARM GAS  C:\Users\Petro\AppData\Local\Temp\ccvLNIXl.s 			page 99


 4237 0cc3 0C       		.uleb128 0xc
 4238 0cc4 5B440000 		.4byte	.LASF339
 4239 0cc8 AF02     		.sleb128 303
 4240 0cca 0C       		.uleb128 0xc
 4241 0ccb 15080000 		.4byte	.LASF340
 4242 0ccf B002     		.sleb128 304
 4243 0cd1 0C       		.uleb128 0xc
 4244 0cd2 59280000 		.4byte	.LASF341
 4245 0cd6 B102     		.sleb128 305
 4246 0cd8 0C       		.uleb128 0xc
 4247 0cd9 4F380000 		.4byte	.LASF342
 4248 0cdd B202     		.sleb128 306
 4249 0cdf 0C       		.uleb128 0xc
 4250 0ce0 DA160000 		.4byte	.LASF343
 4251 0ce4 B302     		.sleb128 307
 4252 0ce6 0C       		.uleb128 0xc
 4253 0ce7 B4290000 		.4byte	.LASF344
 4254 0ceb B402     		.sleb128 308
 4255 0ced 0C       		.uleb128 0xc
 4256 0cee 46190000 		.4byte	.LASF345
 4257 0cf2 B502     		.sleb128 309
 4258 0cf4 0C       		.uleb128 0xc
 4259 0cf5 5F080000 		.4byte	.LASF346
 4260 0cf9 B602     		.sleb128 310
 4261 0cfb 0C       		.uleb128 0xc
 4262 0cfc C3020000 		.4byte	.LASF347
 4263 0d00 B702     		.sleb128 311
 4264 0d02 0C       		.uleb128 0xc
 4265 0d03 C40A0000 		.4byte	.LASF348
 4266 0d07 B802     		.sleb128 312
 4267 0d09 0C       		.uleb128 0xc
 4268 0d0a 77320000 		.4byte	.LASF349
 4269 0d0e B902     		.sleb128 313
 4270 0d10 0C       		.uleb128 0xc
 4271 0d11 A2390000 		.4byte	.LASF350
 4272 0d15 BA02     		.sleb128 314
 4273 0d17 0C       		.uleb128 0xc
 4274 0d18 DB090000 		.4byte	.LASF351
 4275 0d1c BB02     		.sleb128 315
 4276 0d1e 0C       		.uleb128 0xc
 4277 0d1f 972C0000 		.4byte	.LASF352
 4278 0d23 BC02     		.sleb128 316
 4279 0d25 0C       		.uleb128 0xc
 4280 0d26 9F3E0000 		.4byte	.LASF353
 4281 0d2a BD02     		.sleb128 317
 4282 0d2c 0C       		.uleb128 0xc
 4283 0d2d 07240000 		.4byte	.LASF354
 4284 0d31 BE02     		.sleb128 318
 4285 0d33 0C       		.uleb128 0xc
 4286 0d34 193F0000 		.4byte	.LASF355
 4287 0d38 BF02     		.sleb128 319
 4288 0d3a 0C       		.uleb128 0xc
 4289 0d3b 1E0A0000 		.4byte	.LASF356
 4290 0d3f C002     		.sleb128 320
 4291 0d41 0C       		.uleb128 0xc
 4292 0d42 34120000 		.4byte	.LASF357
 4293 0d46 C102     		.sleb128 321
ARM GAS  C:\Users\Petro\AppData\Local\Temp\ccvLNIXl.s 			page 100


 4294 0d48 0C       		.uleb128 0xc
 4295 0d49 C8410000 		.4byte	.LASF358
 4296 0d4d C202     		.sleb128 322
 4297 0d4f 0C       		.uleb128 0xc
 4298 0d50 D33F0000 		.4byte	.LASF359
 4299 0d54 C302     		.sleb128 323
 4300 0d56 0C       		.uleb128 0xc
 4301 0d57 DC000000 		.4byte	.LASF360
 4302 0d5b C402     		.sleb128 324
 4303 0d5d 0C       		.uleb128 0xc
 4304 0d5e 363A0000 		.4byte	.LASF361
 4305 0d62 C502     		.sleb128 325
 4306 0d64 0C       		.uleb128 0xc
 4307 0d65 4D210000 		.4byte	.LASF362
 4308 0d69 C602     		.sleb128 326
 4309 0d6b 0C       		.uleb128 0xc
 4310 0d6c B4380000 		.4byte	.LASF363
 4311 0d70 C702     		.sleb128 327
 4312 0d72 0C       		.uleb128 0xc
 4313 0d73 46360000 		.4byte	.LASF364
 4314 0d77 C802     		.sleb128 328
 4315 0d79 0C       		.uleb128 0xc
 4316 0d7a 4D020000 		.4byte	.LASF365
 4317 0d7e C902     		.sleb128 329
 4318 0d80 0C       		.uleb128 0xc
 4319 0d81 1B350000 		.4byte	.LASF366
 4320 0d85 CA02     		.sleb128 330
 4321 0d87 0C       		.uleb128 0xc
 4322 0d88 55110000 		.4byte	.LASF367
 4323 0d8c CB02     		.sleb128 331
 4324 0d8e 0C       		.uleb128 0xc
 4325 0d8f 490B0000 		.4byte	.LASF368
 4326 0d93 CC02     		.sleb128 332
 4327 0d95 0C       		.uleb128 0xc
 4328 0d96 0D0B0000 		.4byte	.LASF369
 4329 0d9a CD02     		.sleb128 333
 4330 0d9c 0C       		.uleb128 0xc
 4331 0d9d 0C110000 		.4byte	.LASF370
 4332 0da1 CE02     		.sleb128 334
 4333 0da3 0C       		.uleb128 0xc
 4334 0da4 71220000 		.4byte	.LASF371
 4335 0da8 CF02     		.sleb128 335
 4336 0daa 0C       		.uleb128 0xc
 4337 0dab 24430000 		.4byte	.LASF372
 4338 0daf D002     		.sleb128 336
 4339 0db1 0C       		.uleb128 0xc
 4340 0db2 3C160000 		.4byte	.LASF373
 4341 0db6 D102     		.sleb128 337
 4342 0db8 0C       		.uleb128 0xc
 4343 0db9 5B320000 		.4byte	.LASF374
 4344 0dbd D202     		.sleb128 338
 4345 0dbf 0C       		.uleb128 0xc
 4346 0dc0 252C0000 		.4byte	.LASF375
 4347 0dc4 D302     		.sleb128 339
 4348 0dc6 0C       		.uleb128 0xc
 4349 0dc7 D7010000 		.4byte	.LASF376
 4350 0dcb D402     		.sleb128 340
ARM GAS  C:\Users\Petro\AppData\Local\Temp\ccvLNIXl.s 			page 101


 4351 0dcd 0C       		.uleb128 0xc
 4352 0dce F1200000 		.4byte	.LASF377
 4353 0dd2 D502     		.sleb128 341
 4354 0dd4 0C       		.uleb128 0xc
 4355 0dd5 F7000000 		.4byte	.LASF378
 4356 0dd9 D602     		.sleb128 342
 4357 0ddb 0C       		.uleb128 0xc
 4358 0ddc BA0B0000 		.4byte	.LASF379
 4359 0de0 D702     		.sleb128 343
 4360 0de2 0C       		.uleb128 0xc
 4361 0de3 3D400000 		.4byte	.LASF380
 4362 0de7 D802     		.sleb128 344
 4363 0de9 0C       		.uleb128 0xc
 4364 0dea 10190000 		.4byte	.LASF381
 4365 0dee D902     		.sleb128 345
 4366 0df0 0C       		.uleb128 0xc
 4367 0df1 EB170000 		.4byte	.LASF382
 4368 0df5 DA02     		.sleb128 346
 4369 0df7 0C       		.uleb128 0xc
 4370 0df8 45070000 		.4byte	.LASF383
 4371 0dfc DB02     		.sleb128 347
 4372 0dfe 0C       		.uleb128 0xc
 4373 0dff 5E3E0000 		.4byte	.LASF384
 4374 0e03 DC02     		.sleb128 348
 4375 0e05 0C       		.uleb128 0xc
 4376 0e06 7C250000 		.4byte	.LASF385
 4377 0e0a DD02     		.sleb128 349
 4378 0e0c 0C       		.uleb128 0xc
 4379 0e0d DB210000 		.4byte	.LASF386
 4380 0e11 DE02     		.sleb128 350
 4381 0e13 0C       		.uleb128 0xc
 4382 0e14 A4090000 		.4byte	.LASF387
 4383 0e18 DF02     		.sleb128 351
 4384 0e1a 0C       		.uleb128 0xc
 4385 0e1b A8080000 		.4byte	.LASF388
 4386 0e1f E002     		.sleb128 352
 4387 0e21 0C       		.uleb128 0xc
 4388 0e22 2A020000 		.4byte	.LASF389
 4389 0e26 E102     		.sleb128 353
 4390 0e28 0C       		.uleb128 0xc
 4391 0e29 1B260000 		.4byte	.LASF390
 4392 0e2d E202     		.sleb128 354
 4393 0e2f 0C       		.uleb128 0xc
 4394 0e30 2C450000 		.4byte	.LASF391
 4395 0e34 E302     		.sleb128 355
 4396 0e36 0C       		.uleb128 0xc
 4397 0e37 031B0000 		.4byte	.LASF392
 4398 0e3b E402     		.sleb128 356
 4399 0e3d 0C       		.uleb128 0xc
 4400 0e3e 11180000 		.4byte	.LASF393
 4401 0e42 E502     		.sleb128 357
 4402 0e44 0C       		.uleb128 0xc
 4403 0e45 34280000 		.4byte	.LASF394
 4404 0e49 E602     		.sleb128 358
 4405 0e4b 0C       		.uleb128 0xc
 4406 0e4c 57220000 		.4byte	.LASF395
 4407 0e50 E702     		.sleb128 359
ARM GAS  C:\Users\Petro\AppData\Local\Temp\ccvLNIXl.s 			page 102


 4408 0e52 0C       		.uleb128 0xc
 4409 0e53 03330000 		.4byte	.LASF396
 4410 0e57 E802     		.sleb128 360
 4411 0e59 0C       		.uleb128 0xc
 4412 0e5a 80040000 		.4byte	.LASF397
 4413 0e5e E902     		.sleb128 361
 4414 0e60 0C       		.uleb128 0xc
 4415 0e61 77310000 		.4byte	.LASF398
 4416 0e65 EA02     		.sleb128 362
 4417 0e67 0C       		.uleb128 0xc
 4418 0e68 CC150000 		.4byte	.LASF399
 4419 0e6c EB02     		.sleb128 363
 4420 0e6e 0C       		.uleb128 0xc
 4421 0e6f A9200000 		.4byte	.LASF400
 4422 0e73 EC02     		.sleb128 364
 4423 0e75 0C       		.uleb128 0xc
 4424 0e76 87200000 		.4byte	.LASF401
 4425 0e7a ED02     		.sleb128 365
 4426 0e7c 0C       		.uleb128 0xc
 4427 0e7d 063D0000 		.4byte	.LASF402
 4428 0e81 EE02     		.sleb128 366
 4429 0e83 0C       		.uleb128 0xc
 4430 0e84 84030000 		.4byte	.LASF403
 4431 0e88 EF02     		.sleb128 367
 4432 0e8a 0C       		.uleb128 0xc
 4433 0e8b 80130000 		.4byte	.LASF404
 4434 0e8f F002     		.sleb128 368
 4435 0e91 0C       		.uleb128 0xc
 4436 0e92 67240000 		.4byte	.LASF405
 4437 0e96 F102     		.sleb128 369
 4438 0e98 0C       		.uleb128 0xc
 4439 0e99 C9280000 		.4byte	.LASF406
 4440 0e9d F202     		.sleb128 370
 4441 0e9f 0C       		.uleb128 0xc
 4442 0ea0 76370000 		.4byte	.LASF407
 4443 0ea4 F302     		.sleb128 371
 4444 0ea6 0C       		.uleb128 0xc
 4445 0ea7 281B0000 		.4byte	.LASF408
 4446 0eab F402     		.sleb128 372
 4447 0ead 0C       		.uleb128 0xc
 4448 0eae E6250000 		.4byte	.LASF409
 4449 0eb2 F502     		.sleb128 373
 4450 0eb4 0C       		.uleb128 0xc
 4451 0eb5 84260000 		.4byte	.LASF410
 4452 0eb9 F602     		.sleb128 374
 4453 0ebb 0C       		.uleb128 0xc
 4454 0ebc 31170000 		.4byte	.LASF411
 4455 0ec0 F702     		.sleb128 375
 4456 0ec2 0C       		.uleb128 0xc
 4457 0ec3 A20E0000 		.4byte	.LASF412
 4458 0ec7 F802     		.sleb128 376
 4459 0ec9 0C       		.uleb128 0xc
 4460 0eca B13A0000 		.4byte	.LASF413
 4461 0ece F902     		.sleb128 377
 4462 0ed0 0C       		.uleb128 0xc
 4463 0ed1 4C1C0000 		.4byte	.LASF414
 4464 0ed5 FA02     		.sleb128 378
ARM GAS  C:\Users\Petro\AppData\Local\Temp\ccvLNIXl.s 			page 103


 4465 0ed7 0C       		.uleb128 0xc
 4466 0ed8 620D0000 		.4byte	.LASF415
 4467 0edc FB02     		.sleb128 379
 4468 0ede 0C       		.uleb128 0xc
 4469 0edf 5A3B0000 		.4byte	.LASF416
 4470 0ee3 FC02     		.sleb128 380
 4471 0ee5 0C       		.uleb128 0xc
 4472 0ee6 51330000 		.4byte	.LASF417
 4473 0eea FD02     		.sleb128 381
 4474 0eec 0C       		.uleb128 0xc
 4475 0eed D8380000 		.4byte	.LASF418
 4476 0ef1 FE02     		.sleb128 382
 4477 0ef3 0C       		.uleb128 0xc
 4478 0ef4 6A230000 		.4byte	.LASF419
 4479 0ef8 FF02     		.sleb128 383
 4480 0efa 0C       		.uleb128 0xc
 4481 0efb 93020000 		.4byte	.LASF420
 4482 0eff 8003     		.sleb128 384
 4483 0f01 0C       		.uleb128 0xc
 4484 0f02 312D0000 		.4byte	.LASF421
 4485 0f06 8103     		.sleb128 385
 4486 0f08 0C       		.uleb128 0xc
 4487 0f09 0A430000 		.4byte	.LASF422
 4488 0f0d 8203     		.sleb128 386
 4489 0f0f 0C       		.uleb128 0xc
 4490 0f10 563D0000 		.4byte	.LASF423
 4491 0f14 8303     		.sleb128 387
 4492 0f16 0C       		.uleb128 0xc
 4493 0f17 E8370000 		.4byte	.LASF424
 4494 0f1b 8403     		.sleb128 388
 4495 0f1d 0C       		.uleb128 0xc
 4496 0f1e 42030000 		.4byte	.LASF425
 4497 0f22 8503     		.sleb128 389
 4498 0f24 0C       		.uleb128 0xc
 4499 0f25 74140000 		.4byte	.LASF426
 4500 0f29 8603     		.sleb128 390
 4501 0f2b 0C       		.uleb128 0xc
 4502 0f2c EE3F0000 		.4byte	.LASF427
 4503 0f30 8703     		.sleb128 391
 4504 0f32 0C       		.uleb128 0xc
 4505 0f33 72460000 		.4byte	.LASF428
 4506 0f37 8803     		.sleb128 392
 4507 0f39 0C       		.uleb128 0xc
 4508 0f3a D4260000 		.4byte	.LASF429
 4509 0f3e 8903     		.sleb128 393
 4510 0f40 0C       		.uleb128 0xc
 4511 0f41 DB440000 		.4byte	.LASF430
 4512 0f45 8A03     		.sleb128 394
 4513 0f47 0C       		.uleb128 0xc
 4514 0f48 62260000 		.4byte	.LASF431
 4515 0f4c 8B03     		.sleb128 395
 4516 0f4e 0C       		.uleb128 0xc
 4517 0f4f 3B0F0000 		.4byte	.LASF432
 4518 0f53 8C03     		.sleb128 396
 4519 0f55 0C       		.uleb128 0xc
 4520 0f56 891C0000 		.4byte	.LASF433
 4521 0f5a 8D03     		.sleb128 397
ARM GAS  C:\Users\Petro\AppData\Local\Temp\ccvLNIXl.s 			page 104


 4522 0f5c 0C       		.uleb128 0xc
 4523 0f5d 84190000 		.4byte	.LASF434
 4524 0f61 8E03     		.sleb128 398
 4525 0f63 0C       		.uleb128 0xc
 4526 0f64 C40E0000 		.4byte	.LASF435
 4527 0f68 8F03     		.sleb128 399
 4528 0f6a 0C       		.uleb128 0xc
 4529 0f6b 6A360000 		.4byte	.LASF436
 4530 0f6f 9003     		.sleb128 400
 4531 0f71 0C       		.uleb128 0xc
 4532 0f72 D81D0000 		.4byte	.LASF437
 4533 0f76 9103     		.sleb128 401
 4534 0f78 0C       		.uleb128 0xc
 4535 0f79 502E0000 		.4byte	.LASF438
 4536 0f7d 9203     		.sleb128 402
 4537 0f7f 0C       		.uleb128 0xc
 4538 0f80 4B050000 		.4byte	.LASF439
 4539 0f84 9303     		.sleb128 403
 4540 0f86 0C       		.uleb128 0xc
 4541 0f87 56160000 		.4byte	.LASF440
 4542 0f8b 9403     		.sleb128 404
 4543 0f8d 0C       		.uleb128 0xc
 4544 0f8e 94170000 		.4byte	.LASF441
 4545 0f92 9503     		.sleb128 405
 4546 0f94 0C       		.uleb128 0xc
 4547 0f95 E0460000 		.4byte	.LASF442
 4548 0f99 9603     		.sleb128 406
 4549 0f9b 0C       		.uleb128 0xc
 4550 0f9c FB2D0000 		.4byte	.LASF443
 4551 0fa0 9703     		.sleb128 407
 4552 0fa2 0C       		.uleb128 0xc
 4553 0fa3 742E0000 		.4byte	.LASF444
 4554 0fa7 9803     		.sleb128 408
 4555 0fa9 0C       		.uleb128 0xc
 4556 0faa 61090000 		.4byte	.LASF445
 4557 0fae 9903     		.sleb128 409
 4558 0fb0 0C       		.uleb128 0xc
 4559 0fb1 C3180000 		.4byte	.LASF446
 4560 0fb5 9A03     		.sleb128 410
 4561 0fb7 0C       		.uleb128 0xc
 4562 0fb8 38370000 		.4byte	.LASF447
 4563 0fbc 9B03     		.sleb128 411
 4564 0fbe 0C       		.uleb128 0xc
 4565 0fbf A10D0000 		.4byte	.LASF448
 4566 0fc3 9C03     		.sleb128 412
 4567 0fc5 0C       		.uleb128 0xc
 4568 0fc6 46000000 		.4byte	.LASF449
 4569 0fca 9D03     		.sleb128 413
 4570 0fcc 0C       		.uleb128 0xc
 4571 0fcd C13C0000 		.4byte	.LASF450
 4572 0fd1 9E03     		.sleb128 414
 4573 0fd3 0C       		.uleb128 0xc
 4574 0fd4 EB140000 		.4byte	.LASF451
 4575 0fd8 9F03     		.sleb128 415
 4576 0fda 0C       		.uleb128 0xc
 4577 0fdb 97460000 		.4byte	.LASF452
 4578 0fdf A003     		.sleb128 416
ARM GAS  C:\Users\Petro\AppData\Local\Temp\ccvLNIXl.s 			page 105


 4579 0fe1 0C       		.uleb128 0xc
 4580 0fe2 8A060000 		.4byte	.LASF453
 4581 0fe6 A103     		.sleb128 417
 4582 0fe8 0C       		.uleb128 0xc
 4583 0fe9 D7220000 		.4byte	.LASF454
 4584 0fed A203     		.sleb128 418
 4585 0fef 0C       		.uleb128 0xc
 4586 0ff0 4C460000 		.4byte	.LASF455
 4587 0ff4 A303     		.sleb128 419
 4588 0ff6 0C       		.uleb128 0xc
 4589 0ff7 02390000 		.4byte	.LASF456
 4590 0ffb A403     		.sleb128 420
 4591 0ffd 0C       		.uleb128 0xc
 4592 0ffe FC290000 		.4byte	.LASF457
 4593 1002 A503     		.sleb128 421
 4594 1004 0C       		.uleb128 0xc
 4595 1005 BA2C0000 		.4byte	.LASF458
 4596 1009 A603     		.sleb128 422
 4597 100b 0C       		.uleb128 0xc
 4598 100c 01410000 		.4byte	.LASF459
 4599 1010 A703     		.sleb128 423
 4600 1012 0C       		.uleb128 0xc
 4601 1013 221E0000 		.4byte	.LASF460
 4602 1017 A803     		.sleb128 424
 4603 1019 0C       		.uleb128 0xc
 4604 101a 80180000 		.4byte	.LASF461
 4605 101e A903     		.sleb128 425
 4606 1020 0C       		.uleb128 0xc
 4607 1021 5A250000 		.4byte	.LASF462
 4608 1025 AA03     		.sleb128 426
 4609 1027 0C       		.uleb128 0xc
 4610 1028 04030000 		.4byte	.LASF463
 4611 102c AB03     		.sleb128 427
 4612 102e 0C       		.uleb128 0xc
 4613 102f E4330000 		.4byte	.LASF464
 4614 1033 AC03     		.sleb128 428
 4615 1035 0C       		.uleb128 0xc
 4616 1036 5D040000 		.4byte	.LASF465
 4617 103a AD03     		.sleb128 429
 4618 103c 0C       		.uleb128 0xc
 4619 103d F52F0000 		.4byte	.LASF466
 4620 1041 AE03     		.sleb128 430
 4621 1043 0C       		.uleb128 0xc
 4622 1044 6B0B0000 		.4byte	.LASF467
 4623 1048 AF03     		.sleb128 431
 4624 104a 0C       		.uleb128 0xc
 4625 104b 2F0C0000 		.4byte	.LASF468
 4626 104f B003     		.sleb128 432
 4627 1051 0C       		.uleb128 0xc
 4628 1052 5C370000 		.4byte	.LASF469
 4629 1056 B103     		.sleb128 433
 4630 1058 0C       		.uleb128 0xc
 4631 1059 90070000 		.4byte	.LASF470
 4632 105d B203     		.sleb128 434
 4633 105f 0C       		.uleb128 0xc
 4634 1060 CF320000 		.4byte	.LASF471
 4635 1064 B303     		.sleb128 435
ARM GAS  C:\Users\Petro\AppData\Local\Temp\ccvLNIXl.s 			page 106


 4636 1066 0C       		.uleb128 0xc
 4637 1067 60300000 		.4byte	.LASF472
 4638 106b B403     		.sleb128 436
 4639 106d 0C       		.uleb128 0xc
 4640 106e 4B1A0000 		.4byte	.LASF473
 4641 1072 B503     		.sleb128 437
 4642 1074 0C       		.uleb128 0xc
 4643 1075 8F420000 		.4byte	.LASF474
 4644 1079 B603     		.sleb128 438
 4645 107b 0C       		.uleb128 0xc
 4646 107c 2A250000 		.4byte	.LASF475
 4647 1080 B703     		.sleb128 439
 4648 1082 0C       		.uleb128 0xc
 4649 1083 0D2F0000 		.4byte	.LASF476
 4650 1087 B803     		.sleb128 440
 4651 1089 0C       		.uleb128 0xc
 4652 108a 49340000 		.4byte	.LASF477
 4653 108e B903     		.sleb128 441
 4654 1090 0C       		.uleb128 0xc
 4655 1091 20360000 		.4byte	.LASF478
 4656 1095 BA03     		.sleb128 442
 4657 1097 0C       		.uleb128 0xc
 4658 1098 CC200000 		.4byte	.LASF479
 4659 109c BB03     		.sleb128 443
 4660 109e 0C       		.uleb128 0xc
 4661 109f 471E0000 		.4byte	.LASF480
 4662 10a3 BC03     		.sleb128 444
 4663 10a5 0C       		.uleb128 0xc
 4664 10a6 C6070000 		.4byte	.LASF481
 4665 10aa BD03     		.sleb128 445
 4666 10ac 0C       		.uleb128 0xc
 4667 10ad 880C0000 		.4byte	.LASF482
 4668 10b1 BE03     		.sleb128 446
 4669 10b3 0C       		.uleb128 0xc
 4670 10b4 281C0000 		.4byte	.LASF483
 4671 10b8 BF03     		.sleb128 447
 4672 10ba 0C       		.uleb128 0xc
 4673 10bb 45390000 		.4byte	.LASF484
 4674 10bf C003     		.sleb128 448
 4675 10c1 0C       		.uleb128 0xc
 4676 10c2 BF450000 		.4byte	.LASF485
 4677 10c6 C103     		.sleb128 449
 4678 10c8 0C       		.uleb128 0xc
 4679 10c9 8D1D0000 		.4byte	.LASF486
 4680 10cd C203     		.sleb128 450
 4681 10cf 0C       		.uleb128 0xc
 4682 10d0 BD100000 		.4byte	.LASF487
 4683 10d4 C303     		.sleb128 451
 4684 10d6 0C       		.uleb128 0xc
 4685 10d7 35180000 		.4byte	.LASF488
 4686 10db C403     		.sleb128 452
 4687 10dd 0C       		.uleb128 0xc
 4688 10de 282E0000 		.4byte	.LASF489
 4689 10e2 C503     		.sleb128 453
 4690 10e4 0C       		.uleb128 0xc
 4691 10e5 F1040000 		.4byte	.LASF490
 4692 10e9 C603     		.sleb128 454
ARM GAS  C:\Users\Petro\AppData\Local\Temp\ccvLNIXl.s 			page 107


 4693 10eb 0C       		.uleb128 0xc
 4694 10ec 0A380000 		.4byte	.LASF491
 4695 10f0 C703     		.sleb128 455
 4696 10f2 0C       		.uleb128 0xc
 4697 10f3 8F110000 		.4byte	.LASF492
 4698 10f7 C803     		.sleb128 456
 4699 10f9 0C       		.uleb128 0xc
 4700 10fa 10220000 		.4byte	.LASF493
 4701 10fe C903     		.sleb128 457
 4702 1100 0C       		.uleb128 0xc
 4703 1101 70170000 		.4byte	.LASF494
 4704 1105 CA03     		.sleb128 458
 4705 1107 0C       		.uleb128 0xc
 4706 1108 61400000 		.4byte	.LASF495
 4707 110c CB03     		.sleb128 459
 4708 110e 0C       		.uleb128 0xc
 4709 110f FA030000 		.4byte	.LASF496
 4710 1113 CC03     		.sleb128 460
 4711 1115 0C       		.uleb128 0xc
 4712 1116 2F010000 		.4byte	.LASF497
 4713 111a CD03     		.sleb128 461
 4714 111c 0C       		.uleb128 0xc
 4715 111d 0E150000 		.4byte	.LASF498
 4716 1121 CE03     		.sleb128 462
 4717 1123 0C       		.uleb128 0xc
 4718 1124 DE120000 		.4byte	.LASF499
 4719 1128 CF03     		.sleb128 463
 4720 112a 0C       		.uleb128 0xc
 4721 112b A3280000 		.4byte	.LASF500
 4722 112f D003     		.sleb128 464
 4723 1131 0C       		.uleb128 0xc
 4724 1132 B53D0000 		.4byte	.LASF501
 4725 1136 D103     		.sleb128 465
 4726 1138 0C       		.uleb128 0xc
 4727 1139 45260000 		.4byte	.LASF502
 4728 113d D203     		.sleb128 466
 4729 113f 0C       		.uleb128 0xc
 4730 1140 14370000 		.4byte	.LASF503
 4731 1144 D303     		.sleb128 467
 4732 1146 0C       		.uleb128 0xc
 4733 1147 F43E0000 		.4byte	.LASF504
 4734 114b D403     		.sleb128 468
 4735 114d 0C       		.uleb128 0xc
 4736 114e 70050000 		.4byte	.LASF505
 4737 1152 D503     		.sleb128 469
 4738 1154 0C       		.uleb128 0xc
 4739 1155 EF360000 		.4byte	.LASF506
 4740 1159 D603     		.sleb128 470
 4741 115b 0C       		.uleb128 0xc
 4742 115c A7130000 		.4byte	.LASF507
 4743 1160 D703     		.sleb128 471
 4744 1162 0C       		.uleb128 0xc
 4745 1163 27230000 		.4byte	.LASF508
 4746 1167 D803     		.sleb128 472
 4747 1169 0C       		.uleb128 0xc
 4748 116a 6A350000 		.4byte	.LASF509
 4749 116e D903     		.sleb128 473
ARM GAS  C:\Users\Petro\AppData\Local\Temp\ccvLNIXl.s 			page 108


 4750 1170 0C       		.uleb128 0xc
 4751 1171 C7170000 		.4byte	.LASF510
 4752 1175 DA03     		.sleb128 474
 4753 1177 0C       		.uleb128 0xc
 4754 1178 423C0000 		.4byte	.LASF511
 4755 117c DB03     		.sleb128 475
 4756 117e 0C       		.uleb128 0xc
 4757 117f F0150000 		.4byte	.LASF512
 4758 1183 DC03     		.sleb128 476
 4759 1185 0C       		.uleb128 0xc
 4760 1186 E92E0000 		.4byte	.LASF513
 4761 118a DD03     		.sleb128 477
 4762 118c 0C       		.uleb128 0xc
 4763 118d 7F2F0000 		.4byte	.LASF514
 4764 1191 DE03     		.sleb128 478
 4765 1193 0C       		.uleb128 0xc
 4766 1194 DE1A0000 		.4byte	.LASF515
 4767 1198 DF03     		.sleb128 479
 4768 119a 0C       		.uleb128 0xc
 4769 119b 300E0000 		.4byte	.LASF516
 4770 119f E003     		.sleb128 480
 4771 11a1 0C       		.uleb128 0xc
 4772 11a2 7F440000 		.4byte	.LASF517
 4773 11a6 E103     		.sleb128 481
 4774 11a8 0C       		.uleb128 0xc
 4775 11a9 C1090000 		.4byte	.LASF518
 4776 11ad E203     		.sleb128 482
 4777 11af 0C       		.uleb128 0xc
 4778 11b0 85270000 		.4byte	.LASF519
 4779 11b4 E303     		.sleb128 483
 4780 11b6 0C       		.uleb128 0xc
 4781 11b7 24000000 		.4byte	.LASF520
 4782 11bb E403     		.sleb128 484
 4783 11bd 0C       		.uleb128 0xc
 4784 11be 332B0000 		.4byte	.LASF521
 4785 11c2 E503     		.sleb128 485
 4786 11c4 0C       		.uleb128 0xc
 4787 11c5 E33C0000 		.4byte	.LASF522
 4788 11c9 E603     		.sleb128 486
 4789 11cb 0C       		.uleb128 0xc
 4790 11cc 27050000 		.4byte	.LASF523
 4791 11d0 E703     		.sleb128 487
 4792 11d2 0C       		.uleb128 0xc
 4793 11d3 C3350000 		.4byte	.LASF524
 4794 11d7 E803     		.sleb128 488
 4795 11d9 0C       		.uleb128 0xc
 4796 11da D1240000 		.4byte	.LASF525
 4797 11de E903     		.sleb128 489
 4798 11e0 0C       		.uleb128 0xc
 4799 11e1 B4160000 		.4byte	.LASF526
 4800 11e5 EA03     		.sleb128 490
 4801 11e7 0C       		.uleb128 0xc
 4802 11e8 641E0000 		.4byte	.LASF527
 4803 11ec EB03     		.sleb128 491
 4804 11ee 0C       		.uleb128 0xc
 4805 11ef 622D0000 		.4byte	.LASF528
 4806 11f3 EC03     		.sleb128 492
ARM GAS  C:\Users\Petro\AppData\Local\Temp\ccvLNIXl.s 			page 109


 4807 11f5 0C       		.uleb128 0xc
 4808 11f6 BB460000 		.4byte	.LASF529
 4809 11fa ED03     		.sleb128 493
 4810 11fc 0C       		.uleb128 0xc
 4811 11fd 65180000 		.4byte	.LASF530
 4812 1201 EE03     		.sleb128 494
 4813 1203 0C       		.uleb128 0xc
 4814 1204 6A010000 		.4byte	.LASF531
 4815 1208 EF03     		.sleb128 495
 4816 120a 0C       		.uleb128 0xc
 4817 120b 652B0000 		.4byte	.LASF532
 4818 120f F003     		.sleb128 496
 4819 1211 0C       		.uleb128 0xc
 4820 1212 A1270000 		.4byte	.LASF533
 4821 1216 F103     		.sleb128 497
 4822 1218 0C       		.uleb128 0xc
 4823 1219 F3190000 		.4byte	.LASF534
 4824 121d F203     		.sleb128 498
 4825 121f 0C       		.uleb128 0xc
 4826 1220 73380000 		.4byte	.LASF535
 4827 1224 F303     		.sleb128 499
 4828 1226 0C       		.uleb128 0xc
 4829 1227 66410000 		.4byte	.LASF536
 4830 122b F403     		.sleb128 500
 4831 122d 0C       		.uleb128 0xc
 4832 122e B5010000 		.4byte	.LASF537
 4833 1232 F503     		.sleb128 501
 4834 1234 0C       		.uleb128 0xc
 4835 1235 19300000 		.4byte	.LASF538
 4836 1239 F603     		.sleb128 502
 4837 123b 0C       		.uleb128 0xc
 4838 123c 86150000 		.4byte	.LASF539
 4839 1240 F703     		.sleb128 503
 4840 1242 0C       		.uleb128 0xc
 4841 1243 58290000 		.4byte	.LASF540
 4842 1247 F803     		.sleb128 504
 4843 1249 0C       		.uleb128 0xc
 4844 124a E4450000 		.4byte	.LASF541
 4845 124e F903     		.sleb128 505
 4846 1250 0C       		.uleb128 0xc
 4847 1251 CF110000 		.4byte	.LASF542
 4848 1255 FA03     		.sleb128 506
 4849 1257 0C       		.uleb128 0xc
 4850 1258 AA0F0000 		.4byte	.LASF543
 4851 125c FB03     		.sleb128 507
 4852 125e 0C       		.uleb128 0xc
 4853 125f DD2C0000 		.4byte	.LASF544
 4854 1263 80C003   		.sleb128 57344
 4855 1266 00       		.byte	0
 4856 1267 0D       		.uleb128 0xd
 4857 1268 01       		.byte	0x1
 4858 1269 0C       		.byte	0xc
 4859 126a 3707     		.2byte	0x737
 4860 126c 95120000 		.4byte	0x1295
 4861 1270 0C       		.uleb128 0xc
 4862 1271 A9100000 		.4byte	.LASF545
 4863 1275 00       		.sleb128 0
ARM GAS  C:\Users\Petro\AppData\Local\Temp\ccvLNIXl.s 			page 110


 4864 1276 0C       		.uleb128 0xc
 4865 1277 70210000 		.4byte	.LASF546
 4866 127b 01       		.sleb128 1
 4867 127c 0C       		.uleb128 0xc
 4868 127d B2420000 		.4byte	.LASF547
 4869 1281 02       		.sleb128 2
 4870 1282 0C       		.uleb128 0xc
 4871 1283 C0060000 		.4byte	.LASF548
 4872 1287 03       		.sleb128 3
 4873 1288 0C       		.uleb128 0xc
 4874 1289 0D140000 		.4byte	.LASF549
 4875 128d 04       		.sleb128 4
 4876 128e 0C       		.uleb128 0xc
 4877 128f CF370000 		.4byte	.LASF550
 4878 1293 05       		.sleb128 5
 4879 1294 00       		.byte	0
 4880 1295 04       		.uleb128 0x4
 4881 1296 EB300000 		.4byte	.LASF551
 4882 129a 0C       		.byte	0xc
 4883 129b 4507     		.2byte	0x745
 4884 129d 67120000 		.4byte	0x1267
 4885 12a1 0D       		.uleb128 0xd
 4886 12a2 01       		.byte	0x1
 4887 12a3 0C       		.byte	0xc
 4888 12a4 7707     		.2byte	0x777
 4889 12a6 C3120000 		.4byte	0x12c3
 4890 12aa 0C       		.uleb128 0xc
 4891 12ab B4350000 		.4byte	.LASF552
 4892 12af 00       		.sleb128 0
 4893 12b0 0C       		.uleb128 0xc
 4894 12b1 DF1B0000 		.4byte	.LASF553
 4895 12b5 01       		.sleb128 1
 4896 12b6 0C       		.uleb128 0xc
 4897 12b7 17230000 		.4byte	.LASF554
 4898 12bb 02       		.sleb128 2
 4899 12bc 0C       		.uleb128 0xc
 4900 12bd 963B0000 		.4byte	.LASF555
 4901 12c1 03       		.sleb128 3
 4902 12c2 00       		.byte	0
 4903 12c3 13       		.uleb128 0x13
 4904 12c4 05       		.byte	0x5
 4905 12c5 0D       		.byte	0xd
 4906 12c6 1C       		.byte	0x1c
 4907 12c7 08130000 		.4byte	0x1308
 4908 12cb 14       		.uleb128 0x14
 4909 12cc 621D0000 		.4byte	.LASF556
 4910 12d0 0D       		.byte	0xd
 4911 12d1 1E       		.byte	0x1e
 4912 12d2 6B000000 		.4byte	0x6b
 4913 12d6 00       		.byte	0
 4914 12d7 14       		.uleb128 0x14
 4915 12d8 68070000 		.4byte	.LASF557
 4916 12dc 0D       		.byte	0xd
 4917 12dd 1F       		.byte	0x1f
 4918 12de 6B000000 		.4byte	0x6b
 4919 12e2 01       		.byte	0x1
 4920 12e3 14       		.uleb128 0x14
ARM GAS  C:\Users\Petro\AppData\Local\Temp\ccvLNIXl.s 			page 111


 4921 12e4 331A0000 		.4byte	.LASF558
 4922 12e8 0D       		.byte	0xd
 4923 12e9 20       		.byte	0x20
 4924 12ea 6B000000 		.4byte	0x6b
 4925 12ee 02       		.byte	0x2
 4926 12ef 14       		.uleb128 0x14
 4927 12f0 1C1D0000 		.4byte	.LASF559
 4928 12f4 0D       		.byte	0xd
 4929 12f5 21       		.byte	0x21
 4930 12f6 6B000000 		.4byte	0x6b
 4931 12fa 03       		.byte	0x3
 4932 12fb 14       		.uleb128 0x14
 4933 12fc 8D1B0000 		.4byte	.LASF560
 4934 1300 0D       		.byte	0xd
 4935 1301 22       		.byte	0x22
 4936 1302 6B000000 		.4byte	0x6b
 4937 1306 04       		.byte	0x4
 4938 1307 00       		.byte	0
 4939 1308 08       		.uleb128 0x8
 4940 1309 8F280000 		.4byte	.LASF561
 4941 130d 0D       		.byte	0xd
 4942 130e 23       		.byte	0x23
 4943 130f C3120000 		.4byte	0x12c3
 4944 1313 13       		.uleb128 0x13
 4945 1314 14       		.byte	0x14
 4946 1315 0D       		.byte	0xd
 4947 1316 35       		.byte	0x35
 4948 1317 B8130000 		.4byte	0x13b8
 4949 131b 14       		.uleb128 0x14
 4950 131c 47100000 		.4byte	.LASF562
 4951 1320 0D       		.byte	0xd
 4952 1321 37       		.byte	0x37
 4953 1322 6B000000 		.4byte	0x6b
 4954 1326 00       		.byte	0
 4955 1327 14       		.uleb128 0x14
 4956 1328 FD090000 		.4byte	.LASF563
 4957 132c 0D       		.byte	0xd
 4958 132d 38       		.byte	0x38
 4959 132e 6B000000 		.4byte	0x6b
 4960 1332 01       		.byte	0x1
 4961 1333 14       		.uleb128 0x14
 4962 1334 1C1D0000 		.4byte	.LASF559
 4963 1338 0D       		.byte	0xd
 4964 1339 39       		.byte	0x39
 4965 133a 6B000000 		.4byte	0x6b
 4966 133e 02       		.byte	0x2
 4967 133f 14       		.uleb128 0x14
 4968 1340 18000000 		.4byte	.LASF564
 4969 1344 0D       		.byte	0xd
 4970 1345 3A       		.byte	0x3a
 4971 1346 6B000000 		.4byte	0x6b
 4972 134a 03       		.byte	0x3
 4973 134b 14       		.uleb128 0x14
 4974 134c FD1B0000 		.4byte	.LASF565
 4975 1350 0D       		.byte	0xd
 4976 1351 3B       		.byte	0x3b
 4977 1352 6B000000 		.4byte	0x6b
ARM GAS  C:\Users\Petro\AppData\Local\Temp\ccvLNIXl.s 			page 112


 4978 1356 04       		.byte	0x4
 4979 1357 14       		.uleb128 0x14
 4980 1358 23010000 		.4byte	.LASF566
 4981 135c 0D       		.byte	0xd
 4982 135d 3C       		.byte	0x3c
 4983 135e 6B000000 		.4byte	0x6b
 4984 1362 05       		.byte	0x5
 4985 1363 14       		.uleb128 0x14
 4986 1364 59180000 		.4byte	.LASF567
 4987 1368 0D       		.byte	0xd
 4988 1369 3D       		.byte	0x3d
 4989 136a 6B000000 		.4byte	0x6b
 4990 136e 06       		.byte	0x6
 4991 136f 14       		.uleb128 0x14
 4992 1370 D61B0000 		.4byte	.LASF568
 4993 1374 0D       		.byte	0xd
 4994 1375 3E       		.byte	0x3e
 4995 1376 6B000000 		.4byte	0x6b
 4996 137a 07       		.byte	0x7
 4997 137b 14       		.uleb128 0x14
 4998 137c 92220000 		.4byte	.LASF569
 4999 1380 0D       		.byte	0xd
 5000 1381 3F       		.byte	0x3f
 5001 1382 77000000 		.4byte	0x77
 5002 1386 08       		.byte	0x8
 5003 1387 14       		.uleb128 0x14
 5004 1388 CC000000 		.4byte	.LASF570
 5005 138c 0D       		.byte	0xd
 5006 138d 40       		.byte	0x40
 5007 138e 77000000 		.4byte	0x77
 5008 1392 0A       		.byte	0xa
 5009 1393 14       		.uleb128 0x14
 5010 1394 47270000 		.4byte	.LASF571
 5011 1398 0D       		.byte	0xd
 5012 1399 41       		.byte	0x41
 5013 139a 77000000 		.4byte	0x77
 5014 139e 0C       		.byte	0xc
 5015 139f 14       		.uleb128 0x14
 5016 13a0 60190000 		.4byte	.LASF572
 5017 13a4 0D       		.byte	0xd
 5018 13a5 42       		.byte	0x42
 5019 13a6 77000000 		.4byte	0x77
 5020 13aa 0E       		.byte	0xe
 5021 13ab 14       		.uleb128 0x14
 5022 13ac 8D1B0000 		.4byte	.LASF560
 5023 13b0 0D       		.byte	0xd
 5024 13b1 43       		.byte	0x43
 5025 13b2 B8130000 		.4byte	0x13b8
 5026 13b6 10       		.byte	0x10
 5027 13b7 00       		.byte	0
 5028 13b8 10       		.uleb128 0x10
 5029 13b9 6B000000 		.4byte	0x6b
 5030 13bd C8130000 		.4byte	0x13c8
 5031 13c1 11       		.uleb128 0x11
 5032 13c2 F0000000 		.4byte	0xf0
 5033 13c6 03       		.byte	0x3
 5034 13c7 00       		.byte	0
ARM GAS  C:\Users\Petro\AppData\Local\Temp\ccvLNIXl.s 			page 113


 5035 13c8 08       		.uleb128 0x8
 5036 13c9 E70A0000 		.4byte	.LASF573
 5037 13cd 0D       		.byte	0xd
 5038 13ce 44       		.byte	0x44
 5039 13cf 13130000 		.4byte	0x1313
 5040 13d3 13       		.uleb128 0x13
 5041 13d4 04       		.byte	0x4
 5042 13d5 0D       		.byte	0xd
 5043 13d6 57       		.byte	0x57
 5044 13d7 00140000 		.4byte	0x1400
 5045 13db 14       		.uleb128 0x14
 5046 13dc 93450000 		.4byte	.LASF574
 5047 13e0 0D       		.byte	0xd
 5048 13e1 59       		.byte	0x59
 5049 13e2 8B070000 		.4byte	0x78b
 5050 13e6 00       		.byte	0
 5051 13e7 14       		.uleb128 0x14
 5052 13e8 56440000 		.4byte	.LASF160
 5053 13ec 0D       		.byte	0xd
 5054 13ed 5A       		.byte	0x5a
 5055 13ee 6B000000 		.4byte	0x6b
 5056 13f2 02       		.byte	0x2
 5057 13f3 14       		.uleb128 0x14
 5058 13f4 47100000 		.4byte	.LASF562
 5059 13f8 0D       		.byte	0xd
 5060 13f9 5B       		.byte	0x5b
 5061 13fa 6B000000 		.4byte	0x6b
 5062 13fe 03       		.byte	0x3
 5063 13ff 00       		.byte	0
 5064 1400 08       		.uleb128 0x8
 5065 1401 7A2A0000 		.4byte	.LASF575
 5066 1405 0D       		.byte	0xd
 5067 1406 5C       		.byte	0x5c
 5068 1407 D3130000 		.4byte	0x13d3
 5069 140b 13       		.uleb128 0x13
 5070 140c 24       		.byte	0x24
 5071 140d 0D       		.byte	0xd
 5072 140e 5E       		.byte	0x5e
 5073 140f 44140000 		.4byte	0x1444
 5074 1413 14       		.uleb128 0x14
 5075 1414 99390000 		.4byte	.LASF576
 5076 1418 0D       		.byte	0xd
 5077 1419 60       		.byte	0x60
 5078 141a FC030000 		.4byte	0x3fc
 5079 141e 00       		.byte	0
 5080 141f 14       		.uleb128 0x14
 5081 1420 461B0000 		.4byte	.LASF577
 5082 1424 0D       		.byte	0xd
 5083 1425 61       		.byte	0x61
 5084 1426 00140000 		.4byte	0x1400
 5085 142a 07       		.byte	0x7
 5086 142b 14       		.uleb128 0x14
 5087 142c DF270000 		.4byte	.LASF578
 5088 1430 0D       		.byte	0xd
 5089 1431 62       		.byte	0x62
 5090 1432 08130000 		.4byte	0x1308
 5091 1436 0B       		.byte	0xb
ARM GAS  C:\Users\Petro\AppData\Local\Temp\ccvLNIXl.s 			page 114


 5092 1437 14       		.uleb128 0x14
 5093 1438 8F0B0000 		.4byte	.LASF579
 5094 143c 0D       		.byte	0xd
 5095 143d 63       		.byte	0x63
 5096 143e C8130000 		.4byte	0x13c8
 5097 1442 10       		.byte	0x10
 5098 1443 00       		.byte	0
 5099 1444 08       		.uleb128 0x8
 5100 1445 4E3F0000 		.4byte	.LASF580
 5101 1449 0D       		.byte	0xd
 5102 144a 64       		.byte	0x64
 5103 144b 0B140000 		.4byte	0x140b
 5104 144f 17       		.uleb128 0x17
 5105 1450 FA420000 		.4byte	.LASF583
 5106 1454 01       		.byte	0x1
 5107 1455 8201     		.2byte	0x182
 5108 1457 00000000 		.4byte	.LFB38
 5109 145b 50000000 		.4byte	.LFE38-.LFB38
 5110 145f 01       		.uleb128 0x1
 5111 1460 9C       		.byte	0x9c
 5112 1461 A9140000 		.4byte	0x14a9
 5113 1465 18       		.uleb128 0x18
 5114 1466 0A000000 		.4byte	.LBB2
 5115 146a 3A000000 		.4byte	.LBE2-.LBB2
 5116 146e 9F140000 		.4byte	0x149f
 5117 1472 19       		.uleb128 0x19
 5118 1473 6C656400 		.ascii	"led\000"
 5119 1477 01       		.byte	0x1
 5120 1478 8601     		.2byte	0x186
 5121 147a 6B000000 		.4byte	0x6b
 5122 147e 05       		.uleb128 0x5
 5123 147f 03       		.byte	0x3
 5124 1480 00000000 		.4byte	led.7669
 5125 1484 1A       		.uleb128 0x1a
 5126 1485 20000000 		.4byte	.LVL1
 5127 1489 22240000 		.4byte	0x2422
 5128 148d 1B       		.uleb128 0x1b
 5129 148e 44000000 		.4byte	.LVL2
 5130 1492 33240000 		.4byte	0x2433
 5131 1496 1C       		.uleb128 0x1c
 5132 1497 01       		.uleb128 0x1
 5133 1498 50       		.byte	0x50
 5134 1499 03       		.uleb128 0x3
 5135 149a 0A       		.byte	0xa
 5136 149b 0004     		.2byte	0x400
 5137 149d 00       		.byte	0
 5138 149e 00       		.byte	0
 5139 149f 1A       		.uleb128 0x1a
 5140 14a0 06000000 		.4byte	.LVL0
 5141 14a4 44240000 		.4byte	0x2444
 5142 14a8 00       		.byte	0
 5143 14a9 1D       		.uleb128 0x1d
 5144 14aa B40C0000 		.4byte	.LASF663
 5145 14ae 01       		.byte	0x1
 5146 14af F701     		.2byte	0x1f7
 5147 14b1 00000000 		.4byte	.LFB42
 5148 14b5 4C000000 		.4byte	.LFE42-.LFB42
ARM GAS  C:\Users\Petro\AppData\Local\Temp\ccvLNIXl.s 			page 115


 5149 14b9 01       		.uleb128 0x1
 5150 14ba 9C       		.byte	0x9c
 5151 14bb 39150000 		.4byte	0x1539
 5152 14bf 1E       		.uleb128 0x1e
 5153 14c0 B7400000 		.4byte	.LASF581
 5154 14c4 01       		.byte	0x1
 5155 14c5 F901     		.2byte	0x1f9
 5156 14c7 75030000 		.4byte	0x375
 5157 14cb 00000000 		.4byte	.LLST0
 5158 14cf 1E       		.uleb128 0x1e
 5159 14d0 511F0000 		.4byte	.LASF582
 5160 14d4 01       		.byte	0x1
 5161 14d5 FA01     		.2byte	0x1fa
 5162 14d7 6B000000 		.4byte	0x6b
 5163 14db 13000000 		.4byte	.LLST1
 5164 14df 1F       		.uleb128 0x1f
 5165 14e0 12000000 		.4byte	.LVL3
 5166 14e4 4F240000 		.4byte	0x244f
 5167 14e8 F2140000 		.4byte	0x14f2
 5168 14ec 1C       		.uleb128 0x1c
 5169 14ed 01       		.uleb128 0x1
 5170 14ee 50       		.byte	0x50
 5171 14ef 01       		.uleb128 0x1
 5172 14f0 33       		.byte	0x33
 5173 14f1 00       		.byte	0
 5174 14f2 1A       		.uleb128 0x1a
 5175 14f3 18000000 		.4byte	.LVL5
 5176 14f7 65240000 		.4byte	0x2465
 5177 14fb 1A       		.uleb128 0x1a
 5178 14fc 22000000 		.4byte	.LVL7
 5179 1500 70240000 		.4byte	0x2470
 5180 1504 1A       		.uleb128 0x1a
 5181 1505 2A000000 		.4byte	.LVL8
 5182 1509 70240000 		.4byte	0x2470
 5183 150d 1A       		.uleb128 0x1a
 5184 150e 32000000 		.4byte	.LVL9
 5185 1512 7C240000 		.4byte	0x247c
 5186 1516 1A       		.uleb128 0x1a
 5187 1517 38000000 		.4byte	.LVL10
 5188 151b 70240000 		.4byte	0x2470
 5189 151f 1A       		.uleb128 0x1a
 5190 1520 40000000 		.4byte	.LVL11
 5191 1524 7C240000 		.4byte	0x247c
 5192 1528 1B       		.uleb128 0x1b
 5193 1529 46000000 		.4byte	.LVL12
 5194 152d 83240000 		.4byte	0x2483
 5195 1531 1C       		.uleb128 0x1c
 5196 1532 01       		.uleb128 0x1
 5197 1533 50       		.byte	0x50
 5198 1534 02       		.uleb128 0x2
 5199 1535 74       		.byte	0x74
 5200 1536 00       		.sleb128 0
 5201 1537 00       		.byte	0
 5202 1538 00       		.byte	0
 5203 1539 17       		.uleb128 0x17
 5204 153a DB400000 		.4byte	.LASF584
 5205 153e 01       		.byte	0x1
ARM GAS  C:\Users\Petro\AppData\Local\Temp\ccvLNIXl.s 			page 116


 5206 153f A301     		.2byte	0x1a3
 5207 1541 00000000 		.4byte	.LFB39
 5208 1545 24000000 		.4byte	.LFE39-.LFB39
 5209 1549 01       		.uleb128 0x1
 5210 154a 9C       		.byte	0x9c
 5211 154b 72150000 		.4byte	0x1572
 5212 154f 1F       		.uleb128 0x1f
 5213 1550 10000000 		.4byte	.LVL13
 5214 1554 22240000 		.4byte	0x2422
 5215 1558 62150000 		.4byte	0x1562
 5216 155c 1C       		.uleb128 0x1c
 5217 155d 01       		.uleb128 0x1
 5218 155e 50       		.byte	0x50
 5219 155f 01       		.uleb128 0x1
 5220 1560 30       		.byte	0x30
 5221 1561 00       		.byte	0
 5222 1562 1B       		.uleb128 0x1b
 5223 1563 1C000000 		.4byte	.LVL14
 5224 1567 22240000 		.4byte	0x2422
 5225 156b 1C       		.uleb128 0x1c
 5226 156c 01       		.uleb128 0x1
 5227 156d 50       		.byte	0x50
 5228 156e 01       		.uleb128 0x1
 5229 156f 31       		.byte	0x31
 5230 1570 00       		.byte	0
 5231 1571 00       		.byte	0
 5232 1572 20       		.uleb128 0x20
 5233 1573 A03C0000 		.4byte	.LASF585
 5234 1577 01       		.byte	0x1
 5235 1578 3C       		.byte	0x3c
 5236 1579 00000000 		.4byte	.LFB37
 5237 157d 84050000 		.4byte	.LFE37-.LFB37
 5238 1581 01       		.uleb128 0x1
 5239 1582 9C       		.byte	0x9c
 5240 1583 711D0000 		.4byte	0x1d71
 5241 1587 21       		.uleb128 0x21
 5242 1588 1E210000 		.4byte	.LASF586
 5243 158c 01       		.byte	0x1
 5244 158d 3C       		.byte	0x3c
 5245 158e 83000000 		.4byte	0x83
 5246 1592 26000000 		.4byte	.LLST2
 5247 1596 21       		.uleb128 0x21
 5248 1597 B8020000 		.4byte	.LASF587
 5249 159b 01       		.byte	0x1
 5250 159c 3C       		.byte	0x3c
 5251 159d F7000000 		.4byte	0xf7
 5252 15a1 69040000 		.4byte	.LLST3
 5253 15a5 22       		.uleb128 0x22
 5254 15a6 AE360000 		.4byte	.LASF588
 5255 15aa 01       		.byte	0x1
 5256 15ab 3E       		.byte	0x3e
 5257 15ac 40030000 		.4byte	0x340
 5258 15b0 F9040000 		.4byte	.LLST4
 5259 15b4 22       		.uleb128 0x22
 5260 15b5 943C0000 		.4byte	.LASF589
 5261 15b9 01       		.byte	0x1
 5262 15ba 3F       		.byte	0x3f
ARM GAS  C:\Users\Petro\AppData\Local\Temp\ccvLNIXl.s 			page 117


 5263 15bb 711D0000 		.4byte	0x1d71
 5264 15bf 22050000 		.4byte	.LLST5
 5265 15c3 22       		.uleb128 0x22
 5266 15c4 14210000 		.4byte	.LASF590
 5267 15c8 01       		.byte	0x1
 5268 15c9 40       		.byte	0x40
 5269 15ca 771D0000 		.4byte	0x1d77
 5270 15ce 44050000 		.4byte	.LLST6
 5271 15d2 22       		.uleb128 0x22
 5272 15d3 00070000 		.4byte	.LASF591
 5273 15d7 01       		.byte	0x1
 5274 15d8 41       		.byte	0x41
 5275 15d9 7D1D0000 		.4byte	0x1d7d
 5276 15dd 57050000 		.4byte	.LLST7
 5277 15e1 22       		.uleb128 0x22
 5278 15e2 673F0000 		.4byte	.LASF592
 5279 15e6 01       		.byte	0x1
 5280 15e7 42       		.byte	0x42
 5281 15e8 6B000000 		.4byte	0x6b
 5282 15ec 6A050000 		.4byte	.LLST8
 5283 15f0 22       		.uleb128 0x22
 5284 15f1 AA070000 		.4byte	.LASF123
 5285 15f5 01       		.byte	0x1
 5286 15f6 43       		.byte	0x43
 5287 15f7 6B000000 		.4byte	0x6b
 5288 15fb B9050000 		.4byte	.LLST9
 5289 15ff 23       		.uleb128 0x23
 5290 1600 6900     		.ascii	"i\000"
 5291 1602 01       		.byte	0x1
 5292 1603 44       		.byte	0x44
 5293 1604 77000000 		.4byte	0x77
 5294 1608 CC050000 		.4byte	.LLST10
 5295 160c 22       		.uleb128 0x22
 5296 160d B4310000 		.4byte	.LASF255
 5297 1611 01       		.byte	0x1
 5298 1612 45       		.byte	0x45
 5299 1613 77000000 		.4byte	0x77
 5300 1617 D8060000 		.4byte	.LLST11
 5301 161b 22       		.uleb128 0x22
 5302 161c 550E0000 		.4byte	.LASF593
 5303 1620 01       		.byte	0x1
 5304 1621 46       		.byte	0x46
 5305 1622 6B050000 		.4byte	0x56b
 5306 1626 EB060000 		.4byte	.LLST12
 5307 162a 18       		.uleb128 0x18
 5308 162b 64000000 		.4byte	.LBB3
 5309 162f D0000000 		.4byte	.LBE3-.LBB3
 5310 1633 7E170000 		.4byte	0x177e
 5311 1637 24       		.uleb128 0x24
 5312 1638 4E250000 		.4byte	.LASF594
 5313 163c 01       		.byte	0x1
 5314 163d 65       		.byte	0x65
 5315 163e 00140000 		.4byte	0x1400
 5316 1642 02       		.uleb128 0x2
 5317 1643 91       		.byte	0x91
 5318 1644 64       		.sleb128 -28
 5319 1645 1F       		.uleb128 0x1f
ARM GAS  C:\Users\Petro\AppData\Local\Temp\ccvLNIXl.s 			page 118


 5320 1646 6C000000 		.4byte	.LVL38
 5321 164a 94240000 		.4byte	0x2494
 5322 164e 5F160000 		.4byte	0x165f
 5323 1652 1C       		.uleb128 0x1c
 5324 1653 01       		.uleb128 0x1
 5325 1654 51       		.byte	0x51
 5326 1655 02       		.uleb128 0x2
 5327 1656 91       		.byte	0x91
 5328 1657 64       		.sleb128 -28
 5329 1658 1C       		.uleb128 0x1c
 5330 1659 01       		.uleb128 0x1
 5331 165a 50       		.byte	0x50
 5332 165b 02       		.uleb128 0x2
 5333 165c 74       		.byte	0x74
 5334 165d 00       		.sleb128 0
 5335 165e 00       		.byte	0
 5336 165f 1F       		.uleb128 0x1f
 5337 1660 7C000000 		.4byte	.LVL39
 5338 1664 B4240000 		.4byte	0x24b4
 5339 1668 76160000 		.4byte	0x1676
 5340 166c 1C       		.uleb128 0x1c
 5341 166d 01       		.uleb128 0x1
 5342 166e 50       		.byte	0x50
 5343 166f 05       		.uleb128 0x5
 5344 1670 03       		.byte	0x3
 5345 1671 A0000000 		.4byte	.LC18
 5346 1675 00       		.byte	0
 5347 1676 1F       		.uleb128 0x1f
 5348 1677 82000000 		.4byte	.LVL40
 5349 167b B4240000 		.4byte	0x24b4
 5350 167f 8D160000 		.4byte	0x168d
 5351 1683 1C       		.uleb128 0x1c
 5352 1684 01       		.uleb128 0x1
 5353 1685 50       		.byte	0x50
 5354 1686 05       		.uleb128 0x5
 5355 1687 03       		.byte	0x3
 5356 1688 DC000000 		.4byte	.LC20
 5357 168c 00       		.byte	0
 5358 168d 1F       		.uleb128 0x1f
 5359 168e 98000000 		.4byte	.LVL42
 5360 1692 CA240000 		.4byte	0x24ca
 5361 1696 B3160000 		.4byte	0x16b3
 5362 169a 1C       		.uleb128 0x1c
 5363 169b 01       		.uleb128 0x1
 5364 169c 52       		.byte	0x52
 5365 169d 01       		.uleb128 0x1
 5366 169e 36       		.byte	0x36
 5367 169f 1C       		.uleb128 0x1c
 5368 16a0 01       		.uleb128 0x1
 5369 16a1 50       		.byte	0x50
 5370 16a2 0F       		.uleb128 0xf
 5371 16a3 75       		.byte	0x75
 5372 16a4 00       		.sleb128 0
 5373 16a5 33       		.byte	0x33
 5374 16a6 24       		.byte	0x24
 5375 16a7 75       		.byte	0x75
 5376 16a8 00       		.sleb128 0
ARM GAS  C:\Users\Petro\AppData\Local\Temp\ccvLNIXl.s 			page 119


 5377 16a9 22       		.byte	0x22
 5378 16aa 32       		.byte	0x32
 5379 16ab 24       		.byte	0x24
 5380 16ac 03       		.byte	0x3
 5381 16ad 00000000 		.4byte	peedDeviceInfo
 5382 16b1 22       		.byte	0x22
 5383 16b2 00       		.byte	0
 5384 16b3 1F       		.uleb128 0x1f
 5385 16b4 A4000000 		.4byte	.LVL43
 5386 16b8 B4240000 		.4byte	0x24b4
 5387 16bc D0160000 		.4byte	0x16d0
 5388 16c0 1C       		.uleb128 0x1c
 5389 16c1 01       		.uleb128 0x1
 5390 16c2 51       		.byte	0x51
 5391 16c3 02       		.uleb128 0x2
 5392 16c4 75       		.byte	0x75
 5393 16c5 00       		.sleb128 0
 5394 16c6 1C       		.uleb128 0x1c
 5395 16c7 01       		.uleb128 0x1
 5396 16c8 50       		.byte	0x50
 5397 16c9 05       		.uleb128 0x5
 5398 16ca 03       		.byte	0x3
 5399 16cb EC000000 		.4byte	.LC23
 5400 16cf 00       		.byte	0
 5401 16d0 1F       		.uleb128 0x1f
 5402 16d1 D6000000 		.4byte	.LVL50
 5403 16d5 F0240000 		.4byte	0x24f0
 5404 16d9 E9160000 		.4byte	0x16e9
 5405 16dd 1C       		.uleb128 0x1c
 5406 16de 01       		.uleb128 0x1
 5407 16df 52       		.byte	0x52
 5408 16e0 01       		.uleb128 0x1
 5409 16e1 36       		.byte	0x36
 5410 16e2 1C       		.uleb128 0x1c
 5411 16e3 01       		.uleb128 0x1
 5412 16e4 50       		.byte	0x50
 5413 16e5 02       		.uleb128 0x2
 5414 16e6 76       		.byte	0x76
 5415 16e7 00       		.sleb128 0
 5416 16e8 00       		.byte	0
 5417 16e9 1F       		.uleb128 0x1f
 5418 16ea E4000000 		.4byte	.LVL51
 5419 16ee F0240000 		.4byte	0x24f0
 5420 16f2 08170000 		.4byte	0x1708
 5421 16f6 1C       		.uleb128 0x1c
 5422 16f7 01       		.uleb128 0x1
 5423 16f8 52       		.byte	0x52
 5424 16f9 01       		.uleb128 0x1
 5425 16fa 34       		.byte	0x34
 5426 16fb 1C       		.uleb128 0x1c
 5427 16fc 01       		.uleb128 0x1
 5428 16fd 51       		.byte	0x51
 5429 16fe 02       		.uleb128 0x2
 5430 16ff 91       		.byte	0x91
 5431 1700 64       		.sleb128 -28
 5432 1701 1C       		.uleb128 0x1c
 5433 1702 01       		.uleb128 0x1
ARM GAS  C:\Users\Petro\AppData\Local\Temp\ccvLNIXl.s 			page 120


 5434 1703 50       		.byte	0x50
 5435 1704 02       		.uleb128 0x2
 5436 1705 76       		.byte	0x76
 5437 1706 07       		.sleb128 7
 5438 1707 00       		.byte	0
 5439 1708 1F       		.uleb128 0x1f
 5440 1709 EC000000 		.4byte	.LVL52
 5441 170d B4240000 		.4byte	0x24b4
 5442 1711 25170000 		.4byte	0x1725
 5443 1715 1C       		.uleb128 0x1c
 5444 1716 01       		.uleb128 0x1
 5445 1717 51       		.byte	0x51
 5446 1718 02       		.uleb128 0x2
 5447 1719 75       		.byte	0x75
 5448 171a 00       		.sleb128 0
 5449 171b 1C       		.uleb128 0x1c
 5450 171c 01       		.uleb128 0x1
 5451 171d 50       		.byte	0x50
 5452 171e 05       		.uleb128 0x5
 5453 171f 03       		.byte	0x3
 5454 1720 EC000000 		.4byte	.LC23
 5455 1724 00       		.byte	0
 5456 1725 1F       		.uleb128 0x1f
 5457 1726 06010000 		.4byte	.LVL54
 5458 172a B4240000 		.4byte	0x24b4
 5459 172e 3C170000 		.4byte	0x173c
 5460 1732 1C       		.uleb128 0x1c
 5461 1733 01       		.uleb128 0x1
 5462 1734 50       		.byte	0x50
 5463 1735 05       		.uleb128 0x5
 5464 1736 03       		.byte	0x3
 5465 1737 F4000000 		.4byte	.LC26
 5466 173b 00       		.byte	0
 5467 173c 1F       		.uleb128 0x1f
 5468 173d 18010000 		.4byte	.LVL57
 5469 1741 B4240000 		.4byte	0x24b4
 5470 1745 53170000 		.4byte	0x1753
 5471 1749 1C       		.uleb128 0x1c
 5472 174a 01       		.uleb128 0x1
 5473 174b 50       		.byte	0x50
 5474 174c 05       		.uleb128 0x5
 5475 174d 03       		.byte	0x3
 5476 174e FC000000 		.4byte	.LC28
 5477 1752 00       		.byte	0
 5478 1753 1F       		.uleb128 0x1f
 5479 1754 24010000 		.4byte	.LVL59
 5480 1758 B4240000 		.4byte	0x24b4
 5481 175c 6A170000 		.4byte	0x176a
 5482 1760 1C       		.uleb128 0x1c
 5483 1761 01       		.uleb128 0x1
 5484 1762 50       		.byte	0x50
 5485 1763 05       		.uleb128 0x5
 5486 1764 03       		.byte	0x3
 5487 1765 18010000 		.4byte	.LC30
 5488 1769 00       		.byte	0
 5489 176a 1B       		.uleb128 0x1b
 5490 176b 34010000 		.4byte	.LVL62
ARM GAS  C:\Users\Petro\AppData\Local\Temp\ccvLNIXl.s 			page 121


 5491 176f 0D250000 		.4byte	0x250d
 5492 1773 1C       		.uleb128 0x1c
 5493 1774 01       		.uleb128 0x1
 5494 1775 50       		.byte	0x50
 5495 1776 05       		.uleb128 0x5
 5496 1777 03       		.byte	0x3
 5497 1778 20010000 		.4byte	.LC32
 5498 177c 00       		.byte	0
 5499 177d 00       		.byte	0
 5500 177e 1F       		.uleb128 0x1f
 5501 177f 24000000 		.4byte	.LVL19
 5502 1783 0D250000 		.4byte	0x250d
 5503 1787 95170000 		.4byte	0x1795
 5504 178b 1C       		.uleb128 0x1c
 5505 178c 01       		.uleb128 0x1
 5506 178d 50       		.byte	0x50
 5507 178e 05       		.uleb128 0x5
 5508 178f 03       		.byte	0x3
 5509 1790 00000000 		.4byte	.LC5
 5510 1794 00       		.byte	0
 5511 1795 1F       		.uleb128 0x1f
 5512 1796 2A000000 		.4byte	.LVL20
 5513 179a 26250000 		.4byte	0x2526
 5514 179e A8170000 		.4byte	0x17a8
 5515 17a2 1C       		.uleb128 0x1c
 5516 17a3 01       		.uleb128 0x1
 5517 17a4 50       		.byte	0x50
 5518 17a5 01       		.uleb128 0x1
 5519 17a6 30       		.byte	0x30
 5520 17a7 00       		.byte	0
 5521 17a8 1F       		.uleb128 0x1f
 5522 17a9 36000000 		.4byte	.LVL23
 5523 17ad B4240000 		.4byte	0x24b4
 5524 17b1 BF170000 		.4byte	0x17bf
 5525 17b5 1C       		.uleb128 0x1c
 5526 17b6 01       		.uleb128 0x1
 5527 17b7 50       		.byte	0x50
 5528 17b8 05       		.uleb128 0x5
 5529 17b9 03       		.byte	0x3
 5530 17ba 10000000 		.4byte	.LC7
 5531 17be 00       		.byte	0
 5532 17bf 1F       		.uleb128 0x1f
 5533 17c0 40000000 		.4byte	.LVL26
 5534 17c4 B4240000 		.4byte	0x24b4
 5535 17c8 D6170000 		.4byte	0x17d6
 5536 17cc 1C       		.uleb128 0x1c
 5537 17cd 01       		.uleb128 0x1
 5538 17ce 50       		.byte	0x50
 5539 17cf 05       		.uleb128 0x5
 5540 17d0 03       		.byte	0x3
 5541 17d1 2C000000 		.4byte	.LC9
 5542 17d5 00       		.byte	0
 5543 17d6 1F       		.uleb128 0x1f
 5544 17d7 4A000000 		.4byte	.LVL29
 5545 17db B4240000 		.4byte	0x24b4
 5546 17df ED170000 		.4byte	0x17ed
 5547 17e3 1C       		.uleb128 0x1c
ARM GAS  C:\Users\Petro\AppData\Local\Temp\ccvLNIXl.s 			page 122


 5548 17e4 01       		.uleb128 0x1
 5549 17e5 50       		.byte	0x50
 5550 17e6 05       		.uleb128 0x5
 5551 17e7 03       		.byte	0x3
 5552 17e8 48000000 		.4byte	.LC11
 5553 17ec 00       		.byte	0
 5554 17ed 1F       		.uleb128 0x1f
 5555 17ee 54000000 		.4byte	.LVL32
 5556 17f2 B4240000 		.4byte	0x24b4
 5557 17f6 04180000 		.4byte	0x1804
 5558 17fa 1C       		.uleb128 0x1c
 5559 17fb 01       		.uleb128 0x1
 5560 17fc 50       		.byte	0x50
 5561 17fd 05       		.uleb128 0x5
 5562 17fe 03       		.byte	0x3
 5563 17ff 60000000 		.4byte	.LC13
 5564 1803 00       		.byte	0
 5565 1804 1F       		.uleb128 0x1f
 5566 1805 62000000 		.4byte	.LVL35
 5567 1809 B4240000 		.4byte	0x24b4
 5568 180d 1B180000 		.4byte	0x181b
 5569 1811 1C       		.uleb128 0x1c
 5570 1812 01       		.uleb128 0x1
 5571 1813 50       		.byte	0x50
 5572 1814 05       		.uleb128 0x5
 5573 1815 03       		.byte	0x3
 5574 1816 7C000000 		.4byte	.LC16
 5575 181a 00       		.byte	0
 5576 181b 1F       		.uleb128 0x1f
 5577 181c 40010000 		.4byte	.LVL66
 5578 1820 B4240000 		.4byte	0x24b4
 5579 1824 32180000 		.4byte	0x1832
 5580 1828 1C       		.uleb128 0x1c
 5581 1829 01       		.uleb128 0x1
 5582 182a 50       		.byte	0x50
 5583 182b 05       		.uleb128 0x5
 5584 182c 03       		.byte	0x3
 5585 182d 24010000 		.4byte	.LC34
 5586 1831 00       		.byte	0
 5587 1832 1F       		.uleb128 0x1f
 5588 1833 56010000 		.4byte	.LVL67
 5589 1837 0D250000 		.4byte	0x250d
 5590 183b 49180000 		.4byte	0x1849
 5591 183f 1C       		.uleb128 0x1c
 5592 1840 01       		.uleb128 0x1
 5593 1841 50       		.byte	0x50
 5594 1842 05       		.uleb128 0x5
 5595 1843 03       		.byte	0x3
 5596 1844 50010000 		.4byte	.LC37
 5597 1848 00       		.byte	0
 5598 1849 1A       		.uleb128 0x1a
 5599 184a 6E010000 		.4byte	.LVL68
 5600 184e 3C250000 		.4byte	0x253c
 5601 1852 1F       		.uleb128 0x1f
 5602 1853 7A010000 		.4byte	.LVL71
 5603 1857 B4240000 		.4byte	0x24b4
 5604 185b 69180000 		.4byte	0x1869
ARM GAS  C:\Users\Petro\AppData\Local\Temp\ccvLNIXl.s 			page 123


 5605 185f 1C       		.uleb128 0x1c
 5606 1860 01       		.uleb128 0x1
 5607 1861 50       		.byte	0x50
 5608 1862 05       		.uleb128 0x5
 5609 1863 03       		.byte	0x3
 5610 1864 64010000 		.4byte	.LC40
 5611 1868 00       		.byte	0
 5612 1869 1F       		.uleb128 0x1f
 5613 186a 82010000 		.4byte	.LVL72
 5614 186e 0D250000 		.4byte	0x250d
 5615 1872 80180000 		.4byte	0x1880
 5616 1876 1C       		.uleb128 0x1c
 5617 1877 01       		.uleb128 0x1
 5618 1878 50       		.byte	0x50
 5619 1879 05       		.uleb128 0x5
 5620 187a 03       		.byte	0x3
 5621 187b 84010000 		.4byte	.LC42
 5622 187f 00       		.byte	0
 5623 1880 1A       		.uleb128 0x1a
 5624 1881 86010000 		.4byte	.LVL73
 5625 1885 39150000 		.4byte	0x1539
 5626 1889 1A       		.uleb128 0x1a
 5627 188a 8A010000 		.4byte	.LVL74
 5628 188e 5D250000 		.4byte	0x255d
 5629 1892 1A       		.uleb128 0x1a
 5630 1893 A2010000 		.4byte	.LVL75
 5631 1897 69250000 		.4byte	0x2569
 5632 189b 1A       		.uleb128 0x1a
 5633 189c A6010000 		.4byte	.LVL76
 5634 18a0 74250000 		.4byte	0x2574
 5635 18a4 1A       		.uleb128 0x1a
 5636 18a5 AA010000 		.4byte	.LVL77
 5637 18a9 7B250000 		.4byte	0x257b
 5638 18ad 1A       		.uleb128 0x1a
 5639 18ae AE010000 		.4byte	.LVL78
 5640 18b2 82250000 		.4byte	0x2582
 5641 18b6 1F       		.uleb128 0x1f
 5642 18b7 C0010000 		.4byte	.LVL81
 5643 18bb B4240000 		.4byte	0x24b4
 5644 18bf CD180000 		.4byte	0x18cd
 5645 18c3 1C       		.uleb128 0x1c
 5646 18c4 01       		.uleb128 0x1
 5647 18c5 50       		.byte	0x50
 5648 18c6 05       		.uleb128 0x5
 5649 18c7 03       		.byte	0x3
 5650 18c8 90010000 		.4byte	.LC44
 5651 18cc 00       		.byte	0
 5652 18cd 1F       		.uleb128 0x1f
 5653 18ce CA010000 		.4byte	.LVL84
 5654 18d2 B4240000 		.4byte	0x24b4
 5655 18d6 E4180000 		.4byte	0x18e4
 5656 18da 1C       		.uleb128 0x1c
 5657 18db 01       		.uleb128 0x1
 5658 18dc 50       		.byte	0x50
 5659 18dd 05       		.uleb128 0x5
 5660 18de 03       		.byte	0x3
 5661 18df D4010000 		.4byte	.LC46
ARM GAS  C:\Users\Petro\AppData\Local\Temp\ccvLNIXl.s 			page 124


 5662 18e3 00       		.byte	0
 5663 18e4 1F       		.uleb128 0x1f
 5664 18e5 D8010000 		.4byte	.LVL88
 5665 18e9 F0240000 		.4byte	0x24f0
 5666 18ed 03190000 		.4byte	0x1903
 5667 18f1 1C       		.uleb128 0x1c
 5668 18f2 01       		.uleb128 0x1
 5669 18f3 52       		.byte	0x52
 5670 18f4 01       		.uleb128 0x1
 5671 18f5 38       		.byte	0x38
 5672 18f6 1C       		.uleb128 0x1c
 5673 18f7 01       		.uleb128 0x1
 5674 18f8 51       		.byte	0x51
 5675 18f9 02       		.uleb128 0x2
 5676 18fa 74       		.byte	0x74
 5677 18fb 00       		.sleb128 0
 5678 18fc 1C       		.uleb128 0x1c
 5679 18fd 01       		.uleb128 0x1
 5680 18fe 50       		.byte	0x50
 5681 18ff 02       		.uleb128 0x2
 5682 1900 75       		.byte	0x75
 5683 1901 00       		.sleb128 0
 5684 1902 00       		.byte	0
 5685 1903 1F       		.uleb128 0x1f
 5686 1904 F0010000 		.4byte	.LVL90
 5687 1908 B4240000 		.4byte	0x24b4
 5688 190c 21190000 		.4byte	0x1921
 5689 1910 1C       		.uleb128 0x1c
 5690 1911 01       		.uleb128 0x1
 5691 1912 50       		.byte	0x50
 5692 1913 05       		.uleb128 0x5
 5693 1914 03       		.byte	0x3
 5694 1915 E8010000 		.4byte	.LC49
 5695 1919 1C       		.uleb128 0x1c
 5696 191a 02       		.uleb128 0x2
 5697 191b 7D       		.byte	0x7d
 5698 191c 00       		.sleb128 0
 5699 191d 02       		.uleb128 0x2
 5700 191e 74       		.byte	0x74
 5701 191f 00       		.sleb128 0
 5702 1920 00       		.byte	0
 5703 1921 1A       		.uleb128 0x1a
 5704 1922 FA010000 		.4byte	.LVL91
 5705 1926 39150000 		.4byte	0x1539
 5706 192a 1A       		.uleb128 0x1a
 5707 192b 14020000 		.4byte	.LVL92
 5708 192f 89250000 		.4byte	0x2589
 5709 1933 1F       		.uleb128 0x1f
 5710 1934 1E020000 		.4byte	.LVL93
 5711 1938 B4240000 		.4byte	0x24b4
 5712 193c 4A190000 		.4byte	0x194a
 5713 1940 1C       		.uleb128 0x1c
 5714 1941 01       		.uleb128 0x1
 5715 1942 50       		.byte	0x50
 5716 1943 05       		.uleb128 0x5
 5717 1944 03       		.byte	0x3
 5718 1945 24020000 		.4byte	.LC52
ARM GAS  C:\Users\Petro\AppData\Local\Temp\ccvLNIXl.s 			page 125


 5719 1949 00       		.byte	0
 5720 194a 1F       		.uleb128 0x1f
 5721 194b 4A020000 		.4byte	.LVL95
 5722 194f B4240000 		.4byte	0x24b4
 5723 1953 61190000 		.4byte	0x1961
 5724 1957 1C       		.uleb128 0x1c
 5725 1958 01       		.uleb128 0x1
 5726 1959 50       		.byte	0x50
 5727 195a 05       		.uleb128 0x5
 5728 195b 03       		.byte	0x3
 5729 195c 30020000 		.4byte	.LC54
 5730 1960 00       		.byte	0
 5731 1961 1F       		.uleb128 0x1f
 5732 1962 58020000 		.4byte	.LVL98
 5733 1966 0D250000 		.4byte	0x250d
 5734 196a 78190000 		.4byte	0x1978
 5735 196e 1C       		.uleb128 0x1c
 5736 196f 01       		.uleb128 0x1
 5737 1970 50       		.byte	0x50
 5738 1971 05       		.uleb128 0x5
 5739 1972 03       		.byte	0x3
 5740 1973 20010000 		.4byte	.LC32
 5741 1977 00       		.byte	0
 5742 1978 1F       		.uleb128 0x1f
 5743 1979 6E020000 		.4byte	.LVL102
 5744 197d 0D250000 		.4byte	0x250d
 5745 1981 8F190000 		.4byte	0x198f
 5746 1985 1C       		.uleb128 0x1c
 5747 1986 01       		.uleb128 0x1
 5748 1987 50       		.byte	0x50
 5749 1988 05       		.uleb128 0x5
 5750 1989 03       		.byte	0x3
 5751 198a 48020000 		.4byte	.LC56
 5752 198e 00       		.byte	0
 5753 198f 1F       		.uleb128 0x1f
 5754 1990 74020000 		.4byte	.LVL103
 5755 1994 26250000 		.4byte	0x2526
 5756 1998 A2190000 		.4byte	0x19a2
 5757 199c 1C       		.uleb128 0x1c
 5758 199d 01       		.uleb128 0x1
 5759 199e 50       		.byte	0x50
 5760 199f 01       		.uleb128 0x1
 5761 19a0 30       		.byte	0x30
 5762 19a1 00       		.byte	0
 5763 19a2 1F       		.uleb128 0x1f
 5764 19a3 7E020000 		.4byte	.LVL106
 5765 19a7 B4240000 		.4byte	0x24b4
 5766 19ab B9190000 		.4byte	0x19b9
 5767 19af 1C       		.uleb128 0x1c
 5768 19b0 01       		.uleb128 0x1
 5769 19b1 50       		.byte	0x50
 5770 19b2 05       		.uleb128 0x5
 5771 19b3 03       		.byte	0x3
 5772 19b4 10000000 		.4byte	.LC7
 5773 19b8 00       		.byte	0
 5774 19b9 1F       		.uleb128 0x1f
 5775 19ba 94020000 		.4byte	.LVL109
ARM GAS  C:\Users\Petro\AppData\Local\Temp\ccvLNIXl.s 			page 126


 5776 19be B4240000 		.4byte	0x24b4
 5777 19c2 D0190000 		.4byte	0x19d0
 5778 19c6 1C       		.uleb128 0x1c
 5779 19c7 01       		.uleb128 0x1
 5780 19c8 50       		.byte	0x50
 5781 19c9 05       		.uleb128 0x5
 5782 19ca 03       		.byte	0x3
 5783 19cb 60020000 		.4byte	.LC59
 5784 19cf 00       		.byte	0
 5785 19d0 1F       		.uleb128 0x1f
 5786 19d1 A2020000 		.4byte	.LVL113
 5787 19d5 F0240000 		.4byte	0x24f0
 5788 19d9 EF190000 		.4byte	0x19ef
 5789 19dd 1C       		.uleb128 0x1c
 5790 19de 01       		.uleb128 0x1
 5791 19df 52       		.byte	0x52
 5792 19e0 01       		.uleb128 0x1
 5793 19e1 38       		.byte	0x38
 5794 19e2 1C       		.uleb128 0x1c
 5795 19e3 01       		.uleb128 0x1
 5796 19e4 51       		.byte	0x51
 5797 19e5 02       		.uleb128 0x2
 5798 19e6 74       		.byte	0x74
 5799 19e7 00       		.sleb128 0
 5800 19e8 1C       		.uleb128 0x1c
 5801 19e9 01       		.uleb128 0x1
 5802 19ea 50       		.byte	0x50
 5803 19eb 02       		.uleb128 0x2
 5804 19ec 75       		.byte	0x75
 5805 19ed 00       		.sleb128 0
 5806 19ee 00       		.byte	0
 5807 19ef 1F       		.uleb128 0x1f
 5808 19f0 BA020000 		.4byte	.LVL115
 5809 19f4 B4240000 		.4byte	0x24b4
 5810 19f8 0D1A0000 		.4byte	0x1a0d
 5811 19fc 1C       		.uleb128 0x1c
 5812 19fd 01       		.uleb128 0x1
 5813 19fe 50       		.byte	0x50
 5814 19ff 05       		.uleb128 0x5
 5815 1a00 03       		.byte	0x3
 5816 1a01 78020000 		.4byte	.LC61
 5817 1a05 1C       		.uleb128 0x1c
 5818 1a06 02       		.uleb128 0x2
 5819 1a07 7D       		.byte	0x7d
 5820 1a08 00       		.sleb128 0
 5821 1a09 02       		.uleb128 0x2
 5822 1a0a 74       		.byte	0x74
 5823 1a0b 00       		.sleb128 0
 5824 1a0c 00       		.byte	0
 5825 1a0d 1F       		.uleb128 0x1f
 5826 1a0e C2020000 		.4byte	.LVL118
 5827 1a12 0D250000 		.4byte	0x250d
 5828 1a16 241A0000 		.4byte	0x1a24
 5829 1a1a 1C       		.uleb128 0x1c
 5830 1a1b 01       		.uleb128 0x1
 5831 1a1c 50       		.byte	0x50
 5832 1a1d 05       		.uleb128 0x5
ARM GAS  C:\Users\Petro\AppData\Local\Temp\ccvLNIXl.s 			page 127


 5833 1a1e 03       		.byte	0x3
 5834 1a1f BC020000 		.4byte	.LC63
 5835 1a23 00       		.byte	0
 5836 1a24 1F       		.uleb128 0x1f
 5837 1a25 D0020000 		.4byte	.LVL121
 5838 1a29 B4240000 		.4byte	0x24b4
 5839 1a2d 3B1A0000 		.4byte	0x1a3b
 5840 1a31 1C       		.uleb128 0x1c
 5841 1a32 01       		.uleb128 0x1
 5842 1a33 50       		.byte	0x50
 5843 1a34 05       		.uleb128 0x5
 5844 1a35 03       		.byte	0x3
 5845 1a36 E4020000 		.4byte	.LC65
 5846 1a3a 00       		.byte	0
 5847 1a3b 1F       		.uleb128 0x1f
 5848 1a3c DC020000 		.4byte	.LVL124
 5849 1a40 B4240000 		.4byte	0x24b4
 5850 1a44 521A0000 		.4byte	0x1a52
 5851 1a48 1C       		.uleb128 0x1c
 5852 1a49 01       		.uleb128 0x1
 5853 1a4a 50       		.byte	0x50
 5854 1a4b 05       		.uleb128 0x5
 5855 1a4c 03       		.byte	0x3
 5856 1a4d 20030000 		.4byte	.LC67
 5857 1a51 00       		.byte	0
 5858 1a52 1F       		.uleb128 0x1f
 5859 1a53 E4020000 		.4byte	.LVL127
 5860 1a57 0D250000 		.4byte	0x250d
 5861 1a5b 691A0000 		.4byte	0x1a69
 5862 1a5f 1C       		.uleb128 0x1c
 5863 1a60 01       		.uleb128 0x1
 5864 1a61 50       		.byte	0x50
 5865 1a62 05       		.uleb128 0x5
 5866 1a63 03       		.byte	0x3
 5867 1a64 48030000 		.4byte	.LC69
 5868 1a68 00       		.byte	0
 5869 1a69 1F       		.uleb128 0x1f
 5870 1a6a EE020000 		.4byte	.LVL130
 5871 1a6e B4240000 		.4byte	0x24b4
 5872 1a72 801A0000 		.4byte	0x1a80
 5873 1a76 1C       		.uleb128 0x1c
 5874 1a77 01       		.uleb128 0x1
 5875 1a78 50       		.byte	0x50
 5876 1a79 05       		.uleb128 0x5
 5877 1a7a 03       		.byte	0x3
 5878 1a7b 60030000 		.4byte	.LC71
 5879 1a7f 00       		.byte	0
 5880 1a80 1F       		.uleb128 0x1f
 5881 1a81 F6020000 		.4byte	.LVL131
 5882 1a85 9A250000 		.4byte	0x259a
 5883 1a89 991A0000 		.4byte	0x1a99
 5884 1a8d 1C       		.uleb128 0x1c
 5885 1a8e 01       		.uleb128 0x1
 5886 1a8f 51       		.byte	0x51
 5887 1a90 01       		.uleb128 0x1
 5888 1a91 30       		.byte	0x30
 5889 1a92 1C       		.uleb128 0x1c
ARM GAS  C:\Users\Petro\AppData\Local\Temp\ccvLNIXl.s 			page 128


 5890 1a93 01       		.uleb128 0x1
 5891 1a94 50       		.byte	0x50
 5892 1a95 02       		.uleb128 0x2
 5893 1a96 74       		.byte	0x74
 5894 1a97 04       		.sleb128 4
 5895 1a98 00       		.byte	0
 5896 1a99 1F       		.uleb128 0x1f
 5897 1a9a 00030000 		.4byte	.LVL134
 5898 1a9e B4240000 		.4byte	0x24b4
 5899 1aa2 B01A0000 		.4byte	0x1ab0
 5900 1aa6 1C       		.uleb128 0x1c
 5901 1aa7 01       		.uleb128 0x1
 5902 1aa8 50       		.byte	0x50
 5903 1aa9 05       		.uleb128 0x5
 5904 1aaa 03       		.byte	0x3
 5905 1aab 94030000 		.4byte	.LC73
 5906 1aaf 00       		.byte	0
 5907 1ab0 1F       		.uleb128 0x1f
 5908 1ab1 08030000 		.4byte	.LVL135
 5909 1ab5 9A250000 		.4byte	0x259a
 5910 1ab9 C91A0000 		.4byte	0x1ac9
 5911 1abd 1C       		.uleb128 0x1c
 5912 1abe 01       		.uleb128 0x1
 5913 1abf 51       		.byte	0x51
 5914 1ac0 01       		.uleb128 0x1
 5915 1ac1 30       		.byte	0x30
 5916 1ac2 1C       		.uleb128 0x1c
 5917 1ac3 01       		.uleb128 0x1
 5918 1ac4 50       		.byte	0x50
 5919 1ac5 02       		.uleb128 0x2
 5920 1ac6 74       		.byte	0x74
 5921 1ac7 04       		.sleb128 4
 5922 1ac8 00       		.byte	0
 5923 1ac9 1F       		.uleb128 0x1f
 5924 1aca 12030000 		.4byte	.LVL138
 5925 1ace B4240000 		.4byte	0x24b4
 5926 1ad2 E01A0000 		.4byte	0x1ae0
 5927 1ad6 1C       		.uleb128 0x1c
 5928 1ad7 01       		.uleb128 0x1
 5929 1ad8 50       		.byte	0x50
 5930 1ad9 05       		.uleb128 0x5
 5931 1ada 03       		.byte	0x3
 5932 1adb CC030000 		.4byte	.LC75
 5933 1adf 00       		.byte	0
 5934 1ae0 1F       		.uleb128 0x1f
 5935 1ae1 1A030000 		.4byte	.LVL139
 5936 1ae5 9A250000 		.4byte	0x259a
 5937 1ae9 F91A0000 		.4byte	0x1af9
 5938 1aed 1C       		.uleb128 0x1c
 5939 1aee 01       		.uleb128 0x1
 5940 1aef 51       		.byte	0x51
 5941 1af0 01       		.uleb128 0x1
 5942 1af1 30       		.byte	0x30
 5943 1af2 1C       		.uleb128 0x1c
 5944 1af3 01       		.uleb128 0x1
 5945 1af4 50       		.byte	0x50
 5946 1af5 02       		.uleb128 0x2
ARM GAS  C:\Users\Petro\AppData\Local\Temp\ccvLNIXl.s 			page 129


 5947 1af6 74       		.byte	0x74
 5948 1af7 04       		.sleb128 4
 5949 1af8 00       		.byte	0
 5950 1af9 1F       		.uleb128 0x1f
 5951 1afa 22030000 		.4byte	.LVL142
 5952 1afe B4240000 		.4byte	0x24b4
 5953 1b02 101B0000 		.4byte	0x1b10
 5954 1b06 1C       		.uleb128 0x1c
 5955 1b07 01       		.uleb128 0x1
 5956 1b08 50       		.byte	0x50
 5957 1b09 05       		.uleb128 0x5
 5958 1b0a 03       		.byte	0x3
 5959 1b0b FC030000 		.4byte	.LC77
 5960 1b0f 00       		.byte	0
 5961 1b10 1F       		.uleb128 0x1f
 5962 1b11 2A030000 		.4byte	.LVL143
 5963 1b15 9A250000 		.4byte	0x259a
 5964 1b19 291B0000 		.4byte	0x1b29
 5965 1b1d 1C       		.uleb128 0x1c
 5966 1b1e 01       		.uleb128 0x1
 5967 1b1f 51       		.byte	0x51
 5968 1b20 01       		.uleb128 0x1
 5969 1b21 30       		.byte	0x30
 5970 1b22 1C       		.uleb128 0x1c
 5971 1b23 01       		.uleb128 0x1
 5972 1b24 50       		.byte	0x50
 5973 1b25 02       		.uleb128 0x2
 5974 1b26 74       		.byte	0x74
 5975 1b27 04       		.sleb128 4
 5976 1b28 00       		.byte	0
 5977 1b29 1F       		.uleb128 0x1f
 5978 1b2a 32030000 		.4byte	.LVL146
 5979 1b2e B4240000 		.4byte	0x24b4
 5980 1b32 401B0000 		.4byte	0x1b40
 5981 1b36 1C       		.uleb128 0x1c
 5982 1b37 01       		.uleb128 0x1
 5983 1b38 50       		.byte	0x50
 5984 1b39 05       		.uleb128 0x5
 5985 1b3a 03       		.byte	0x3
 5986 1b3b 18040000 		.4byte	.LC79
 5987 1b3f 00       		.byte	0
 5988 1b40 1F       		.uleb128 0x1f
 5989 1b41 3A030000 		.4byte	.LVL147
 5990 1b45 9A250000 		.4byte	0x259a
 5991 1b49 591B0000 		.4byte	0x1b59
 5992 1b4d 1C       		.uleb128 0x1c
 5993 1b4e 01       		.uleb128 0x1
 5994 1b4f 51       		.byte	0x51
 5995 1b50 01       		.uleb128 0x1
 5996 1b51 30       		.byte	0x30
 5997 1b52 1C       		.uleb128 0x1c
 5998 1b53 01       		.uleb128 0x1
 5999 1b54 50       		.byte	0x50
 6000 1b55 02       		.uleb128 0x2
 6001 1b56 74       		.byte	0x74
 6002 1b57 04       		.sleb128 4
 6003 1b58 00       		.byte	0
ARM GAS  C:\Users\Petro\AppData\Local\Temp\ccvLNIXl.s 			page 130


 6004 1b59 1F       		.uleb128 0x1f
 6005 1b5a 42030000 		.4byte	.LVL150
 6006 1b5e 0D250000 		.4byte	0x250d
 6007 1b62 701B0000 		.4byte	0x1b70
 6008 1b66 1C       		.uleb128 0x1c
 6009 1b67 01       		.uleb128 0x1
 6010 1b68 50       		.byte	0x50
 6011 1b69 05       		.uleb128 0x5
 6012 1b6a 03       		.byte	0x3
 6013 1b6b 38040000 		.4byte	.LC81
 6014 1b6f 00       		.byte	0
 6015 1b70 1F       		.uleb128 0x1f
 6016 1b71 4A030000 		.4byte	.LVL153
 6017 1b75 0D250000 		.4byte	0x250d
 6018 1b79 871B0000 		.4byte	0x1b87
 6019 1b7d 1C       		.uleb128 0x1c
 6020 1b7e 01       		.uleb128 0x1
 6021 1b7f 50       		.byte	0x50
 6022 1b80 05       		.uleb128 0x5
 6023 1b81 03       		.byte	0x3
 6024 1b82 54040000 		.4byte	.LC83
 6025 1b86 00       		.byte	0
 6026 1b87 1F       		.uleb128 0x1f
 6027 1b88 52030000 		.4byte	.LVL156
 6028 1b8c B4240000 		.4byte	0x24b4
 6029 1b90 9E1B0000 		.4byte	0x1b9e
 6030 1b94 1C       		.uleb128 0x1c
 6031 1b95 01       		.uleb128 0x1
 6032 1b96 50       		.byte	0x50
 6033 1b97 05       		.uleb128 0x5
 6034 1b98 03       		.byte	0x3
 6035 1b99 74040000 		.4byte	.LC85
 6036 1b9d 00       		.byte	0
 6037 1b9e 1F       		.uleb128 0x1f
 6038 1b9f 1E040000 		.4byte	.LVL158
 6039 1ba3 B4240000 		.4byte	0x24b4
 6040 1ba7 B51B0000 		.4byte	0x1bb5
 6041 1bab 1C       		.uleb128 0x1c
 6042 1bac 01       		.uleb128 0x1
 6043 1bad 50       		.byte	0x50
 6044 1bae 05       		.uleb128 0x5
 6045 1baf 03       		.byte	0x3
 6046 1bb0 18010000 		.4byte	.LC30
 6047 1bb4 00       		.byte	0
 6048 1bb5 1F       		.uleb128 0x1f
 6049 1bb6 2E040000 		.4byte	.LVL161
 6050 1bba 0D250000 		.4byte	0x250d
 6051 1bbe CC1B0000 		.4byte	0x1bcc
 6052 1bc2 1C       		.uleb128 0x1c
 6053 1bc3 01       		.uleb128 0x1
 6054 1bc4 50       		.byte	0x50
 6055 1bc5 05       		.uleb128 0x5
 6056 1bc6 03       		.byte	0x3
 6057 1bc7 20010000 		.4byte	.LC32
 6058 1bcb 00       		.byte	0
 6059 1bcc 1F       		.uleb128 0x1f
 6060 1bcd 36040000 		.4byte	.LVL164
ARM GAS  C:\Users\Petro\AppData\Local\Temp\ccvLNIXl.s 			page 131


 6061 1bd1 B4240000 		.4byte	0x24b4
 6062 1bd5 E31B0000 		.4byte	0x1be3
 6063 1bd9 1C       		.uleb128 0x1c
 6064 1bda 01       		.uleb128 0x1
 6065 1bdb 50       		.byte	0x50
 6066 1bdc 05       		.uleb128 0x5
 6067 1bdd 03       		.byte	0x3
 6068 1bde 9C040000 		.4byte	.LC87
 6069 1be2 00       		.byte	0
 6070 1be3 1F       		.uleb128 0x1f
 6071 1be4 44040000 		.4byte	.LVL166
 6072 1be8 B4240000 		.4byte	0x24b4
 6073 1bec FA1B0000 		.4byte	0x1bfa
 6074 1bf0 1C       		.uleb128 0x1c
 6075 1bf1 01       		.uleb128 0x1
 6076 1bf2 50       		.byte	0x50
 6077 1bf3 05       		.uleb128 0x5
 6078 1bf4 03       		.byte	0x3
 6079 1bf5 18010000 		.4byte	.LC30
 6080 1bf9 00       		.byte	0
 6081 1bfa 1F       		.uleb128 0x1f
 6082 1bfb 54040000 		.4byte	.LVL169
 6083 1bff 0D250000 		.4byte	0x250d
 6084 1c03 111C0000 		.4byte	0x1c11
 6085 1c07 1C       		.uleb128 0x1c
 6086 1c08 01       		.uleb128 0x1
 6087 1c09 50       		.byte	0x50
 6088 1c0a 05       		.uleb128 0x5
 6089 1c0b 03       		.byte	0x3
 6090 1c0c 20010000 		.4byte	.LC32
 6091 1c10 00       		.byte	0
 6092 1c11 1F       		.uleb128 0x1f
 6093 1c12 5C040000 		.4byte	.LVL172
 6094 1c16 B4240000 		.4byte	0x24b4
 6095 1c1a 281C0000 		.4byte	0x1c28
 6096 1c1e 1C       		.uleb128 0x1c
 6097 1c1f 01       		.uleb128 0x1
 6098 1c20 50       		.byte	0x50
 6099 1c21 05       		.uleb128 0x5
 6100 1c22 03       		.byte	0x3
 6101 1c23 C0040000 		.4byte	.LC89
 6102 1c27 00       		.byte	0
 6103 1c28 1F       		.uleb128 0x1f
 6104 1c29 7C040000 		.4byte	.LVL177
 6105 1c2d B0250000 		.4byte	0x25b0
 6106 1c31 3F1C0000 		.4byte	0x1c3f
 6107 1c35 1C       		.uleb128 0x1c
 6108 1c36 01       		.uleb128 0x1
 6109 1c37 50       		.byte	0x50
 6110 1c38 05       		.uleb128 0x5
 6111 1c39 79       		.byte	0x79
 6112 1c3a 00       		.sleb128 0
 6113 1c3b 75       		.byte	0x75
 6114 1c3c 00       		.sleb128 0
 6115 1c3d 22       		.byte	0x22
 6116 1c3e 00       		.byte	0
 6117 1c3f 1F       		.uleb128 0x1f
ARM GAS  C:\Users\Petro\AppData\Local\Temp\ccvLNIXl.s 			page 132


 6118 1c40 86040000 		.4byte	.LVL178
 6119 1c44 B0250000 		.4byte	0x25b0
 6120 1c48 581C0000 		.4byte	0x1c58
 6121 1c4c 1C       		.uleb128 0x1c
 6122 1c4d 01       		.uleb128 0x1
 6123 1c4e 50       		.byte	0x50
 6124 1c4f 07       		.uleb128 0x7
 6125 1c50 79       		.byte	0x79
 6126 1c51 00       		.sleb128 0
 6127 1c52 75       		.byte	0x75
 6128 1c53 00       		.sleb128 0
 6129 1c54 22       		.byte	0x22
 6130 1c55 23       		.byte	0x23
 6131 1c56 02       		.uleb128 0x2
 6132 1c57 00       		.byte	0
 6133 1c58 1F       		.uleb128 0x1f
 6134 1c59 90040000 		.4byte	.LVL179
 6135 1c5d B4240000 		.4byte	0x24b4
 6136 1c61 761C0000 		.4byte	0x1c76
 6137 1c65 1C       		.uleb128 0x1c
 6138 1c66 01       		.uleb128 0x1
 6139 1c67 51       		.byte	0x51
 6140 1c68 03       		.uleb128 0x3
 6141 1c69 91       		.byte	0x91
 6142 1c6a 5C       		.sleb128 -36
 6143 1c6b 06       		.byte	0x6
 6144 1c6c 1C       		.uleb128 0x1c
 6145 1c6d 01       		.uleb128 0x1
 6146 1c6e 50       		.byte	0x50
 6147 1c6f 05       		.uleb128 0x5
 6148 1c70 03       		.byte	0x3
 6149 1c71 E0040000 		.4byte	.LC91
 6150 1c75 00       		.byte	0
 6151 1c76 1F       		.uleb128 0x1f
 6152 1c77 98040000 		.4byte	.LVL180
 6153 1c7b B4240000 		.4byte	0x24b4
 6154 1c7f 8D1C0000 		.4byte	0x1c8d
 6155 1c83 1C       		.uleb128 0x1c
 6156 1c84 01       		.uleb128 0x1
 6157 1c85 50       		.byte	0x50
 6158 1c86 05       		.uleb128 0x5
 6159 1c87 03       		.byte	0x3
 6160 1c88 F0040000 		.4byte	.LC93
 6161 1c8c 00       		.byte	0
 6162 1c8d 1F       		.uleb128 0x1f
 6163 1c8e A8040000 		.4byte	.LVL183
 6164 1c92 0D250000 		.4byte	0x250d
 6165 1c96 A41C0000 		.4byte	0x1ca4
 6166 1c9a 1C       		.uleb128 0x1c
 6167 1c9b 01       		.uleb128 0x1
 6168 1c9c 50       		.byte	0x50
 6169 1c9d 05       		.uleb128 0x5
 6170 1c9e 03       		.byte	0x3
 6171 1c9f 20010000 		.4byte	.LC32
 6172 1ca3 00       		.byte	0
 6173 1ca4 1F       		.uleb128 0x1f
 6174 1ca5 B0040000 		.4byte	.LVL186
ARM GAS  C:\Users\Petro\AppData\Local\Temp\ccvLNIXl.s 			page 133


 6175 1ca9 0D250000 		.4byte	0x250d
 6176 1cad BB1C0000 		.4byte	0x1cbb
 6177 1cb1 1C       		.uleb128 0x1c
 6178 1cb2 01       		.uleb128 0x1
 6179 1cb3 50       		.byte	0x50
 6180 1cb4 05       		.uleb128 0x5
 6181 1cb5 03       		.byte	0x3
 6182 1cb6 F8040000 		.4byte	.LC95
 6183 1cba 00       		.byte	0
 6184 1cbb 1F       		.uleb128 0x1f
 6185 1cbc B8040000 		.4byte	.LVL189
 6186 1cc0 0D250000 		.4byte	0x250d
 6187 1cc4 D21C0000 		.4byte	0x1cd2
 6188 1cc8 1C       		.uleb128 0x1c
 6189 1cc9 01       		.uleb128 0x1
 6190 1cca 50       		.byte	0x50
 6191 1ccb 05       		.uleb128 0x5
 6192 1ccc 03       		.byte	0x3
 6193 1ccd 20050000 		.4byte	.LC97
 6194 1cd1 00       		.byte	0
 6195 1cd2 1F       		.uleb128 0x1f
 6196 1cd3 CC040000 		.4byte	.LVL191
 6197 1cd7 B4240000 		.4byte	0x24b4
 6198 1cdb E91C0000 		.4byte	0x1ce9
 6199 1cdf 1C       		.uleb128 0x1c
 6200 1ce0 01       		.uleb128 0x1
 6201 1ce1 50       		.byte	0x50
 6202 1ce2 05       		.uleb128 0x5
 6203 1ce3 03       		.byte	0x3
 6204 1ce4 48050000 		.4byte	.LC101
 6205 1ce8 00       		.byte	0
 6206 1ce9 1F       		.uleb128 0x1f
 6207 1cea D6040000 		.4byte	.LVL192
 6208 1cee B4240000 		.4byte	0x24b4
 6209 1cf2 001D0000 		.4byte	0x1d00
 6210 1cf6 1C       		.uleb128 0x1c
 6211 1cf7 01       		.uleb128 0x1
 6212 1cf8 50       		.byte	0x50
 6213 1cf9 05       		.uleb128 0x5
 6214 1cfa 03       		.byte	0x3
 6215 1cfb 6C050000 		.4byte	.LC103
 6216 1cff 00       		.byte	0
 6217 1d00 1F       		.uleb128 0x1f
 6218 1d01 02050000 		.4byte	.LVL194
 6219 1d05 B4240000 		.4byte	0x24b4
 6220 1d09 171D0000 		.4byte	0x1d17
 6221 1d0d 1C       		.uleb128 0x1c
 6222 1d0e 01       		.uleb128 0x1
 6223 1d0f 50       		.byte	0x50
 6224 1d10 05       		.uleb128 0x5
 6225 1d11 03       		.byte	0x3
 6226 1d12 30020000 		.4byte	.LC54
 6227 1d16 00       		.byte	0
 6228 1d17 1F       		.uleb128 0x1f
 6229 1d18 12050000 		.4byte	.LVL198
 6230 1d1c 0D250000 		.4byte	0x250d
 6231 1d20 2B1D0000 		.4byte	0x1d2b
ARM GAS  C:\Users\Petro\AppData\Local\Temp\ccvLNIXl.s 			page 134


 6232 1d24 1C       		.uleb128 0x1c
 6233 1d25 01       		.uleb128 0x1
 6234 1d26 50       		.byte	0x50
 6235 1d27 02       		.uleb128 0x2
 6236 1d28 74       		.byte	0x74
 6237 1d29 00       		.sleb128 0
 6238 1d2a 00       		.byte	0
 6239 1d2b 1F       		.uleb128 0x1f
 6240 1d2c 18050000 		.4byte	.LVL199
 6241 1d30 0D250000 		.4byte	0x250d
 6242 1d34 3F1D0000 		.4byte	0x1d3f
 6243 1d38 1C       		.uleb128 0x1c
 6244 1d39 01       		.uleb128 0x1
 6245 1d3a 50       		.byte	0x50
 6246 1d3b 02       		.uleb128 0x2
 6247 1d3c 74       		.byte	0x74
 6248 1d3d 00       		.sleb128 0
 6249 1d3e 00       		.byte	0
 6250 1d3f 1F       		.uleb128 0x1f
 6251 1d40 2E050000 		.4byte	.LVL202
 6252 1d44 0D250000 		.4byte	0x250d
 6253 1d48 561D0000 		.4byte	0x1d56
 6254 1d4c 1C       		.uleb128 0x1c
 6255 1d4d 01       		.uleb128 0x1
 6256 1d4e 50       		.byte	0x50
 6257 1d4f 05       		.uleb128 0x5
 6258 1d50 03       		.byte	0x3
 6259 1d51 7C050000 		.4byte	.LC105
 6260 1d55 00       		.byte	0
 6261 1d56 1B       		.uleb128 0x1b
 6262 1d57 38050000 		.4byte	.LVL205
 6263 1d5b B4240000 		.4byte	0x24b4
 6264 1d5f 1C       		.uleb128 0x1c
 6265 1d60 01       		.uleb128 0x1
 6266 1d61 51       		.byte	0x51
 6267 1d62 03       		.uleb128 0x3
 6268 1d63 F3       		.byte	0xf3
 6269 1d64 01       		.uleb128 0x1
 6270 1d65 50       		.byte	0x50
 6271 1d66 1C       		.uleb128 0x1c
 6272 1d67 01       		.uleb128 0x1
 6273 1d68 50       		.byte	0x50
 6274 1d69 05       		.uleb128 0x5
 6275 1d6a 03       		.byte	0x3
 6276 1d6b 9C050000 		.4byte	.LC107
 6277 1d6f 00       		.byte	0
 6278 1d70 00       		.byte	0
 6279 1d71 06       		.uleb128 0x6
 6280 1d72 04       		.byte	0x4
 6281 1d73 38090000 		.4byte	0x938
 6282 1d77 06       		.uleb128 0x6
 6283 1d78 04       		.byte	0x4
 6284 1d79 71050000 		.4byte	0x571
 6285 1d7d 06       		.uleb128 0x6
 6286 1d7e 04       		.byte	0x4
 6287 1d7f 07050000 		.4byte	0x507
 6288 1d83 17       		.uleb128 0x17
ARM GAS  C:\Users\Petro\AppData\Local\Temp\ccvLNIXl.s 			page 135


 6289 1d84 643C0000 		.4byte	.LASF595
 6290 1d88 01       		.byte	0x1
 6291 1d89 BD01     		.2byte	0x1bd
 6292 1d8b 00000000 		.4byte	.LFB40
 6293 1d8f 40000000 		.4byte	.LFE40-.LFB40
 6294 1d93 01       		.uleb128 0x1
 6295 1d94 9C       		.byte	0x9c
 6296 1d95 351E0000 		.4byte	0x1e35
 6297 1d99 1A       		.uleb128 0x1a
 6298 1d9a 06000000 		.4byte	.LVL206
 6299 1d9e D1250000 		.4byte	0x25d1
 6300 1da2 1F       		.uleb128 0x1f
 6301 1da3 0C000000 		.4byte	.LVL207
 6302 1da7 D8250000 		.4byte	0x25d8
 6303 1dab B91D0000 		.4byte	0x1db9
 6304 1daf 1C       		.uleb128 0x1c
 6305 1db0 01       		.uleb128 0x1
 6306 1db1 50       		.byte	0x50
 6307 1db2 05       		.uleb128 0x5
 6308 1db3 03       		.byte	0x3
 6309 1db4 00000000 		.4byte	Timer_Interrupt
 6310 1db8 00       		.byte	0
 6311 1db9 1F       		.uleb128 0x1f
 6312 1dba 14000000 		.4byte	.LVL208
 6313 1dbe E9250000 		.4byte	0x25e9
 6314 1dc2 D11D0000 		.4byte	0x1dd1
 6315 1dc6 1C       		.uleb128 0x1c
 6316 1dc7 01       		.uleb128 0x1
 6317 1dc8 51       		.byte	0x51
 6318 1dc9 01       		.uleb128 0x1
 6319 1dca 31       		.byte	0x31
 6320 1dcb 1C       		.uleb128 0x1c
 6321 1dcc 01       		.uleb128 0x1
 6322 1dcd 50       		.byte	0x50
 6323 1dce 01       		.uleb128 0x1
 6324 1dcf 31       		.byte	0x31
 6325 1dd0 00       		.byte	0
 6326 1dd1 1F       		.uleb128 0x1f
 6327 1dd2 1C000000 		.4byte	.LVL209
 6328 1dd6 FF250000 		.4byte	0x25ff
 6329 1dda E91D0000 		.4byte	0x1de9
 6330 1dde 1C       		.uleb128 0x1c
 6331 1ddf 01       		.uleb128 0x1
 6332 1de0 51       		.byte	0x51
 6333 1de1 01       		.uleb128 0x1
 6334 1de2 31       		.byte	0x31
 6335 1de3 1C       		.uleb128 0x1c
 6336 1de4 01       		.uleb128 0x1
 6337 1de5 50       		.byte	0x50
 6338 1de6 01       		.uleb128 0x1
 6339 1de7 31       		.byte	0x31
 6340 1de8 00       		.byte	0
 6341 1de9 1F       		.uleb128 0x1f
 6342 1dea 24000000 		.4byte	.LVL210
 6343 1dee 15260000 		.4byte	0x2615
 6344 1df2 031E0000 		.4byte	0x1e03
 6345 1df6 1C       		.uleb128 0x1c
ARM GAS  C:\Users\Petro\AppData\Local\Temp\ccvLNIXl.s 			page 136


 6346 1df7 01       		.uleb128 0x1
 6347 1df8 51       		.byte	0x51
 6348 1df9 03       		.uleb128 0x3
 6349 1dfa 0A       		.byte	0xa
 6350 1dfb FF7F     		.2byte	0x7fff
 6351 1dfd 1C       		.uleb128 0x1c
 6352 1dfe 01       		.uleb128 0x1
 6353 1dff 50       		.byte	0x50
 6354 1e00 01       		.uleb128 0x1
 6355 1e01 31       		.byte	0x31
 6356 1e02 00       		.byte	0
 6357 1e03 1F       		.uleb128 0x1f
 6358 1e04 2A000000 		.4byte	.LVL211
 6359 1e08 2B260000 		.4byte	0x262b
 6360 1e0c 161E0000 		.4byte	0x1e16
 6361 1e10 1C       		.uleb128 0x1c
 6362 1e11 01       		.uleb128 0x1
 6363 1e12 50       		.byte	0x50
 6364 1e13 01       		.uleb128 0x1
 6365 1e14 31       		.byte	0x31
 6366 1e15 00       		.byte	0
 6367 1e16 1F       		.uleb128 0x1f
 6368 1e17 32000000 		.4byte	.LVL212
 6369 1e1b 3C260000 		.4byte	0x263c
 6370 1e1f 2B1E0000 		.4byte	0x1e2b
 6371 1e23 1C       		.uleb128 0x1c
 6372 1e24 01       		.uleb128 0x1
 6373 1e25 50       		.byte	0x50
 6374 1e26 03       		.uleb128 0x3
 6375 1e27 0A       		.byte	0xa
 6376 1e28 0001     		.2byte	0x100
 6377 1e2a 00       		.byte	0
 6378 1e2b 1A       		.uleb128 0x1a
 6379 1e2c 36000000 		.4byte	.LVL213
 6380 1e30 4D260000 		.4byte	0x264d
 6381 1e34 00       		.byte	0
 6382 1e35 17       		.uleb128 0x17
 6383 1e36 07190000 		.4byte	.LASF596
 6384 1e3a 01       		.byte	0x1
 6385 1e3b DA01     		.2byte	0x1da
 6386 1e3d 00000000 		.4byte	.LFB41
 6387 1e41 14000000 		.4byte	.LFE41-.LFB41
 6388 1e45 01       		.uleb128 0x1
 6389 1e46 9C       		.byte	0x9c
 6390 1e47 731E0000 		.4byte	0x1e73
 6391 1e4b 1A       		.uleb128 0x1a
 6392 1e4c 06000000 		.4byte	.LVL214
 6393 1e50 D1250000 		.4byte	0x25d1
 6394 1e54 1F       		.uleb128 0x1f
 6395 1e55 0E000000 		.4byte	.LVL215
 6396 1e59 54260000 		.4byte	0x2654
 6397 1e5d 691E0000 		.4byte	0x1e69
 6398 1e61 1C       		.uleb128 0x1c
 6399 1e62 01       		.uleb128 0x1
 6400 1e63 50       		.byte	0x50
 6401 1e64 03       		.uleb128 0x3
 6402 1e65 0A       		.byte	0xa
ARM GAS  C:\Users\Petro\AppData\Local\Temp\ccvLNIXl.s 			page 137


 6403 1e66 0001     		.2byte	0x100
 6404 1e68 00       		.byte	0
 6405 1e69 1A       		.uleb128 0x1a
 6406 1e6a 12000000 		.4byte	.LVL216
 6407 1e6e 4D260000 		.4byte	0x264d
 6408 1e72 00       		.byte	0
 6409 1e73 25       		.uleb128 0x25
 6410 1e74 450D0000 		.4byte	.LASF597
 6411 1e78 01       		.byte	0x1
 6412 1e79 3302     		.2byte	0x233
 6413 1e7b 5D000000 		.4byte	0x5d
 6414 1e7f 00000000 		.4byte	.LFB43
 6415 1e83 C0030000 		.4byte	.LFE43-.LFB43
 6416 1e87 01       		.uleb128 0x1
 6417 1e88 9C       		.byte	0x9c
 6418 1e89 FF220000 		.4byte	0x22ff
 6419 1e8d 1E       		.uleb128 0x1e
 6420 1e8e AE360000 		.4byte	.LASF588
 6421 1e92 01       		.byte	0x1
 6422 1e93 3502     		.2byte	0x235
 6423 1e95 40030000 		.4byte	0x340
 6424 1e99 09070000 		.4byte	.LLST13
 6425 1e9d 1E       		.uleb128 0x1e
 6426 1e9e 7F390000 		.4byte	.LASF598
 6427 1ea2 01       		.byte	0x1
 6428 1ea3 3602     		.2byte	0x236
 6429 1ea5 A9000000 		.4byte	0xa9
 6430 1ea9 E2070000 		.4byte	.LLST14
 6431 1ead 1A       		.uleb128 0x1a
 6432 1eae 0A000000 		.4byte	.LVL218
 6433 1eb2 65260000 		.4byte	0x2665
 6434 1eb6 1F       		.uleb128 0x1f
 6435 1eb7 10000000 		.4byte	.LVL219
 6436 1ebb 0D250000 		.4byte	0x250d
 6437 1ebf CD1E0000 		.4byte	0x1ecd
 6438 1ec3 1C       		.uleb128 0x1c
 6439 1ec4 01       		.uleb128 0x1
 6440 1ec5 50       		.byte	0x50
 6441 1ec6 05       		.uleb128 0x5
 6442 1ec7 03       		.byte	0x3
 6443 1ec8 B0050000 		.4byte	.LC110
 6444 1ecc 00       		.byte	0
 6445 1ecd 1F       		.uleb128 0x1f
 6446 1ece 16000000 		.4byte	.LVL220
 6447 1ed2 6C260000 		.4byte	0x266c
 6448 1ed6 E41E0000 		.4byte	0x1ee4
 6449 1eda 1C       		.uleb128 0x1c
 6450 1edb 01       		.uleb128 0x1
 6451 1edc 50       		.byte	0x50
 6452 1edd 05       		.uleb128 0x5
 6453 1ede 03       		.byte	0x3
 6454 1edf 00000000 		.4byte	AppCallback
 6455 1ee3 00       		.byte	0
 6456 1ee4 1A       		.uleb128 0x1a
 6457 1ee5 1A000000 		.4byte	.LVL221
 6458 1ee9 82260000 		.4byte	0x2682
 6459 1eed 1A       		.uleb128 0x1a
ARM GAS  C:\Users\Petro\AppData\Local\Temp\ccvLNIXl.s 			page 138


 6460 1eee 1E000000 		.4byte	.LVL222
 6461 1ef2 831D0000 		.4byte	0x1d83
 6462 1ef6 1A       		.uleb128 0x1a
 6463 1ef7 4C000000 		.4byte	.LVL241
 6464 1efb 89260000 		.4byte	0x2689
 6465 1eff 1A       		.uleb128 0x1a
 6466 1f00 50000000 		.4byte	.LVL242
 6467 1f04 A9140000 		.4byte	0x14a9
 6468 1f08 1A       		.uleb128 0x1a
 6469 1f09 58000000 		.4byte	.LVL243
 6470 1f0d 91260000 		.4byte	0x2691
 6471 1f11 1A       		.uleb128 0x1a
 6472 1f12 96000000 		.4byte	.LVL248
 6473 1f16 9D260000 		.4byte	0x269d
 6474 1f1a 1A       		.uleb128 0x1a
 6475 1f1b A4000000 		.4byte	.LVL249
 6476 1f1f A5260000 		.4byte	0x26a5
 6477 1f23 1F       		.uleb128 0x1f
 6478 1f24 AC000000 		.4byte	.LVL251
 6479 1f28 B4240000 		.4byte	0x24b4
 6480 1f2c 3A1F0000 		.4byte	0x1f3a
 6481 1f30 1C       		.uleb128 0x1c
 6482 1f31 01       		.uleb128 0x1
 6483 1f32 50       		.byte	0x50
 6484 1f33 05       		.uleb128 0x5
 6485 1f34 03       		.byte	0x3
 6486 1f35 E4050000 		.4byte	.LC116
 6487 1f39 00       		.byte	0
 6488 1f3a 1A       		.uleb128 0x1a
 6489 1f3b B8000000 		.4byte	.LVL252
 6490 1f3f B1260000 		.4byte	0x26b1
 6491 1f43 1F       		.uleb128 0x1f
 6492 1f44 C2000000 		.4byte	.LVL255
 6493 1f48 B4240000 		.4byte	0x24b4
 6494 1f4c 5A1F0000 		.4byte	0x1f5a
 6495 1f50 1C       		.uleb128 0x1c
 6496 1f51 01       		.uleb128 0x1
 6497 1f52 50       		.byte	0x50
 6498 1f53 05       		.uleb128 0x5
 6499 1f54 03       		.byte	0x3
 6500 1f55 0C060000 		.4byte	.LC119
 6501 1f59 00       		.byte	0
 6502 1f5a 1A       		.uleb128 0x1a
 6503 1f5b DC000000 		.4byte	.LVL256
 6504 1f5f C7260000 		.4byte	0x26c7
 6505 1f63 1F       		.uleb128 0x1f
 6506 1f64 E4000000 		.4byte	.LVL258
 6507 1f68 0D250000 		.4byte	0x250d
 6508 1f6c 7A1F0000 		.4byte	0x1f7a
 6509 1f70 1C       		.uleb128 0x1c
 6510 1f71 01       		.uleb128 0x1
 6511 1f72 50       		.byte	0x50
 6512 1f73 05       		.uleb128 0x5
 6513 1f74 03       		.byte	0x3
 6514 1f75 30060000 		.4byte	.LC121
 6515 1f79 00       		.byte	0
 6516 1f7a 1F       		.uleb128 0x1f
ARM GAS  C:\Users\Petro\AppData\Local\Temp\ccvLNIXl.s 			page 139


 6517 1f7b F0000000 		.4byte	.LVL259
 6518 1f7f B4240000 		.4byte	0x24b4
 6519 1f83 971F0000 		.4byte	0x1f97
 6520 1f87 1C       		.uleb128 0x1c
 6521 1f88 01       		.uleb128 0x1
 6522 1f89 51       		.byte	0x51
 6523 1f8a 02       		.uleb128 0x2
 6524 1f8b 74       		.byte	0x74
 6525 1f8c 00       		.sleb128 0
 6526 1f8d 1C       		.uleb128 0x1c
 6527 1f8e 01       		.uleb128 0x1
 6528 1f8f 50       		.byte	0x50
 6529 1f90 05       		.uleb128 0x5
 6530 1f91 03       		.byte	0x3
 6531 1f92 44060000 		.4byte	.LC123
 6532 1f96 00       		.byte	0
 6533 1f97 1F       		.uleb128 0x1f
 6534 1f98 FA000000 		.4byte	.LVL261
 6535 1f9c 0D250000 		.4byte	0x250d
 6536 1fa0 AE1F0000 		.4byte	0x1fae
 6537 1fa4 1C       		.uleb128 0x1c
 6538 1fa5 01       		.uleb128 0x1
 6539 1fa6 50       		.byte	0x50
 6540 1fa7 05       		.uleb128 0x5
 6541 1fa8 03       		.byte	0x3
 6542 1fa9 64060000 		.4byte	.LC125
 6543 1fad 00       		.byte	0
 6544 1fae 1A       		.uleb128 0x1a
 6545 1faf FE000000 		.4byte	.LVL262
 6546 1fb3 91260000 		.4byte	0x2691
 6547 1fb7 1F       		.uleb128 0x1f
 6548 1fb8 1A010000 		.4byte	.LVL267
 6549 1fbc B4240000 		.4byte	0x24b4
 6550 1fc0 CE1F0000 		.4byte	0x1fce
 6551 1fc4 1C       		.uleb128 0x1c
 6552 1fc5 01       		.uleb128 0x1
 6553 1fc6 50       		.byte	0x50
 6554 1fc7 05       		.uleb128 0x5
 6555 1fc8 03       		.byte	0x3
 6556 1fc9 74060000 		.4byte	.LC127
 6557 1fcd 00       		.byte	0
 6558 1fce 1F       		.uleb128 0x1f
 6559 1fcf 24010000 		.4byte	.LVL270
 6560 1fd3 0D250000 		.4byte	0x250d
 6561 1fd7 E51F0000 		.4byte	0x1fe5
 6562 1fdb 1C       		.uleb128 0x1c
 6563 1fdc 01       		.uleb128 0x1
 6564 1fdd 50       		.byte	0x50
 6565 1fde 05       		.uleb128 0x5
 6566 1fdf 03       		.byte	0x3
 6567 1fe0 78060000 		.4byte	.LC129
 6568 1fe4 00       		.byte	0
 6569 1fe5 1F       		.uleb128 0x1f
 6570 1fe6 4A010000 		.4byte	.LVL271
 6571 1fea DC260000 		.4byte	0x26dc
 6572 1fee 0C200000 		.4byte	0x200c
 6573 1ff2 1C       		.uleb128 0x1c
ARM GAS  C:\Users\Petro\AppData\Local\Temp\ccvLNIXl.s 			page 140


 6574 1ff3 01       		.uleb128 0x1
 6575 1ff4 53       		.byte	0x53
 6576 1ff5 01       		.uleb128 0x1
 6577 1ff6 32       		.byte	0x32
 6578 1ff7 1C       		.uleb128 0x1c
 6579 1ff8 01       		.uleb128 0x1
 6580 1ff9 52       		.byte	0x52
 6581 1ffa 01       		.uleb128 0x1
 6582 1ffb 30       		.byte	0x30
 6583 1ffc 1C       		.uleb128 0x1c
 6584 1ffd 01       		.uleb128 0x1
 6585 1ffe 51       		.byte	0x51
 6586 1fff 01       		.uleb128 0x1
 6587 2000 32       		.byte	0x32
 6588 2001 1C       		.uleb128 0x1c
 6589 2002 02       		.uleb128 0x2
 6590 2003 7D       		.byte	0x7d
 6591 2004 00       		.sleb128 0
 6592 2005 05       		.uleb128 0x5
 6593 2006 03       		.byte	0x3
 6594 2007 0C000000 		.4byte	.LANCHOR0+12
 6595 200b 00       		.byte	0
 6596 200c 1F       		.uleb128 0x1f
 6597 200d 54010000 		.4byte	.LVL273
 6598 2011 B4240000 		.4byte	0x24b4
 6599 2015 29200000 		.4byte	0x2029
 6600 2019 1C       		.uleb128 0x1c
 6601 201a 01       		.uleb128 0x1
 6602 201b 51       		.byte	0x51
 6603 201c 02       		.uleb128 0x2
 6604 201d 74       		.byte	0x74
 6605 201e 00       		.sleb128 0
 6606 201f 1C       		.uleb128 0x1c
 6607 2020 01       		.uleb128 0x1
 6608 2021 50       		.byte	0x50
 6609 2022 05       		.uleb128 0x5
 6610 2023 03       		.byte	0x3
 6611 2024 88060000 		.4byte	.LC131
 6612 2028 00       		.byte	0
 6613 2029 1F       		.uleb128 0x1f
 6614 202a 84010000 		.4byte	.LVL275
 6615 202e DC260000 		.4byte	0x26dc
 6616 2032 50200000 		.4byte	0x2050
 6617 2036 1C       		.uleb128 0x1c
 6618 2037 01       		.uleb128 0x1
 6619 2038 53       		.byte	0x53
 6620 2039 01       		.uleb128 0x1
 6621 203a 32       		.byte	0x32
 6622 203b 1C       		.uleb128 0x1c
 6623 203c 01       		.uleb128 0x1
 6624 203d 52       		.byte	0x52
 6625 203e 01       		.uleb128 0x1
 6626 203f 30       		.byte	0x30
 6627 2040 1C       		.uleb128 0x1c
 6628 2041 01       		.uleb128 0x1
 6629 2042 51       		.byte	0x51
 6630 2043 01       		.uleb128 0x1
ARM GAS  C:\Users\Petro\AppData\Local\Temp\ccvLNIXl.s 			page 141


 6631 2044 32       		.byte	0x32
 6632 2045 1C       		.uleb128 0x1c
 6633 2046 02       		.uleb128 0x2
 6634 2047 7D       		.byte	0x7d
 6635 2048 00       		.sleb128 0
 6636 2049 05       		.uleb128 0x5
 6637 204a 03       		.byte	0x3
 6638 204b 0C000000 		.4byte	.LANCHOR0+12
 6639 204f 00       		.byte	0
 6640 2050 1F       		.uleb128 0x1f
 6641 2051 8E010000 		.4byte	.LVL277
 6642 2055 B4240000 		.4byte	0x24b4
 6643 2059 6D200000 		.4byte	0x206d
 6644 205d 1C       		.uleb128 0x1c
 6645 205e 01       		.uleb128 0x1
 6646 205f 51       		.byte	0x51
 6647 2060 02       		.uleb128 0x2
 6648 2061 74       		.byte	0x74
 6649 2062 00       		.sleb128 0
 6650 2063 1C       		.uleb128 0x1c
 6651 2064 01       		.uleb128 0x1
 6652 2065 50       		.byte	0x50
 6653 2066 05       		.uleb128 0x5
 6654 2067 03       		.byte	0x3
 6655 2068 B4060000 		.4byte	.LC133
 6656 206c 00       		.byte	0
 6657 206d 1F       		.uleb128 0x1f
 6658 206e BA010000 		.4byte	.LVL279
 6659 2072 DC260000 		.4byte	0x26dc
 6660 2076 94200000 		.4byte	0x2094
 6661 207a 1C       		.uleb128 0x1c
 6662 207b 01       		.uleb128 0x1
 6663 207c 53       		.byte	0x53
 6664 207d 01       		.uleb128 0x1
 6665 207e 32       		.byte	0x32
 6666 207f 1C       		.uleb128 0x1c
 6667 2080 01       		.uleb128 0x1
 6668 2081 52       		.byte	0x52
 6669 2082 01       		.uleb128 0x1
 6670 2083 30       		.byte	0x30
 6671 2084 1C       		.uleb128 0x1c
 6672 2085 01       		.uleb128 0x1
 6673 2086 51       		.byte	0x51
 6674 2087 01       		.uleb128 0x1
 6675 2088 32       		.byte	0x32
 6676 2089 1C       		.uleb128 0x1c
 6677 208a 02       		.uleb128 0x2
 6678 208b 7D       		.byte	0x7d
 6679 208c 00       		.sleb128 0
 6680 208d 05       		.uleb128 0x5
 6681 208e 03       		.byte	0x3
 6682 208f 0C000000 		.4byte	.LANCHOR0+12
 6683 2093 00       		.byte	0
 6684 2094 1F       		.uleb128 0x1f
 6685 2095 C4010000 		.4byte	.LVL281
 6686 2099 B4240000 		.4byte	0x24b4
 6687 209d B1200000 		.4byte	0x20b1
ARM GAS  C:\Users\Petro\AppData\Local\Temp\ccvLNIXl.s 			page 142


 6688 20a1 1C       		.uleb128 0x1c
 6689 20a2 01       		.uleb128 0x1
 6690 20a3 51       		.byte	0x51
 6691 20a4 02       		.uleb128 0x2
 6692 20a5 74       		.byte	0x74
 6693 20a6 00       		.sleb128 0
 6694 20a7 1C       		.uleb128 0x1c
 6695 20a8 01       		.uleb128 0x1
 6696 20a9 50       		.byte	0x50
 6697 20aa 05       		.uleb128 0x5
 6698 20ab 03       		.byte	0x3
 6699 20ac E0060000 		.4byte	.LC135
 6700 20b0 00       		.byte	0
 6701 20b1 1F       		.uleb128 0x1f
 6702 20b2 E2010000 		.4byte	.LVL283
 6703 20b6 05270000 		.4byte	0x2705
 6704 20ba C4200000 		.4byte	0x20c4
 6705 20be 1C       		.uleb128 0x1c
 6706 20bf 01       		.uleb128 0x1
 6707 20c0 51       		.byte	0x51
 6708 20c1 01       		.uleb128 0x1
 6709 20c2 33       		.byte	0x33
 6710 20c3 00       		.byte	0
 6711 20c4 1F       		.uleb128 0x1f
 6712 20c5 EC010000 		.4byte	.LVL285
 6713 20c9 B4240000 		.4byte	0x24b4
 6714 20cd E1200000 		.4byte	0x20e1
 6715 20d1 1C       		.uleb128 0x1c
 6716 20d2 01       		.uleb128 0x1
 6717 20d3 51       		.byte	0x51
 6718 20d4 02       		.uleb128 0x2
 6719 20d5 74       		.byte	0x74
 6720 20d6 00       		.sleb128 0
 6721 20d7 1C       		.uleb128 0x1c
 6722 20d8 01       		.uleb128 0x1
 6723 20d9 50       		.byte	0x50
 6724 20da 05       		.uleb128 0x5
 6725 20db 03       		.byte	0x3
 6726 20dc 1C070000 		.4byte	.LC137
 6727 20e0 00       		.byte	0
 6728 20e1 1F       		.uleb128 0x1f
 6729 20e2 0A020000 		.4byte	.LVL287
 6730 20e6 05270000 		.4byte	0x2705
 6731 20ea F4200000 		.4byte	0x20f4
 6732 20ee 1C       		.uleb128 0x1c
 6733 20ef 01       		.uleb128 0x1
 6734 20f0 51       		.byte	0x51
 6735 20f1 01       		.uleb128 0x1
 6736 20f2 34       		.byte	0x34
 6737 20f3 00       		.byte	0
 6738 20f4 1F       		.uleb128 0x1f
 6739 20f5 14020000 		.4byte	.LVL289
 6740 20f9 B4240000 		.4byte	0x24b4
 6741 20fd 11210000 		.4byte	0x2111
 6742 2101 1C       		.uleb128 0x1c
 6743 2102 01       		.uleb128 0x1
 6744 2103 51       		.byte	0x51
ARM GAS  C:\Users\Petro\AppData\Local\Temp\ccvLNIXl.s 			page 143


 6745 2104 02       		.uleb128 0x2
 6746 2105 74       		.byte	0x74
 6747 2106 00       		.sleb128 0
 6748 2107 1C       		.uleb128 0x1c
 6749 2108 01       		.uleb128 0x1
 6750 2109 50       		.byte	0x50
 6751 210a 05       		.uleb128 0x5
 6752 210b 03       		.byte	0x3
 6753 210c 54070000 		.4byte	.LC139
 6754 2110 00       		.byte	0
 6755 2111 1F       		.uleb128 0x1f
 6756 2112 4A020000 		.4byte	.LVL291
 6757 2116 1F270000 		.4byte	0x271f
 6758 211a 29210000 		.4byte	0x2129
 6759 211e 1C       		.uleb128 0x1c
 6760 211f 01       		.uleb128 0x1
 6761 2120 52       		.byte	0x52
 6762 2121 01       		.uleb128 0x1
 6763 2122 35       		.byte	0x35
 6764 2123 1C       		.uleb128 0x1c
 6765 2124 01       		.uleb128 0x1
 6766 2125 51       		.byte	0x51
 6767 2126 01       		.uleb128 0x1
 6768 2127 30       		.byte	0x30
 6769 2128 00       		.byte	0
 6770 2129 1F       		.uleb128 0x1f
 6771 212a 54020000 		.4byte	.LVL293
 6772 212e B4240000 		.4byte	0x24b4
 6773 2132 46210000 		.4byte	0x2146
 6774 2136 1C       		.uleb128 0x1c
 6775 2137 01       		.uleb128 0x1
 6776 2138 51       		.byte	0x51
 6777 2139 02       		.uleb128 0x2
 6778 213a 74       		.byte	0x74
 6779 213b 00       		.sleb128 0
 6780 213c 1C       		.uleb128 0x1c
 6781 213d 01       		.uleb128 0x1
 6782 213e 50       		.byte	0x50
 6783 213f 05       		.uleb128 0x5
 6784 2140 03       		.byte	0x3
 6785 2141 8C070000 		.4byte	.LC142
 6786 2145 00       		.byte	0
 6787 2146 1F       		.uleb128 0x1f
 6788 2147 92020000 		.4byte	.LVL295
 6789 214b 1F270000 		.4byte	0x271f
 6790 214f 5E210000 		.4byte	0x215e
 6791 2153 1C       		.uleb128 0x1c
 6792 2154 01       		.uleb128 0x1
 6793 2155 52       		.byte	0x52
 6794 2156 01       		.uleb128 0x1
 6795 2157 35       		.byte	0x35
 6796 2158 1C       		.uleb128 0x1c
 6797 2159 01       		.uleb128 0x1
 6798 215a 51       		.byte	0x51
 6799 215b 01       		.uleb128 0x1
 6800 215c 30       		.byte	0x30
 6801 215d 00       		.byte	0
ARM GAS  C:\Users\Petro\AppData\Local\Temp\ccvLNIXl.s 			page 144


 6802 215e 1F       		.uleb128 0x1f
 6803 215f 9C020000 		.4byte	.LVL297
 6804 2163 B4240000 		.4byte	0x24b4
 6805 2167 7B210000 		.4byte	0x217b
 6806 216b 1C       		.uleb128 0x1c
 6807 216c 01       		.uleb128 0x1
 6808 216d 51       		.byte	0x51
 6809 216e 02       		.uleb128 0x2
 6810 216f 74       		.byte	0x74
 6811 2170 00       		.sleb128 0
 6812 2171 1C       		.uleb128 0x1c
 6813 2172 01       		.uleb128 0x1
 6814 2173 50       		.byte	0x50
 6815 2174 05       		.uleb128 0x5
 6816 2175 03       		.byte	0x3
 6817 2176 C8070000 		.4byte	.LC144
 6818 217a 00       		.byte	0
 6819 217b 1F       		.uleb128 0x1f
 6820 217c C4020000 		.4byte	.LVL299
 6821 2180 0D250000 		.4byte	0x250d
 6822 2184 92210000 		.4byte	0x2192
 6823 2188 1C       		.uleb128 0x1c
 6824 2189 01       		.uleb128 0x1
 6825 218a 50       		.byte	0x50
 6826 218b 05       		.uleb128 0x5
 6827 218c 03       		.byte	0x3
 6828 218d 20010000 		.4byte	.LC32
 6829 2191 00       		.byte	0
 6830 2192 1F       		.uleb128 0x1f
 6831 2193 CA020000 		.4byte	.LVL300
 6832 2197 0D250000 		.4byte	0x250d
 6833 219b A9210000 		.4byte	0x21a9
 6834 219f 1C       		.uleb128 0x1c
 6835 21a0 01       		.uleb128 0x1
 6836 21a1 50       		.byte	0x50
 6837 21a2 05       		.uleb128 0x5
 6838 21a3 03       		.byte	0x3
 6839 21a4 04080000 		.4byte	.LC147
 6840 21a8 00       		.byte	0
 6841 21a9 1F       		.uleb128 0x1f
 6842 21aa D0020000 		.4byte	.LVL301
 6843 21ae 0D250000 		.4byte	0x250d
 6844 21b2 C0210000 		.4byte	0x21c0
 6845 21b6 1C       		.uleb128 0x1c
 6846 21b7 01       		.uleb128 0x1
 6847 21b8 50       		.byte	0x50
 6848 21b9 05       		.uleb128 0x5
 6849 21ba 03       		.byte	0x3
 6850 21bb 1C080000 		.4byte	.LC149
 6851 21bf 00       		.byte	0
 6852 21c0 1F       		.uleb128 0x1f
 6853 21c1 D6020000 		.4byte	.LVL302
 6854 21c5 0D250000 		.4byte	0x250d
 6855 21c9 D7210000 		.4byte	0x21d7
 6856 21cd 1C       		.uleb128 0x1c
 6857 21ce 01       		.uleb128 0x1
 6858 21cf 50       		.byte	0x50
ARM GAS  C:\Users\Petro\AppData\Local\Temp\ccvLNIXl.s 			page 145


 6859 21d0 05       		.uleb128 0x5
 6860 21d1 03       		.byte	0x3
 6861 21d2 30080000 		.4byte	.LC151
 6862 21d6 00       		.byte	0
 6863 21d7 1F       		.uleb128 0x1f
 6864 21d8 DC020000 		.4byte	.LVL303
 6865 21dc 0D250000 		.4byte	0x250d
 6866 21e0 EE210000 		.4byte	0x21ee
 6867 21e4 1C       		.uleb128 0x1c
 6868 21e5 01       		.uleb128 0x1
 6869 21e6 50       		.byte	0x50
 6870 21e7 05       		.uleb128 0x5
 6871 21e8 03       		.byte	0x3
 6872 21e9 58080000 		.4byte	.LC153
 6873 21ed 00       		.byte	0
 6874 21ee 1F       		.uleb128 0x1f
 6875 21ef E2020000 		.4byte	.LVL304
 6876 21f3 0D250000 		.4byte	0x250d
 6877 21f7 05220000 		.4byte	0x2205
 6878 21fb 1C       		.uleb128 0x1c
 6879 21fc 01       		.uleb128 0x1
 6880 21fd 50       		.byte	0x50
 6881 21fe 05       		.uleb128 0x5
 6882 21ff 03       		.byte	0x3
 6883 2200 88080000 		.4byte	.LC155
 6884 2204 00       		.byte	0
 6885 2205 1F       		.uleb128 0x1f
 6886 2206 E8020000 		.4byte	.LVL305
 6887 220a 0D250000 		.4byte	0x250d
 6888 220e 1C220000 		.4byte	0x221c
 6889 2212 1C       		.uleb128 0x1c
 6890 2213 01       		.uleb128 0x1
 6891 2214 50       		.byte	0x50
 6892 2215 05       		.uleb128 0x5
 6893 2216 03       		.byte	0x3
 6894 2217 B8080000 		.4byte	.LC157
 6895 221b 00       		.byte	0
 6896 221c 1F       		.uleb128 0x1f
 6897 221d EE020000 		.4byte	.LVL306
 6898 2221 0D250000 		.4byte	0x250d
 6899 2225 33220000 		.4byte	0x2233
 6900 2229 1C       		.uleb128 0x1c
 6901 222a 01       		.uleb128 0x1
 6902 222b 50       		.byte	0x50
 6903 222c 05       		.uleb128 0x5
 6904 222d 03       		.byte	0x3
 6905 222e DC080000 		.4byte	.LC159
 6906 2232 00       		.byte	0
 6907 2233 1F       		.uleb128 0x1f
 6908 2234 F4020000 		.4byte	.LVL307
 6909 2238 0D250000 		.4byte	0x250d
 6910 223c 4A220000 		.4byte	0x224a
 6911 2240 1C       		.uleb128 0x1c
 6912 2241 01       		.uleb128 0x1
 6913 2242 50       		.byte	0x50
 6914 2243 05       		.uleb128 0x5
 6915 2244 03       		.byte	0x3
ARM GAS  C:\Users\Petro\AppData\Local\Temp\ccvLNIXl.s 			page 146


 6916 2245 00090000 		.4byte	.LC161
 6917 2249 00       		.byte	0
 6918 224a 1F       		.uleb128 0x1f
 6919 224b FA020000 		.4byte	.LVL308
 6920 224f 0D250000 		.4byte	0x250d
 6921 2253 61220000 		.4byte	0x2261
 6922 2257 1C       		.uleb128 0x1c
 6923 2258 01       		.uleb128 0x1
 6924 2259 50       		.byte	0x50
 6925 225a 05       		.uleb128 0x5
 6926 225b 03       		.byte	0x3
 6927 225c 38090000 		.4byte	.LC163
 6928 2260 00       		.byte	0
 6929 2261 1F       		.uleb128 0x1f
 6930 2262 00030000 		.4byte	.LVL309
 6931 2266 0D250000 		.4byte	0x250d
 6932 226a 78220000 		.4byte	0x2278
 6933 226e 1C       		.uleb128 0x1c
 6934 226f 01       		.uleb128 0x1
 6935 2270 50       		.byte	0x50
 6936 2271 05       		.uleb128 0x5
 6937 2272 03       		.byte	0x3
 6938 2273 70090000 		.4byte	.LC165
 6939 2277 00       		.byte	0
 6940 2278 1F       		.uleb128 0x1f
 6941 2279 06030000 		.4byte	.LVL310
 6942 227d 0D250000 		.4byte	0x250d
 6943 2281 8F220000 		.4byte	0x228f
 6944 2285 1C       		.uleb128 0x1c
 6945 2286 01       		.uleb128 0x1
 6946 2287 50       		.byte	0x50
 6947 2288 05       		.uleb128 0x5
 6948 2289 03       		.byte	0x3
 6949 228a B8090000 		.4byte	.LC167
 6950 228e 00       		.byte	0
 6951 228f 1F       		.uleb128 0x1f
 6952 2290 0C030000 		.4byte	.LVL311
 6953 2294 0D250000 		.4byte	0x250d
 6954 2298 A6220000 		.4byte	0x22a6
 6955 229c 1C       		.uleb128 0x1c
 6956 229d 01       		.uleb128 0x1
 6957 229e 50       		.byte	0x50
 6958 229f 05       		.uleb128 0x5
 6959 22a0 03       		.byte	0x3
 6960 22a1 FC090000 		.4byte	.LC169
 6961 22a5 00       		.byte	0
 6962 22a6 1F       		.uleb128 0x1f
 6963 22a7 12030000 		.4byte	.LVL312
 6964 22ab 0D250000 		.4byte	0x250d
 6965 22af BD220000 		.4byte	0x22bd
 6966 22b3 1C       		.uleb128 0x1c
 6967 22b4 01       		.uleb128 0x1
 6968 22b5 50       		.byte	0x50
 6969 22b6 05       		.uleb128 0x5
 6970 22b7 03       		.byte	0x3
 6971 22b8 400A0000 		.4byte	.LC171
 6972 22bc 00       		.byte	0
ARM GAS  C:\Users\Petro\AppData\Local\Temp\ccvLNIXl.s 			page 147


 6973 22bd 1F       		.uleb128 0x1f
 6974 22be 18030000 		.4byte	.LVL313
 6975 22c2 0D250000 		.4byte	0x250d
 6976 22c6 D4220000 		.4byte	0x22d4
 6977 22ca 1C       		.uleb128 0x1c
 6978 22cb 01       		.uleb128 0x1
 6979 22cc 50       		.byte	0x50
 6980 22cd 05       		.uleb128 0x5
 6981 22ce 03       		.byte	0x3
 6982 22cf 840A0000 		.4byte	.LC173
 6983 22d3 00       		.byte	0
 6984 22d4 1F       		.uleb128 0x1f
 6985 22d5 1E030000 		.4byte	.LVL314
 6986 22d9 0D250000 		.4byte	0x250d
 6987 22dd EB220000 		.4byte	0x22eb
 6988 22e1 1C       		.uleb128 0x1c
 6989 22e2 01       		.uleb128 0x1
 6990 22e3 50       		.byte	0x50
 6991 22e4 05       		.uleb128 0x5
 6992 22e5 03       		.byte	0x3
 6993 22e6 CC0A0000 		.4byte	.LC175
 6994 22ea 00       		.byte	0
 6995 22eb 1B       		.uleb128 0x1b
 6996 22ec 24030000 		.4byte	.LVL315
 6997 22f0 0D250000 		.4byte	0x250d
 6998 22f4 1C       		.uleb128 0x1c
 6999 22f5 01       		.uleb128 0x1
 7000 22f6 50       		.byte	0x50
 7001 22f7 05       		.uleb128 0x5
 7002 22f8 03       		.byte	0x3
 7003 22f9 140B0000 		.4byte	.LC177
 7004 22fd 00       		.byte	0
 7005 22fe 00       		.byte	0
 7006 22ff 26       		.uleb128 0x26
 7007 2300 352A0000 		.4byte	.LASF599
 7008 2304 09       		.byte	0x9
 7009 2305 DD01     		.2byte	0x1dd
 7010 2307 77000000 		.4byte	0x77
 7011 230b 27       		.uleb128 0x27
 7012 230c 490E0000 		.4byte	.LASF600
 7013 2310 0A       		.byte	0xa
 7014 2311 EE       		.byte	0xee
 7015 2312 790A0000 		.4byte	0xa79
 7016 2316 27       		.uleb128 0x27
 7017 2317 40420000 		.4byte	.LASF601
 7018 231b 0B       		.byte	0xb
 7019 231c E9       		.byte	0xe9
 7020 231d 670B0000 		.4byte	0xb67
 7021 2321 26       		.uleb128 0x26
 7022 2322 E3360000 		.4byte	.LASF602
 7023 2326 0C       		.byte	0xc
 7024 2327 2C09     		.2byte	0x92c
 7025 2329 95120000 		.4byte	0x1295
 7026 232d 26       		.uleb128 0x26
 7027 232e 213C0000 		.4byte	.LASF603
 7028 2332 0C       		.byte	0xc
 7029 2333 2D09     		.2byte	0x92d
ARM GAS  C:\Users\Petro\AppData\Local\Temp\ccvLNIXl.s 			page 148


 7030 2335 BB070000 		.4byte	0x7bb
 7031 2339 26       		.uleb128 0x26
 7032 233a 3D3F0000 		.4byte	.LASF604
 7033 233e 0C       		.byte	0xc
 7034 233f 2E09     		.2byte	0x92e
 7035 2341 BC000000 		.4byte	0xbc
 7036 2345 10       		.uleb128 0x10
 7037 2346 210A0000 		.4byte	0xa21
 7038 234a 55230000 		.4byte	0x2355
 7039 234e 11       		.uleb128 0x11
 7040 234f F0000000 		.4byte	0xf0
 7041 2353 02       		.byte	0x2
 7042 2354 00       		.byte	0
 7043 2355 26       		.uleb128 0x26
 7044 2356 1F2A0000 		.4byte	.LASF605
 7045 235a 0C       		.byte	0xc
 7046 235b 4209     		.2byte	0x942
 7047 235d 45230000 		.4byte	0x2345
 7048 2361 28       		.uleb128 0x28
 7049 2362 CF2D0000 		.4byte	.LASF606
 7050 2366 01       		.byte	0x1
 7051 2367 1A       		.byte	0x1a
 7052 2368 CD000000 		.4byte	0xcd
 7053 236c 05       		.uleb128 0x5
 7054 236d 03       		.byte	0x3
 7055 236e 00000000 		.4byte	mainTimer
 7056 2372 10       		.uleb128 0x10
 7057 2373 44140000 		.4byte	0x1444
 7058 2377 82230000 		.4byte	0x2382
 7059 237b 11       		.uleb128 0x11
 7060 237c F0000000 		.4byte	0xf0
 7061 2380 07       		.byte	0x7
 7062 2381 00       		.byte	0
 7063 2382 28       		.uleb128 0x28
 7064 2383 B8170000 		.4byte	.LASF607
 7065 2387 01       		.byte	0x1
 7066 2388 1C       		.byte	0x1c
 7067 2389 72230000 		.4byte	0x2372
 7068 238d 05       		.uleb128 0x5
 7069 238e 03       		.byte	0x3
 7070 238f 00000000 		.4byte	peedDeviceInfo
 7071 2393 28       		.uleb128 0x28
 7072 2394 F6400000 		.4byte	.LASF608
 7073 2398 01       		.byte	0x1
 7074 2399 1D       		.byte	0x1d
 7075 239a 6B000000 		.4byte	0x6b
 7076 239e 05       		.uleb128 0x5
 7077 239f 03       		.byte	0x3
 7078 23a0 00000000 		.4byte	advDevices
 7079 23a4 28       		.uleb128 0x28
 7080 23a5 06460000 		.4byte	.LASF609
 7081 23a9 01       		.byte	0x1
 7082 23aa 1E       		.byte	0x1e
 7083 23ab 6B000000 		.4byte	0x6b
 7084 23af 05       		.uleb128 0x5
 7085 23b0 03       		.byte	0x3
 7086 23b1 00000000 		.4byte	deviceN
ARM GAS  C:\Users\Petro\AppData\Local\Temp\ccvLNIXl.s 			page 149


 7087 23b5 28       		.uleb128 0x28
 7088 23b6 84060000 		.4byte	.LASF610
 7089 23ba 01       		.byte	0x1
 7090 23bb 20       		.byte	0x20
 7091 23bc 6B000000 		.4byte	0x6b
 7092 23c0 05       		.uleb128 0x5
 7093 23c1 03       		.byte	0x3
 7094 23c2 00000000 		.4byte	state
 7095 23c6 28       		.uleb128 0x28
 7096 23c7 FE0A0000 		.4byte	.LASF611
 7097 23cb 01       		.byte	0x1
 7098 23cc 21       		.byte	0x21
 7099 23cd 6B000000 		.4byte	0x6b
 7100 23d1 05       		.uleb128 0x5
 7101 23d2 03       		.byte	0x3
 7102 23d3 00000000 		.4byte	readingDynChar
 7103 23d7 28       		.uleb128 0x28
 7104 23d8 8E230000 		.4byte	.LASF612
 7105 23dc 01       		.byte	0x1
 7106 23dd 23       		.byte	0x23
 7107 23de 6B000000 		.4byte	0x6b
 7108 23e2 05       		.uleb128 0x5
 7109 23e3 03       		.byte	0x3
 7110 23e4 00000000 		.4byte	customCommand
 7111 23e8 28       		.uleb128 0x28
 7112 23e9 89210000 		.4byte	.LASF613
 7113 23ed 01       		.byte	0x1
 7114 23ee 24       		.byte	0x24
 7115 23ef 77000000 		.4byte	0x77
 7116 23f3 05       		.uleb128 0x5
 7117 23f4 03       		.byte	0x3
 7118 23f5 00000000 		.4byte	alertCCCD
 7119 23f9 28       		.uleb128 0x28
 7120 23fa 910A0000 		.4byte	.LASF614
 7121 23fe 01       		.byte	0x1
 7122 23ff 25       		.byte	0x25
 7123 2400 0A240000 		.4byte	0x240a
 7124 2404 05       		.uleb128 0x5
 7125 2405 03       		.byte	0x3
 7126 2406 00000000 		.4byte	requestResponce
 7127 240a 02       		.uleb128 0x2
 7128 240b 01       		.byte	0x1
 7129 240c 02       		.byte	0x2
 7130 240d B4120000 		.4byte	.LASF615
 7131 2411 28       		.uleb128 0x28
 7132 2412 C5260000 		.4byte	.LASF616
 7133 2416 01       		.byte	0x1
 7134 2417 28       		.byte	0x28
 7135 2418 BB050000 		.4byte	0x5bb
 7136 241c 05       		.uleb128 0x5
 7137 241d 03       		.byte	0x3
 7138 241e 00000000 		.4byte	connParameters
 7139 2422 29       		.uleb128 0x29
 7140 2423 793D0000 		.4byte	.LASF617
 7141 2427 0E       		.byte	0xe
 7142 2428 33       		.byte	0x33
 7143 2429 33240000 		.4byte	0x2433
ARM GAS  C:\Users\Petro\AppData\Local\Temp\ccvLNIXl.s 			page 150


 7144 242d 16       		.uleb128 0x16
 7145 242e 6B000000 		.4byte	0x6b
 7146 2432 00       		.byte	0
 7147 2433 29       		.uleb128 0x29
 7148 2434 CC360000 		.4byte	.LASF618
 7149 2438 0F       		.byte	0xf
 7150 2439 42       		.byte	0x42
 7151 243a 44240000 		.4byte	0x2444
 7152 243e 16       		.uleb128 0x16
 7153 243f 83000000 		.4byte	0x83
 7154 2443 00       		.byte	0
 7155 2444 2A       		.uleb128 0x2a
 7156 2445 85400000 		.4byte	.LASF619
 7157 2449 0F       		.byte	0xf
 7158 244a 41       		.byte	0x41
 7159 244b 83000000 		.4byte	0x83
 7160 244f 2B       		.uleb128 0x2b
 7161 2450 9B320000 		.4byte	.LASF623
 7162 2454 04       		.byte	0x4
 7163 2455 6B04     		.2byte	0x46b
 7164 2457 75030000 		.4byte	0x375
 7165 245b 65240000 		.4byte	0x2465
 7166 245f 16       		.uleb128 0x16
 7167 2460 75030000 		.4byte	0x375
 7168 2464 00       		.byte	0
 7169 2465 2A       		.uleb128 0x2a
 7170 2466 4B2D0000 		.4byte	.LASF620
 7171 246a 10       		.byte	0x10
 7172 246b 61       		.byte	0x61
 7173 246c 6B000000 		.4byte	0x6b
 7174 2470 2C       		.uleb128 0x2c
 7175 2471 2A240000 		.4byte	.LASF621
 7176 2475 04       		.byte	0x4
 7177 2476 B906     		.2byte	0x6b9
 7178 2478 BC030000 		.4byte	0x3bc
 7179 247c 2D       		.uleb128 0x2d
 7180 247d 860D0000 		.4byte	.LASF632
 7181 2481 15       		.byte	0x15
 7182 2482 1D       		.byte	0x1d
 7183 2483 29       		.uleb128 0x29
 7184 2484 81430000 		.4byte	.LASF622
 7185 2488 10       		.byte	0x10
 7186 2489 62       		.byte	0x62
 7187 248a 94240000 		.4byte	0x2494
 7188 248e 16       		.uleb128 0x16
 7189 248f 6B000000 		.4byte	0x6b
 7190 2493 00       		.byte	0
 7191 2494 2E       		.uleb128 0x2e
 7192 2495 CF340000 		.4byte	.LASF624
 7193 2499 0D       		.byte	0xd
 7194 249a C1       		.byte	0xc1
 7195 249b 83000000 		.4byte	0x83
 7196 249f AE240000 		.4byte	0x24ae
 7197 24a3 16       		.uleb128 0x16
 7198 24a4 771D0000 		.4byte	0x1d77
 7199 24a8 16       		.uleb128 0x16
 7200 24a9 AE240000 		.4byte	0x24ae
ARM GAS  C:\Users\Petro\AppData\Local\Temp\ccvLNIXl.s 			page 151


 7201 24ad 00       		.byte	0
 7202 24ae 06       		.uleb128 0x6
 7203 24af 04       		.byte	0x4
 7204 24b0 00140000 		.4byte	0x1400
 7205 24b4 2E       		.uleb128 0x2e
 7206 24b5 35190000 		.4byte	.LASF625
 7207 24b9 11       		.byte	0x11
 7208 24ba B2       		.byte	0xb2
 7209 24bb 5D000000 		.4byte	0x5d
 7210 24bf CA240000 		.4byte	0x24ca
 7211 24c3 16       		.uleb128 0x16
 7212 24c4 F9000000 		.4byte	0xf9
 7213 24c8 2F       		.uleb128 0x2f
 7214 24c9 00       		.byte	0
 7215 24ca 2E       		.uleb128 0x2e
 7216 24cb 13160000 		.4byte	.LASF626
 7217 24cf 12       		.byte	0x12
 7218 24d0 16       		.byte	0x16
 7219 24d1 5D000000 		.4byte	0x5d
 7220 24d5 E9240000 		.4byte	0x24e9
 7221 24d9 16       		.uleb128 0x16
 7222 24da E9240000 		.4byte	0x24e9
 7223 24de 16       		.uleb128 0x16
 7224 24df E9240000 		.4byte	0x24e9
 7225 24e3 16       		.uleb128 0x16
 7226 24e4 E5000000 		.4byte	0xe5
 7227 24e8 00       		.byte	0
 7228 24e9 06       		.uleb128 0x6
 7229 24ea 04       		.byte	0x4
 7230 24eb EF240000 		.4byte	0x24ef
 7231 24ef 30       		.uleb128 0x30
 7232 24f0 31       		.uleb128 0x31
 7233 24f1 823E0000 		.4byte	.LASF627
 7234 24f5 F7000000 		.4byte	0xf7
 7235 24f9 0D250000 		.4byte	0x250d
 7236 24fd 16       		.uleb128 0x16
 7237 24fe F7000000 		.4byte	0xf7
 7238 2502 16       		.uleb128 0x16
 7239 2503 E9240000 		.4byte	0x24e9
 7240 2507 16       		.uleb128 0x16
 7241 2508 F0000000 		.4byte	0xf0
 7242 250c 00       		.byte	0
 7243 250d 32       		.uleb128 0x32
 7244 250e 522F0000 		.4byte	.LASF664
 7245 2512 1A       		.byte	0x1a
 7246 2513 00       		.byte	0
 7247 2514 FB060000 		.4byte	.LASF665
 7248 2518 5D000000 		.4byte	0x5d
 7249 251c 26250000 		.4byte	0x2526
 7250 2520 16       		.uleb128 0x16
 7251 2521 F9000000 		.4byte	0xf9
 7252 2525 00       		.byte	0
 7253 2526 2B       		.uleb128 0x2b
 7254 2527 33310000 		.4byte	.LASF628
 7255 252b 09       		.byte	0x9
 7256 252c B801     		.2byte	0x1b8
 7257 252e 40030000 		.4byte	0x340
ARM GAS  C:\Users\Petro\AppData\Local\Temp\ccvLNIXl.s 			page 152


 7258 2532 3C250000 		.4byte	0x253c
 7259 2536 16       		.uleb128 0x16
 7260 2537 6B000000 		.4byte	0x6b
 7261 253b 00       		.byte	0
 7262 253c 2B       		.uleb128 0x2b
 7263 253d 00000000 		.4byte	.LASF629
 7264 2541 09       		.byte	0x9
 7265 2542 BD01     		.2byte	0x1bd
 7266 2544 40030000 		.4byte	0x340
 7267 2548 52250000 		.4byte	0x2552
 7268 254c 16       		.uleb128 0x16
 7269 254d 52250000 		.4byte	0x2552
 7270 2551 00       		.byte	0
 7271 2552 06       		.uleb128 0x6
 7272 2553 04       		.byte	0x4
 7273 2554 58250000 		.4byte	0x2558
 7274 2558 0A       		.uleb128 0xa
 7275 2559 FC030000 		.4byte	0x3fc
 7276 255d 2C       		.uleb128 0x2c
 7277 255e F9010000 		.4byte	.LASF630
 7278 2562 13       		.byte	0x13
 7279 2563 8E01     		.2byte	0x18e
 7280 2565 83000000 		.4byte	0x83
 7281 2569 2A       		.uleb128 0x2a
 7282 256a 7C280000 		.4byte	.LASF631
 7283 256e 14       		.byte	0x14
 7284 256f 39       		.byte	0x39
 7285 2570 6B000000 		.4byte	0x6b
 7286 2574 2D       		.uleb128 0x2d
 7287 2575 F72C0000 		.4byte	.LASF633
 7288 2579 16       		.byte	0x16
 7289 257a 28       		.byte	0x28
 7290 257b 2D       		.uleb128 0x2d
 7291 257c 46430000 		.4byte	.LASF634
 7292 2580 16       		.byte	0x16
 7293 2581 17       		.byte	0x17
 7294 2582 2D       		.uleb128 0x2d
 7295 2583 FF210000 		.4byte	.LASF635
 7296 2587 15       		.byte	0x15
 7297 2588 21       		.byte	0x21
 7298 2589 29       		.uleb128 0x29
 7299 258a 6F060000 		.4byte	.LASF636
 7300 258e 0B       		.byte	0xb
 7301 258f A3       		.byte	0xa3
 7302 2590 9A250000 		.4byte	0x259a
 7303 2594 16       		.uleb128 0x16
 7304 2595 8B070000 		.4byte	0x78b
 7305 2599 00       		.byte	0
 7306 259a 29       		.uleb128 0x29
 7307 259b E7200000 		.4byte	.LASF637
 7308 259f 17       		.byte	0x17
 7309 25a0 3F       		.byte	0x3f
 7310 25a1 B0250000 		.4byte	0x25b0
 7311 25a5 16       		.uleb128 0x16
 7312 25a6 EC0A0000 		.4byte	0xaec
 7313 25aa 16       		.uleb128 0x16
 7314 25ab 6B000000 		.4byte	0x6b
ARM GAS  C:\Users\Petro\AppData\Local\Temp\ccvLNIXl.s 			page 153


 7315 25af 00       		.byte	0
 7316 25b0 2B       		.uleb128 0x2b
 7317 25b1 172E0000 		.4byte	.LASF638
 7318 25b5 09       		.byte	0x9
 7319 25b6 8E01     		.2byte	0x18e
 7320 25b8 77000000 		.4byte	0x77
 7321 25bc C6250000 		.4byte	0x25c6
 7322 25c0 16       		.uleb128 0x16
 7323 25c1 C6250000 		.4byte	0x25c6
 7324 25c5 00       		.byte	0
 7325 25c6 06       		.uleb128 0x6
 7326 25c7 04       		.byte	0x4
 7327 25c8 CC250000 		.4byte	0x25cc
 7328 25cc 0A       		.uleb128 0xa
 7329 25cd 6B000000 		.4byte	0x6b
 7330 25d1 2D       		.uleb128 0x2d
 7331 25d2 002B0000 		.4byte	.LASF639
 7332 25d6 0F       		.byte	0xf
 7333 25d7 32       		.byte	0x32
 7334 25d8 29       		.uleb128 0x29
 7335 25d9 DD3D0000 		.4byte	.LASF640
 7336 25dd 18       		.byte	0x18
 7337 25de 18       		.byte	0x18
 7338 25df E9250000 		.4byte	0x25e9
 7339 25e3 16       		.uleb128 0x16
 7340 25e4 D2000000 		.4byte	0xd2
 7341 25e8 00       		.byte	0
 7342 25e9 29       		.uleb128 0x29
 7343 25ea 65030000 		.4byte	.LASF641
 7344 25ee 0F       		.byte	0xf
 7345 25ef 33       		.byte	0x33
 7346 25f0 FF250000 		.4byte	0x25ff
 7347 25f4 16       		.uleb128 0x16
 7348 25f5 83000000 		.4byte	0x83
 7349 25f9 16       		.uleb128 0x16
 7350 25fa 83000000 		.4byte	0x83
 7351 25fe 00       		.byte	0
 7352 25ff 29       		.uleb128 0x29
 7353 2600 EB320000 		.4byte	.LASF642
 7354 2604 0F       		.byte	0xf
 7355 2605 36       		.byte	0x36
 7356 2606 15260000 		.4byte	0x2615
 7357 260a 16       		.uleb128 0x16
 7358 260b 83000000 		.4byte	0x83
 7359 260f 16       		.uleb128 0x16
 7360 2610 83000000 		.4byte	0x83
 7361 2614 00       		.byte	0
 7362 2615 29       		.uleb128 0x29
 7363 2616 19020000 		.4byte	.LASF643
 7364 261a 0F       		.byte	0xf
 7365 261b 3C       		.byte	0x3c
 7366 261c 2B260000 		.4byte	0x262b
 7367 2620 16       		.uleb128 0x16
 7368 2621 83000000 		.4byte	0x83
 7369 2625 16       		.uleb128 0x16
 7370 2626 83000000 		.4byte	0x83
 7371 262a 00       		.byte	0
ARM GAS  C:\Users\Petro\AppData\Local\Temp\ccvLNIXl.s 			page 154


 7372 262b 29       		.uleb128 0x29
 7373 262c 9E350000 		.4byte	.LASF644
 7374 2630 0F       		.byte	0xf
 7375 2631 43       		.byte	0x43
 7376 2632 3C260000 		.4byte	0x263c
 7377 2636 16       		.uleb128 0x16
 7378 2637 83000000 		.4byte	0x83
 7379 263b 00       		.byte	0
 7380 263c 29       		.uleb128 0x29
 7381 263d 93410000 		.4byte	.LASF645
 7382 2641 0F       		.byte	0xf
 7383 2642 38       		.byte	0x38
 7384 2643 4D260000 		.4byte	0x264d
 7385 2647 16       		.uleb128 0x16
 7386 2648 83000000 		.4byte	0x83
 7387 264c 00       		.byte	0
 7388 264d 2D       		.uleb128 0x2d
 7389 264e 82300000 		.4byte	.LASF646
 7390 2652 0F       		.byte	0xf
 7391 2653 31       		.byte	0x31
 7392 2654 29       		.uleb128 0x29
 7393 2655 1C450000 		.4byte	.LASF647
 7394 2659 0F       		.byte	0xf
 7395 265a 39       		.byte	0x39
 7396 265b 65260000 		.4byte	0x2665
 7397 265f 16       		.uleb128 0x16
 7398 2660 83000000 		.4byte	0x83
 7399 2664 00       		.byte	0
 7400 2665 2D       		.uleb128 0x2d
 7401 2666 562B0000 		.4byte	.LASF648
 7402 266a 19       		.byte	0x19
 7403 266b 68       		.byte	0x68
 7404 266c 2B       		.uleb128 0x2b
 7405 266d BB2A0000 		.4byte	.LASF649
 7406 2671 09       		.byte	0x9
 7407 2672 9C01     		.2byte	0x19c
 7408 2674 40030000 		.4byte	0x340
 7409 2678 82260000 		.4byte	0x2682
 7410 267c 16       		.uleb128 0x16
 7411 267d DE090000 		.4byte	0x9de
 7412 2681 00       		.byte	0
 7413 2682 2D       		.uleb128 0x2d
 7414 2683 4C110000 		.4byte	.LASF650
 7415 2687 0D       		.byte	0xd
 7416 2688 BF       		.byte	0xbf
 7417 2689 33       		.uleb128 0x33
 7418 268a B8360000 		.4byte	.LASF651
 7419 268e 04       		.byte	0x4
 7420 268f A304     		.2byte	0x4a3
 7421 2691 2C       		.uleb128 0x2c
 7422 2692 F10F0000 		.4byte	.LASF652
 7423 2696 13       		.byte	0x13
 7424 2697 6A01     		.2byte	0x16a
 7425 2699 83000000 		.4byte	0x83
 7426 269d 33       		.uleb128 0x33
 7427 269e 18200000 		.4byte	.LASF653
 7428 26a2 09       		.byte	0x9
ARM GAS  C:\Users\Petro\AppData\Local\Temp\ccvLNIXl.s 			page 155


 7429 26a3 B901     		.2byte	0x1b9
 7430 26a5 2C       		.uleb128 0x2c
 7431 26a6 E6180000 		.4byte	.LASF654
 7432 26aa 09       		.byte	0x9
 7433 26ab BE01     		.2byte	0x1be
 7434 26ad 40030000 		.4byte	0x340
 7435 26b1 2B       		.uleb128 0x2b
 7436 26b2 73200000 		.4byte	.LASF655
 7437 26b6 06       		.byte	0x6
 7438 26b7 DA04     		.2byte	0x4da
 7439 26b9 40030000 		.4byte	0x340
 7440 26bd C7260000 		.4byte	0x26c7
 7441 26c1 16       		.uleb128 0x16
 7442 26c2 6B000000 		.4byte	0x6b
 7443 26c6 00       		.byte	0
 7444 26c7 2E       		.uleb128 0x2e
 7445 26c8 E21E0000 		.4byte	.LASF656
 7446 26cc 0A       		.byte	0xa
 7447 26cd BC       		.byte	0xbc
 7448 26ce 40030000 		.4byte	0x340
 7449 26d2 DC260000 		.4byte	0x26dc
 7450 26d6 16       		.uleb128 0x16
 7451 26d7 BB070000 		.4byte	0x7bb
 7452 26db 00       		.byte	0
 7453 26dc 2E       		.uleb128 0x2e
 7454 26dd 862D0000 		.4byte	.LASF657
 7455 26e1 0B       		.byte	0xb
 7456 26e2 A7       		.byte	0xa7
 7457 26e3 40030000 		.4byte	0x340
 7458 26e7 05270000 		.4byte	0x2705
 7459 26eb 16       		.uleb128 0x16
 7460 26ec BB070000 		.4byte	0x7bb
 7461 26f0 16       		.uleb128 0x16
 7462 26f1 B10A0000 		.4byte	0xab1
 7463 26f5 16       		.uleb128 0x16
 7464 26f6 D10A0000 		.4byte	0xad1
 7465 26fa 16       		.uleb128 0x16
 7466 26fb 6B000000 		.4byte	0x6b
 7467 26ff 16       		.uleb128 0x16
 7468 2700 6B050000 		.4byte	0x56b
 7469 2704 00       		.byte	0
 7470 2705 2E       		.uleb128 0x2e
 7471 2706 A2340000 		.4byte	.LASF658
 7472 270a 0B       		.byte	0xb
 7473 270b A6       		.byte	0xa6
 7474 270c 40030000 		.4byte	0x340
 7475 2710 1F270000 		.4byte	0x271f
 7476 2714 16       		.uleb128 0x16
 7477 2715 BB070000 		.4byte	0x7bb
 7478 2719 16       		.uleb128 0x16
 7479 271a B10A0000 		.4byte	0xab1
 7480 271e 00       		.byte	0
 7481 271f 34       		.uleb128 0x34
 7482 2720 0E460000 		.4byte	.LASF659
 7483 2724 0B       		.byte	0xb
 7484 2725 A4       		.byte	0xa4
 7485 2726 40030000 		.4byte	0x340
ARM GAS  C:\Users\Petro\AppData\Local\Temp\ccvLNIXl.s 			page 156


 7486 272a 16       		.uleb128 0x16
 7487 272b BB070000 		.4byte	0x7bb
 7488 272f 16       		.uleb128 0x16
 7489 2730 B10A0000 		.4byte	0xab1
 7490 2734 16       		.uleb128 0x16
 7491 2735 6B000000 		.4byte	0x6b
 7492 2739 16       		.uleb128 0x16
 7493 273a 6B050000 		.4byte	0x56b
 7494 273e 00       		.byte	0
 7495 273f 00       		.byte	0
 7496              		.section	.debug_abbrev,"",%progbits
 7497              	.Ldebug_abbrev0:
 7498 0000 01       		.uleb128 0x1
 7499 0001 11       		.uleb128 0x11
 7500 0002 01       		.byte	0x1
 7501 0003 25       		.uleb128 0x25
 7502 0004 0E       		.uleb128 0xe
 7503 0005 13       		.uleb128 0x13
 7504 0006 0B       		.uleb128 0xb
 7505 0007 03       		.uleb128 0x3
 7506 0008 0E       		.uleb128 0xe
 7507 0009 1B       		.uleb128 0x1b
 7508 000a 0E       		.uleb128 0xe
 7509 000b 55       		.uleb128 0x55
 7510 000c 17       		.uleb128 0x17
 7511 000d 11       		.uleb128 0x11
 7512 000e 01       		.uleb128 0x1
 7513 000f 10       		.uleb128 0x10
 7514 0010 17       		.uleb128 0x17
 7515 0011 00       		.byte	0
 7516 0012 00       		.byte	0
 7517 0013 02       		.uleb128 0x2
 7518 0014 24       		.uleb128 0x24
 7519 0015 00       		.byte	0
 7520 0016 0B       		.uleb128 0xb
 7521 0017 0B       		.uleb128 0xb
 7522 0018 3E       		.uleb128 0x3e
 7523 0019 0B       		.uleb128 0xb
 7524 001a 03       		.uleb128 0x3
 7525 001b 0E       		.uleb128 0xe
 7526 001c 00       		.byte	0
 7527 001d 00       		.byte	0
 7528 001e 03       		.uleb128 0x3
 7529 001f 24       		.uleb128 0x24
 7530 0020 00       		.byte	0
 7531 0021 0B       		.uleb128 0xb
 7532 0022 0B       		.uleb128 0xb
 7533 0023 3E       		.uleb128 0x3e
 7534 0024 0B       		.uleb128 0xb
 7535 0025 03       		.uleb128 0x3
 7536 0026 08       		.uleb128 0x8
 7537 0027 00       		.byte	0
 7538 0028 00       		.byte	0
 7539 0029 04       		.uleb128 0x4
 7540 002a 16       		.uleb128 0x16
 7541 002b 00       		.byte	0
 7542 002c 03       		.uleb128 0x3
ARM GAS  C:\Users\Petro\AppData\Local\Temp\ccvLNIXl.s 			page 157


 7543 002d 0E       		.uleb128 0xe
 7544 002e 3A       		.uleb128 0x3a
 7545 002f 0B       		.uleb128 0xb
 7546 0030 3B       		.uleb128 0x3b
 7547 0031 05       		.uleb128 0x5
 7548 0032 49       		.uleb128 0x49
 7549 0033 13       		.uleb128 0x13
 7550 0034 00       		.byte	0
 7551 0035 00       		.byte	0
 7552 0036 05       		.uleb128 0x5
 7553 0037 35       		.uleb128 0x35
 7554 0038 00       		.byte	0
 7555 0039 49       		.uleb128 0x49
 7556 003a 13       		.uleb128 0x13
 7557 003b 00       		.byte	0
 7558 003c 00       		.byte	0
 7559 003d 06       		.uleb128 0x6
 7560 003e 0F       		.uleb128 0xf
 7561 003f 00       		.byte	0
 7562 0040 0B       		.uleb128 0xb
 7563 0041 0B       		.uleb128 0xb
 7564 0042 49       		.uleb128 0x49
 7565 0043 13       		.uleb128 0x13
 7566 0044 00       		.byte	0
 7567 0045 00       		.byte	0
 7568 0046 07       		.uleb128 0x7
 7569 0047 15       		.uleb128 0x15
 7570 0048 00       		.byte	0
 7571 0049 27       		.uleb128 0x27
 7572 004a 19       		.uleb128 0x19
 7573 004b 00       		.byte	0
 7574 004c 00       		.byte	0
 7575 004d 08       		.uleb128 0x8
 7576 004e 16       		.uleb128 0x16
 7577 004f 00       		.byte	0
 7578 0050 03       		.uleb128 0x3
 7579 0051 0E       		.uleb128 0xe
 7580 0052 3A       		.uleb128 0x3a
 7581 0053 0B       		.uleb128 0xb
 7582 0054 3B       		.uleb128 0x3b
 7583 0055 0B       		.uleb128 0xb
 7584 0056 49       		.uleb128 0x49
 7585 0057 13       		.uleb128 0x13
 7586 0058 00       		.byte	0
 7587 0059 00       		.byte	0
 7588 005a 09       		.uleb128 0x9
 7589 005b 0F       		.uleb128 0xf
 7590 005c 00       		.byte	0
 7591 005d 0B       		.uleb128 0xb
 7592 005e 0B       		.uleb128 0xb
 7593 005f 00       		.byte	0
 7594 0060 00       		.byte	0
 7595 0061 0A       		.uleb128 0xa
 7596 0062 26       		.uleb128 0x26
 7597 0063 00       		.byte	0
 7598 0064 49       		.uleb128 0x49
 7599 0065 13       		.uleb128 0x13
ARM GAS  C:\Users\Petro\AppData\Local\Temp\ccvLNIXl.s 			page 158


 7600 0066 00       		.byte	0
 7601 0067 00       		.byte	0
 7602 0068 0B       		.uleb128 0xb
 7603 0069 04       		.uleb128 0x4
 7604 006a 01       		.byte	0x1
 7605 006b 0B       		.uleb128 0xb
 7606 006c 0B       		.uleb128 0xb
 7607 006d 3A       		.uleb128 0x3a
 7608 006e 0B       		.uleb128 0xb
 7609 006f 3B       		.uleb128 0x3b
 7610 0070 0B       		.uleb128 0xb
 7611 0071 01       		.uleb128 0x1
 7612 0072 13       		.uleb128 0x13
 7613 0073 00       		.byte	0
 7614 0074 00       		.byte	0
 7615 0075 0C       		.uleb128 0xc
 7616 0076 28       		.uleb128 0x28
 7617 0077 00       		.byte	0
 7618 0078 03       		.uleb128 0x3
 7619 0079 0E       		.uleb128 0xe
 7620 007a 1C       		.uleb128 0x1c
 7621 007b 0D       		.uleb128 0xd
 7622 007c 00       		.byte	0
 7623 007d 00       		.byte	0
 7624 007e 0D       		.uleb128 0xd
 7625 007f 04       		.uleb128 0x4
 7626 0080 01       		.byte	0x1
 7627 0081 0B       		.uleb128 0xb
 7628 0082 0B       		.uleb128 0xb
 7629 0083 3A       		.uleb128 0x3a
 7630 0084 0B       		.uleb128 0xb
 7631 0085 3B       		.uleb128 0x3b
 7632 0086 05       		.uleb128 0x5
 7633 0087 01       		.uleb128 0x1
 7634 0088 13       		.uleb128 0x13
 7635 0089 00       		.byte	0
 7636 008a 00       		.byte	0
 7637 008b 0E       		.uleb128 0xe
 7638 008c 13       		.uleb128 0x13
 7639 008d 01       		.byte	0x1
 7640 008e 0B       		.uleb128 0xb
 7641 008f 0B       		.uleb128 0xb
 7642 0090 3A       		.uleb128 0x3a
 7643 0091 0B       		.uleb128 0xb
 7644 0092 3B       		.uleb128 0x3b
 7645 0093 05       		.uleb128 0x5
 7646 0094 01       		.uleb128 0x1
 7647 0095 13       		.uleb128 0x13
 7648 0096 00       		.byte	0
 7649 0097 00       		.byte	0
 7650 0098 0F       		.uleb128 0xf
 7651 0099 0D       		.uleb128 0xd
 7652 009a 00       		.byte	0
 7653 009b 03       		.uleb128 0x3
 7654 009c 0E       		.uleb128 0xe
 7655 009d 3A       		.uleb128 0x3a
 7656 009e 0B       		.uleb128 0xb
ARM GAS  C:\Users\Petro\AppData\Local\Temp\ccvLNIXl.s 			page 159


 7657 009f 3B       		.uleb128 0x3b
 7658 00a0 05       		.uleb128 0x5
 7659 00a1 49       		.uleb128 0x49
 7660 00a2 13       		.uleb128 0x13
 7661 00a3 38       		.uleb128 0x38
 7662 00a4 0B       		.uleb128 0xb
 7663 00a5 00       		.byte	0
 7664 00a6 00       		.byte	0
 7665 00a7 10       		.uleb128 0x10
 7666 00a8 01       		.uleb128 0x1
 7667 00a9 01       		.byte	0x1
 7668 00aa 49       		.uleb128 0x49
 7669 00ab 13       		.uleb128 0x13
 7670 00ac 01       		.uleb128 0x1
 7671 00ad 13       		.uleb128 0x13
 7672 00ae 00       		.byte	0
 7673 00af 00       		.byte	0
 7674 00b0 11       		.uleb128 0x11
 7675 00b1 21       		.uleb128 0x21
 7676 00b2 00       		.byte	0
 7677 00b3 49       		.uleb128 0x49
 7678 00b4 13       		.uleb128 0x13
 7679 00b5 2F       		.uleb128 0x2f
 7680 00b6 0B       		.uleb128 0xb
 7681 00b7 00       		.byte	0
 7682 00b8 00       		.byte	0
 7683 00b9 12       		.uleb128 0x12
 7684 00ba 0D       		.uleb128 0xd
 7685 00bb 00       		.byte	0
 7686 00bc 03       		.uleb128 0x3
 7687 00bd 08       		.uleb128 0x8
 7688 00be 3A       		.uleb128 0x3a
 7689 00bf 0B       		.uleb128 0xb
 7690 00c0 3B       		.uleb128 0x3b
 7691 00c1 05       		.uleb128 0x5
 7692 00c2 49       		.uleb128 0x49
 7693 00c3 13       		.uleb128 0x13
 7694 00c4 38       		.uleb128 0x38
 7695 00c5 0B       		.uleb128 0xb
 7696 00c6 00       		.byte	0
 7697 00c7 00       		.byte	0
 7698 00c8 13       		.uleb128 0x13
 7699 00c9 13       		.uleb128 0x13
 7700 00ca 01       		.byte	0x1
 7701 00cb 0B       		.uleb128 0xb
 7702 00cc 0B       		.uleb128 0xb
 7703 00cd 3A       		.uleb128 0x3a
 7704 00ce 0B       		.uleb128 0xb
 7705 00cf 3B       		.uleb128 0x3b
 7706 00d0 0B       		.uleb128 0xb
 7707 00d1 01       		.uleb128 0x1
 7708 00d2 13       		.uleb128 0x13
 7709 00d3 00       		.byte	0
 7710 00d4 00       		.byte	0
 7711 00d5 14       		.uleb128 0x14
 7712 00d6 0D       		.uleb128 0xd
 7713 00d7 00       		.byte	0
ARM GAS  C:\Users\Petro\AppData\Local\Temp\ccvLNIXl.s 			page 160


 7714 00d8 03       		.uleb128 0x3
 7715 00d9 0E       		.uleb128 0xe
 7716 00da 3A       		.uleb128 0x3a
 7717 00db 0B       		.uleb128 0xb
 7718 00dc 3B       		.uleb128 0x3b
 7719 00dd 0B       		.uleb128 0xb
 7720 00de 49       		.uleb128 0x49
 7721 00df 13       		.uleb128 0x13
 7722 00e0 38       		.uleb128 0x38
 7723 00e1 0B       		.uleb128 0xb
 7724 00e2 00       		.byte	0
 7725 00e3 00       		.byte	0
 7726 00e4 15       		.uleb128 0x15
 7727 00e5 15       		.uleb128 0x15
 7728 00e6 01       		.byte	0x1
 7729 00e7 27       		.uleb128 0x27
 7730 00e8 19       		.uleb128 0x19
 7731 00e9 01       		.uleb128 0x1
 7732 00ea 13       		.uleb128 0x13
 7733 00eb 00       		.byte	0
 7734 00ec 00       		.byte	0
 7735 00ed 16       		.uleb128 0x16
 7736 00ee 05       		.uleb128 0x5
 7737 00ef 00       		.byte	0
 7738 00f0 49       		.uleb128 0x49
 7739 00f1 13       		.uleb128 0x13
 7740 00f2 00       		.byte	0
 7741 00f3 00       		.byte	0
 7742 00f4 17       		.uleb128 0x17
 7743 00f5 2E       		.uleb128 0x2e
 7744 00f6 01       		.byte	0x1
 7745 00f7 3F       		.uleb128 0x3f
 7746 00f8 19       		.uleb128 0x19
 7747 00f9 03       		.uleb128 0x3
 7748 00fa 0E       		.uleb128 0xe
 7749 00fb 3A       		.uleb128 0x3a
 7750 00fc 0B       		.uleb128 0xb
 7751 00fd 3B       		.uleb128 0x3b
 7752 00fe 05       		.uleb128 0x5
 7753 00ff 27       		.uleb128 0x27
 7754 0100 19       		.uleb128 0x19
 7755 0101 11       		.uleb128 0x11
 7756 0102 01       		.uleb128 0x1
 7757 0103 12       		.uleb128 0x12
 7758 0104 06       		.uleb128 0x6
 7759 0105 40       		.uleb128 0x40
 7760 0106 18       		.uleb128 0x18
 7761 0107 9742     		.uleb128 0x2117
 7762 0109 19       		.uleb128 0x19
 7763 010a 01       		.uleb128 0x1
 7764 010b 13       		.uleb128 0x13
 7765 010c 00       		.byte	0
 7766 010d 00       		.byte	0
 7767 010e 18       		.uleb128 0x18
 7768 010f 0B       		.uleb128 0xb
 7769 0110 01       		.byte	0x1
 7770 0111 11       		.uleb128 0x11
ARM GAS  C:\Users\Petro\AppData\Local\Temp\ccvLNIXl.s 			page 161


 7771 0112 01       		.uleb128 0x1
 7772 0113 12       		.uleb128 0x12
 7773 0114 06       		.uleb128 0x6
 7774 0115 01       		.uleb128 0x1
 7775 0116 13       		.uleb128 0x13
 7776 0117 00       		.byte	0
 7777 0118 00       		.byte	0
 7778 0119 19       		.uleb128 0x19
 7779 011a 34       		.uleb128 0x34
 7780 011b 00       		.byte	0
 7781 011c 03       		.uleb128 0x3
 7782 011d 08       		.uleb128 0x8
 7783 011e 3A       		.uleb128 0x3a
 7784 011f 0B       		.uleb128 0xb
 7785 0120 3B       		.uleb128 0x3b
 7786 0121 05       		.uleb128 0x5
 7787 0122 49       		.uleb128 0x49
 7788 0123 13       		.uleb128 0x13
 7789 0124 02       		.uleb128 0x2
 7790 0125 18       		.uleb128 0x18
 7791 0126 00       		.byte	0
 7792 0127 00       		.byte	0
 7793 0128 1A       		.uleb128 0x1a
 7794 0129 898201   		.uleb128 0x4109
 7795 012c 00       		.byte	0
 7796 012d 11       		.uleb128 0x11
 7797 012e 01       		.uleb128 0x1
 7798 012f 31       		.uleb128 0x31
 7799 0130 13       		.uleb128 0x13
 7800 0131 00       		.byte	0
 7801 0132 00       		.byte	0
 7802 0133 1B       		.uleb128 0x1b
 7803 0134 898201   		.uleb128 0x4109
 7804 0137 01       		.byte	0x1
 7805 0138 11       		.uleb128 0x11
 7806 0139 01       		.uleb128 0x1
 7807 013a 31       		.uleb128 0x31
 7808 013b 13       		.uleb128 0x13
 7809 013c 00       		.byte	0
 7810 013d 00       		.byte	0
 7811 013e 1C       		.uleb128 0x1c
 7812 013f 8A8201   		.uleb128 0x410a
 7813 0142 00       		.byte	0
 7814 0143 02       		.uleb128 0x2
 7815 0144 18       		.uleb128 0x18
 7816 0145 9142     		.uleb128 0x2111
 7817 0147 18       		.uleb128 0x18
 7818 0148 00       		.byte	0
 7819 0149 00       		.byte	0
 7820 014a 1D       		.uleb128 0x1d
 7821 014b 2E       		.uleb128 0x2e
 7822 014c 01       		.byte	0x1
 7823 014d 03       		.uleb128 0x3
 7824 014e 0E       		.uleb128 0xe
 7825 014f 3A       		.uleb128 0x3a
 7826 0150 0B       		.uleb128 0xb
 7827 0151 3B       		.uleb128 0x3b
ARM GAS  C:\Users\Petro\AppData\Local\Temp\ccvLNIXl.s 			page 162


 7828 0152 05       		.uleb128 0x5
 7829 0153 27       		.uleb128 0x27
 7830 0154 19       		.uleb128 0x19
 7831 0155 11       		.uleb128 0x11
 7832 0156 01       		.uleb128 0x1
 7833 0157 12       		.uleb128 0x12
 7834 0158 06       		.uleb128 0x6
 7835 0159 40       		.uleb128 0x40
 7836 015a 18       		.uleb128 0x18
 7837 015b 9742     		.uleb128 0x2117
 7838 015d 19       		.uleb128 0x19
 7839 015e 01       		.uleb128 0x1
 7840 015f 13       		.uleb128 0x13
 7841 0160 00       		.byte	0
 7842 0161 00       		.byte	0
 7843 0162 1E       		.uleb128 0x1e
 7844 0163 34       		.uleb128 0x34
 7845 0164 00       		.byte	0
 7846 0165 03       		.uleb128 0x3
 7847 0166 0E       		.uleb128 0xe
 7848 0167 3A       		.uleb128 0x3a
 7849 0168 0B       		.uleb128 0xb
 7850 0169 3B       		.uleb128 0x3b
 7851 016a 05       		.uleb128 0x5
 7852 016b 49       		.uleb128 0x49
 7853 016c 13       		.uleb128 0x13
 7854 016d 02       		.uleb128 0x2
 7855 016e 17       		.uleb128 0x17
 7856 016f 00       		.byte	0
 7857 0170 00       		.byte	0
 7858 0171 1F       		.uleb128 0x1f
 7859 0172 898201   		.uleb128 0x4109
 7860 0175 01       		.byte	0x1
 7861 0176 11       		.uleb128 0x11
 7862 0177 01       		.uleb128 0x1
 7863 0178 31       		.uleb128 0x31
 7864 0179 13       		.uleb128 0x13
 7865 017a 01       		.uleb128 0x1
 7866 017b 13       		.uleb128 0x13
 7867 017c 00       		.byte	0
 7868 017d 00       		.byte	0
 7869 017e 20       		.uleb128 0x20
 7870 017f 2E       		.uleb128 0x2e
 7871 0180 01       		.byte	0x1
 7872 0181 3F       		.uleb128 0x3f
 7873 0182 19       		.uleb128 0x19
 7874 0183 03       		.uleb128 0x3
 7875 0184 0E       		.uleb128 0xe
 7876 0185 3A       		.uleb128 0x3a
 7877 0186 0B       		.uleb128 0xb
 7878 0187 3B       		.uleb128 0x3b
 7879 0188 0B       		.uleb128 0xb
 7880 0189 27       		.uleb128 0x27
 7881 018a 19       		.uleb128 0x19
 7882 018b 11       		.uleb128 0x11
 7883 018c 01       		.uleb128 0x1
 7884 018d 12       		.uleb128 0x12
ARM GAS  C:\Users\Petro\AppData\Local\Temp\ccvLNIXl.s 			page 163


 7885 018e 06       		.uleb128 0x6
 7886 018f 40       		.uleb128 0x40
 7887 0190 18       		.uleb128 0x18
 7888 0191 9742     		.uleb128 0x2117
 7889 0193 19       		.uleb128 0x19
 7890 0194 01       		.uleb128 0x1
 7891 0195 13       		.uleb128 0x13
 7892 0196 00       		.byte	0
 7893 0197 00       		.byte	0
 7894 0198 21       		.uleb128 0x21
 7895 0199 05       		.uleb128 0x5
 7896 019a 00       		.byte	0
 7897 019b 03       		.uleb128 0x3
 7898 019c 0E       		.uleb128 0xe
 7899 019d 3A       		.uleb128 0x3a
 7900 019e 0B       		.uleb128 0xb
 7901 019f 3B       		.uleb128 0x3b
 7902 01a0 0B       		.uleb128 0xb
 7903 01a1 49       		.uleb128 0x49
 7904 01a2 13       		.uleb128 0x13
 7905 01a3 02       		.uleb128 0x2
 7906 01a4 17       		.uleb128 0x17
 7907 01a5 00       		.byte	0
 7908 01a6 00       		.byte	0
 7909 01a7 22       		.uleb128 0x22
 7910 01a8 34       		.uleb128 0x34
 7911 01a9 00       		.byte	0
 7912 01aa 03       		.uleb128 0x3
 7913 01ab 0E       		.uleb128 0xe
 7914 01ac 3A       		.uleb128 0x3a
 7915 01ad 0B       		.uleb128 0xb
 7916 01ae 3B       		.uleb128 0x3b
 7917 01af 0B       		.uleb128 0xb
 7918 01b0 49       		.uleb128 0x49
 7919 01b1 13       		.uleb128 0x13
 7920 01b2 02       		.uleb128 0x2
 7921 01b3 17       		.uleb128 0x17
 7922 01b4 00       		.byte	0
 7923 01b5 00       		.byte	0
 7924 01b6 23       		.uleb128 0x23
 7925 01b7 34       		.uleb128 0x34
 7926 01b8 00       		.byte	0
 7927 01b9 03       		.uleb128 0x3
 7928 01ba 08       		.uleb128 0x8
 7929 01bb 3A       		.uleb128 0x3a
 7930 01bc 0B       		.uleb128 0xb
 7931 01bd 3B       		.uleb128 0x3b
 7932 01be 0B       		.uleb128 0xb
 7933 01bf 49       		.uleb128 0x49
 7934 01c0 13       		.uleb128 0x13
 7935 01c1 02       		.uleb128 0x2
 7936 01c2 17       		.uleb128 0x17
 7937 01c3 00       		.byte	0
 7938 01c4 00       		.byte	0
 7939 01c5 24       		.uleb128 0x24
 7940 01c6 34       		.uleb128 0x34
 7941 01c7 00       		.byte	0
ARM GAS  C:\Users\Petro\AppData\Local\Temp\ccvLNIXl.s 			page 164


 7942 01c8 03       		.uleb128 0x3
 7943 01c9 0E       		.uleb128 0xe
 7944 01ca 3A       		.uleb128 0x3a
 7945 01cb 0B       		.uleb128 0xb
 7946 01cc 3B       		.uleb128 0x3b
 7947 01cd 0B       		.uleb128 0xb
 7948 01ce 49       		.uleb128 0x49
 7949 01cf 13       		.uleb128 0x13
 7950 01d0 02       		.uleb128 0x2
 7951 01d1 18       		.uleb128 0x18
 7952 01d2 00       		.byte	0
 7953 01d3 00       		.byte	0
 7954 01d4 25       		.uleb128 0x25
 7955 01d5 2E       		.uleb128 0x2e
 7956 01d6 01       		.byte	0x1
 7957 01d7 3F       		.uleb128 0x3f
 7958 01d8 19       		.uleb128 0x19
 7959 01d9 03       		.uleb128 0x3
 7960 01da 0E       		.uleb128 0xe
 7961 01db 3A       		.uleb128 0x3a
 7962 01dc 0B       		.uleb128 0xb
 7963 01dd 3B       		.uleb128 0x3b
 7964 01de 05       		.uleb128 0x5
 7965 01df 49       		.uleb128 0x49
 7966 01e0 13       		.uleb128 0x13
 7967 01e1 11       		.uleb128 0x11
 7968 01e2 01       		.uleb128 0x1
 7969 01e3 12       		.uleb128 0x12
 7970 01e4 06       		.uleb128 0x6
 7971 01e5 40       		.uleb128 0x40
 7972 01e6 18       		.uleb128 0x18
 7973 01e7 9742     		.uleb128 0x2117
 7974 01e9 19       		.uleb128 0x19
 7975 01ea 01       		.uleb128 0x1
 7976 01eb 13       		.uleb128 0x13
 7977 01ec 00       		.byte	0
 7978 01ed 00       		.byte	0
 7979 01ee 26       		.uleb128 0x26
 7980 01ef 34       		.uleb128 0x34
 7981 01f0 00       		.byte	0
 7982 01f1 03       		.uleb128 0x3
 7983 01f2 0E       		.uleb128 0xe
 7984 01f3 3A       		.uleb128 0x3a
 7985 01f4 0B       		.uleb128 0xb
 7986 01f5 3B       		.uleb128 0x3b
 7987 01f6 05       		.uleb128 0x5
 7988 01f7 49       		.uleb128 0x49
 7989 01f8 13       		.uleb128 0x13
 7990 01f9 3F       		.uleb128 0x3f
 7991 01fa 19       		.uleb128 0x19
 7992 01fb 3C       		.uleb128 0x3c
 7993 01fc 19       		.uleb128 0x19
 7994 01fd 00       		.byte	0
 7995 01fe 00       		.byte	0
 7996 01ff 27       		.uleb128 0x27
 7997 0200 34       		.uleb128 0x34
 7998 0201 00       		.byte	0
ARM GAS  C:\Users\Petro\AppData\Local\Temp\ccvLNIXl.s 			page 165


 7999 0202 03       		.uleb128 0x3
 8000 0203 0E       		.uleb128 0xe
 8001 0204 3A       		.uleb128 0x3a
 8002 0205 0B       		.uleb128 0xb
 8003 0206 3B       		.uleb128 0x3b
 8004 0207 0B       		.uleb128 0xb
 8005 0208 49       		.uleb128 0x49
 8006 0209 13       		.uleb128 0x13
 8007 020a 3F       		.uleb128 0x3f
 8008 020b 19       		.uleb128 0x19
 8009 020c 3C       		.uleb128 0x3c
 8010 020d 19       		.uleb128 0x19
 8011 020e 00       		.byte	0
 8012 020f 00       		.byte	0
 8013 0210 28       		.uleb128 0x28
 8014 0211 34       		.uleb128 0x34
 8015 0212 00       		.byte	0
 8016 0213 03       		.uleb128 0x3
 8017 0214 0E       		.uleb128 0xe
 8018 0215 3A       		.uleb128 0x3a
 8019 0216 0B       		.uleb128 0xb
 8020 0217 3B       		.uleb128 0x3b
 8021 0218 0B       		.uleb128 0xb
 8022 0219 49       		.uleb128 0x49
 8023 021a 13       		.uleb128 0x13
 8024 021b 3F       		.uleb128 0x3f
 8025 021c 19       		.uleb128 0x19
 8026 021d 02       		.uleb128 0x2
 8027 021e 18       		.uleb128 0x18
 8028 021f 00       		.byte	0
 8029 0220 00       		.byte	0
 8030 0221 29       		.uleb128 0x29
 8031 0222 2E       		.uleb128 0x2e
 8032 0223 01       		.byte	0x1
 8033 0224 3F       		.uleb128 0x3f
 8034 0225 19       		.uleb128 0x19
 8035 0226 03       		.uleb128 0x3
 8036 0227 0E       		.uleb128 0xe
 8037 0228 3A       		.uleb128 0x3a
 8038 0229 0B       		.uleb128 0xb
 8039 022a 3B       		.uleb128 0x3b
 8040 022b 0B       		.uleb128 0xb
 8041 022c 27       		.uleb128 0x27
 8042 022d 19       		.uleb128 0x19
 8043 022e 3C       		.uleb128 0x3c
 8044 022f 19       		.uleb128 0x19
 8045 0230 01       		.uleb128 0x1
 8046 0231 13       		.uleb128 0x13
 8047 0232 00       		.byte	0
 8048 0233 00       		.byte	0
 8049 0234 2A       		.uleb128 0x2a
 8050 0235 2E       		.uleb128 0x2e
 8051 0236 00       		.byte	0
 8052 0237 3F       		.uleb128 0x3f
 8053 0238 19       		.uleb128 0x19
 8054 0239 03       		.uleb128 0x3
 8055 023a 0E       		.uleb128 0xe
ARM GAS  C:\Users\Petro\AppData\Local\Temp\ccvLNIXl.s 			page 166


 8056 023b 3A       		.uleb128 0x3a
 8057 023c 0B       		.uleb128 0xb
 8058 023d 3B       		.uleb128 0x3b
 8059 023e 0B       		.uleb128 0xb
 8060 023f 27       		.uleb128 0x27
 8061 0240 19       		.uleb128 0x19
 8062 0241 49       		.uleb128 0x49
 8063 0242 13       		.uleb128 0x13
 8064 0243 3C       		.uleb128 0x3c
 8065 0244 19       		.uleb128 0x19
 8066 0245 00       		.byte	0
 8067 0246 00       		.byte	0
 8068 0247 2B       		.uleb128 0x2b
 8069 0248 2E       		.uleb128 0x2e
 8070 0249 01       		.byte	0x1
 8071 024a 3F       		.uleb128 0x3f
 8072 024b 19       		.uleb128 0x19
 8073 024c 03       		.uleb128 0x3
 8074 024d 0E       		.uleb128 0xe
 8075 024e 3A       		.uleb128 0x3a
 8076 024f 0B       		.uleb128 0xb
 8077 0250 3B       		.uleb128 0x3b
 8078 0251 05       		.uleb128 0x5
 8079 0252 27       		.uleb128 0x27
 8080 0253 19       		.uleb128 0x19
 8081 0254 49       		.uleb128 0x49
 8082 0255 13       		.uleb128 0x13
 8083 0256 3C       		.uleb128 0x3c
 8084 0257 19       		.uleb128 0x19
 8085 0258 01       		.uleb128 0x1
 8086 0259 13       		.uleb128 0x13
 8087 025a 00       		.byte	0
 8088 025b 00       		.byte	0
 8089 025c 2C       		.uleb128 0x2c
 8090 025d 2E       		.uleb128 0x2e
 8091 025e 00       		.byte	0
 8092 025f 3F       		.uleb128 0x3f
 8093 0260 19       		.uleb128 0x19
 8094 0261 03       		.uleb128 0x3
 8095 0262 0E       		.uleb128 0xe
 8096 0263 3A       		.uleb128 0x3a
 8097 0264 0B       		.uleb128 0xb
 8098 0265 3B       		.uleb128 0x3b
 8099 0266 05       		.uleb128 0x5
 8100 0267 27       		.uleb128 0x27
 8101 0268 19       		.uleb128 0x19
 8102 0269 49       		.uleb128 0x49
 8103 026a 13       		.uleb128 0x13
 8104 026b 3C       		.uleb128 0x3c
 8105 026c 19       		.uleb128 0x19
 8106 026d 00       		.byte	0
 8107 026e 00       		.byte	0
 8108 026f 2D       		.uleb128 0x2d
 8109 0270 2E       		.uleb128 0x2e
 8110 0271 00       		.byte	0
 8111 0272 3F       		.uleb128 0x3f
 8112 0273 19       		.uleb128 0x19
ARM GAS  C:\Users\Petro\AppData\Local\Temp\ccvLNIXl.s 			page 167


 8113 0274 03       		.uleb128 0x3
 8114 0275 0E       		.uleb128 0xe
 8115 0276 3A       		.uleb128 0x3a
 8116 0277 0B       		.uleb128 0xb
 8117 0278 3B       		.uleb128 0x3b
 8118 0279 0B       		.uleb128 0xb
 8119 027a 27       		.uleb128 0x27
 8120 027b 19       		.uleb128 0x19
 8121 027c 3C       		.uleb128 0x3c
 8122 027d 19       		.uleb128 0x19
 8123 027e 00       		.byte	0
 8124 027f 00       		.byte	0
 8125 0280 2E       		.uleb128 0x2e
 8126 0281 2E       		.uleb128 0x2e
 8127 0282 01       		.byte	0x1
 8128 0283 3F       		.uleb128 0x3f
 8129 0284 19       		.uleb128 0x19
 8130 0285 03       		.uleb128 0x3
 8131 0286 0E       		.uleb128 0xe
 8132 0287 3A       		.uleb128 0x3a
 8133 0288 0B       		.uleb128 0xb
 8134 0289 3B       		.uleb128 0x3b
 8135 028a 0B       		.uleb128 0xb
 8136 028b 27       		.uleb128 0x27
 8137 028c 19       		.uleb128 0x19
 8138 028d 49       		.uleb128 0x49
 8139 028e 13       		.uleb128 0x13
 8140 028f 3C       		.uleb128 0x3c
 8141 0290 19       		.uleb128 0x19
 8142 0291 01       		.uleb128 0x1
 8143 0292 13       		.uleb128 0x13
 8144 0293 00       		.byte	0
 8145 0294 00       		.byte	0
 8146 0295 2F       		.uleb128 0x2f
 8147 0296 18       		.uleb128 0x18
 8148 0297 00       		.byte	0
 8149 0298 00       		.byte	0
 8150 0299 00       		.byte	0
 8151 029a 30       		.uleb128 0x30
 8152 029b 26       		.uleb128 0x26
 8153 029c 00       		.byte	0
 8154 029d 00       		.byte	0
 8155 029e 00       		.byte	0
 8156 029f 31       		.uleb128 0x31
 8157 02a0 2E       		.uleb128 0x2e
 8158 02a1 01       		.byte	0x1
 8159 02a2 3F       		.uleb128 0x3f
 8160 02a3 19       		.uleb128 0x19
 8161 02a4 03       		.uleb128 0x3
 8162 02a5 0E       		.uleb128 0xe
 8163 02a6 27       		.uleb128 0x27
 8164 02a7 19       		.uleb128 0x19
 8165 02a8 49       		.uleb128 0x49
 8166 02a9 13       		.uleb128 0x13
 8167 02aa 34       		.uleb128 0x34
 8168 02ab 19       		.uleb128 0x19
 8169 02ac 3C       		.uleb128 0x3c
ARM GAS  C:\Users\Petro\AppData\Local\Temp\ccvLNIXl.s 			page 168


 8170 02ad 19       		.uleb128 0x19
 8171 02ae 01       		.uleb128 0x1
 8172 02af 13       		.uleb128 0x13
 8173 02b0 00       		.byte	0
 8174 02b1 00       		.byte	0
 8175 02b2 32       		.uleb128 0x32
 8176 02b3 2E       		.uleb128 0x2e
 8177 02b4 01       		.byte	0x1
 8178 02b5 3F       		.uleb128 0x3f
 8179 02b6 19       		.uleb128 0x19
 8180 02b7 03       		.uleb128 0x3
 8181 02b8 0E       		.uleb128 0xe
 8182 02b9 3A       		.uleb128 0x3a
 8183 02ba 0B       		.uleb128 0xb
 8184 02bb 3B       		.uleb128 0x3b
 8185 02bc 0B       		.uleb128 0xb
 8186 02bd 6E       		.uleb128 0x6e
 8187 02be 0E       		.uleb128 0xe
 8188 02bf 27       		.uleb128 0x27
 8189 02c0 19       		.uleb128 0x19
 8190 02c1 49       		.uleb128 0x49
 8191 02c2 13       		.uleb128 0x13
 8192 02c3 3C       		.uleb128 0x3c
 8193 02c4 19       		.uleb128 0x19
 8194 02c5 01       		.uleb128 0x1
 8195 02c6 13       		.uleb128 0x13
 8196 02c7 00       		.byte	0
 8197 02c8 00       		.byte	0
 8198 02c9 33       		.uleb128 0x33
 8199 02ca 2E       		.uleb128 0x2e
 8200 02cb 00       		.byte	0
 8201 02cc 3F       		.uleb128 0x3f
 8202 02cd 19       		.uleb128 0x19
 8203 02ce 03       		.uleb128 0x3
 8204 02cf 0E       		.uleb128 0xe
 8205 02d0 3A       		.uleb128 0x3a
 8206 02d1 0B       		.uleb128 0xb
 8207 02d2 3B       		.uleb128 0x3b
 8208 02d3 05       		.uleb128 0x5
 8209 02d4 27       		.uleb128 0x27
 8210 02d5 19       		.uleb128 0x19
 8211 02d6 3C       		.uleb128 0x3c
 8212 02d7 19       		.uleb128 0x19
 8213 02d8 00       		.byte	0
 8214 02d9 00       		.byte	0
 8215 02da 34       		.uleb128 0x34
 8216 02db 2E       		.uleb128 0x2e
 8217 02dc 01       		.byte	0x1
 8218 02dd 3F       		.uleb128 0x3f
 8219 02de 19       		.uleb128 0x19
 8220 02df 03       		.uleb128 0x3
 8221 02e0 0E       		.uleb128 0xe
 8222 02e1 3A       		.uleb128 0x3a
 8223 02e2 0B       		.uleb128 0xb
 8224 02e3 3B       		.uleb128 0x3b
 8225 02e4 0B       		.uleb128 0xb
 8226 02e5 27       		.uleb128 0x27
ARM GAS  C:\Users\Petro\AppData\Local\Temp\ccvLNIXl.s 			page 169


 8227 02e6 19       		.uleb128 0x19
 8228 02e7 49       		.uleb128 0x49
 8229 02e8 13       		.uleb128 0x13
 8230 02e9 3C       		.uleb128 0x3c
 8231 02ea 19       		.uleb128 0x19
 8232 02eb 00       		.byte	0
 8233 02ec 00       		.byte	0
 8234 02ed 00       		.byte	0
 8235              		.section	.debug_loc,"",%progbits
 8236              	.Ldebug_loc0:
 8237              	.LLST0:
 8238 0000 14000000 		.4byte	.LVL4
 8239 0004 46000000 		.4byte	.LVL12
 8240 0008 0100     		.2byte	0x1
 8241 000a 55       		.byte	0x55
 8242 000b 00000000 		.4byte	0
 8243 000f 00000000 		.4byte	0
 8244              	.LLST1:
 8245 0013 1A000000 		.4byte	.LVL6
 8246 0017 46000000 		.4byte	.LVL12
 8247 001b 0100     		.2byte	0x1
 8248 001d 54       		.byte	0x54
 8249 001e 00000000 		.4byte	0
 8250 0022 00000000 		.4byte	0
 8251              	.LLST2:
 8252 0026 00000000 		.4byte	.LVL15
 8253 002a 20000000 		.4byte	.LVL18
 8254 002e 0100     		.2byte	0x1
 8255 0030 50       		.byte	0x50
 8256 0031 20000000 		.4byte	.LVL18
 8257 0035 23000000 		.4byte	.LVL19-1
 8258 0039 0100     		.2byte	0x1
 8259 003b 52       		.byte	0x52
 8260 003c 23000000 		.4byte	.LVL19-1
 8261 0040 38000000 		.4byte	.LVL24
 8262 0044 0400     		.2byte	0x4
 8263 0046 F3       		.byte	0xf3
 8264 0047 01       		.uleb128 0x1
 8265 0048 50       		.byte	0x50
 8266 0049 9F       		.byte	0x9f
 8267 004a 38000000 		.4byte	.LVL24
 8268 004e 3C000000 		.4byte	.LVL25
 8269 0052 0100     		.2byte	0x1
 8270 0054 50       		.byte	0x50
 8271 0055 3C000000 		.4byte	.LVL25
 8272 0059 3F000000 		.4byte	.LVL26-1
 8273 005d 0100     		.2byte	0x1
 8274 005f 52       		.byte	0x52
 8275 0060 3F000000 		.4byte	.LVL26-1
 8276 0064 42000000 		.4byte	.LVL27
 8277 0068 0400     		.2byte	0x4
 8278 006a F3       		.byte	0xf3
 8279 006b 01       		.uleb128 0x1
 8280 006c 50       		.byte	0x50
 8281 006d 9F       		.byte	0x9f
 8282 006e 42000000 		.4byte	.LVL27
 8283 0072 46000000 		.4byte	.LVL28
ARM GAS  C:\Users\Petro\AppData\Local\Temp\ccvLNIXl.s 			page 170


 8284 0076 0100     		.2byte	0x1
 8285 0078 50       		.byte	0x50
 8286 0079 46000000 		.4byte	.LVL28
 8287 007d 49000000 		.4byte	.LVL29-1
 8288 0081 0100     		.2byte	0x1
 8289 0083 52       		.byte	0x52
 8290 0084 49000000 		.4byte	.LVL29-1
 8291 0088 4C000000 		.4byte	.LVL30
 8292 008c 0400     		.2byte	0x4
 8293 008e F3       		.byte	0xf3
 8294 008f 01       		.uleb128 0x1
 8295 0090 50       		.byte	0x50
 8296 0091 9F       		.byte	0x9f
 8297 0092 4C000000 		.4byte	.LVL30
 8298 0096 50000000 		.4byte	.LVL31
 8299 009a 0100     		.2byte	0x1
 8300 009c 50       		.byte	0x50
 8301 009d 50000000 		.4byte	.LVL31
 8302 00a1 53000000 		.4byte	.LVL32-1
 8303 00a5 0100     		.2byte	0x1
 8304 00a7 52       		.byte	0x52
 8305 00a8 53000000 		.4byte	.LVL32-1
 8306 00ac 56000000 		.4byte	.LVL33
 8307 00b0 0400     		.2byte	0x4
 8308 00b2 F3       		.byte	0xf3
 8309 00b3 01       		.uleb128 0x1
 8310 00b4 50       		.byte	0x50
 8311 00b5 9F       		.byte	0x9f
 8312 00b6 56000000 		.4byte	.LVL33
 8313 00ba 5E000000 		.4byte	.LVL34
 8314 00be 0100     		.2byte	0x1
 8315 00c0 50       		.byte	0x50
 8316 00c1 5E000000 		.4byte	.LVL34
 8317 00c5 61000000 		.4byte	.LVL35-1
 8318 00c9 0100     		.2byte	0x1
 8319 00cb 52       		.byte	0x52
 8320 00cc 61000000 		.4byte	.LVL35-1
 8321 00d0 64000000 		.4byte	.LVL36
 8322 00d4 0400     		.2byte	0x4
 8323 00d6 F3       		.byte	0xf3
 8324 00d7 01       		.uleb128 0x1
 8325 00d8 50       		.byte	0x50
 8326 00d9 9F       		.byte	0x9f
 8327 00da 64000000 		.4byte	.LVL36
 8328 00de 66000000 		.4byte	.LVL37
 8329 00e2 0100     		.2byte	0x1
 8330 00e4 50       		.byte	0x50
 8331 00e5 66000000 		.4byte	.LVL37
 8332 00e9 6B000000 		.4byte	.LVL38-1
 8333 00ed 0100     		.2byte	0x1
 8334 00ef 52       		.byte	0x52
 8335 00f0 6B000000 		.4byte	.LVL38-1
 8336 00f4 36010000 		.4byte	.LVL63
 8337 00f8 0400     		.2byte	0x4
 8338 00fa F3       		.byte	0xf3
 8339 00fb 01       		.uleb128 0x1
 8340 00fc 50       		.byte	0x50
ARM GAS  C:\Users\Petro\AppData\Local\Temp\ccvLNIXl.s 			page 171


 8341 00fd 9F       		.byte	0x9f
 8342 00fe 36010000 		.4byte	.LVL63
 8343 0102 3C010000 		.4byte	.LVL65
 8344 0106 0100     		.2byte	0x1
 8345 0108 50       		.byte	0x50
 8346 0109 3C010000 		.4byte	.LVL65
 8347 010d 3F010000 		.4byte	.LVL66-1
 8348 0111 0100     		.2byte	0x1
 8349 0113 52       		.byte	0x52
 8350 0114 3F010000 		.4byte	.LVL66-1
 8351 0118 B0010000 		.4byte	.LVL79
 8352 011c 0400     		.2byte	0x4
 8353 011e F3       		.byte	0xf3
 8354 011f 01       		.uleb128 0x1
 8355 0120 50       		.byte	0x50
 8356 0121 9F       		.byte	0x9f
 8357 0122 B0010000 		.4byte	.LVL79
 8358 0126 B8010000 		.4byte	.LVL80
 8359 012a 0100     		.2byte	0x1
 8360 012c 50       		.byte	0x50
 8361 012d B8010000 		.4byte	.LVL80
 8362 0131 C2010000 		.4byte	.LVL82
 8363 0135 0400     		.2byte	0x4
 8364 0137 F3       		.byte	0xf3
 8365 0138 01       		.uleb128 0x1
 8366 0139 50       		.byte	0x50
 8367 013a 9F       		.byte	0x9f
 8368 013b C2010000 		.4byte	.LVL82
 8369 013f C6010000 		.4byte	.LVL83
 8370 0143 0100     		.2byte	0x1
 8371 0145 50       		.byte	0x50
 8372 0146 C6010000 		.4byte	.LVL83
 8373 014a C9010000 		.4byte	.LVL84-1
 8374 014e 0100     		.2byte	0x1
 8375 0150 52       		.byte	0x52
 8376 0151 C9010000 		.4byte	.LVL84-1
 8377 0155 CC010000 		.4byte	.LVL85
 8378 0159 0400     		.2byte	0x4
 8379 015b F3       		.byte	0xf3
 8380 015c 01       		.uleb128 0x1
 8381 015d 50       		.byte	0x50
 8382 015e 9F       		.byte	0x9f
 8383 015f CC010000 		.4byte	.LVL85
 8384 0163 D0010000 		.4byte	.LVL86
 8385 0167 0100     		.2byte	0x1
 8386 0169 50       		.byte	0x50
 8387 016a D0010000 		.4byte	.LVL86
 8388 016e D4010000 		.4byte	.LVL87
 8389 0172 0100     		.2byte	0x1
 8390 0174 52       		.byte	0x52
 8391 0175 D4010000 		.4byte	.LVL87
 8392 0179 68020000 		.4byte	.LVL100
 8393 017d 0400     		.2byte	0x4
 8394 017f F3       		.byte	0xf3
 8395 0180 01       		.uleb128 0x1
 8396 0181 50       		.byte	0x50
 8397 0182 9F       		.byte	0x9f
ARM GAS  C:\Users\Petro\AppData\Local\Temp\ccvLNIXl.s 			page 172


 8398 0183 68020000 		.4byte	.LVL100
 8399 0187 6A020000 		.4byte	.LVL101
 8400 018b 0100     		.2byte	0x1
 8401 018d 50       		.byte	0x50
 8402 018e 6A020000 		.4byte	.LVL101
 8403 0192 6D020000 		.4byte	.LVL102-1
 8404 0196 0100     		.2byte	0x1
 8405 0198 52       		.byte	0x52
 8406 0199 6D020000 		.4byte	.LVL102-1
 8407 019d 8C020000 		.4byte	.LVL107
 8408 01a1 0400     		.2byte	0x4
 8409 01a3 F3       		.byte	0xf3
 8410 01a4 01       		.uleb128 0x1
 8411 01a5 50       		.byte	0x50
 8412 01a6 9F       		.byte	0x9f
 8413 01a7 8C020000 		.4byte	.LVL107
 8414 01ab 90020000 		.4byte	.LVL108
 8415 01af 0100     		.2byte	0x1
 8416 01b1 50       		.byte	0x50
 8417 01b2 90020000 		.4byte	.LVL108
 8418 01b6 93020000 		.4byte	.LVL109-1
 8419 01ba 0100     		.2byte	0x1
 8420 01bc 52       		.byte	0x52
 8421 01bd 93020000 		.4byte	.LVL109-1
 8422 01c1 96020000 		.4byte	.LVL110
 8423 01c5 0400     		.2byte	0x4
 8424 01c7 F3       		.byte	0xf3
 8425 01c8 01       		.uleb128 0x1
 8426 01c9 50       		.byte	0x50
 8427 01ca 9F       		.byte	0x9f
 8428 01cb 96020000 		.4byte	.LVL110
 8429 01cf 9A020000 		.4byte	.LVL111
 8430 01d3 0100     		.2byte	0x1
 8431 01d5 50       		.byte	0x50
 8432 01d6 9A020000 		.4byte	.LVL111
 8433 01da 9E020000 		.4byte	.LVL112
 8434 01de 0100     		.2byte	0x1
 8435 01e0 52       		.byte	0x52
 8436 01e1 9E020000 		.4byte	.LVL112
 8437 01e5 BC020000 		.4byte	.LVL116
 8438 01e9 0400     		.2byte	0x4
 8439 01eb F3       		.byte	0xf3
 8440 01ec 01       		.uleb128 0x1
 8441 01ed 50       		.byte	0x50
 8442 01ee 9F       		.byte	0x9f
 8443 01ef BC020000 		.4byte	.LVL116
 8444 01f3 BE020000 		.4byte	.LVL117
 8445 01f7 0100     		.2byte	0x1
 8446 01f9 50       		.byte	0x50
 8447 01fa BE020000 		.4byte	.LVL117
 8448 01fe C1020000 		.4byte	.LVL118-1
 8449 0202 0100     		.2byte	0x1
 8450 0204 52       		.byte	0x52
 8451 0205 C1020000 		.4byte	.LVL118-1
 8452 0209 C4020000 		.4byte	.LVL119
 8453 020d 0400     		.2byte	0x4
 8454 020f F3       		.byte	0xf3
ARM GAS  C:\Users\Petro\AppData\Local\Temp\ccvLNIXl.s 			page 173


 8455 0210 01       		.uleb128 0x1
 8456 0211 50       		.byte	0x50
 8457 0212 9F       		.byte	0x9f
 8458 0213 C4020000 		.4byte	.LVL119
 8459 0217 CC020000 		.4byte	.LVL120
 8460 021b 0100     		.2byte	0x1
 8461 021d 50       		.byte	0x50
 8462 021e CC020000 		.4byte	.LVL120
 8463 0222 D2020000 		.4byte	.LVL122
 8464 0226 0400     		.2byte	0x4
 8465 0228 F3       		.byte	0xf3
 8466 0229 01       		.uleb128 0x1
 8467 022a 50       		.byte	0x50
 8468 022b 9F       		.byte	0x9f
 8469 022c D2020000 		.4byte	.LVL122
 8470 0230 D8020000 		.4byte	.LVL123
 8471 0234 0100     		.2byte	0x1
 8472 0236 50       		.byte	0x50
 8473 0237 D8020000 		.4byte	.LVL123
 8474 023b DE020000 		.4byte	.LVL125
 8475 023f 0400     		.2byte	0x4
 8476 0241 F3       		.byte	0xf3
 8477 0242 01       		.uleb128 0x1
 8478 0243 50       		.byte	0x50
 8479 0244 9F       		.byte	0x9f
 8480 0245 DE020000 		.4byte	.LVL125
 8481 0249 E0020000 		.4byte	.LVL126
 8482 024d 0100     		.2byte	0x1
 8483 024f 50       		.byte	0x50
 8484 0250 E0020000 		.4byte	.LVL126
 8485 0254 E3020000 		.4byte	.LVL127-1
 8486 0258 0100     		.2byte	0x1
 8487 025a 52       		.byte	0x52
 8488 025b E3020000 		.4byte	.LVL127-1
 8489 025f E6020000 		.4byte	.LVL128
 8490 0263 0400     		.2byte	0x4
 8491 0265 F3       		.byte	0xf3
 8492 0266 01       		.uleb128 0x1
 8493 0267 50       		.byte	0x50
 8494 0268 9F       		.byte	0x9f
 8495 0269 E6020000 		.4byte	.LVL128
 8496 026d EA020000 		.4byte	.LVL129
 8497 0271 0100     		.2byte	0x1
 8498 0273 50       		.byte	0x50
 8499 0274 EA020000 		.4byte	.LVL129
 8500 0278 ED020000 		.4byte	.LVL130-1
 8501 027c 0100     		.2byte	0x1
 8502 027e 52       		.byte	0x52
 8503 027f ED020000 		.4byte	.LVL130-1
 8504 0283 F8020000 		.4byte	.LVL132
 8505 0287 0400     		.2byte	0x4
 8506 0289 F3       		.byte	0xf3
 8507 028a 01       		.uleb128 0x1
 8508 028b 50       		.byte	0x50
 8509 028c 9F       		.byte	0x9f
 8510 028d F8020000 		.4byte	.LVL132
 8511 0291 FC020000 		.4byte	.LVL133
ARM GAS  C:\Users\Petro\AppData\Local\Temp\ccvLNIXl.s 			page 174


 8512 0295 0100     		.2byte	0x1
 8513 0297 50       		.byte	0x50
 8514 0298 FC020000 		.4byte	.LVL133
 8515 029c FF020000 		.4byte	.LVL134-1
 8516 02a0 0100     		.2byte	0x1
 8517 02a2 52       		.byte	0x52
 8518 02a3 FF020000 		.4byte	.LVL134-1
 8519 02a7 0A030000 		.4byte	.LVL136
 8520 02ab 0400     		.2byte	0x4
 8521 02ad F3       		.byte	0xf3
 8522 02ae 01       		.uleb128 0x1
 8523 02af 50       		.byte	0x50
 8524 02b0 9F       		.byte	0x9f
 8525 02b1 0A030000 		.4byte	.LVL136
 8526 02b5 0E030000 		.4byte	.LVL137
 8527 02b9 0100     		.2byte	0x1
 8528 02bb 50       		.byte	0x50
 8529 02bc 0E030000 		.4byte	.LVL137
 8530 02c0 11030000 		.4byte	.LVL138-1
 8531 02c4 0100     		.2byte	0x1
 8532 02c6 52       		.byte	0x52
 8533 02c7 11030000 		.4byte	.LVL138-1
 8534 02cb 1C030000 		.4byte	.LVL140
 8535 02cf 0400     		.2byte	0x4
 8536 02d1 F3       		.byte	0xf3
 8537 02d2 01       		.uleb128 0x1
 8538 02d3 50       		.byte	0x50
 8539 02d4 9F       		.byte	0x9f
 8540 02d5 1C030000 		.4byte	.LVL140
 8541 02d9 1E030000 		.4byte	.LVL141
 8542 02dd 0100     		.2byte	0x1
 8543 02df 50       		.byte	0x50
 8544 02e0 1E030000 		.4byte	.LVL141
 8545 02e4 21030000 		.4byte	.LVL142-1
 8546 02e8 0100     		.2byte	0x1
 8547 02ea 52       		.byte	0x52
 8548 02eb 21030000 		.4byte	.LVL142-1
 8549 02ef 2C030000 		.4byte	.LVL144
 8550 02f3 0400     		.2byte	0x4
 8551 02f5 F3       		.byte	0xf3
 8552 02f6 01       		.uleb128 0x1
 8553 02f7 50       		.byte	0x50
 8554 02f8 9F       		.byte	0x9f
 8555 02f9 2C030000 		.4byte	.LVL144
 8556 02fd 2E030000 		.4byte	.LVL145
 8557 0301 0100     		.2byte	0x1
 8558 0303 50       		.byte	0x50
 8559 0304 2E030000 		.4byte	.LVL145
 8560 0308 31030000 		.4byte	.LVL146-1
 8561 030c 0100     		.2byte	0x1
 8562 030e 52       		.byte	0x52
 8563 030f 31030000 		.4byte	.LVL146-1
 8564 0313 3C030000 		.4byte	.LVL148
 8565 0317 0400     		.2byte	0x4
 8566 0319 F3       		.byte	0xf3
 8567 031a 01       		.uleb128 0x1
 8568 031b 50       		.byte	0x50
ARM GAS  C:\Users\Petro\AppData\Local\Temp\ccvLNIXl.s 			page 175


 8569 031c 9F       		.byte	0x9f
 8570 031d 3C030000 		.4byte	.LVL148
 8571 0321 3E030000 		.4byte	.LVL149
 8572 0325 0100     		.2byte	0x1
 8573 0327 50       		.byte	0x50
 8574 0328 3E030000 		.4byte	.LVL149
 8575 032c 41030000 		.4byte	.LVL150-1
 8576 0330 0100     		.2byte	0x1
 8577 0332 52       		.byte	0x52
 8578 0333 41030000 		.4byte	.LVL150-1
 8579 0337 44030000 		.4byte	.LVL151
 8580 033b 0400     		.2byte	0x4
 8581 033d F3       		.byte	0xf3
 8582 033e 01       		.uleb128 0x1
 8583 033f 50       		.byte	0x50
 8584 0340 9F       		.byte	0x9f
 8585 0341 44030000 		.4byte	.LVL151
 8586 0345 46030000 		.4byte	.LVL152
 8587 0349 0100     		.2byte	0x1
 8588 034b 50       		.byte	0x50
 8589 034c 46030000 		.4byte	.LVL152
 8590 0350 49030000 		.4byte	.LVL153-1
 8591 0354 0100     		.2byte	0x1
 8592 0356 52       		.byte	0x52
 8593 0357 49030000 		.4byte	.LVL153-1
 8594 035b 4C030000 		.4byte	.LVL154
 8595 035f 0400     		.2byte	0x4
 8596 0361 F3       		.byte	0xf3
 8597 0362 01       		.uleb128 0x1
 8598 0363 50       		.byte	0x50
 8599 0364 9F       		.byte	0x9f
 8600 0365 4C030000 		.4byte	.LVL154
 8601 0369 4E030000 		.4byte	.LVL155
 8602 036d 0100     		.2byte	0x1
 8603 036f 50       		.byte	0x50
 8604 0370 4E030000 		.4byte	.LVL155
 8605 0374 51030000 		.4byte	.LVL156-1
 8606 0378 0100     		.2byte	0x1
 8607 037a 52       		.byte	0x52
 8608 037b 51030000 		.4byte	.LVL156-1
 8609 037f 30040000 		.4byte	.LVL162
 8610 0383 0400     		.2byte	0x4
 8611 0385 F3       		.byte	0xf3
 8612 0386 01       		.uleb128 0x1
 8613 0387 50       		.byte	0x50
 8614 0388 9F       		.byte	0x9f
 8615 0389 30040000 		.4byte	.LVL162
 8616 038d 32040000 		.4byte	.LVL163
 8617 0391 0100     		.2byte	0x1
 8618 0393 50       		.byte	0x50
 8619 0394 32040000 		.4byte	.LVL163
 8620 0398 35040000 		.4byte	.LVL164-1
 8621 039c 0100     		.2byte	0x1
 8622 039e 52       		.byte	0x52
 8623 039f 35040000 		.4byte	.LVL164-1
 8624 03a3 56040000 		.4byte	.LVL170
 8625 03a7 0400     		.2byte	0x4
ARM GAS  C:\Users\Petro\AppData\Local\Temp\ccvLNIXl.s 			page 176


 8626 03a9 F3       		.byte	0xf3
 8627 03aa 01       		.uleb128 0x1
 8628 03ab 50       		.byte	0x50
 8629 03ac 9F       		.byte	0x9f
 8630 03ad 56040000 		.4byte	.LVL170
 8631 03b1 58040000 		.4byte	.LVL171
 8632 03b5 0100     		.2byte	0x1
 8633 03b7 50       		.byte	0x50
 8634 03b8 58040000 		.4byte	.LVL171
 8635 03bc 5B040000 		.4byte	.LVL172-1
 8636 03c0 0100     		.2byte	0x1
 8637 03c2 52       		.byte	0x52
 8638 03c3 5B040000 		.4byte	.LVL172-1
 8639 03c7 AA040000 		.4byte	.LVL184
 8640 03cb 0400     		.2byte	0x4
 8641 03cd F3       		.byte	0xf3
 8642 03ce 01       		.uleb128 0x1
 8643 03cf 50       		.byte	0x50
 8644 03d0 9F       		.byte	0x9f
 8645 03d1 AA040000 		.4byte	.LVL184
 8646 03d5 AC040000 		.4byte	.LVL185
 8647 03d9 0100     		.2byte	0x1
 8648 03db 50       		.byte	0x50
 8649 03dc AC040000 		.4byte	.LVL185
 8650 03e0 AF040000 		.4byte	.LVL186-1
 8651 03e4 0100     		.2byte	0x1
 8652 03e6 52       		.byte	0x52
 8653 03e7 AF040000 		.4byte	.LVL186-1
 8654 03eb B2040000 		.4byte	.LVL187
 8655 03ef 0400     		.2byte	0x4
 8656 03f1 F3       		.byte	0xf3
 8657 03f2 01       		.uleb128 0x1
 8658 03f3 50       		.byte	0x50
 8659 03f4 9F       		.byte	0x9f
 8660 03f5 B2040000 		.4byte	.LVL187
 8661 03f9 B4040000 		.4byte	.LVL188
 8662 03fd 0100     		.2byte	0x1
 8663 03ff 50       		.byte	0x50
 8664 0400 B4040000 		.4byte	.LVL188
 8665 0404 B7040000 		.4byte	.LVL189-1
 8666 0408 0100     		.2byte	0x1
 8667 040a 52       		.byte	0x52
 8668 040b B7040000 		.4byte	.LVL189-1
 8669 040f 28050000 		.4byte	.LVL200
 8670 0413 0400     		.2byte	0x4
 8671 0415 F3       		.byte	0xf3
 8672 0416 01       		.uleb128 0x1
 8673 0417 50       		.byte	0x50
 8674 0418 9F       		.byte	0x9f
 8675 0419 28050000 		.4byte	.LVL200
 8676 041d 2A050000 		.4byte	.LVL201
 8677 0421 0100     		.2byte	0x1
 8678 0423 50       		.byte	0x50
 8679 0424 2A050000 		.4byte	.LVL201
 8680 0428 2D050000 		.4byte	.LVL202-1
 8681 042c 0100     		.2byte	0x1
 8682 042e 52       		.byte	0x52
ARM GAS  C:\Users\Petro\AppData\Local\Temp\ccvLNIXl.s 			page 177


 8683 042f 2D050000 		.4byte	.LVL202-1
 8684 0433 30050000 		.4byte	.LVL203
 8685 0437 0400     		.2byte	0x4
 8686 0439 F3       		.byte	0xf3
 8687 043a 01       		.uleb128 0x1
 8688 043b 50       		.byte	0x50
 8689 043c 9F       		.byte	0x9f
 8690 043d 30050000 		.4byte	.LVL203
 8691 0441 32050000 		.4byte	.LVL204
 8692 0445 0100     		.2byte	0x1
 8693 0447 50       		.byte	0x50
 8694 0448 32050000 		.4byte	.LVL204
 8695 044c 37050000 		.4byte	.LVL205-1
 8696 0450 0100     		.2byte	0x1
 8697 0452 52       		.byte	0x52
 8698 0453 37050000 		.4byte	.LVL205-1
 8699 0457 84050000 		.4byte	.LFE37
 8700 045b 0400     		.2byte	0x4
 8701 045d F3       		.byte	0xf3
 8702 045e 01       		.uleb128 0x1
 8703 045f 50       		.byte	0x50
 8704 0460 9F       		.byte	0x9f
 8705 0461 00000000 		.4byte	0
 8706 0465 00000000 		.4byte	0
 8707              	.LLST3:
 8708 0469 00000000 		.4byte	.LVL15
 8709 046d 1A000000 		.4byte	.LVL17
 8710 0471 0100     		.2byte	0x1
 8711 0473 51       		.byte	0x51
 8712 0474 1A000000 		.4byte	.LVL17
 8713 0478 38010000 		.4byte	.LVL64
 8714 047c 0100     		.2byte	0x1
 8715 047e 54       		.byte	0x54
 8716 047f 38010000 		.4byte	.LVL64
 8717 0483 B0010000 		.4byte	.LVL79
 8718 0487 0400     		.2byte	0x4
 8719 0489 F3       		.byte	0xf3
 8720 048a 01       		.uleb128 0x1
 8721 048b 51       		.byte	0x51
 8722 048c 9F       		.byte	0x9f
 8723 048d B0010000 		.4byte	.LVL79
 8724 0491 E0010000 		.4byte	.LVL89
 8725 0495 0100     		.2byte	0x1
 8726 0497 54       		.byte	0x54
 8727 0498 E0010000 		.4byte	.LVL89
 8728 049c 68020000 		.4byte	.LVL100
 8729 04a0 0400     		.2byte	0x4
 8730 04a2 F3       		.byte	0xf3
 8731 04a3 01       		.uleb128 0x1
 8732 04a4 51       		.byte	0x51
 8733 04a5 9F       		.byte	0x9f
 8734 04a6 68020000 		.4byte	.LVL100
 8735 04aa AA020000 		.4byte	.LVL114
 8736 04ae 0100     		.2byte	0x1
 8737 04b0 54       		.byte	0x54
 8738 04b1 AA020000 		.4byte	.LVL114
 8739 04b5 BC020000 		.4byte	.LVL116
ARM GAS  C:\Users\Petro\AppData\Local\Temp\ccvLNIXl.s 			page 178


 8740 04b9 0400     		.2byte	0x4
 8741 04bb F3       		.byte	0xf3
 8742 04bc 01       		.uleb128 0x1
 8743 04bd 51       		.byte	0x51
 8744 04be 9F       		.byte	0x9f
 8745 04bf BC020000 		.4byte	.LVL116
 8746 04c3 BA040000 		.4byte	.LVL190
 8747 04c7 0100     		.2byte	0x1
 8748 04c9 54       		.byte	0x54
 8749 04ca BA040000 		.4byte	.LVL190
 8750 04ce 28050000 		.4byte	.LVL200
 8751 04d2 0400     		.2byte	0x4
 8752 04d4 F3       		.byte	0xf3
 8753 04d5 01       		.uleb128 0x1
 8754 04d6 51       		.byte	0x51
 8755 04d7 9F       		.byte	0x9f
 8756 04d8 28050000 		.4byte	.LVL200
 8757 04dc 38050000 		.4byte	.LVL205
 8758 04e0 0100     		.2byte	0x1
 8759 04e2 54       		.byte	0x54
 8760 04e3 38050000 		.4byte	.LVL205
 8761 04e7 84050000 		.4byte	.LFE37
 8762 04eb 0400     		.2byte	0x4
 8763 04ed F3       		.byte	0xf3
 8764 04ee 01       		.uleb128 0x1
 8765 04ef 51       		.byte	0x51
 8766 04f0 9F       		.byte	0x9f
 8767 04f1 00000000 		.4byte	0
 8768 04f5 00000000 		.4byte	0
 8769              	.LLST4:
 8770 04f9 2C000000 		.4byte	.LVL21
 8771 04fd 32000000 		.4byte	.LVL22
 8772 0501 0100     		.2byte	0x1
 8773 0503 50       		.byte	0x50
 8774 0504 70010000 		.4byte	.LVL69
 8775 0508 76010000 		.4byte	.LVL70
 8776 050c 0100     		.2byte	0x1
 8777 050e 50       		.byte	0x50
 8778 050f 76020000 		.4byte	.LVL104
 8779 0513 7A020000 		.4byte	.LVL105
 8780 0517 0100     		.2byte	0x1
 8781 0519 50       		.byte	0x50
 8782 051a 00000000 		.4byte	0
 8783 051e 00000000 		.4byte	0
 8784              	.LLST5:
 8785 0522 52030000 		.4byte	.LVL156
 8786 0526 30040000 		.4byte	.LVL162
 8787 052a 0300     		.2byte	0x3
 8788 052c 74       		.byte	0x74
 8789 052d 04       		.sleb128 4
 8790 052e 9F       		.byte	0x9f
 8791 052f 36040000 		.4byte	.LVL164
 8792 0533 56040000 		.4byte	.LVL170
 8793 0537 0300     		.2byte	0x3
 8794 0539 74       		.byte	0x74
 8795 053a 04       		.sleb128 4
 8796 053b 9F       		.byte	0x9f
ARM GAS  C:\Users\Petro\AppData\Local\Temp\ccvLNIXl.s 			page 179


 8797 053c 00000000 		.4byte	0
 8798 0540 00000000 		.4byte	0
 8799              	.LLST6:
 8800 0544 64000000 		.4byte	.LVL36
 8801 0548 36010000 		.4byte	.LVL63
 8802 054c 0100     		.2byte	0x1
 8803 054e 54       		.byte	0x54
 8804 054f 00000000 		.4byte	0
 8805 0553 00000000 		.4byte	0
 8806              	.LLST7:
 8807 0557 B0010000 		.4byte	.LVL79
 8808 055b C2010000 		.4byte	.LVL82
 8809 055f 0100     		.2byte	0x1
 8810 0561 54       		.byte	0x54
 8811 0562 00000000 		.4byte	0
 8812 0566 00000000 		.4byte	0
 8813              	.LLST8:
 8814 056a 0C000000 		.4byte	.LVL16
 8815 056e 82000000 		.4byte	.LVL40
 8816 0572 0200     		.2byte	0x2
 8817 0574 30       		.byte	0x30
 8818 0575 9F       		.byte	0x9f
 8819 0576 82000000 		.4byte	.LVL40
 8820 057a A4000000 		.4byte	.LVL43
 8821 057e 0200     		.2byte	0x2
 8822 0580 31       		.byte	0x31
 8823 0581 9F       		.byte	0x9f
 8824 0582 A4000000 		.4byte	.LVL43
 8825 0586 A8000000 		.4byte	.LVL44
 8826 058a 0200     		.2byte	0x2
 8827 058c 30       		.byte	0x30
 8828 058d 9F       		.byte	0x9f
 8829 058e A8000000 		.4byte	.LVL44
 8830 0592 B6000000 		.4byte	.LVL47
 8831 0596 0200     		.2byte	0x2
 8832 0598 31       		.byte	0x31
 8833 0599 9F       		.byte	0x9f
 8834 059a B6000000 		.4byte	.LVL47
 8835 059e BC000000 		.4byte	.LVL48
 8836 05a2 0100     		.2byte	0x1
 8837 05a4 53       		.byte	0x53
 8838 05a5 36010000 		.4byte	.LVL63
 8839 05a9 38050000 		.4byte	.LVL205
 8840 05ad 0200     		.2byte	0x2
 8841 05af 30       		.byte	0x30
 8842 05b0 9F       		.byte	0x9f
 8843 05b1 00000000 		.4byte	0
 8844 05b5 00000000 		.4byte	0
 8845              	.LLST9:
 8846 05b9 5E040000 		.4byte	.LVL173
 8847 05bd AA040000 		.4byte	.LVL184
 8848 05c1 0100     		.2byte	0x1
 8849 05c3 56       		.byte	0x56
 8850 05c4 00000000 		.4byte	0
 8851 05c8 00000000 		.4byte	0
 8852              	.LLST10:
 8853 05cc 82000000 		.4byte	.LVL40
ARM GAS  C:\Users\Petro\AppData\Local\Temp\ccvLNIXl.s 			page 180


 8854 05d0 86000000 		.4byte	.LVL41
 8855 05d4 0200     		.2byte	0x2
 8856 05d6 30       		.byte	0x30
 8857 05d7 9F       		.byte	0x9f
 8858 05d8 86000000 		.4byte	.LVL41
 8859 05dc AA000000 		.4byte	.LVL45
 8860 05e0 0100     		.2byte	0x1
 8861 05e2 55       		.byte	0x55
 8862 05e3 AC000000 		.4byte	.LVL46
 8863 05e7 BE000000 		.4byte	.LVL49
 8864 05eb 0100     		.2byte	0x1
 8865 05ed 55       		.byte	0x55
 8866 05ee F8000000 		.4byte	.LVL53
 8867 05f2 08010000 		.4byte	.LVL55
 8868 05f6 0100     		.2byte	0x1
 8869 05f8 55       		.byte	0x55
 8870 05f9 0A010000 		.4byte	.LVL56
 8871 05fd 18010000 		.4byte	.LVL57
 8872 0601 0100     		.2byte	0x1
 8873 0603 55       		.byte	0x55
 8874 0604 18010000 		.4byte	.LVL57
 8875 0608 1A010000 		.4byte	.LVL58
 8876 060c 0200     		.2byte	0x2
 8877 060e 30       		.byte	0x30
 8878 060f 9F       		.byte	0x9f
 8879 0610 1A010000 		.4byte	.LVL58
 8880 0614 26010000 		.4byte	.LVL60
 8881 0618 0100     		.2byte	0x1
 8882 061a 55       		.byte	0x55
 8883 061b 28010000 		.4byte	.LVL61
 8884 061f 36010000 		.4byte	.LVL63
 8885 0623 0100     		.2byte	0x1
 8886 0625 55       		.byte	0x55
 8887 0626 1E020000 		.4byte	.LVL93
 8888 062a 22020000 		.4byte	.LVL94
 8889 062e 0200     		.2byte	0x2
 8890 0630 30       		.byte	0x30
 8891 0631 9F       		.byte	0x9f
 8892 0632 22020000 		.4byte	.LVL94
 8893 0636 4C020000 		.4byte	.LVL96
 8894 063a 0100     		.2byte	0x1
 8895 063c 54       		.byte	0x54
 8896 063d 4E020000 		.4byte	.LVL97
 8897 0641 60020000 		.4byte	.LVL99
 8898 0645 0100     		.2byte	0x1
 8899 0647 54       		.byte	0x54
 8900 0648 52030000 		.4byte	.LVL156
 8901 064c 14040000 		.4byte	.LVL157
 8902 0650 0200     		.2byte	0x2
 8903 0652 30       		.byte	0x30
 8904 0653 9F       		.byte	0x9f
 8905 0654 14040000 		.4byte	.LVL157
 8906 0658 20040000 		.4byte	.LVL159
 8907 065c 0100     		.2byte	0x1
 8908 065e 55       		.byte	0x55
 8909 065f 22040000 		.4byte	.LVL160
 8910 0663 30040000 		.4byte	.LVL162
ARM GAS  C:\Users\Petro\AppData\Local\Temp\ccvLNIXl.s 			page 181


 8911 0667 0100     		.2byte	0x1
 8912 0669 55       		.byte	0x55
 8913 066a 36040000 		.4byte	.LVL164
 8914 066e 3A040000 		.4byte	.LVL165
 8915 0672 0200     		.2byte	0x2
 8916 0674 30       		.byte	0x30
 8917 0675 9F       		.byte	0x9f
 8918 0676 3A040000 		.4byte	.LVL165
 8919 067a 46040000 		.4byte	.LVL167
 8920 067e 0100     		.2byte	0x1
 8921 0680 55       		.byte	0x55
 8922 0681 48040000 		.4byte	.LVL168
 8923 0685 56040000 		.4byte	.LVL170
 8924 0689 0100     		.2byte	0x1
 8925 068b 55       		.byte	0x55
 8926 068c 6C040000 		.4byte	.LVL175
 8927 0690 70040000 		.4byte	.LVL176
 8928 0694 0200     		.2byte	0x2
 8929 0696 30       		.byte	0x30
 8930 0697 9F       		.byte	0x9f
 8931 0698 70040000 		.4byte	.LVL176
 8932 069c 9A040000 		.4byte	.LVL181
 8933 06a0 0100     		.2byte	0x1
 8934 06a2 55       		.byte	0x55
 8935 06a3 9C040000 		.4byte	.LVL182
 8936 06a7 AA040000 		.4byte	.LVL184
 8937 06ab 0100     		.2byte	0x1
 8938 06ad 55       		.byte	0x55
 8939 06ae D6040000 		.4byte	.LVL192
 8940 06b2 DA040000 		.4byte	.LVL193
 8941 06b6 0200     		.2byte	0x2
 8942 06b8 30       		.byte	0x30
 8943 06b9 9F       		.byte	0x9f
 8944 06ba DA040000 		.4byte	.LVL193
 8945 06be 04050000 		.4byte	.LVL195
 8946 06c2 0100     		.2byte	0x1
 8947 06c4 54       		.byte	0x54
 8948 06c5 06050000 		.4byte	.LVL196
 8949 06c9 0C050000 		.4byte	.LVL197
 8950 06cd 0100     		.2byte	0x1
 8951 06cf 54       		.byte	0x54
 8952 06d0 00000000 		.4byte	0
 8953 06d4 00000000 		.4byte	0
 8954              	.LLST11:
 8955 06d8 6C040000 		.4byte	.LVL175
 8956 06dc AA040000 		.4byte	.LVL184
 8957 06e0 0100     		.2byte	0x1
 8958 06e2 57       		.byte	0x57
 8959 06e3 00000000 		.4byte	0
 8960 06e7 00000000 		.4byte	0
 8961              	.LLST12:
 8962 06eb 62040000 		.4byte	.LVL174
 8963 06ef 70040000 		.4byte	.LVL176
 8964 06f3 0100     		.2byte	0x1
 8965 06f5 53       		.byte	0x53
 8966 06f6 70040000 		.4byte	.LVL176
 8967 06fa AA040000 		.4byte	.LVL184
ARM GAS  C:\Users\Petro\AppData\Local\Temp\ccvLNIXl.s 			page 182


 8968 06fe 0100     		.2byte	0x1
 8969 0700 59       		.byte	0x59
 8970 0701 00000000 		.4byte	0
 8971 0705 00000000 		.4byte	0
 8972              	.LLST13:
 8973 0709 26000000 		.4byte	.LVL224
 8974 070d 2A000000 		.4byte	.LVL225
 8975 0711 0100     		.2byte	0x1
 8976 0713 50       		.byte	0x50
 8977 0714 2A000000 		.4byte	.LVL225
 8978 0718 2C000000 		.4byte	.LVL226
 8979 071c 0100     		.2byte	0x1
 8980 071e 54       		.byte	0x54
 8981 071f 2E000000 		.4byte	.LVL227
 8982 0723 30000000 		.4byte	.LVL228
 8983 0727 0100     		.2byte	0x1
 8984 0729 54       		.byte	0x54
 8985 072a 32000000 		.4byte	.LVL229
 8986 072e 34000000 		.4byte	.LVL230
 8987 0732 0100     		.2byte	0x1
 8988 0734 54       		.byte	0x54
 8989 0735 36000000 		.4byte	.LVL231
 8990 0739 38000000 		.4byte	.LVL232
 8991 073d 0100     		.2byte	0x1
 8992 073f 54       		.byte	0x54
 8993 0740 3A000000 		.4byte	.LVL233
 8994 0744 3C000000 		.4byte	.LVL234
 8995 0748 0100     		.2byte	0x1
 8996 074a 54       		.byte	0x54
 8997 074b 3E000000 		.4byte	.LVL235
 8998 074f 40000000 		.4byte	.LVL236
 8999 0753 0100     		.2byte	0x1
 9000 0755 54       		.byte	0x54
 9001 0756 42000000 		.4byte	.LVL237
 9002 075a 44000000 		.4byte	.LVL238
 9003 075e 0100     		.2byte	0x1
 9004 0760 54       		.byte	0x54
 9005 0761 46000000 		.4byte	.LVL239
 9006 0765 48000000 		.4byte	.LVL240
 9007 0769 0100     		.2byte	0x1
 9008 076b 54       		.byte	0x54
 9009 076c A6000000 		.4byte	.LVL250
 9010 0770 AB000000 		.4byte	.LVL251-1
 9011 0774 0100     		.2byte	0x1
 9012 0776 51       		.byte	0x51
 9013 0777 BA000000 		.4byte	.LVL253
 9014 077b BE000000 		.4byte	.LVL254
 9015 077f 0100     		.2byte	0x1
 9016 0781 50       		.byte	0x50
 9017 0782 DE000000 		.4byte	.LVL257
 9018 0786 F2000000 		.4byte	.LVL260
 9019 078a 0100     		.2byte	0x1
 9020 078c 54       		.byte	0x54
 9021 078d 4C010000 		.4byte	.LVL272
 9022 0791 62010000 		.4byte	.LVL274
 9023 0795 0100     		.2byte	0x1
 9024 0797 54       		.byte	0x54
ARM GAS  C:\Users\Petro\AppData\Local\Temp\ccvLNIXl.s 			page 183


 9025 0798 86010000 		.4byte	.LVL276
 9026 079c 9C010000 		.4byte	.LVL278
 9027 07a0 0100     		.2byte	0x1
 9028 07a2 54       		.byte	0x54
 9029 07a3 BC010000 		.4byte	.LVL280
 9030 07a7 D2010000 		.4byte	.LVL282
 9031 07ab 0100     		.2byte	0x1
 9032 07ad 54       		.byte	0x54
 9033 07ae E4010000 		.4byte	.LVL284
 9034 07b2 FA010000 		.4byte	.LVL286
 9035 07b6 0100     		.2byte	0x1
 9036 07b8 54       		.byte	0x54
 9037 07b9 0C020000 		.4byte	.LVL288
 9038 07bd 22020000 		.4byte	.LVL290
 9039 07c1 0100     		.2byte	0x1
 9040 07c3 54       		.byte	0x54
 9041 07c4 4C020000 		.4byte	.LVL292
 9042 07c8 62020000 		.4byte	.LVL294
 9043 07cc 0100     		.2byte	0x1
 9044 07ce 54       		.byte	0x54
 9045 07cf 94020000 		.4byte	.LVL296
 9046 07d3 AA020000 		.4byte	.LVL298
 9047 07d7 0100     		.2byte	0x1
 9048 07d9 54       		.byte	0x54
 9049 07da 00000000 		.4byte	0
 9050 07de 00000000 		.4byte	0
 9051              	.LLST14:
 9052 07e2 04000000 		.4byte	.LVL217
 9053 07e6 22000000 		.4byte	.LVL223
 9054 07ea 0200     		.2byte	0x2
 9055 07ec 30       		.byte	0x30
 9056 07ed 9F       		.byte	0x9f
 9057 07ee 48000000 		.4byte	.LVL240
 9058 07f2 7A000000 		.4byte	.LVL245
 9059 07f6 0100     		.2byte	0x1
 9060 07f8 54       		.byte	0x54
 9061 07f9 7A000000 		.4byte	.LVL245
 9062 07fd 82000000 		.4byte	.LVL246
 9063 0801 0100     		.2byte	0x1
 9064 0803 53       		.byte	0x53
 9065 0804 82000000 		.4byte	.LVL246
 9066 0808 84000000 		.4byte	.LVL247
 9067 080c 0100     		.2byte	0x1
 9068 080e 54       		.byte	0x54
 9069 080f 00010000 		.4byte	.LVL263
 9070 0813 06010000 		.4byte	.LVL264
 9071 0817 0100     		.2byte	0x1
 9072 0819 53       		.byte	0x53
 9073 081a 06010000 		.4byte	.LVL264
 9074 081e 08010000 		.4byte	.LVL265
 9075 0822 0300     		.2byte	0x3
 9076 0824 73       		.byte	0x73
 9077 0825 30       		.sleb128 48
 9078 0826 9F       		.byte	0x9f
 9079 0827 08010000 		.4byte	.LVL265
 9080 082b 16010000 		.4byte	.LVL266
 9081 082f 0100     		.2byte	0x1
ARM GAS  C:\Users\Petro\AppData\Local\Temp\ccvLNIXl.s 			page 184


 9082 0831 50       		.byte	0x50
 9083 0832 1E010000 		.4byte	.LVL268
 9084 0836 20010000 		.4byte	.LVL269
 9085 083a 0100     		.2byte	0x1
 9086 083c 50       		.byte	0x50
 9087 083d 00000000 		.4byte	0
 9088 0841 00000000 		.4byte	0
 9089              		.section	.debug_aranges,"",%progbits
 9090 0000 4C000000 		.4byte	0x4c
 9091 0004 0200     		.2byte	0x2
 9092 0006 00000000 		.4byte	.Ldebug_info0
 9093 000a 04       		.byte	0x4
 9094 000b 00       		.byte	0
 9095 000c 0000     		.2byte	0
 9096 000e 0000     		.2byte	0
 9097 0010 00000000 		.4byte	.LFB38
 9098 0014 50000000 		.4byte	.LFE38-.LFB38
 9099 0018 00000000 		.4byte	.LFB42
 9100 001c 4C000000 		.4byte	.LFE42-.LFB42
 9101 0020 00000000 		.4byte	.LFB39
 9102 0024 24000000 		.4byte	.LFE39-.LFB39
 9103 0028 00000000 		.4byte	.LFB37
 9104 002c 84050000 		.4byte	.LFE37-.LFB37
 9105 0030 00000000 		.4byte	.LFB40
 9106 0034 40000000 		.4byte	.LFE40-.LFB40
 9107 0038 00000000 		.4byte	.LFB41
 9108 003c 14000000 		.4byte	.LFE41-.LFB41
 9109 0040 00000000 		.4byte	.LFB43
 9110 0044 C0030000 		.4byte	.LFE43-.LFB43
 9111 0048 00000000 		.4byte	0
 9112 004c 00000000 		.4byte	0
 9113              		.section	.debug_ranges,"",%progbits
 9114              	.Ldebug_ranges0:
 9115 0000 00000000 		.4byte	.LFB38
 9116 0004 50000000 		.4byte	.LFE38
 9117 0008 00000000 		.4byte	.LFB42
 9118 000c 4C000000 		.4byte	.LFE42
 9119 0010 00000000 		.4byte	.LFB39
 9120 0014 24000000 		.4byte	.LFE39
 9121 0018 00000000 		.4byte	.LFB37
 9122 001c 84050000 		.4byte	.LFE37
 9123 0020 00000000 		.4byte	.LFB40
 9124 0024 40000000 		.4byte	.LFE40
 9125 0028 00000000 		.4byte	.LFB41
 9126 002c 14000000 		.4byte	.LFE41
 9127 0030 00000000 		.4byte	.LFB43
 9128 0034 C0030000 		.4byte	.LFE43
 9129 0038 00000000 		.4byte	0
 9130 003c 00000000 		.4byte	0
 9131              		.section	.debug_line,"",%progbits
 9132              	.Ldebug_line0:
 9133 0000 48050000 		.section	.debug_str,"MS",%progbits,1
 9133      02009602 
 9133      00000201 
 9133      FB0E0D00 
 9133      01010101 
 9134              	.LASF629:
ARM GAS  C:\Users\Petro\AppData\Local\Temp\ccvLNIXl.s 			page 185


 9135 0000 4379426C 		.ascii	"CyBle_GapcConnectDevice\000"
 9135      655F4761 
 9135      7063436F 
 9135      6E6E6563 
 9135      74446576 
 9136              	.LASF564:
 9137 0018 70727543 		.ascii	"pruCategory\000"
 9137      61746567 
 9137      6F727900 
 9138              	.LASF520:
 9139 0024 4359424C 		.ascii	"CYBLE_EVT_UDSC_READ_CHAR_RESPONSE\000"
 9139      455F4556 
 9139      545F5544 
 9139      53435F52 
 9139      4541445F 
 9140              	.LASF449:
 9141 0046 4359424C 		.ascii	"CYBLE_EVT_HTSS_NOTIFICATION_DISABLED\000"
 9141      455F4556 
 9141      545F4854 
 9141      53535F4E 
 9141      4F544946 
 9142              	.LASF224:
 9143 006b 4359424C 		.ascii	"CYBLE_GATT_ERR_INVALID_CRC\000"
 9143      455F4741 
 9143      54545F45 
 9143      52525F49 
 9143      4E56414C 
 9144              	.LASF134:
 9145 0086 4359424C 		.ascii	"CYBLE_GAPC_SCAN_RSP\000"
 9145      455F4741 
 9145      50435F53 
 9145      43414E5F 
 9145      52535000 
 9146              	.LASF19:
 9147 009a 73697A65 		.ascii	"size_t\000"
 9147      5F7400
 9148              	.LASF20:
 9149 00a1 73697A65 		.ascii	"sizetype\000"
 9149      74797065 
 9149      00
 9150              	.LASF337:
 9151 00aa 4359424C 		.ascii	"CYBLE_EVT_BCSC_READ_CHAR_RESPONSE\000"
 9151      455F4556 
 9151      545F4243 
 9151      53435F52 
 9151      4541445F 
 9152              	.LASF570:
 9153 00cc 76526563 		.ascii	"vRectHighStatic\000"
 9153      74486967 
 9153      68537461 
 9153      74696300 
 9154              	.LASF360:
 9155 00dc 4359424C 		.ascii	"CYBLE_EVT_CGMSC_INDICATION\000"
 9155      455F4556 
 9155      545F4347 
 9155      4D53435F 
 9155      494E4449 
ARM GAS  C:\Users\Petro\AppData\Local\Temp\ccvLNIXl.s 			page 186


 9156              	.LASF378:
 9157 00f7 4359424C 		.ascii	"CYBLE_EVT_CPSC_READ_DESCR_RESPONSE\000"
 9157      455F4556 
 9157      545F4350 
 9157      53435F52 
 9157      4541445F 
 9158              	.LASF152:
 9159 011a 656B6579 		.ascii	"ekeySize\000"
 9159      53697A65 
 9159      00
 9160              	.LASF566:
 9161 0123 68617264 		.ascii	"hardwareRev\000"
 9161      77617265 
 9161      52657600 
 9162              	.LASF497:
 9163 012f 4359424C 		.ascii	"CYBLE_EVT_RTUSS_WRITE_CHAR_CMD\000"
 9163      455F4556 
 9163      545F5254 
 9163      5553535F 
 9163      57524954 
 9164              	.LASF193:
 9165 014e 4359424C 		.ascii	"CYBLE_GATT_HANDLE_VALUE_CNF\000"
 9165      455F4741 
 9165      54545F48 
 9165      414E444C 
 9165      455F5641 
 9166              	.LASF531:
 9167 016a 4359424C 		.ascii	"CYBLE_EVT_WPTSC_NOTIFICATION\000"
 9167      455F4556 
 9167      545F5750 
 9167      5453435F 
 9167      4E4F5449 
 9168              	.LASF307:
 9169 0187 4359424C 		.ascii	"CYBLE_EVT_GATTC_INCL_DISCOVERY_COMPLETE\000"
 9169      455F4556 
 9169      545F4741 
 9169      5454435F 
 9169      494E434C 
 9170              	.LASF268:
 9171 01af 72616E67 		.ascii	"range\000"
 9171      6500
 9172              	.LASF537:
 9173 01b5 4359424C 		.ascii	"CYBLE_EVT_WSSS_INDICATION_ENABLED\000"
 9173      455F4556 
 9173      545F5753 
 9173      53535F49 
 9173      4E444943 
 9174              	.LASF376:
 9175 01d7 4359424C 		.ascii	"CYBLE_EVT_CPSC_READ_CHAR_RESPONSE\000"
 9175      455F4556 
 9175      545F4350 
 9175      53435F52 
 9175      4541445F 
 9176              	.LASF630:
 9177 01f9 55415254 		.ascii	"UART_DEB_SpiUartGetTxBufferSize\000"
 9177      5F444542 
 9177      5F537069 
ARM GAS  C:\Users\Petro\AppData\Local\Temp\ccvLNIXl.s 			page 187


 9177      55617274 
 9177      47657454 
 9178              	.LASF643:
 9179 0219 43795379 		.ascii	"CySysWdtSetMatch\000"
 9179      73576474 
 9179      5365744D 
 9179      61746368 
 9179      00
 9180              	.LASF389:
 9181 022a 4359424C 		.ascii	"CYBLE_EVT_CSCSC_READ_CHAR_RESPONSE\000"
 9181      455F4556 
 9181      545F4353 
 9181      4353435F 
 9181      52454144 
 9182              	.LASF365:
 9183 024d 4359424C 		.ascii	"CYBLE_EVT_CGMSC_WRITE_DESCR_RESPONSE\000"
 9183      455F4556 
 9183      545F4347 
 9183      4D53435F 
 9183      57524954 
 9184              	.LASF257:
 9185 0272 4359424C 		.ascii	"CYBLE_GATTC_GRP_ATTR_DATA_LIST_T\000"
 9185      455F4741 
 9185      5454435F 
 9185      4752505F 
 9185      41545452 
 9186              	.LASF420:
 9187 0293 4359424C 		.ascii	"CYBLE_EVT_GLSS_NOTIFICATION_DISABLED\000"
 9187      455F4556 
 9187      545F474C 
 9187      53535F4E 
 9187      4F544946 
 9188              	.LASF587:
 9189 02b8 6576656E 		.ascii	"eventParam\000"
 9189      74506172 
 9189      616D00
 9190              	.LASF347:
 9191 02c3 4359424C 		.ascii	"CYBLE_EVT_BLSC_READ_CHAR_RESPONSE\000"
 9191      455F4556 
 9191      545F424C 
 9191      53435F52 
 9191      4541445F 
 9192              	.LASF34:
 9193 02e5 4359424C 		.ascii	"CYBLE_EVT_GAP_DEVICE_CONNECTED\000"
 9193      455F4556 
 9193      545F4741 
 9193      505F4445 
 9193      56494345 
 9194              	.LASF463:
 9195 0304 4359424C 		.ascii	"CYBLE_EVT_LLSC_WRITE_CHAR_RESPONSE\000"
 9195      455F4556 
 9195      545F4C4C 
 9195      53435F57 
 9195      52495445 
 9196              	.LASF41:
 9197 0327 4359424C 		.ascii	"CYBLE_EVT_GATT_CONNECT_IND\000"
 9197      455F4556 
ARM GAS  C:\Users\Petro\AppData\Local\Temp\ccvLNIXl.s 			page 188


 9197      545F4741 
 9197      54545F43 
 9197      4F4E4E45 
 9198              	.LASF425:
 9199 0342 4359424C 		.ascii	"CYBLE_EVT_GLSC_WRITE_CHAR_RESPONSE\000"
 9199      455F4556 
 9199      545F474C 
 9199      53435F57 
 9199      52495445 
 9200              	.LASF641:
 9201 0365 43795379 		.ascii	"CySysWdtSetMode\000"
 9201      73576474 
 9201      5365744D 
 9201      6F646500 
 9202              	.LASF274:
 9203 0375 73657276 		.ascii	"serviceChanged\000"
 9203      69636543 
 9203      68616E67 
 9203      656400
 9204              	.LASF403:
 9205 0384 4359424C 		.ascii	"CYBLE_EVT_ESSS_NOTIFICATION_DISABLED\000"
 9205      455F4556 
 9205      545F4553 
 9205      53535F4E 
 9205      4F544946 
 9206              	.LASF116:
 9207 03a9 4359424C 		.ascii	"CYBLE_BLESS_STATE_ECO_ON\000"
 9207      455F424C 
 9207      4553535F 
 9207      53544154 
 9207      455F4543 
 9208              	.LASF11:
 9209 03c2 75696E74 		.ascii	"uint32\000"
 9209      333200
 9210              	.LASF279:
 9211 03c9 4359424C 		.ascii	"CYBLE_WPTS_PRU_ALERT\000"
 9211      455F5750 
 9211      54535F50 
 9211      52555F41 
 9211      4C455254 
 9212              	.LASF119:
 9213 03de 4359424C 		.ascii	"CYBLE_BLESS_STATE_HIBERNATE\000"
 9213      455F424C 
 9213      4553535F 
 9213      53544154 
 9213      455F4849 
 9214              	.LASF496:
 9215 03fa 4359424C 		.ascii	"CYBLE_EVT_RSCSC_WRITE_DESCR_RESPONSE\000"
 9215      455F4556 
 9215      545F5253 
 9215      4353435F 
 9215      57524954 
 9216              	.LASF335:
 9217 041f 4359424C 		.ascii	"CYBLE_EVT_BCSS_INDICATION_CONFIRMED\000"
 9217      455F4556 
 9217      545F4243 
 9217      53535F49 
ARM GAS  C:\Users\Petro\AppData\Local\Temp\ccvLNIXl.s 			page 189


 9217      4E444943 
 9218              	.LASF336:
 9219 0443 4359424C 		.ascii	"CYBLE_EVT_BCSC_INDICATION\000"
 9219      455F4556 
 9219      545F4243 
 9219      53435F49 
 9219      4E444943 
 9220              	.LASF465:
 9221 045d 4359424C 		.ascii	"CYBLE_EVT_LNSS_INDICATION_DISABLED\000"
 9221      455F4556 
 9221      545F4C4E 
 9221      53535F49 
 9221      4E444943 
 9222              	.LASF397:
 9223 0480 4359424C 		.ascii	"CYBLE_EVT_CTSC_READ_CHAR_RESPONSE\000"
 9223      455F4556 
 9223      545F4354 
 9223      53435F52 
 9223      4541445F 
 9224              	.LASF306:
 9225 04a2 4359424C 		.ascii	"CYBLE_EVT_GATTC_SRVC_DISCOVERY_COMPLETE\000"
 9225      455F4556 
 9225      545F4741 
 9225      5454435F 
 9225      53525643 
 9226              	.LASF302:
 9227 04ca 4359424C 		.ascii	"CYBLE_EVT_GATTC_DESCR_DISCOVERY_FAILED\000"
 9227      455F4556 
 9227      545F4741 
 9227      5454435F 
 9227      44455343 
 9228              	.LASF490:
 9229 04f1 4359424C 		.ascii	"CYBLE_EVT_RSCSS_CHAR_WRITE\000"
 9229      455F4556 
 9229      545F5253 
 9229      4353535F 
 9229      43484152 
 9230              	.LASF312:
 9231 050c 4359424C 		.ascii	"CYBLE_EVT_ANCSS_WRITE_CHAR\000"
 9231      455F4556 
 9231      545F414E 
 9231      4353535F 
 9231      57524954 
 9232              	.LASF523:
 9233 0527 4359424C 		.ascii	"CYBLE_EVT_UDSC_WRITE_DESCR_RESPONSE\000"
 9233      455F4556 
 9233      545F5544 
 9233      53435F57 
 9233      52495445 
 9234              	.LASF439:
 9235 054b 4359424C 		.ascii	"CYBLE_EVT_HIDSC_WRITE_DESCR_RESPONSE\000"
 9235      455F4556 
 9235      545F4849 
 9235      4453435F 
 9235      57524954 
 9236              	.LASF505:
 9237 0570 4359424C 		.ascii	"CYBLE_EVT_TPSS_NOTIFICATION_ENABLED\000"
ARM GAS  C:\Users\Petro\AppData\Local\Temp\ccvLNIXl.s 			page 190


 9237      455F4556 
 9237      545F5450 
 9237      53535F4E 
 9237      4F544946 
 9238              	.LASF325:
 9239 0594 4359424C 		.ascii	"CYBLE_EVT_ANSC_READ_DESCR_RESPONSE\000"
 9239      455F4556 
 9239      545F414E 
 9239      53435F52 
 9239      4541445F 
 9240              	.LASF199:
 9241 05b7 4359424C 		.ascii	"CYBLE_GATT_ERR_READ_NOT_PERMITTED\000"
 9241      455F4741 
 9241      54545F45 
 9241      52525F52 
 9241      4541445F 
 9242              	.LASF214:
 9243 05d9 4359424C 		.ascii	"CYBLE_GATT_ERR_INSUFFICIENT_RESOURCE\000"
 9243      455F4741 
 9243      54545F45 
 9243      52525F49 
 9243      4E535546 
 9244              	.LASF187:
 9245 05fe 4359424C 		.ascii	"CYBLE_GATT_PREPARE_WRITE_REQ\000"
 9245      455F4741 
 9245      54545F50 
 9245      52455041 
 9245      52455F57 
 9246              	.LASF213:
 9247 061b 4359424C 		.ascii	"CYBLE_GATT_ERR_UNSUPPORTED_GROUP_TYPE\000"
 9247      455F4741 
 9247      54545F45 
 9247      52525F55 
 9247      4E535550 
 9248              	.LASF94:
 9249 0641 4359424C 		.ascii	"CYBLE_ERROR_L2CAP_CONNECTION_ENTITY_NOT_FOUND\000"
 9249      455F4552 
 9249      524F525F 
 9249      4C324341 
 9249      505F434F 
 9250              	.LASF636:
 9251 066f 4379426C 		.ascii	"CyBle_WptscDiscovery\000"
 9251      655F5770 
 9251      74736344 
 9251      6973636F 
 9251      76657279 
 9252              	.LASF610:
 9253 0684 73746174 		.ascii	"state\000"
 9253      6500
 9254              	.LASF453:
 9255 068a 4359424C 		.ascii	"CYBLE_EVT_HTSS_CHAR_WRITE\000"
 9255      455F4556 
 9255      545F4854 
 9255      53535F43 
 9255      4841525F 
 9256              	.LASF100:
 9257 06a4 4359424C 		.ascii	"CYBLE_ERROR_MIC_AUTH_FAILED\000"
ARM GAS  C:\Users\Petro\AppData\Local\Temp\ccvLNIXl.s 			page 191


 9257      455F4552 
 9257      524F525F 
 9257      4D49435F 
 9257      41555448 
 9258              	.LASF548:
 9259 06c0 4359424C 		.ascii	"CYBLE_STATE_SCANNING\000"
 9259      455F5354 
 9259      4154455F 
 9259      5343414E 
 9259      4E494E47 
 9260              	.LASF301:
 9261 06d5 4359424C 		.ascii	"CYBLE_EVT_GATTC_CHAR_DISCOVERY_FAILED\000"
 9261      455F4556 
 9261      545F4741 
 9261      5454435F 
 9261      43484152 
 9262              	.LASF665:
 9263 06fb 70757473 		.ascii	"puts\000"
 9263      00
 9264              	.LASF591:
 9265 0700 61757468 		.ascii	"authInfo\000"
 9265      496E666F 
 9265      00
 9266              	.LASF15:
 9267 0709 63686172 		.ascii	"char8\000"
 9267      3800
 9268              	.LASF72:
 9269 070f 4359424C 		.ascii	"CYBLE_EVT_L2CAP_CBFC_RX_CREDIT_IND\000"
 9269      455F4556 
 9269      545F4C32 
 9269      4341505F 
 9269      43424643 
 9270              	.LASF239:
 9271 0732 4359424C 		.ascii	"CYBLE_GATT_VALUE_T\000"
 9271      455F4741 
 9271      54545F56 
 9271      414C5545 
 9271      5F5400
 9272              	.LASF383:
 9273 0745 4359424C 		.ascii	"CYBLE_EVT_CSCSS_INDICATION_ENABLED\000"
 9273      455F4556 
 9273      545F4353 
 9273      4353535F 
 9273      494E4449 
 9274              	.LASF557:
 9275 0768 7065726D 		.ascii	"permission\000"
 9275      69737369 
 9275      6F6E00
 9276              	.LASF181:
 9277 0773 4359424C 		.ascii	"CYBLE_GATT_READ_MULTIPLE_RSP\000"
 9277      455F4741 
 9277      54545F52 
 9277      4541445F 
 9277      4D554C54 
 9278              	.LASF470:
 9279 0790 4359424C 		.ascii	"CYBLE_EVT_LNSC_INDICATION\000"
 9279      455F4556 
ARM GAS  C:\Users\Petro\AppData\Local\Temp\ccvLNIXl.s 			page 192


 9279      545F4C4E 
 9279      53435F49 
 9279      4E444943 
 9280              	.LASF123:
 9281 07aa 74797065 		.ascii	"type\000"
 9281      00
 9282              	.LASF129:
 9283 07af 4359424C 		.ascii	"CYBLE_TO_REASON_CODE_T\000"
 9283      455F544F 
 9283      5F524541 
 9283      534F4E5F 
 9283      434F4445 
 9284              	.LASF481:
 9285 07c6 4359424C 		.ascii	"CYBLE_EVT_PASSC_READ_CHAR_RESPONSE\000"
 9285      455F4556 
 9285      545F5041 
 9285      5353435F 
 9285      52454144 
 9286              	.LASF147:
 9287 07e9 4359424C 		.ascii	"CYBLE_GAP_AUTH_ERROR_AUTHENTICATION_TIMEOUT\000"
 9287      455F4741 
 9287      505F4155 
 9287      54485F45 
 9287      52524F52 
 9288              	.LASF340:
 9289 0815 4359424C 		.ascii	"CYBLE_EVT_BLSS_INDICATION_ENABLED\000"
 9289      455F4556 
 9289      545F424C 
 9289      53535F49 
 9289      4E444943 
 9290              	.LASF144:
 9291 0837 4359424C 		.ascii	"CYBLE_GAP_AUTH_ERROR_UNSPECIFIED_REASON\000"
 9291      455F4741 
 9291      505F4155 
 9291      54485F45 
 9291      52524F52 
 9292              	.LASF346:
 9293 085f 4359424C 		.ascii	"CYBLE_EVT_BLSC_NOTIFICATION\000"
 9293      455F4556 
 9293      545F424C 
 9293      53435F4E 
 9293      4F544946 
 9294              	.LASF175:
 9295 087b 4359424C 		.ascii	"CYBLE_GATT_READ_BY_TYPE_RSP\000"
 9295      455F4741 
 9295      54545F52 
 9295      4541445F 
 9295      42595F54 
 9296              	.LASF267:
 9297 0897 4359424C 		.ascii	"CYBLE_CALLBACK_T\000"
 9297      455F4341 
 9297      4C4C4241 
 9297      434B5F54 
 9297      00
 9298              	.LASF388:
 9299 08a8 4359424C 		.ascii	"CYBLE_EVT_CSCSC_INDICATION\000"
 9299      455F4556 
ARM GAS  C:\Users\Petro\AppData\Local\Temp\ccvLNIXl.s 			page 193


 9299      545F4353 
 9299      4353435F 
 9299      494E4449 
 9300              	.LASF252:
 9301 08c3 4359424C 		.ascii	"CYBLE_GATTC_HANDLE_VALUE_NTF_PARAM_T\000"
 9301      455F4741 
 9301      5454435F 
 9301      48414E44 
 9301      4C455F56 
 9302              	.LASF58:
 9303 08e8 4359424C 		.ascii	"CYBLE_EVT_GATTC_HANDLE_VALUE_NTF\000"
 9303      455F4556 
 9303      545F4741 
 9303      5454435F 
 9303      48414E44 
 9304              	.LASF28:
 9305 0909 4359424C 		.ascii	"CYBLE_EVT_GAP_AUTH_REQ\000"
 9305      455F4556 
 9305      545F4741 
 9305      505F4155 
 9305      54485F52 
 9306              	.LASF12:
 9307 0920 696E7438 		.ascii	"int8\000"
 9307      00
 9308              	.LASF308:
 9309 0925 4359424C 		.ascii	"CYBLE_EVT_GATTC_CHAR_DISCOVERY_COMPLETE\000"
 9309      455F4556 
 9309      545F4741 
 9309      5454435F 
 9309      43484152 
 9310              	.LASF237:
 9311 094d 4359424C 		.ascii	"CYBLE_CONN_HANDLE_T\000"
 9311      455F434F 
 9311      4E4E5F48 
 9311      414E444C 
 9311      455F5400 
 9312              	.LASF445:
 9313 0961 4359424C 		.ascii	"CYBLE_EVT_HRSC_WRITE_CHAR_RESPONSE\000"
 9313      455F4556 
 9313      545F4852 
 9313      53435F57 
 9313      52495445 
 9314              	.LASF89:
 9315 0984 4359424C 		.ascii	"CYBLE_ERROR_BT_ON_NOT_COMPLETED\000"
 9315      455F4552 
 9315      524F525F 
 9315      42545F4F 
 9315      4E5F4E4F 
 9316              	.LASF387:
 9317 09a4 4359424C 		.ascii	"CYBLE_EVT_CSCSC_NOTIFICATION\000"
 9317      455F4556 
 9317      545F4353 
 9317      4353435F 
 9317      4E4F5449 
 9318              	.LASF518:
 9319 09c1 4359424C 		.ascii	"CYBLE_EVT_UDSC_INDICATION\000"
 9319      455F4556 
ARM GAS  C:\Users\Petro\AppData\Local\Temp\ccvLNIXl.s 			page 194


 9319      545F5544 
 9319      53435F49 
 9319      4E444943 
 9320              	.LASF351:
 9321 09db 4359424C 		.ascii	"CYBLE_EVT_BMSC_READ_CHAR_RESPONSE\000"
 9321      455F4556 
 9321      545F424D 
 9321      53435F52 
 9321      4541445F 
 9322              	.LASF563:
 9323 09fd 70726F74 		.ascii	"protocolRev\000"
 9323      6F636F6C 
 9323      52657600 
 9324              	.LASF287:
 9325 0a09 64657363 		.ascii	"descrHandle\000"
 9325      7248616E 
 9325      646C6500 
 9326              	.LASF235:
 9327 0a15 62644861 		.ascii	"bdHandle\000"
 9327      6E646C65 
 9327      00
 9328              	.LASF356:
 9329 0a1e 4359424C 		.ascii	"CYBLE_EVT_CGMSS_INDICATION_CONFIRMED\000"
 9329      455F4556 
 9329      545F4347 
 9329      4D53535F 
 9329      494E4449 
 9330              	.LASF137:
 9331 0a43 4359424C 		.ascii	"CYBLE_GAP_AUTH_ERROR_PASSKEY_ENTRY_FAILED\000"
 9331      455F4741 
 9331      505F4155 
 9331      54485F45 
 9331      52524F52 
 9332              	.LASF227:
 9333 0a6d 4359424C 		.ascii	"CYBLE_GATT_ERR_ANCS_INVALID_COMMAND\000"
 9333      455F4741 
 9333      54545F45 
 9333      52525F41 
 9333      4E43535F 
 9334              	.LASF614:
 9335 0a91 72657175 		.ascii	"requestResponce\000"
 9335      65737452 
 9335      6573706F 
 9335      6E636500 
 9336              	.LASF133:
 9337 0aa1 4359424C 		.ascii	"CYBLE_GAPC_NON_CONN_UNDIRECTED_ADV\000"
 9337      455F4741 
 9337      50435F4E 
 9337      4F4E5F43 
 9337      4F4E4E5F 
 9338              	.LASF348:
 9339 0ac4 4359424C 		.ascii	"CYBLE_EVT_BLSC_READ_DESCR_RESPONSE\000"
 9339      455F4556 
 9339      545F424C 
 9339      53435F52 
 9339      4541445F 
 9340              	.LASF573:
ARM GAS  C:\Users\Petro\AppData\Local\Temp\ccvLNIXl.s 			page 195


 9341 0ae7 4359424C 		.ascii	"CYBLE_PRU_STATIC_PAR_T\000"
 9341      455F5052 
 9341      555F5354 
 9341      41544943 
 9341      5F504152 
 9342              	.LASF611:
 9343 0afe 72656164 		.ascii	"readingDynChar\000"
 9343      696E6744 
 9343      796E4368 
 9343      617200
 9344              	.LASF369:
 9345 0b0d 4359424C 		.ascii	"CYBLE_EVT_CPSS_INDICATION_DISABLED\000"
 9345      455F4556 
 9345      545F4350 
 9345      53535F49 
 9345      4E444943 
 9346              	.LASF169:
 9347 0b30 4359424C 		.ascii	"CYBLE_GATT_XCHNG_MTU_RSP\000"
 9347      455F4741 
 9347      54545F58 
 9347      43484E47 
 9347      5F4D5455 
 9348              	.LASF368:
 9349 0b49 4359424C 		.ascii	"CYBLE_EVT_CPSS_INDICATION_ENABLED\000"
 9349      455F4556 
 9349      545F4350 
 9349      53535F49 
 9349      4E444943 
 9350              	.LASF467:
 9351 0b6b 4359424C 		.ascii	"CYBLE_EVT_LNSS_NOTIFICATION_ENABLED\000"
 9351      455F4556 
 9351      545F4C4E 
 9351      53535F4E 
 9351      4F544946 
 9352              	.LASF579:
 9353 0b8f 70727553 		.ascii	"pruStaticPar\000"
 9353      74617469 
 9353      63506172 
 9353      00
 9354              	.LASF54:
 9355 0b9c 4359424C 		.ascii	"CYBLE_EVT_GATTS_WRITE_CMD_REQ\000"
 9355      455F4556 
 9355      545F4741 
 9355      5454535F 
 9355      57524954 
 9356              	.LASF379:
 9357 0bba 4359424C 		.ascii	"CYBLE_EVT_CPSC_WRITE_DESCR_RESPONSE\000"
 9357      455F4556 
 9357      545F4350 
 9357      53435F57 
 9357      52495445 
 9358              	.LASF130:
 9359 0bde 4359424C 		.ascii	"CYBLE_GAPC_CONN_UNDIRECTED_ADV\000"
 9359      455F4741 
 9359      50435F43 
 9359      4F4E4E5F 
 9359      554E4449 
ARM GAS  C:\Users\Petro\AppData\Local\Temp\ccvLNIXl.s 			page 196


 9360              	.LASF282:
 9361 0bfd 4359424C 		.ascii	"CYBLE_WPTS_CHAR_COUNT\000"
 9361      455F5750 
 9361      54535F43 
 9361      4841525F 
 9361      434F554E 
 9362              	.LASF4:
 9363 0c13 6C6F6E67 		.ascii	"long int\000"
 9363      20696E74 
 9363      00
 9364              	.LASF288:
 9365 0c1c 4359424C 		.ascii	"CYBLE_WPTSC_CHAR_T\000"
 9365      455F5750 
 9365      5453435F 
 9365      43484152 
 9365      5F5400
 9366              	.LASF468:
 9367 0c2f 4359424C 		.ascii	"CYBLE_EVT_LNSS_NOTIFICATION_DISABLED\000"
 9367      455F4556 
 9367      545F4C4E 
 9367      53535F4E 
 9367      4F544946 
 9368              	.LASF314:
 9369 0c54 4359424C 		.ascii	"CYBLE_EVT_ANCSC_READ_CHAR_RESPONSE\000"
 9369      455F4556 
 9369      545F414E 
 9369      4353435F 
 9369      52454144 
 9370              	.LASF196:
 9371 0c77 4359424C 		.ascii	"CYBLE_GATT_PDU_T\000"
 9371      455F4741 
 9371      54545F50 
 9371      44555F54 
 9371      00
 9372              	.LASF482:
 9373 0c88 4359424C 		.ascii	"CYBLE_EVT_PASSC_WRITE_CHAR_RESPONSE\000"
 9373      455F4556 
 9373      545F5041 
 9373      5353435F 
 9373      57524954 
 9374              	.LASF158:
 9375 0cac 64617461 		.ascii	"dataLen\000"
 9375      4C656E00 
 9376              	.LASF663:
 9377 0cb4 4C6F7750 		.ascii	"LowPowerImplementation\000"
 9377      6F776572 
 9377      496D706C 
 9377      656D656E 
 9377      74617469 
 9378              	.LASF294:
 9379 0ccb 4359424C 		.ascii	"CYBLE_LONG_TERM_KEY_REQUEST_REPLY\000"
 9379      455F4C4F 
 9379      4E475F54 
 9379      45524D5F 
 9379      4B45595F 
 9380              	.LASF173:
 9381 0ced 4359424C 		.ascii	"CYBLE_GATT_FIND_BY_TYPE_VALUE_RSP\000"
ARM GAS  C:\Users\Petro\AppData\Local\Temp\ccvLNIXl.s 			page 197


 9381      455F4741 
 9381      54545F46 
 9381      494E445F 
 9381      42595F54 
 9382              	.LASF22:
 9383 0d0f 4359424C 		.ascii	"CYBLE_EVT_STACK_ON\000"
 9383      455F4556 
 9383      545F5354 
 9383      41434B5F 
 9383      4F4E00
 9384              	.LASF96:
 9385 0d22 4359424C 		.ascii	"CYBLE_ERROR_L2CAP_PSM_NOT_IN_RANGE\000"
 9385      455F4552 
 9385      524F525F 
 9385      4C324341 
 9385      505F5053 
 9386              	.LASF597:
 9387 0d45 6D61696E 		.ascii	"main\000"
 9387      00
 9388              	.LASF115:
 9389 0d4a 4359424C 		.ascii	"CYBLE_BLESS_STATE_SLEEP\000"
 9389      455F424C 
 9389      4553535F 
 9389      53544154 
 9389      455F534C 
 9390              	.LASF415:
 9391 0d62 4359424C 		.ascii	"CYBLE_EVT_ESSC_WRITE_DESCR_RESPONSE\000"
 9391      455F4556 
 9391      545F4553 
 9391      53435F57 
 9391      52495445 
 9392              	.LASF632:
 9393 0d86 43795379 		.ascii	"CySysPmSleep\000"
 9393      73506D53 
 9393      6C656570 
 9393      00
 9394              	.LASF289:
 9395 0d93 73657276 		.ascii	"serviceHandle\000"
 9395      69636548 
 9395      616E646C 
 9395      6500
 9396              	.LASF448:
 9397 0da1 4359424C 		.ascii	"CYBLE_EVT_HTSS_NOTIFICATION_ENABLED\000"
 9397      455F4556 
 9397      545F4854 
 9397      53535F4E 
 9397      4F544946 
 9398              	.LASF201:
 9399 0dc5 4359424C 		.ascii	"CYBLE_GATT_ERR_INVALID_PDU\000"
 9399      455F4741 
 9399      54545F45 
 9399      52525F49 
 9399      4E56414C 
 9400              	.LASF140:
 9401 0de0 4359424C 		.ascii	"CYBLE_GAP_AUTH_ERROR_CONFIRM_VALUE_NOT_MATCH\000"
 9401      455F4741 
 9401      505F4155 
ARM GAS  C:\Users\Petro\AppData\Local\Temp\ccvLNIXl.s 			page 198


 9401      54485F45 
 9401      52524F52 
 9402              	.LASF104:
 9403 0e0d 4359424C 		.ascii	"CYBLE_ERROR_CHAR_IS_NOT_DISCOVERED\000"
 9403      455F4552 
 9403      524F525F 
 9403      43484152 
 9403      5F49535F 
 9404              	.LASF516:
 9405 0e30 4359424C 		.ascii	"CYBLE_EVT_UDSS_READ_CHAR\000"
 9405      455F4556 
 9405      545F5544 
 9405      53535F52 
 9405      4541445F 
 9406              	.LASF600:
 9407 0e49 6379426C 		.ascii	"cyBle_gattc\000"
 9407      655F6761 
 9407      74746300 
 9408              	.LASF593:
 9409 0e55 6C6F6348 		.ascii	"locHndlUuidList\000"
 9409      6E646C55 
 9409      7569644C 
 9409      69737400 
 9410              	.LASF114:
 9411 0e65 4359424C 		.ascii	"CYBLE_BLESS_STATE_EVENT_CLOSE\000"
 9411      455F424C 
 9411      4553535F 
 9411      53544154 
 9411      455F4556 
 9412              	.LASF242:
 9413 0e83 4359424C 		.ascii	"CYBLE_GATT_HANDLE_VALUE_PAIR_T\000"
 9413      455F4741 
 9413      54545F48 
 9413      414E444C 
 9413      455F5641 
 9414              	.LASF412:
 9415 0ea2 4359424C 		.ascii	"CYBLE_EVT_ESSC_READ_CHAR_RESPONSE\000"
 9415      455F4556 
 9415      545F4553 
 9415      53435F52 
 9415      4541445F 
 9416              	.LASF435:
 9417 0ec4 4359424C 		.ascii	"CYBLE_EVT_HIDSC_NOTIFICATION\000"
 9417      455F4556 
 9417      545F4849 
 9417      4453435F 
 9417      4E4F5449 
 9418              	.LASF66:
 9419 0ee1 4359424C 		.ascii	"CYBLE_EVT_L2CAP_COMMAND_REJ\000"
 9419      455F4556 
 9419      545F4C32 
 9419      4341505F 
 9419      434F4D4D 
 9420              	.LASF179:
 9421 0efd 4359424C 		.ascii	"CYBLE_GATT_READ_BLOB_RSP\000"
 9421      455F4741 
 9421      54545F52 
ARM GAS  C:\Users\Petro\AppData\Local\Temp\ccvLNIXl.s 			page 199


 9421      4541445F 
 9421      424C4F42 
 9422              	.LASF210:
 9423 0f16 4359424C 		.ascii	"CYBLE_GATT_ERR_INVALID_ATTRIBUTE_LEN\000"
 9423      455F4741 
 9423      54545F45 
 9423      52525F49 
 9423      4E56414C 
 9424              	.LASF432:
 9425 0f3b 4359424C 		.ascii	"CYBLE_EVT_HIDSS_SUSPEND\000"
 9425      455F4556 
 9425      545F4849 
 9425      4453535F 
 9425      53555350 
 9426              	.LASF97:
 9427 0f53 4359424C 		.ascii	"CYBLE_ERROR_GATT_DB_INVALID_ATTR_HANDLE\000"
 9427      455F4552 
 9427      524F525F 
 9427      47415454 
 9427      5F44425F 
 9428              	.LASF0:
 9429 0f7b 7369676E 		.ascii	"signed char\000"
 9429      65642063 
 9429      68617200 
 9430              	.LASF338:
 9431 0f87 4359424C 		.ascii	"CYBLE_EVT_BCSC_READ_DESCR_RESPONSE\000"
 9431      455F4556 
 9431      545F4243 
 9431      53435F52 
 9431      4541445F 
 9432              	.LASF543:
 9433 0faa 4359424C 		.ascii	"CYBLE_EVT_WSSC_WRITE_DESCR_RESPONSE\000"
 9433      455F4556 
 9433      545F5753 
 9433      53435F57 
 9433      52495445 
 9434              	.LASF331:
 9435 0fce 4359424C 		.ascii	"CYBLE_EVT_BASC_READ_DESCR_RESPONSE\000"
 9435      455F4556 
 9435      545F4241 
 9435      53435F52 
 9435      4541445F 
 9436              	.LASF652:
 9437 0ff1 55415254 		.ascii	"UART_DEB_UartGetChar\000"
 9437      5F444542 
 9437      5F556172 
 9437      74476574 
 9437      43686172 
 9438              	.LASF170:
 9439 1006 4359424C 		.ascii	"CYBLE_GATT_FIND_INFO_REQ\000"
 9439      455F4741 
 9439      54545F46 
 9439      494E445F 
 9439      494E464F 
 9440              	.LASF24:
 9441 101f 4359424C 		.ascii	"CYBLE_EVT_HARDWARE_ERROR\000"
 9441      455F4556 
ARM GAS  C:\Users\Petro\AppData\Local\Temp\ccvLNIXl.s 			page 200


 9441      545F4841 
 9441      52445741 
 9441      52455F45 
 9442              	.LASF78:
 9443 1038 4359424C 		.ascii	"CYBLE_ERROR_OK\000"
 9443      455F4552 
 9443      524F525F 
 9443      4F4B00
 9444              	.LASF562:
 9445 1047 666C6167 		.ascii	"flags\000"
 9445      7300
 9446              	.LASF157:
 9447 104d 70656572 		.ascii	"peerBdAddr\000"
 9447      42644164 
 9447      647200
 9448              	.LASF230:
 9449 1058 4359424C 		.ascii	"CYBLE_GATT_ERR_CCCD_IMPROPERLY_CONFIGURED\000"
 9449      455F4741 
 9449      54545F45 
 9449      52525F43 
 9449      4343445F 
 9450              	.LASF45:
 9451 1082 4359424C 		.ascii	"CYBLE_EVT_GATTC_READ_BY_GROUP_TYPE_RSP\000"
 9451      455F4556 
 9451      545F4741 
 9451      5454435F 
 9451      52454144 
 9452              	.LASF545:
 9453 10a9 4359424C 		.ascii	"CYBLE_STATE_STOPPED\000"
 9453      455F5354 
 9453      4154455F 
 9453      53544F50 
 9453      50454400 
 9454              	.LASF487:
 9455 10bd 4359424C 		.ascii	"CYBLE_EVT_RSCSS_INDICATION_ENABLED\000"
 9455      455F4556 
 9455      545F5253 
 9455      4353535F 
 9455      494E4449 
 9456              	.LASF1:
 9457 10e0 756E7369 		.ascii	"unsigned char\000"
 9457      676E6564 
 9457      20636861 
 9457      7200
 9458              	.LASF44:
 9459 10ee 4359424C 		.ascii	"CYBLE_EVT_GATTC_XCHNG_MTU_RSP\000"
 9459      455F4556 
 9459      545F4741 
 9459      5454435F 
 9459      5843484E 
 9460              	.LASF370:
 9461 110c 4359424C 		.ascii	"CYBLE_EVT_CPSS_INDICATION_CONFIRMED\000"
 9461      455F4556 
 9461      545F4350 
 9461      53535F49 
 9461      4E444943 
 9462              	.LASF192:
ARM GAS  C:\Users\Petro\AppData\Local\Temp\ccvLNIXl.s 			page 201


 9463 1130 4359424C 		.ascii	"CYBLE_GATT_HANDLE_VALUE_IND\000"
 9463      455F4741 
 9463      54545F48 
 9463      414E444C 
 9463      455F5641 
 9464              	.LASF650:
 9465 114c 57707473 		.ascii	"WptsInit\000"
 9465      496E6974 
 9465      00
 9466              	.LASF367:
 9467 1155 4359424C 		.ascii	"CYBLE_EVT_CPSS_NOTIFICATION_DISABLED\000"
 9467      455F4556 
 9467      545F4350 
 9467      53535F4E 
 9467      4F544946 
 9468              	.LASF186:
 9469 117a 4359424C 		.ascii	"CYBLE_GATT_WRITE_CMD\000"
 9469      455F4741 
 9469      54545F57 
 9469      52495445 
 9469      5F434D44 
 9470              	.LASF492:
 9471 118f 4359424C 		.ascii	"CYBLE_EVT_RSCSC_INDICATION\000"
 9471      455F4556 
 9471      545F5253 
 9471      4353435F 
 9471      494E4449 
 9472              	.LASF263:
 9473 11aa 4359424C 		.ascii	"CYBLE_GATTC_HANDLE_UUID_LIST_PARAM_T\000"
 9473      455F4741 
 9473      5454435F 
 9473      48414E44 
 9473      4C455F55 
 9474              	.LASF542:
 9475 11cf 4359424C 		.ascii	"CYBLE_EVT_WSSC_READ_DESCR_RESPONSE\000"
 9475      455F4556 
 9475      545F5753 
 9475      53435F52 
 9475      4541445F 
 9476              	.LASF108:
 9477 11f2 4359424C 		.ascii	"CYBLE_BLESS_SLEEP\000"
 9477      455F424C 
 9477      4553535F 
 9477      534C4545 
 9477      5000
 9478              	.LASF73:
 9479 1204 4359424C 		.ascii	"CYBLE_EVT_L2CAP_CBFC_TX_CREDIT_IND\000"
 9479      455F4556 
 9479      545F4C32 
 9479      4341505F 
 9479      43424643 
 9480              	.LASF156:
 9481 1227 70656572 		.ascii	"peerAddrType\000"
 9481      41646472 
 9481      54797065 
 9481      00
 9482              	.LASF357:
ARM GAS  C:\Users\Petro\AppData\Local\Temp\ccvLNIXl.s 			page 202


 9483 1234 4359424C 		.ascii	"CYBLE_EVT_CGMSS_NOTIFICATION_ENABLED\000"
 9483      455F4556 
 9483      545F4347 
 9483      4D53535F 
 9483      4E4F5449 
 9484              	.LASF276:
 9485 1259 4359424C 		.ascii	"CYBLE_GATTC_T\000"
 9485      455F4741 
 9485      5454435F 
 9485      5400
 9486              	.LASF298:
 9487 1267 4359424C 		.ascii	"CYBLE_EVT_GATTC_INDICATION\000"
 9487      455F4556 
 9487      545F4741 
 9487      5454435F 
 9487      494E4449 
 9488              	.LASF248:
 9489 1282 6572726F 		.ascii	"errorCode\000"
 9489      72436F64 
 9489      6500
 9490              	.LASF146:
 9491 128c 4359424C 		.ascii	"CYBLE_GAP_AUTH_ERROR_INVALID_PARAMETERS\000"
 9491      455F4741 
 9491      505F4155 
 9491      54485F45 
 9491      52524F52 
 9492              	.LASF615:
 9493 12b4 5F426F6F 		.ascii	"_Bool\000"
 9493      6C00
 9494              	.LASF113:
 9495 12ba 4359424C 		.ascii	"CYBLE_BLESS_STATE_ACTIVE\000"
 9495      455F424C 
 9495      4553535F 
 9495      53544154 
 9495      455F4143 
 9496              	.LASF265:
 9497 12d3 75756964 		.ascii	"uuidFormat\000"
 9497      466F726D 
 9497      617400
 9498              	.LASF499:
 9499 12de 4359424C 		.ascii	"CYBLE_EVT_SCPSS_NOTIFICATION_ENABLED\000"
 9499      455F4556 
 9499      545F5343 
 9499      5053535F 
 9499      4E4F5449 
 9500              	.LASF70:
 9501 1303 4359424C 		.ascii	"CYBLE_EVT_L2CAP_CBFC_DISCONN_CNF\000"
 9501      455F4556 
 9501      545F4C32 
 9501      4341505F 
 9501      43424643 
 9502              	.LASF48:
 9503 1324 4359424C 		.ascii	"CYBLE_EVT_GATTC_FIND_BY_TYPE_VALUE_RSP\000"
 9503      455F4556 
 9503      545F4741 
 9503      5454435F 
 9503      46494E44 
ARM GAS  C:\Users\Petro\AppData\Local\Temp\ccvLNIXl.s 			page 203


 9504              	.LASF310:
 9505 134b 4359424C 		.ascii	"CYBLE_EVT_ANCSS_NOTIFICATION_ENABLED\000"
 9505      455F4556 
 9505      545F414E 
 9505      4353535F 
 9505      4E4F5449 
 9506              	.LASF112:
 9507 1370 4359424C 		.ascii	"CYBLE_LP_MODE_T\000"
 9507      455F4C50 
 9507      5F4D4F44 
 9507      455F5400 
 9508              	.LASF404:
 9509 1380 4359424C 		.ascii	"CYBLE_EVT_ESSS_INDICATION_ENABLED\000"
 9509      455F4556 
 9509      545F4553 
 9509      53535F49 
 9509      4E444943 
 9510              	.LASF16:
 9511 13a2 63686172 		.ascii	"char\000"
 9511      00
 9512              	.LASF507:
 9513 13a7 4359424C 		.ascii	"CYBLE_EVT_TPSC_NOTIFICATION\000"
 9513      455F4556 
 9513      545F5450 
 9513      53435F4E 
 9513      4F544946 
 9514              	.LASF185:
 9515 13c3 4359424C 		.ascii	"CYBLE_GATT_WRITE_RSP\000"
 9515      455F4741 
 9515      54545F57 
 9515      52495445 
 9515      5F525350 
 9516              	.LASF51:
 9517 13d8 4359424C 		.ascii	"CYBLE_EVT_GATTC_READ_MULTI_RSP\000"
 9517      455F4556 
 9517      545F4741 
 9517      5454435F 
 9517      52454144 
 9518              	.LASF154:
 9519 13f7 4359424C 		.ascii	"CYBLE_GAP_AUTH_INFO_T\000"
 9519      455F4741 
 9519      505F4155 
 9519      54485F49 
 9519      4E464F5F 
 9520              	.LASF549:
 9521 140d 4359424C 		.ascii	"CYBLE_STATE_CONNECTING\000"
 9521      455F5354 
 9521      4154455F 
 9521      434F4E4E 
 9521      45435449 
 9522              	.LASF21:
 9523 1424 4359424C 		.ascii	"CYBLE_EVT_HOST_INVALID\000"
 9523      455F4556 
 9523      545F484F 
 9523      53545F49 
 9523      4E56414C 
 9524              	.LASF221:
ARM GAS  C:\Users\Petro\AppData\Local\Temp\ccvLNIXl.s 			page 204


 9525 143b 4359424C 		.ascii	"CYBLE_GATT_ERR_MISSING_CRC\000"
 9525      455F4741 
 9525      54545F45 
 9525      52525F4D 
 9525      49535349 
 9526              	.LASF211:
 9527 1456 4359424C 		.ascii	"CYBLE_GATT_ERR_UNLIKELY_ERROR\000"
 9527      455F4741 
 9527      54545F45 
 9527      52525F55 
 9527      4E4C494B 
 9528              	.LASF426:
 9529 1474 4359424C 		.ascii	"CYBLE_EVT_GLSC_READ_DESCR_RESPONSE\000"
 9529      455F4556 
 9529      545F474C 
 9529      53435F52 
 9529      4541445F 
 9530              	.LASF168:
 9531 1497 4359424C 		.ascii	"CYBLE_GATT_XCNHG_MTU_REQ\000"
 9531      455F4741 
 9531      54545F58 
 9531      434E4847 
 9531      5F4D5455 
 9532              	.LASF85:
 9533 14b0 4359424C 		.ascii	"CYBLE_ERROR_NO_DEVICE_ENTITY\000"
 9533      455F4552 
 9533      524F525F 
 9533      4E4F5F44 
 9533      45564943 
 9534              	.LASF50:
 9535 14cd 4359424C 		.ascii	"CYBLE_EVT_GATTC_READ_BLOB_RSP\000"
 9535      455F4556 
 9535      545F4741 
 9535      5454435F 
 9535      52454144 
 9536              	.LASF451:
 9537 14eb 4359424C 		.ascii	"CYBLE_EVT_HTSS_INDICATION_DISABLED\000"
 9537      455F4556 
 9537      545F4854 
 9537      53535F49 
 9537      4E444943 
 9538              	.LASF498:
 9539 150e 4359424C 		.ascii	"CYBLE_EVT_RTUSC_READ_CHAR_RESPONSE\000"
 9539      455F4556 
 9539      545F5254 
 9539      5553435F 
 9539      52454144 
 9540              	.LASF57:
 9541 1531 4359424C 		.ascii	"CYBLE_EVT_GATTC_EXEC_WRITE_RSP\000"
 9541      455F4556 
 9541      545F4741 
 9541      5454435F 
 9541      45584543 
 9542              	.LASF215:
 9543 1550 4359424C 		.ascii	"CYBLE_GATT_ERR_HEART_RATE_CONTROL_POINT_NOT_SUPPORT"
 9543      455F4741 
 9543      54545F45 
ARM GAS  C:\Users\Petro\AppData\Local\Temp\ccvLNIXl.s 			page 205


 9543      52525F48 
 9543      45415254 
 9544 1583 454400   		.ascii	"ED\000"
 9545              	.LASF539:
 9546 1586 4359424C 		.ascii	"CYBLE_EVT_WSSS_INDICATION_CONFIRMED\000"
 9546      455F4556 
 9546      545F5753 
 9546      53535F49 
 9546      4E444943 
 9547              	.LASF208:
 9548 15aa 4359424C 		.ascii	"CYBLE_GATT_ERR_ATTRIBUTE_NOT_LONG\000"
 9548      455F4741 
 9548      54545F45 
 9548      52525F41 
 9548      54545249 
 9549              	.LASF399:
 9550 15cc 4359424C 		.ascii	"CYBLE_EVT_CTSC_WRITE_DESCR_RESPONSE\000"
 9550      455F4556 
 9550      545F4354 
 9550      53435F57 
 9550      52495445 
 9551              	.LASF512:
 9552 15f0 4359424C 		.ascii	"CYBLE_EVT_UDSS_INDICATION_DISABLED\000"
 9552      455F4556 
 9552      545F5544 
 9552      53535F49 
 9552      4E444943 
 9553              	.LASF626:
 9554 1613 6D656D63 		.ascii	"memcmp\000"
 9554      6D7000
 9555              	.LASF62:
 9556 161a 4359424C 		.ascii	"CYBLE_EVT_GATTC_STOP_CMD_COMPLETE\000"
 9556      455F4556 
 9556      545F4741 
 9556      5454435F 
 9556      53544F50 
 9557              	.LASF373:
 9558 163c 4359424C 		.ascii	"CYBLE_EVT_CPSS_CHAR_WRITE\000"
 9558      455F4556 
 9558      545F4350 
 9558      53535F43 
 9558      4841525F 
 9559              	.LASF440:
 9560 1656 4359424C 		.ascii	"CYBLE_EVT_HRSS_ENERGY_EXPENDED_RESET\000"
 9560      455F4556 
 9560      545F4852 
 9560      53535F45 
 9560      4E455247 
 9561              	.LASF229:
 9562 167b 4359424C 		.ascii	"CYBLE_GATT_ERR_ANCS_ACTION_FAILED\000"
 9562      455F4741 
 9562      54545F45 
 9562      52525F41 
 9562      4E43535F 
 9563              	.LASF285:
 9564 169d 4359424C 		.ascii	"CYBLE_WPTS_DESCR_COUNT\000"
 9564      455F5750 
ARM GAS  C:\Users\Petro\AppData\Local\Temp\ccvLNIXl.s 			page 206


 9564      54535F44 
 9564      45534352 
 9564      5F434F55 
 9565              	.LASF526:
 9566 16b4 4359424C 		.ascii	"CYBLE_EVT_WPTSS_NOTIFICATION_DISABLED\000"
 9566      455F4556 
 9566      545F5750 
 9566      5453535F 
 9566      4E4F5449 
 9567              	.LASF343:
 9568 16da 4359424C 		.ascii	"CYBLE_EVT_BLSS_NOTIFICATION_ENABLED\000"
 9568      455F4556 
 9568      545F424C 
 9568      53535F4E 
 9568      4F544946 
 9569              	.LASF167:
 9570 16fe 4359424C 		.ascii	"CYBLE_GATT_ERROR_RSP\000"
 9570      455F4741 
 9570      54545F45 
 9570      52524F52 
 9570      5F525350 
 9571              	.LASF79:
 9572 1713 4359424C 		.ascii	"CYBLE_ERROR_INVALID_PARAMETER\000"
 9572      455F4552 
 9572      524F525F 
 9572      494E5641 
 9572      4C49445F 
 9573              	.LASF411:
 9574 1731 4359424C 		.ascii	"CYBLE_EVT_ESSC_INDICATION\000"
 9574      455F4556 
 9574      545F4553 
 9574      53435F49 
 9574      4E444943 
 9575              	.LASF317:
 9576 174b 4359424C 		.ascii	"CYBLE_EVT_ANCSC_WRITE_DESCR_RESPONSE\000"
 9576      455F4556 
 9576      545F414E 
 9576      4353435F 
 9576      57524954 
 9577              	.LASF494:
 9578 1770 4359424C 		.ascii	"CYBLE_EVT_RSCSC_WRITE_CHAR_RESPONSE\000"
 9578      455F4556 
 9578      545F5253 
 9578      4353435F 
 9578      57524954 
 9579              	.LASF441:
 9580 1794 4359424C 		.ascii	"CYBLE_EVT_HRSS_NOTIFICATION_ENABLED\000"
 9580      455F4556 
 9580      545F4852 
 9580      53535F4E 
 9580      4F544946 
 9581              	.LASF607:
 9582 17b8 70656564 		.ascii	"peedDeviceInfo\000"
 9582      44657669 
 9582      6365496E 
 9582      666F00
 9583              	.LASF510:
ARM GAS  C:\Users\Petro\AppData\Local\Temp\ccvLNIXl.s 			page 207


 9584 17c7 4359424C 		.ascii	"CYBLE_EVT_TPSC_WRITE_DESCR_RESPONSE\000"
 9584      455F4556 
 9584      545F5450 
 9584      53435F57 
 9584      52495445 
 9585              	.LASF382:
 9586 17eb 4359424C 		.ascii	"CYBLE_EVT_CSCSS_NOTIFICATION_DISABLED\000"
 9586      455F4556 
 9586      545F4353 
 9586      4353535F 
 9586      4E4F5449 
 9587              	.LASF393:
 9588 1811 4359424C 		.ascii	"CYBLE_EVT_CTSS_NOTIFICATION_ENABLED\000"
 9588      455F4556 
 9588      545F4354 
 9588      53535F4E 
 9588      4F544946 
 9589              	.LASF488:
 9590 1835 4359424C 		.ascii	"CYBLE_EVT_RSCSS_INDICATION_DISABLED\000"
 9590      455F4556 
 9590      545F5253 
 9590      4353535F 
 9590      494E4449 
 9591              	.LASF567:
 9592 1859 6669726D 		.ascii	"firmwareRev\000"
 9592      77617265 
 9592      52657600 
 9593              	.LASF530:
 9594 1865 4359424C 		.ascii	"CYBLE_EVT_WPTSS_WRITE_CHAR\000"
 9594      455F4556 
 9594      545F5750 
 9594      5453535F 
 9594      57524954 
 9595              	.LASF461:
 9596 1880 4359424C 		.ascii	"CYBLE_EVT_LLSS_WRITE_CHAR_REQ\000"
 9596      455F4556 
 9596      545F4C4C 
 9596      53535F57 
 9596      52495445 
 9597              	.LASF81:
 9598 189e 4359424C 		.ascii	"CYBLE_ERROR_MEMORY_ALLOCATION_FAILED\000"
 9598      455F4552 
 9598      524F525F 
 9598      4D454D4F 
 9598      52595F41 
 9599              	.LASF446:
 9600 18c3 4359424C 		.ascii	"CYBLE_EVT_HRSC_READ_DESCR_RESPONSE\000"
 9600      455F4556 
 9600      545F4852 
 9600      53435F52 
 9600      4541445F 
 9601              	.LASF654:
 9602 18e6 4379426C 		.ascii	"CyBle_GapcCancelDeviceConnection\000"
 9602      655F4761 
 9602      70634361 
 9602      6E63656C 
 9602      44657669 
ARM GAS  C:\Users\Petro\AppData\Local\Temp\ccvLNIXl.s 			page 208


 9603              	.LASF596:
 9604 1907 5744545F 		.ascii	"WDT_Stop\000"
 9604      53746F70 
 9604      00
 9605              	.LASF381:
 9606 1910 4359424C 		.ascii	"CYBLE_EVT_CSCSS_NOTIFICATION_ENABLED\000"
 9606      455F4556 
 9606      545F4353 
 9606      4353535F 
 9606      4E4F5449 
 9607              	.LASF625:
 9608 1935 7072696E 		.ascii	"printf\000"
 9608      746600
 9609              	.LASF254:
 9610 193c 61747472 		.ascii	"attrValue\000"
 9610      56616C75 
 9610      6500
 9611              	.LASF345:
 9612 1946 4359424C 		.ascii	"CYBLE_EVT_BLSC_INDICATION\000"
 9612      455F4556 
 9612      545F424C 
 9612      53435F49 
 9612      4E444943 
 9613              	.LASF572:
 9614 1960 64656C74 		.ascii	"deltaR1\000"
 9614      61523100 
 9615              	.LASF194:
 9616 1968 4359424C 		.ascii	"CYBLE_GATT_SIGNED_WRITE_CMD\000"
 9616      455F4741 
 9616      54545F53 
 9616      49474E45 
 9616      445F5752 
 9617              	.LASF434:
 9618 1984 4359424C 		.ascii	"CYBLE_EVT_HIDSS_REPORT_CHAR_WRITE\000"
 9618      455F4556 
 9618      545F4849 
 9618      4453535F 
 9618      5245504F 
 9619              	.LASF333:
 9620 19a6 4359424C 		.ascii	"CYBLE_EVT_BCSS_INDICATION_ENABLED\000"
 9620      455F4556 
 9620      545F4243 
 9620      53535F49 
 9620      4E444943 
 9621              	.LASF222:
 9622 19c8 4359424C 		.ascii	"CYBLE_GATTS_ERR_CCCD_IMPROPERLY_CONFIGURED\000"
 9622      455F4741 
 9622      5454535F 
 9622      4552525F 
 9622      43434344 
 9623              	.LASF534:
 9624 19f3 4359424C 		.ascii	"CYBLE_EVT_WPTSC_READ_CHAR_RESPONSE\000"
 9624      455F4556 
 9624      545F5750 
 9624      5453435F 
 9624      52454144 
 9625              	.LASF190:
ARM GAS  C:\Users\Petro\AppData\Local\Temp\ccvLNIXl.s 			page 209


 9626 1a16 4359424C 		.ascii	"CYBLE_GATT_EXECUTE_WRITE_RSP\000"
 9626      455F4741 
 9626      54545F45 
 9626      58454355 
 9626      54455F57 
 9627              	.LASF558:
 9628 1a33 74696D65 		.ascii	"timeSet\000"
 9628      53657400 
 9629              	.LASF101:
 9630 1a3b 4359424C 		.ascii	"CYBLE_ERROR_MAX\000"
 9630      455F4552 
 9630      524F525F 
 9630      4D415800 
 9631              	.LASF473:
 9632 1a4b 4359424C 		.ascii	"CYBLE_EVT_LNSC_WRITE_CHAR_RESPONSE\000"
 9632      455F4556 
 9632      545F4C4E 
 9632      53435F57 
 9632      52495445 
 9633              	.LASF65:
 9634 1a6e 4359424C 		.ascii	"CYBLE_EVT_L2CAP_CONN_PARAM_UPDATE_RSP\000"
 9634      455F4556 
 9634      545F4C32 
 9634      4341505F 
 9634      434F4E4E 
 9635              	.LASF148:
 9636 1a94 4359424C 		.ascii	"CYBLE_GAP_AUTH_ERROR_LINK_DISCONNECTED\000"
 9636      455F4741 
 9636      505F4155 
 9636      54485F45 
 9636      52524F52 
 9637              	.LASF324:
 9638 1abb 4359424C 		.ascii	"CYBLE_EVT_ANSC_WRITE_CHAR_RESPONSE\000"
 9638      455F4556 
 9638      545F414E 
 9638      53435F57 
 9638      52495445 
 9639              	.LASF515:
 9640 1ade 4359424C 		.ascii	"CYBLE_EVT_UDSS_NOTIFICATION_DISABLED\000"
 9640      455F4556 
 9640      545F5544 
 9640      53535F4E 
 9640      4F544946 
 9641              	.LASF392:
 9642 1b03 4359424C 		.ascii	"CYBLE_EVT_CSCSC_WRITE_DESCR_RESPONSE\000"
 9642      455F4556 
 9642      545F4353 
 9642      4353435F 
 9642      57524954 
 9643              	.LASF408:
 9644 1b28 4359424C 		.ascii	"CYBLE_EVT_ESSS_EXEC_WRITE_REQ\000"
 9644      455F4556 
 9644      545F4553 
 9644      53535F45 
 9644      5845435F 
 9645              	.LASF577:
 9646 1b46 70656572 		.ascii	"peerAdvServData\000"
ARM GAS  C:\Users\Petro\AppData\Local\Temp\ccvLNIXl.s 			page 210


 9646      41647653 
 9646      65727644 
 9646      61746100 
 9647              	.LASF111:
 9648 1b56 4359424C 		.ascii	"CYBLE_BLESS_INVALID\000"
 9648      455F424C 
 9648      4553535F 
 9648      494E5641 
 9648      4C494400 
 9649              	.LASF334:
 9650 1b6a 4359424C 		.ascii	"CYBLE_EVT_BCSS_INDICATION_DISABLED\000"
 9650      455F4556 
 9650      545F4243 
 9650      53535F49 
 9650      4E444943 
 9651              	.LASF560:
 9652 1b8d 72667532 		.ascii	"rfu2\000"
 9652      00
 9653              	.LASF243:
 9654 1b92 73746172 		.ascii	"startHandle\000"
 9654      7448616E 
 9654      646C6500 
 9655              	.LASF216:
 9656 1b9e 4359424C 		.ascii	"CYBLE_GATT_ERR_USER_DATA_ACCESS_NOT_PERMITTED\000"
 9656      455F4741 
 9656      54545F45 
 9656      52525F55 
 9656      5345525F 
 9657              	.LASF262:
 9658 1bcc 62797465 		.ascii	"byteCount\000"
 9658      436F756E 
 9658      7400
 9659              	.LASF568:
 9660 1bd6 70526563 		.ascii	"pRectMax\000"
 9660      744D6178 
 9660      00
 9661              	.LASF553:
 9662 1bdf 4359424C 		.ascii	"CYBLE_SRVI_GATT\000"
 9662      455F5352 
 9662      56495F47 
 9662      41545400 
 9663              	.LASF291:
 9664 1bef 4359424C 		.ascii	"CYBLE_WPTSC_T\000"
 9664      455F5750 
 9664      5453435F 
 9664      5400
 9665              	.LASF565:
 9666 1bfd 70727549 		.ascii	"pruInformation\000"
 9666      6E666F72 
 9666      6D617469 
 9666      6F6E00
 9667              	.LASF31:
 9668 1c0c 4359424C 		.ascii	"CYBLE_EVT_GAP_AUTH_COMPLETE\000"
 9668      455F4556 
 9668      545F4741 
 9668      505F4155 
 9668      54485F43 
ARM GAS  C:\Users\Petro\AppData\Local\Temp\ccvLNIXl.s 			page 211


 9669              	.LASF483:
 9670 1c28 4359424C 		.ascii	"CYBLE_EVT_PASSC_READ_DESCR_RESPONSE\000"
 9670      455F4556 
 9670      545F5041 
 9670      5353435F 
 9670      52454144 
 9671              	.LASF414:
 9672 1c4c 4359424C 		.ascii	"CYBLE_EVT_ESSC_READ_DESCR_RESPONSE\000"
 9672      455F4556 
 9672      545F4553 
 9672      53435F52 
 9672      4541445F 
 9673              	.LASF32:
 9674 1c6f 4359424C 		.ascii	"CYBLE_EVT_GAP_AUTH_FAILED\000"
 9674      455F4556 
 9674      545F4741 
 9674      505F4155 
 9674      54485F46 
 9675              	.LASF433:
 9676 1c89 4359424C 		.ascii	"CYBLE_EVT_HIDSS_EXIT_SUSPEND\000"
 9676      455F4556 
 9676      545F4849 
 9676      4453535F 
 9676      45584954 
 9677              	.LASF121:
 9678 1ca6 4359424C 		.ascii	"CYBLE_BLESS_STATE_T\000"
 9678      455F424C 
 9678      4553535F 
 9678      53544154 
 9678      455F5400 
 9679              	.LASF662:
 9680 1cba 443A5C43 		.ascii	"D:\\Cypress\\system-start-finish\\fw\\finish\\sandb"
 9680      79707265 
 9680      73735C73 
 9680      79737465 
 9680      6D2D7374 
 9681 1ce8 6F785C55 		.ascii	"ox\\UART_Tx01\\BLE_Wireless_Power_Transmitter01.cyd"
 9681      4152545F 
 9681      54783031 
 9681      5C424C45 
 9681      5F576972 
 9682 1d19 736E00   		.ascii	"sn\000"
 9683              	.LASF559:
 9684 1d1c 72667531 		.ascii	"rfu1\000"
 9684      00
 9685              	.LASF259:
 9686 1d21 4359424C 		.ascii	"CYBLE_GATTC_READ_BY_GRP_RSP_PARAM_T\000"
 9686      455F4741 
 9686      5454435F 
 9686      52454144 
 9686      5F42595F 
 9687              	.LASF183:
 9688 1d45 4359424C 		.ascii	"CYBLE_GATT_READ_BY_GROUP_RSP\000"
 9688      455F4741 
 9688      54545F52 
 9688      4541445F 
 9688      42595F47 
ARM GAS  C:\Users\Petro\AppData\Local\Temp\ccvLNIXl.s 			page 212


 9689              	.LASF556:
 9690 1d62 656E6162 		.ascii	"enables\000"
 9690      6C657300 
 9691              	.LASF82:
 9692 1d6a 4359424C 		.ascii	"CYBLE_ERROR_INSUFFICIENT_RESOURCES\000"
 9692      455F4552 
 9692      524F525F 
 9692      494E5355 
 9692      46464943 
 9693              	.LASF486:
 9694 1d8d 4359424C 		.ascii	"CYBLE_EVT_RSCSS_NOTIFICATION_DISABLED\000"
 9694      455F4556 
 9694      545F5253 
 9694      4353535F 
 9694      4E4F5449 
 9695              	.LASF220:
 9696 1db3 4359424C 		.ascii	"CYBLE_GATT_ERR_OP_CODE_NOT_SUPPORTED\000"
 9696      455F4741 
 9696      54545F45 
 9696      52525F4F 
 9696      505F434F 
 9697              	.LASF437:
 9698 1dd8 4359424C 		.ascii	"CYBLE_EVT_HIDSC_WRITE_CHAR_RESPONSE\000"
 9698      455F4556 
 9698      545F4849 
 9698      4453435F 
 9698      57524954 
 9699              	.LASF5:
 9700 1dfc 6C6F6E67 		.ascii	"long unsigned int\000"
 9700      20756E73 
 9700      69676E65 
 9700      6420696E 
 9700      7400
 9701              	.LASF176:
 9702 1e0e 4359424C 		.ascii	"CYBLE_GATT_READ_REQ\000"
 9702      455F4741 
 9702      54545F52 
 9702      4541445F 
 9702      52455100 
 9703              	.LASF460:
 9704 1e22 4359424C 		.ascii	"CYBLE_EVT_IASS_WRITE_CHAR_CMD\000"
 9704      455F4556 
 9704      545F4941 
 9704      53535F57 
 9704      52495445 
 9705              	.LASF162:
 9706 1e40 73746174 		.ascii	"status\000"
 9706      757300
 9707              	.LASF480:
 9708 1e47 4359424C 		.ascii	"CYBLE_EVT_PASSC_NOTIFICATION\000"
 9708      455F4556 
 9708      545F5041 
 9708      5353435F 
 9708      4E4F5449 
 9709              	.LASF527:
 9710 1e64 4359424C 		.ascii	"CYBLE_EVT_WPTSS_INDICATION_ENABLED\000"
 9710      455F4556 
ARM GAS  C:\Users\Petro\AppData\Local\Temp\ccvLNIXl.s 			page 213


 9710      545F5750 
 9710      5453535F 
 9710      494E4449 
 9711              	.LASF143:
 9712 1e87 4359424C 		.ascii	"CYBLE_GAP_AUTH_ERROR_COMMAND_NOT_SUPPORTED\000"
 9712      455F4741 
 9712      505F4155 
 9712      54485F45 
 9712      52524F52 
 9713              	.LASF139:
 9714 1eb2 4359424C 		.ascii	"CYBLE_GAP_AUTH_ERROR_AUTHENTICATION_REQ_NOT_MET\000"
 9714      455F4741 
 9714      505F4155 
 9714      54485F45 
 9714      52524F52 
 9715              	.LASF656:
 9716 1ee2 4379426C 		.ascii	"CyBle_GattcStartDiscovery\000"
 9716      655F4761 
 9716      74746353 
 9716      74617274 
 9716      44697363 
 9717              	.LASF273:
 9718 1efc 4359424C 		.ascii	"CYBLE_SRVR_CHAR_INFO_T\000"
 9718      455F5352 
 9718      56525F43 
 9718      4841525F 
 9718      494E464F 
 9719              	.LASF191:
 9720 1f13 4359424C 		.ascii	"CYBLE_GATT_HANDLE_VALUE_NTF\000"
 9720      455F4741 
 9720      54545F48 
 9720      414E444C 
 9720      455F5641 
 9721              	.LASF323:
 9722 1f2f 4359424C 		.ascii	"CYBLE_EVT_ANSC_READ_CHAR_RESPONSE\000"
 9722      455F4556 
 9722      545F414E 
 9722      53435F52 
 9722      4541445F 
 9723              	.LASF582:
 9724 1f51 696E7465 		.ascii	"interruptStatus\000"
 9724      72727570 
 9724      74537461 
 9724      74757300 
 9725              	.LASF92:
 9726 1f61 4359424C 		.ascii	"CYBLE_ERROR_L2CAP_PSM_ALREADY_REGISTERED\000"
 9726      455F4552 
 9726      524F525F 
 9726      4C324341 
 9726      505F5053 
 9727              	.LASF660:
 9728 1f8a 474E5520 		.ascii	"GNU C 4.9.3 20150303 (release) [ARM/embedded-4_9-br"
 9728      4320342E 
 9728      392E3320 
 9728      32303135 
 9728      30333033 
 9729 1fbd 616E6368 		.ascii	"anch revision 221220] -mcpu=cortex-m0 -mthumb -g -O"
ARM GAS  C:\Users\Petro\AppData\Local\Temp\ccvLNIXl.s 			page 214


 9729      20726576 
 9729      6973696F 
 9729      6E203232 
 9729      31323230 
 9730 1ff0 67202D66 		.ascii	"g -ffunction-sections -ffat-lto-objects\000"
 9730      66756E63 
 9730      74696F6E 
 9730      2D736563 
 9730      74696F6E 
 9731              	.LASF653:
 9732 2018 4379426C 		.ascii	"CyBle_GapcStopScan\000"
 9732      655F4761 
 9732      70635374 
 9732      6F705363 
 9732      616E00
 9733              	.LASF226:
 9734 202b 4359424C 		.ascii	"CYBLE_GATT_ERR_ANCS_UNKNOWN_COMMAND\000"
 9734      455F4741 
 9734      54545F45 
 9734      52525F41 
 9734      4E43535F 
 9735              	.LASF327:
 9736 204f 4359424C 		.ascii	"CYBLE_EVT_BASS_NOTIFICATION_ENABLED\000"
 9736      455F4556 
 9736      545F4241 
 9736      53535F4E 
 9736      4F544946 
 9737              	.LASF655:
 9738 2073 4379426C 		.ascii	"CyBle_GapDisconnect\000"
 9738      655F4761 
 9738      70446973 
 9738      636F6E6E 
 9738      65637400 
 9739              	.LASF401:
 9740 2087 4359424C 		.ascii	"CYBLE_EVT_DISC_READ_CHAR_RESPONSE\000"
 9740      455F4556 
 9740      545F4449 
 9740      53435F52 
 9740      4541445F 
 9741              	.LASF400:
 9742 20a9 4359424C 		.ascii	"CYBLE_EVT_CTSC_WRITE_CHAR_RESPONSE\000"
 9742      455F4556 
 9742      545F4354 
 9742      53435F57 
 9742      52495445 
 9743              	.LASF479:
 9744 20cc 4359424C 		.ascii	"CYBLE_EVT_PASSS_WRITE_CHAR\000"
 9744      455F4556 
 9744      545F5041 
 9744      5353535F 
 9744      57524954 
 9745              	.LASF637:
 9746 20e7 53686F77 		.ascii	"ShowValue\000"
 9746      56616C75 
 9746      6500
 9747              	.LASF377:
 9748 20f1 4359424C 		.ascii	"CYBLE_EVT_CPSC_WRITE_CHAR_RESPONSE\000"
ARM GAS  C:\Users\Petro\AppData\Local\Temp\ccvLNIXl.s 			page 215


 9748      455F4556 
 9748      545F4350 
 9748      53435F57 
 9748      52495445 
 9749              	.LASF590:
 9750 2114 61647652 		.ascii	"advReport\000"
 9750      65706F72 
 9750      7400
 9751              	.LASF586:
 9752 211e 6576656E 		.ascii	"event\000"
 9752      7400
 9753              	.LASF37:
 9754 2124 4359424C 		.ascii	"CYBLE_EVT_GAP_CONNECTION_UPDATE_COMPLETE\000"
 9754      455F4556 
 9754      545F4741 
 9754      505F434F 
 9754      4E4E4543 
 9755              	.LASF362:
 9756 214d 4359424C 		.ascii	"CYBLE_EVT_CGMSC_READ_CHAR_RESPONSE\000"
 9756      455F4556 
 9756      545F4347 
 9756      4D53435F 
 9756      52454144 
 9757              	.LASF546:
 9758 2170 4359424C 		.ascii	"CYBLE_STATE_INITIALIZING\000"
 9758      455F5354 
 9758      4154455F 
 9758      494E4954 
 9758      49414C49 
 9759              	.LASF613:
 9760 2189 616C6572 		.ascii	"alertCCCD\000"
 9760      74434343 
 9760      4400
 9761              	.LASF145:
 9762 2193 4359424C 		.ascii	"CYBLE_GAP_AUTH_ERROR_REPEATED_ATTEMPTS\000"
 9762      455F4741 
 9762      505F4155 
 9762      54485F45 
 9762      52524F52 
 9763              	.LASF69:
 9764 21ba 4359424C 		.ascii	"CYBLE_EVT_L2CAP_CBFC_DISCONN_IND\000"
 9764      455F4556 
 9764      545F4C32 
 9764      4341505F 
 9764      43424643 
 9765              	.LASF386:
 9766 21db 4359424C 		.ascii	"CYBLE_EVT_CSCSS_CHAR_WRITE\000"
 9766      455F4556 
 9766      545F4353 
 9766      4353535F 
 9766      43484152 
 9767              	.LASF258:
 9768 21f6 61747472 		.ascii	"attrData\000"
 9768      44617461 
 9768      00
 9769              	.LASF635:
 9770 21ff 43795379 		.ascii	"CySysPmHibernate\000"
ARM GAS  C:\Users\Petro\AppData\Local\Temp\ccvLNIXl.s 			page 216


 9770      73506D48 
 9770      69626572 
 9770      6E617465 
 9770      00
 9771              	.LASF493:
 9772 2210 4359424C 		.ascii	"CYBLE_EVT_RSCSC_READ_CHAR_RESPONSE\000"
 9772      455F4556 
 9772      545F5253 
 9772      4353435F 
 9772      52454144 
 9773              	.LASF29:
 9774 2233 4359424C 		.ascii	"CYBLE_EVT_GAP_PASSKEY_ENTRY_REQUEST\000"
 9774      455F4556 
 9774      545F4741 
 9774      505F5041 
 9774      53534B45 
 9775              	.LASF395:
 9776 2257 4359424C 		.ascii	"CYBLE_EVT_CTSS_CHAR_WRITE\000"
 9776      455F4556 
 9776      545F4354 
 9776      53535F43 
 9776      4841525F 
 9777              	.LASF371:
 9778 2271 4359424C 		.ascii	"CYBLE_EVT_CPSS_BROADCAST_ENABLED\000"
 9778      455F4556 
 9778      545F4350 
 9778      53535F42 
 9778      524F4144 
 9779              	.LASF569:
 9780 2292 76526563 		.ascii	"vRectMinStatic\000"
 9780      744D696E 
 9780      53746174 
 9780      696300
 9781              	.LASF142:
 9782 22a1 4359424C 		.ascii	"CYBLE_GAP_AUTH_ERROR_INSUFFICIENT_ENCRYPTION_KEY_SI"
 9782      455F4741 
 9782      505F4155 
 9782      54485F45 
 9782      52524F52 
 9783 22d4 5A4500   		.ascii	"ZE\000"
 9784              	.LASF454:
 9785 22d7 4359424C 		.ascii	"CYBLE_EVT_HTSC_NOTIFICATION\000"
 9785      455F4556 
 9785      545F4854 
 9785      53435F4E 
 9785      4F544946 
 9786              	.LASF6:
 9787 22f3 6C6F6E67 		.ascii	"long long int\000"
 9787      206C6F6E 
 9787      6720696E 
 9787      7400
 9788              	.LASF109:
 9789 2301 4359424C 		.ascii	"CYBLE_BLESS_DEEPSLEEP\000"
 9789      455F424C 
 9789      4553535F 
 9789      44454550 
 9789      534C4545 
ARM GAS  C:\Users\Petro\AppData\Local\Temp\ccvLNIXl.s 			page 217


 9790              	.LASF554:
 9791 2317 4359424C 		.ascii	"CYBLE_SRVI_WPTS\000"
 9791      455F5352 
 9791      56495F57 
 9791      50545300 
 9792              	.LASF508:
 9793 2327 4359424C 		.ascii	"CYBLE_EVT_TPSC_READ_CHAR_RESPONSE\000"
 9793      455F4556 
 9793      545F5450 
 9793      53435F52 
 9793      4541445F 
 9794              	.LASF304:
 9795 2349 4359424C 		.ascii	"CYBLE_EVT_GATTC_CHAR_DUPLICATION\000"
 9795      455F4556 
 9795      545F4741 
 9795      5454435F 
 9795      43484152 
 9796              	.LASF419:
 9797 236a 4359424C 		.ascii	"CYBLE_EVT_GLSS_NOTIFICATION_ENABLED\000"
 9797      455F4556 
 9797      545F474C 
 9797      53535F4E 
 9797      4F544946 
 9798              	.LASF612:
 9799 238e 63757374 		.ascii	"customCommand\000"
 9799      6F6D436F 
 9799      6D6D616E 
 9799      6400
 9800              	.LASF206:
 9801 239c 4359424C 		.ascii	"CYBLE_GATT_ERR_PREPARE_WRITE_QUEUE_FULL\000"
 9801      455F4741 
 9801      54545F45 
 9801      52525F50 
 9801      52455041 
 9802              	.LASF93:
 9803 23c4 4359424C 		.ascii	"CYBLE_ERROR_L2CAP_PSM_NOT_REGISTERED\000"
 9803      455F4552 
 9803      524F525F 
 9803      4C324341 
 9803      505F5053 
 9804              	.LASF83:
 9805 23e9 4359424C 		.ascii	"CYBLE_ERROR_OOB_NOT_AVAILABLE\000"
 9805      455F4552 
 9805      524F525F 
 9805      4F4F425F 
 9805      4E4F545F 
 9806              	.LASF354:
 9807 2407 4359424C 		.ascii	"CYBLE_EVT_CGMSS_INDICATION_ENABLED\000"
 9807      455F4556 
 9807      545F4347 
 9807      4D53535F 
 9807      494E4449 
 9808              	.LASF621:
 9809 242a 4379426C 		.ascii	"CyBle_GetBleSsState\000"
 9809      655F4765 
 9809      74426C65 
 9809      53735374 
ARM GAS  C:\Users\Petro\AppData\Local\Temp\ccvLNIXl.s 			page 218


 9809      61746500 
 9810              	.LASF14:
 9811 243e 646F7562 		.ascii	"double\000"
 9811      6C6500
 9812              	.LASF98:
 9813 2445 4359424C 		.ascii	"CYBLE_ERROR_DEVICE_ALREADY_EXISTS\000"
 9813      455F4552 
 9813      524F525F 
 9813      44455649 
 9813      43455F41 
 9814              	.LASF405:
 9815 2467 4359424C 		.ascii	"CYBLE_EVT_ESSS_INDICATION_DISABLED\000"
 9815      455F4556 
 9815      545F4553 
 9815      53535F49 
 9815      4E444943 
 9816              	.LASF75:
 9817 248a 4359424C 		.ascii	"CYBLE_EVT_PENDING_FLASH_WRITE\000"
 9817      455F4556 
 9817      545F5045 
 9817      4E44494E 
 9817      475F464C 
 9818              	.LASF209:
 9819 24a8 4359424C 		.ascii	"CYBLE_GATT_ERR_INSUFFICIENT_ENC_KEY_SIZE\000"
 9819      455F4741 
 9819      54545F45 
 9819      52525F49 
 9819      4E535546 
 9820              	.LASF525:
 9821 24d1 4359424C 		.ascii	"CYBLE_EVT_WPTSS_NOTIFICATION_ENABLED\000"
 9821      455F4556 
 9821      545F5750 
 9821      5453535F 
 9821      4E4F5449 
 9822              	.LASF247:
 9823 24f6 6F70436F 		.ascii	"opCode\000"
 9823      646500
 9824              	.LASF231:
 9825 24fd 4359424C 		.ascii	"CYBLE_GATT_ERR_PROCEDURE_ALREADY_IN_PROGRESS\000"
 9825      455F4741 
 9825      54545F45 
 9825      52525F50 
 9825      524F4345 
 9826              	.LASF475:
 9827 252a 4359424C 		.ascii	"CYBLE_EVT_LNSC_WRITE_DESCR_RESPONSE\000"
 9827      455F4556 
 9827      545F4C4E 
 9827      53435F57 
 9827      52495445 
 9828              	.LASF594:
 9829 254e 73657276 		.ascii	"serviceData\000"
 9829      69636544 
 9829      61746100 
 9830              	.LASF462:
 9831 255a 4359424C 		.ascii	"CYBLE_EVT_LLSC_READ_CHAR_RESPONSE\000"
 9831      455F4556 
 9831      545F4C4C 
ARM GAS  C:\Users\Petro\AppData\Local\Temp\ccvLNIXl.s 			page 219


 9831      53435F52 
 9831      4541445F 
 9832              	.LASF385:
 9833 257c 4359424C 		.ascii	"CYBLE_EVT_CSCSS_INDICATION_CONFIRMATION\000"
 9833      455F4556 
 9833      545F4353 
 9833      4353535F 
 9833      494E4449 
 9834              	.LASF95:
 9835 25a4 4359424C 		.ascii	"CYBLE_ERROR_L2CAP_CHANNEL_NOT_FOUND\000"
 9835      455F4552 
 9835      524F525F 
 9835      4C324341 
 9835      505F4348 
 9836              	.LASF86:
 9837 25c8 4359424C 		.ascii	"CYBLE_ERROR_REPEATED_ATTEMPTS\000"
 9837      455F4552 
 9837      524F525F 
 9837      52455045 
 9837      41544544 
 9838              	.LASF409:
 9839 25e6 4359424C 		.ascii	"CYBLE_EVT_ESSS_DESCR_WRITE\000"
 9839      455F4556 
 9839      545F4553 
 9839      53535F44 
 9839      45534352 
 9840              	.LASF280:
 9841 2601 4359424C 		.ascii	"CYBLE_WPTS_PRU_STATIC_PAR\000"
 9841      455F5750 
 9841      54535F50 
 9841      52555F53 
 9841      54415449 
 9842              	.LASF390:
 9843 261b 4359424C 		.ascii	"CYBLE_EVT_CSCSC_WRITE_CHAR_RESPONSE\000"
 9843      455F4556 
 9843      545F4353 
 9843      4353435F 
 9843      57524954 
 9844              	.LASF13:
 9845 263f 666C6F61 		.ascii	"float\000"
 9845      7400
 9846              	.LASF502:
 9847 2645 4359424C 		.ascii	"CYBLE_EVT_SCPSC_NOTIFICATION\000"
 9847      455F4556 
 9847      545F5343 
 9847      5053435F 
 9847      4E4F5449 
 9848              	.LASF431:
 9849 2662 4359424C 		.ascii	"CYBLE_EVT_HIDSS_REPORT_MODE_ENTER\000"
 9849      455F4556 
 9849      545F4849 
 9849      4453535F 
 9849      5245504F 
 9850              	.LASF410:
 9851 2684 4359424C 		.ascii	"CYBLE_EVT_ESSC_NOTIFICATION\000"
 9851      455F4556 
 9851      545F4553 
ARM GAS  C:\Users\Petro\AppData\Local\Temp\ccvLNIXl.s 			page 220


 9851      53435F4E 
 9851      4F544946 
 9852              	.LASF99:
 9853 26a0 4359424C 		.ascii	"CYBLE_ERROR_FLASH_WRITE_NOT_PERMITED\000"
 9853      455F4552 
 9853      524F525F 
 9853      464C4153 
 9853      485F5752 
 9854              	.LASF616:
 9855 26c5 636F6E6E 		.ascii	"connParameters\000"
 9855      50617261 
 9855      6D657465 
 9855      727300
 9856              	.LASF429:
 9857 26d4 4359424C 		.ascii	"CYBLE_EVT_HIDSS_NOTIFICATION_DISABLED\000"
 9857      455F4556 
 9857      545F4849 
 9857      4453535F 
 9857      4E4F5449 
 9858              	.LASF63:
 9859 26fa 4359424C 		.ascii	"CYBLE_EVT_GATTS_READ_CHAR_VAL_ACCESS_REQ\000"
 9859      455F4556 
 9859      545F4741 
 9859      5454535F 
 9859      52454144 
 9860              	.LASF316:
 9861 2723 4359424C 		.ascii	"CYBLE_EVT_ANCSC_READ_DESCR_RESPONSE\000"
 9861      455F4556 
 9861      545F414E 
 9861      4353435F 
 9861      52454144 
 9862              	.LASF571:
 9863 2747 76526563 		.ascii	"vRectSet\000"
 9863      74536574 
 9863      00
 9864              	.LASF205:
 9865 2750 4359424C 		.ascii	"CYBLE_GATT_ERR_INSUFFICIENT_AUTHORIZATION\000"
 9865      455F4741 
 9865      54545F45 
 9865      52525F49 
 9865      4E535546 
 9866              	.LASF241:
 9867 277a 61747472 		.ascii	"attrHandle\000"
 9867      48616E64 
 9867      6C6500
 9868              	.LASF519:
 9869 2785 4359424C 		.ascii	"CYBLE_EVT_UDSC_NOTIFICATION\000"
 9869      455F4556 
 9869      545F5544 
 9869      53435F4E 
 9869      4F544946 
 9870              	.LASF533:
 9871 27a1 4359424C 		.ascii	"CYBLE_EVT_WPTSC_WRITE_CHAR_RESPONSE\000"
 9871      455F4556 
 9871      545F5750 
 9871      5453435F 
 9871      57524954 
ARM GAS  C:\Users\Petro\AppData\Local\Temp\ccvLNIXl.s 			page 221


 9872              	.LASF151:
 9873 27c5 626F6E64 		.ascii	"bonding\000"
 9873      696E6700 
 9874              	.LASF269:
 9875 27cd 75756964 		.ascii	"uuid\000"
 9875      00
 9876              	.LASF8:
 9877 27d2 756E7369 		.ascii	"unsigned int\000"
 9877      676E6564 
 9877      20696E74 
 9877      00
 9878              	.LASF578:
 9879 27df 70727543 		.ascii	"pruControl\000"
 9879      6F6E7472 
 9879      6F6C00
 9880              	.LASF55:
 9881 27ea 4359424C 		.ascii	"CYBLE_EVT_GATTS_PREP_WRITE_REQ\000"
 9881      455F4556 
 9881      545F4741 
 9881      5454535F 
 9881      50524550 
 9882              	.LASF202:
 9883 2809 4359424C 		.ascii	"CYBLE_GATT_ERR_INSUFFICIENT_AUTHENTICATION\000"
 9883      455F4741 
 9883      54545F45 
 9883      52525F49 
 9883      4E535546 
 9884              	.LASF394:
 9885 2834 4359424C 		.ascii	"CYBLE_EVT_CTSS_NOTIFICATION_DISABLED\000"
 9885      455F4556 
 9885      545F4354 
 9885      53535F4E 
 9885      4F544946 
 9886              	.LASF341:
 9887 2859 4359424C 		.ascii	"CYBLE_EVT_BLSS_INDICATION_DISABLED\000"
 9887      455F4556 
 9887      545F424C 
 9887      53535F49 
 9887      4E444943 
 9888              	.LASF631:
 9889 287c 5357325F 		.ascii	"SW2_ClearInterrupt\000"
 9889      436C6561 
 9889      72496E74 
 9889      65727275 
 9889      707400
 9890              	.LASF561:
 9891 288f 4359424C 		.ascii	"CYBLE_PRU_CONTROL_T\000"
 9891      455F5052 
 9891      555F434F 
 9891      4E54524F 
 9891      4C5F5400 
 9892              	.LASF500:
 9893 28a3 4359424C 		.ascii	"CYBLE_EVT_SCPSS_NOTIFICATION_DISABLED\000"
 9893      455F4556 
 9893      545F5343 
 9893      5053535F 
 9893      4E4F5449 
ARM GAS  C:\Users\Petro\AppData\Local\Temp\ccvLNIXl.s 			page 222


 9894              	.LASF406:
 9895 28c9 4359424C 		.ascii	"CYBLE_EVT_ESSS_INDICATION_CONFIRMATION\000"
 9895      455F4556 
 9895      545F4553 
 9895      53535F49 
 9895      4E444943 
 9896              	.LASF270:
 9897 28f0 4359424C 		.ascii	"CYBLE_DISC_SRVC_INFO_T\000"
 9897      455F4449 
 9897      53435F53 
 9897      5256435F 
 9897      494E464F 
 9898              	.LASF219:
 9899 2907 4359424C 		.ascii	"CYBLE_GATTS_ERR_PROCEDURE_ALREADY_IN_PROGRESS\000"
 9899      455F4741 
 9899      5454535F 
 9899      4552525F 
 9899      50524F43 
 9900              	.LASF292:
 9901 2935 4359424C 		.ascii	"CYBLE_AUTHENTICATION_REQUEST_REPLY\000"
 9901      455F4155 
 9901      5448454E 
 9901      54494341 
 9901      54494F4E 
 9902              	.LASF540:
 9903 2958 4359424C 		.ascii	"CYBLE_EVT_WSSC_INDICATION\000"
 9903      455F4556 
 9903      545F5753 
 9903      53435F49 
 9903      4E444943 
 9904              	.LASF91:
 9905 2972 4359424C 		.ascii	"CYBLE_ERROR_L2CAP_PSM_WRONG_ENCODING\000"
 9905      455F4552 
 9905      524F525F 
 9905      4C324341 
 9905      505F5053 
 9906              	.LASF188:
 9907 2997 4359424C 		.ascii	"CYBLE_GATT_PREPARE_WRITE_RSP\000"
 9907      455F4741 
 9907      54545F50 
 9907      52455041 
 9907      52455F57 
 9908              	.LASF344:
 9909 29b4 4359424C 		.ascii	"CYBLE_EVT_BLSS_NOTIFICATION_DISABLED\000"
 9909      455F4556 
 9909      545F424C 
 9909      53535F4E 
 9909      4F544946 
 9910              	.LASF207:
 9911 29d9 4359424C 		.ascii	"CYBLE_GATT_ERR_ATTRIBUTE_NOT_FOUND\000"
 9911      455F4741 
 9911      54545F45 
 9911      52525F41 
 9911      54545249 
 9912              	.LASF457:
 9913 29fc 4359424C 		.ascii	"CYBLE_EVT_HTSC_WRITE_CHAR_RESPONSE\000"
 9913      455F4556 
ARM GAS  C:\Users\Petro\AppData\Local\Temp\ccvLNIXl.s 			page 223


 9913      545F4854 
 9913      53435F57 
 9913      52495445 
 9914              	.LASF605:
 9915 2a1f 6379426C 		.ascii	"cyBle_serverInfo\000"
 9915      655F7365 
 9915      72766572 
 9915      496E666F 
 9915      00
 9916              	.LASF261:
 9917 2a30 6C697374 		.ascii	"list\000"
 9917      00
 9918              	.LASF599:
 9919 2a35 6379426C 		.ascii	"cyBle_connectingTimeout\000"
 9919      655F636F 
 9919      6E6E6563 
 9919      74696E67 
 9919      54696D65 
 9920              	.LASF77:
 9921 2a4d 4359424C 		.ascii	"CYBLE_EVT_MAX\000"
 9921      455F4556 
 9921      545F4D41 
 9921      5800
 9922              	.LASF38:
 9923 2a5b 4359424C 		.ascii	"CYBLE_EVT_GAPC_SCAN_START_STOP\000"
 9923      455F4556 
 9923      545F4741 
 9923      50435F53 
 9923      43414E5F 
 9924              	.LASF575:
 9925 2a7a 4359424C 		.ascii	"CYBLE_PRU_ADV_SERVICE_DATA_T\000"
 9925      455F5052 
 9925      555F4144 
 9925      565F5345 
 9925      52564943 
 9926              	.LASF319:
 9927 2a97 4359424C 		.ascii	"CYBLE_EVT_ANSS_NOTIFICATION_ENABLED\000"
 9927      455F4556 
 9927      545F414E 
 9927      53535F4E 
 9927      4F544946 
 9928              	.LASF649:
 9929 2abb 4379426C 		.ascii	"CyBle_Start\000"
 9929      655F5374 
 9929      61727400 
 9930              	.LASF149:
 9931 2ac7 4359424C 		.ascii	"CYBLE_GAP_AUTH_FAILED_REASON_T\000"
 9931      455F4741 
 9931      505F4155 
 9931      54485F46 
 9931      41494C45 
 9932              	.LASF52:
 9933 2ae6 4359424C 		.ascii	"CYBLE_EVT_GATTS_WRITE_REQ\000"
 9933      455F4556 
 9933      545F4741 
 9933      5454535F 
 9933      57524954 
ARM GAS  C:\Users\Petro\AppData\Local\Temp\ccvLNIXl.s 			page 224


 9934              	.LASF639:
 9935 2b00 43795379 		.ascii	"CySysWdtUnlock\000"
 9935      73576474 
 9935      556E6C6F 
 9935      636B00
 9936              	.LASF61:
 9937 2b0f 4359424C 		.ascii	"CYBLE_EVT_GATTS_DATA_SIGNED_CMD_REQ\000"
 9937      455F4556 
 9937      545F4741 
 9937      5454535F 
 9937      44415441 
 9938              	.LASF521:
 9939 2b33 4359424C 		.ascii	"CYBLE_EVT_UDSC_WRITE_CHAR_RESPONSE\000"
 9939      455F4556 
 9939      545F5544 
 9939      53435F57 
 9939      52495445 
 9940              	.LASF648:
 9941 2b56 55415254 		.ascii	"UART_DEB_Start\000"
 9941      5F444542 
 9941      5F537461 
 9941      727400
 9942              	.LASF532:
 9943 2b65 4359424C 		.ascii	"CYBLE_EVT_WPTSC_INDICATION\000"
 9943      455F4556 
 9943      545F5750 
 9943      5453435F 
 9943      494E4449 
 9944              	.LASF30:
 9945 2b80 4359424C 		.ascii	"CYBLE_EVT_GAP_PASSKEY_DISPLAY_REQUEST\000"
 9945      455F4556 
 9945      545F4741 
 9945      505F5041 
 9945      53534B45 
 9946              	.LASF103:
 9947 2ba6 4359424C 		.ascii	"CYBLE_ERROR_IND_DISABLED\000"
 9947      455F4552 
 9947      524F525F 
 9947      494E445F 
 9947      44495341 
 9948              	.LASF102:
 9949 2bbf 4359424C 		.ascii	"CYBLE_ERROR_NTF_DISABLED\000"
 9949      455F4552 
 9949      524F525F 
 9949      4E54465F 
 9949      44495341 
 9950              	.LASF180:
 9951 2bd8 4359424C 		.ascii	"CYBLE_GATT_READ_MULTIPLE_REQ\000"
 9951      455F4741 
 9951      54545F52 
 9951      4541445F 
 9951      4D554C54 
 9952              	.LASF277:
 9953 2bf5 4359424C 		.ascii	"CYBLE_WPTS_PRU_CONTROL\000"
 9953      455F5750 
 9953      54535F50 
 9953      52555F43 
ARM GAS  C:\Users\Petro\AppData\Local\Temp\ccvLNIXl.s 			page 225


 9953      4F4E5452 
 9954              	.LASF49:
 9955 2c0c 4359424C 		.ascii	"CYBLE_EVT_GATTC_READ_RSP\000"
 9955      455F4556 
 9955      545F4741 
 9955      5454435F 
 9955      52454144 
 9956              	.LASF375:
 9957 2c25 4359424C 		.ascii	"CYBLE_EVT_CPSC_INDICATION\000"
 9957      455F4556 
 9957      545F4350 
 9957      53435F49 
 9957      4E444943 
 9958              	.LASF204:
 9959 2c3f 4359424C 		.ascii	"CYBLE_GATT_ERR_INVALID_OFFSET\000"
 9959      455F4741 
 9959      54545F45 
 9959      52525F49 
 9959      4E56414C 
 9960              	.LASF174:
 9961 2c5d 4359424C 		.ascii	"CYBLE_GATT_READ_BY_TYPE_REQ\000"
 9961      455F4741 
 9961      54545F52 
 9961      4541445F 
 9961      42595F54 
 9962              	.LASF68:
 9963 2c79 4359424C 		.ascii	"CYBLE_EVT_L2CAP_CBFC_CONN_CNF\000"
 9963      455F4556 
 9963      545F4C32 
 9963      4341505F 
 9963      43424643 
 9964              	.LASF352:
 9965 2c97 4359424C 		.ascii	"CYBLE_EVT_BMSC_WRITE_CHAR_RESPONSE\000"
 9965      455F4556 
 9965      545F424D 
 9965      53435F57 
 9965      52495445 
 9966              	.LASF458:
 9967 2cba 4359424C 		.ascii	"CYBLE_EVT_HTSC_READ_DESCR_RESPONSE\000"
 9967      455F4556 
 9967      545F4854 
 9967      53435F52 
 9967      4541445F 
 9968              	.LASF544:
 9969 2cdd 4359424C 		.ascii	"CYBLE_DEBUG_EVT_BLESS_INT\000"
 9969      455F4445 
 9969      4255475F 
 9969      4556545F 
 9969      424C4553 
 9970              	.LASF633:
 9971 2cf7 57616B65 		.ascii	"Wakeup_Interrupt_ClearPending\000"
 9971      75705F49 
 9971      6E746572 
 9971      72757074 
 9971      5F436C65 
 9972              	.LASF232:
 9973 2d15 4359424C 		.ascii	"CYBLE_GATT_ERR_OUT_OF_RANGE\000"
ARM GAS  C:\Users\Petro\AppData\Local\Temp\ccvLNIXl.s 			page 226


 9973      455F4741 
 9973      54545F45 
 9973      52525F4F 
 9973      55545F4F 
 9974              	.LASF421:
 9975 2d31 4359424C 		.ascii	"CYBLE_EVT_GLSS_WRITE_CHAR\000"
 9975      455F4556 
 9975      545F474C 
 9975      53535F57 
 9975      52495445 
 9976              	.LASF620:
 9977 2d4b 4379456E 		.ascii	"CyEnterCriticalSection\000"
 9977      74657243 
 9977      72697469 
 9977      63616C53 
 9977      65637469 
 9978              	.LASF528:
 9979 2d62 4359424C 		.ascii	"CYBLE_EVT_WPTSS_INDICATION_DISABLED\000"
 9979      455F4556 
 9979      545F5750 
 9979      5453535F 
 9979      494E4449 
 9980              	.LASF657:
 9981 2d86 4379426C 		.ascii	"CyBle_WptscSetCharacteristicDescriptor\000"
 9981      655F5770 
 9981      74736353 
 9981      65744368 
 9981      61726163 
 9982              	.LASF172:
 9983 2dad 4359424C 		.ascii	"CYBLE_GATT_FIND_BY_TYPE_VALUE_REQ\000"
 9983      455F4741 
 9983      54545F46 
 9983      494E445F 
 9983      42595F54 
 9984              	.LASF606:
 9985 2dcf 6D61696E 		.ascii	"mainTimer\000"
 9985      54696D65 
 9985      7200
 9986              	.LASF266:
 9987 2dd9 4359424C 		.ascii	"CYBLE_GATTC_FIND_INFO_RSP_PARAM_T\000"
 9987      455F4741 
 9987      5454435F 
 9987      46494E44 
 9987      5F494E46 
 9988              	.LASF443:
 9989 2dfb 4359424C 		.ascii	"CYBLE_EVT_HRSC_NOTIFICATION\000"
 9989      455F4556 
 9989      545F4852 
 9989      53435F4E 
 9989      4F544946 
 9990              	.LASF638:
 9991 2e17 4379426C 		.ascii	"CyBle_Get16ByPtr\000"
 9991      655F4765 
 9991      74313642 
 9991      79507472 
 9991      00
 9992              	.LASF489:
ARM GAS  C:\Users\Petro\AppData\Local\Temp\ccvLNIXl.s 			page 227


 9993 2e28 4359424C 		.ascii	"CYBLE_EVT_RSCSS_INDICATION_CONFIRMATION\000"
 9993      455F4556 
 9993      545F5253 
 9993      4353535F 
 9993      494E4449 
 9994              	.LASF438:
 9995 2e50 4359424C 		.ascii	"CYBLE_EVT_HIDSC_READ_DESCR_RESPONSE\000"
 9995      455F4556 
 9995      545F4849 
 9995      4453435F 
 9995      52454144 
 9996              	.LASF444:
 9997 2e74 4359424C 		.ascii	"CYBLE_EVT_HRSC_READ_CHAR_RESPONSE\000"
 9997      455F4556 
 9997      545F4852 
 9997      53435F52 
 9997      4541445F 
 9998              	.LASF329:
 9999 2e96 4359424C 		.ascii	"CYBLE_EVT_BASC_NOTIFICATION\000"
 9999      455F4556 
 9999      545F4241 
 9999      53435F4E 
 9999      4F544946 
 10000              	.LASF136:
 10001 2eb2 4359424C 		.ascii	"CYBLE_GAP_AUTH_ERROR_NONE\000"
 10001      455F4741 
 10001      505F4155 
 10001      54485F45 
 10001      52524F52 
 10002              	.LASF36:
 10003 2ecc 4359424C 		.ascii	"CYBLE_EVT_GAP_ENCRYPT_CHANGE\000"
 10003      455F4556 
 10003      545F4741 
 10003      505F454E 
 10003      43525950 
 10004              	.LASF513:
 10005 2ee9 4359424C 		.ascii	"CYBLE_EVT_UDSS_INDICATION_CONFIRMED\000"
 10005      455F4556 
 10005      545F5544 
 10005      53535F49 
 10005      4E444943 
 10006              	.LASF476:
 10007 2f0d 4359424C 		.ascii	"CYBLE_EVT_NDCSC_READ_CHAR_RESPONSE\000"
 10007      455F4556 
 10007      545F4E44 
 10007      4353435F 
 10007      52454144 
 10008              	.LASF305:
 10009 2f30 4359424C 		.ascii	"CYBLE_EVT_GATTC_DESCR_DUPLICATION\000"
 10009      455F4556 
 10009      545F4741 
 10009      5454435F 
 10009      44455343 
 10010              	.LASF664:
 10011 2f52 5F5F6275 		.ascii	"__builtin_puts\000"
 10011      696C7469 
 10011      6E5F7075 
ARM GAS  C:\Users\Petro\AppData\Local\Temp\ccvLNIXl.s 			page 228


 10011      747300
 10012              	.LASF43:
 10013 2f61 4359424C 		.ascii	"CYBLE_EVT_GATTS_XCNHG_MTU_REQ\000"
 10013      455F4556 
 10013      545F4741 
 10013      5454535F 
 10013      58434E48 
 10014              	.LASF514:
 10015 2f7f 4359424C 		.ascii	"CYBLE_EVT_UDSS_NOTIFICATION_ENABLED\000"
 10015      455F4556 
 10015      545F5544 
 10015      53535F4E 
 10015      4F544946 
 10016              	.LASF171:
 10017 2fa3 4359424C 		.ascii	"CYBLE_GATT_FIND_INFO_RSP\000"
 10017      455F4741 
 10017      54545F46 
 10017      494E445F 
 10017      494E464F 
 10018              	.LASF138:
 10019 2fbc 4359424C 		.ascii	"CYBLE_GAP_AUTH_ERROR_OOB_DATA_NOT_AVAILABLE\000"
 10019      455F4741 
 10019      505F4155 
 10019      54485F45 
 10019      52524F52 
 10020              	.LASF18:
 10021 2fe8 63796973 		.ascii	"cyisraddress\000"
 10021      72616464 
 10021      72657373 
 10021      00
 10022              	.LASF466:
 10023 2ff5 4359424C 		.ascii	"CYBLE_EVT_LNSS_INDICATION_CONFIRMED\000"
 10023      455F4556 
 10023      545F4C4E 
 10023      53535F49 
 10023      4E444943 
 10024              	.LASF538:
 10025 3019 4359424C 		.ascii	"CYBLE_EVT_WSSS_INDICATION_DISABLED\000"
 10025      455F4556 
 10025      545F5753 
 10025      53535F49 
 10025      4E444943 
 10026              	.LASF326:
 10027 303c 4359424C 		.ascii	"CYBLE_EVT_ANSC_WRITE_DESCR_RESPONSE\000"
 10027      455F4556 
 10027      545F414E 
 10027      53435F57 
 10027      52495445 
 10028              	.LASF472:
 10029 3060 4359424C 		.ascii	"CYBLE_EVT_LNSC_READ_CHAR_RESPONSE\000"
 10029      455F4556 
 10029      545F4C4E 
 10029      53435F52 
 10029      4541445F 
 10030              	.LASF646:
 10031 3082 43795379 		.ascii	"CySysWdtLock\000"
 10031      73576474 
ARM GAS  C:\Users\Petro\AppData\Local\Temp\ccvLNIXl.s 			page 229


 10031      4C6F636B 
 10031      00
 10032              	.LASF322:
 10033 308f 4359424C 		.ascii	"CYBLE_EVT_ANSC_NOTIFICATION\000"
 10033      455F4556 
 10033      545F414E 
 10033      53435F4E 
 10033      4F544946 
 10034              	.LASF107:
 10035 30ab 4359424C 		.ascii	"CYBLE_BLESS_ACTIVE\000"
 10035      455F424C 
 10035      4553535F 
 10035      41435449 
 10035      564500
 10036              	.LASF166:
 10037 30be 4359424C 		.ascii	"CYBLE_GAP_CONN_PARAM_UPDATED_IN_CONTROLLER_T\000"
 10037      455F4741 
 10037      505F434F 
 10037      4E4E5F50 
 10037      4152414D 
 10038              	.LASF551:
 10039 30eb 4359424C 		.ascii	"CYBLE_STATE_T\000"
 10039      455F5354 
 10039      4154455F 
 10039      5400
 10040              	.LASF296:
 10041 30f9 4359424C 		.ascii	"CYBLE_EVT_GATTS_INDICATION_ENABLED\000"
 10041      455F4556 
 10041      545F4741 
 10041      5454535F 
 10041      494E4449 
 10042              	.LASF7:
 10043 311c 6C6F6E67 		.ascii	"long long unsigned int\000"
 10043      206C6F6E 
 10043      6720756E 
 10043      7369676E 
 10043      65642069 
 10044              	.LASF628:
 10045 3133 4379426C 		.ascii	"CyBle_GapcStartScan\000"
 10045      655F4761 
 10045      70635374 
 10045      61727453 
 10045      63616E00 
 10046              	.LASF198:
 10047 3147 4359424C 		.ascii	"CYBLE_GATT_ERR_INVALID_HANDLE\000"
 10047      455F4741 
 10047      54545F45 
 10047      52525F49 
 10047      4E56414C 
 10048              	.LASF23:
 10049 3165 4359424C 		.ascii	"CYBLE_EVT_TIMEOUT\000"
 10049      455F4556 
 10049      545F5449 
 10049      4D454F55 
 10049      5400
 10050              	.LASF398:
 10051 3177 4359424C 		.ascii	"CYBLE_EVT_CTSC_READ_DESCR_RESPONSE\000"
ARM GAS  C:\Users\Petro\AppData\Local\Temp\ccvLNIXl.s 			page 230


 10051      455F4556 
 10051      545F4354 
 10051      53435F52 
 10051      4541445F 
 10052              	.LASF278:
 10053 319a 4359424C 		.ascii	"CYBLE_WPTS_PTU_STATIC_PAR\000"
 10053      455F5750 
 10053      54535F50 
 10053      54555F53 
 10053      54415449 
 10054              	.LASF255:
 10055 31b4 6C656E67 		.ascii	"length\000"
 10055      746800
 10056              	.LASF17:
 10057 31bb 72656733 		.ascii	"reg32\000"
 10057      3200
 10058              	.LASF195:
 10059 31c1 4359424C 		.ascii	"CYBLE_GATT_UNKNOWN_PDU_IND\000"
 10059      455F4741 
 10059      54545F55 
 10059      4E4B4E4F 
 10059      574E5F50 
 10060              	.LASF264:
 10061 31dc 68616E64 		.ascii	"handleValueList\000"
 10061      6C655661 
 10061      6C75654C 
 10061      69737400 
 10062              	.LASF105:
 10063 31ec 4359424C 		.ascii	"CYBLE_ERROR_INVALID_STATE\000"
 10063      455F4552 
 10063      524F525F 
 10063      494E5641 
 10063      4C49445F 
 10064              	.LASF234:
 10065 3206 4359424C 		.ascii	"CYBLE_GATT_DB_ATTR_HANDLE_T\000"
 10065      455F4741 
 10065      54545F44 
 10065      425F4154 
 10065      54525F48 
 10066              	.LASF71:
 10067 3222 4359424C 		.ascii	"CYBLE_EVT_L2CAP_CBFC_DATA_READ\000"
 10067      455F4556 
 10067      545F4C32 
 10067      4341505F 
 10067      43424643 
 10068              	.LASF197:
 10069 3241 4359424C 		.ascii	"CYBLE_GATT_ERR_NONE\000"
 10069      455F4741 
 10069      54545F45 
 10069      52525F4E 
 10069      4F4E4500 
 10070              	.LASF240:
 10071 3255 76616C75 		.ascii	"value\000"
 10071      6500
 10072              	.LASF374:
 10073 325b 4359424C 		.ascii	"CYBLE_EVT_CPSC_NOTIFICATION\000"
 10073      455F4556 
ARM GAS  C:\Users\Petro\AppData\Local\Temp\ccvLNIXl.s 			page 231


 10073      545F4350 
 10073      53435F4E 
 10073      4F544946 
 10074              	.LASF349:
 10075 3277 4359424C 		.ascii	"CYBLE_EVT_BLSC_WRITE_DESCR_RESPONSE\000"
 10075      455F4556 
 10075      545F424C 
 10075      53435F57 
 10075      52495445 
 10076              	.LASF623:
 10077 329b 4379426C 		.ascii	"CyBle_EnterLPM\000"
 10077      655F456E 
 10077      7465724C 
 10077      504D00
 10078              	.LASF253:
 10079 32aa 4359424C 		.ascii	"CYBLE_GATTC_HANDLE_VALUE_IND_PARAM_T\000"
 10079      455F4741 
 10079      5454435F 
 10079      48414E44 
 10079      4C455F56 
 10080              	.LASF471:
 10081 32cf 4359424C 		.ascii	"CYBLE_EVT_LNSC_NOTIFICATION\000"
 10081      455F4556 
 10081      545F4C4E 
 10081      53435F4E 
 10081      4F544946 
 10082              	.LASF642:
 10083 32eb 43795379 		.ascii	"CySysWdtSetClearOnMatch\000"
 10083      73576474 
 10083      53657443 
 10083      6C656172 
 10083      4F6E4D61 
 10084              	.LASF396:
 10085 3303 4359424C 		.ascii	"CYBLE_EVT_CTSC_NOTIFICATION\000"
 10085      455F4556 
 10085      545F4354 
 10085      53435F4E 
 10085      4F544946 
 10086              	.LASF249:
 10087 331f 4359424C 		.ascii	"CYBLE_GATTC_ERR_RSP_PARAM_T\000"
 10087      455F4741 
 10087      5454435F 
 10087      4552525F 
 10087      5253505F 
 10088              	.LASF233:
 10089 333b 4359424C 		.ascii	"CYBLE_GATT_ERR_CODE_T\000"
 10089      455F4741 
 10089      54545F45 
 10089      52525F43 
 10089      4F44455F 
 10090              	.LASF417:
 10091 3351 4359424C 		.ascii	"CYBLE_EVT_GLSS_INDICATION_DISABLED\000"
 10091      455F4556 
 10091      545F474C 
 10091      53535F49 
 10091      4E444943 
 10092              	.LASF126:
ARM GAS  C:\Users\Petro\AppData\Local\Temp\ccvLNIXl.s 			page 232


 10093 3374 4359424C 		.ascii	"CYBLE_GAP_SCAN_TO\000"
 10093      455F4741 
 10093      505F5343 
 10093      414E5F54 
 10093      4F00
 10094              	.LASF218:
 10095 3386 4359424C 		.ascii	"CYBLE_GATT_ERR_HTS_OUT_OF_RANGE\000"
 10095      455F4741 
 10095      54545F45 
 10095      52525F48 
 10095      54535F4F 
 10096              	.LASF131:
 10097 33a6 4359424C 		.ascii	"CYBLE_GAPC_CONN_DIRECTED_ADV\000"
 10097      455F4741 
 10097      50435F43 
 10097      4F4E4E5F 
 10097      44495245 
 10098              	.LASF303:
 10099 33c3 4359424C 		.ascii	"CYBLE_EVT_GATTC_SRVC_DUPLICATION\000"
 10099      455F4556 
 10099      545F4741 
 10099      5454435F 
 10099      53525643 
 10100              	.LASF464:
 10101 33e4 4359424C 		.ascii	"CYBLE_EVT_LNSS_INDICATION_ENABLED\000"
 10101      455F4556 
 10101      545F4C4E 
 10101      53535F49 
 10101      4E444943 
 10102              	.LASF124:
 10103 3406 4359424C 		.ascii	"CYBLE_GAP_BD_ADDR_T\000"
 10103      455F4741 
 10103      505F4244 
 10103      5F414444 
 10103      525F5400 
 10104              	.LASF178:
 10105 341a 4359424C 		.ascii	"CYBLE_GATT_READ_BLOB_REQ\000"
 10105      455F4741 
 10105      54545F52 
 10105      4541445F 
 10105      424C4F42 
 10106              	.LASF125:
 10107 3433 4359424C 		.ascii	"CYBLE_GAP_ADV_MODE_TO\000"
 10107      455F4741 
 10107      505F4144 
 10107      565F4D4F 
 10107      44455F54 
 10108              	.LASF477:
 10109 3449 4359424C 		.ascii	"CYBLE_EVT_PASSS_NOTIFICATION_ENABLED\000"
 10109      455F4556 
 10109      545F5041 
 10109      5353535F 
 10109      4E4F5449 
 10110              	.LASF251:
 10111 346e 68616E64 		.ascii	"handleValPair\000"
 10111      6C655661 
 10111      6C506169 
ARM GAS  C:\Users\Petro\AppData\Local\Temp\ccvLNIXl.s 			page 233


 10111      7200
 10112              	.LASF311:
 10113 347c 4359424C 		.ascii	"CYBLE_EVT_ANCSS_NOTIFICATION_DISABLED\000"
 10113      455F4556 
 10113      545F414E 
 10113      4353535F 
 10113      4E4F5449 
 10114              	.LASF658:
 10115 34a2 4379426C 		.ascii	"CyBle_WptscGetCharacteristicValue\000"
 10115      655F5770 
 10115      74736347 
 10115      65744368 
 10115      61726163 
 10116              	.LASF246:
 10117 34c4 636F6E6E 		.ascii	"connHandle\000"
 10117      48616E64 
 10117      6C6500
 10118              	.LASF624:
 10119 34cf 57707473 		.ascii	"WptsScanProcessEventHandler\000"
 10119      5363616E 
 10119      50726F63 
 10119      65737345 
 10119      76656E74 
 10120              	.LASF271:
 10121 34eb 70726F70 		.ascii	"properties\000"
 10121      65727469 
 10121      657300
 10122              	.LASF328:
 10123 34f6 4359424C 		.ascii	"CYBLE_EVT_BASS_NOTIFICATION_DISABLED\000"
 10123      455F4556 
 10123      545F4241 
 10123      53535F4E 
 10123      4F544946 
 10124              	.LASF366:
 10125 351b 4359424C 		.ascii	"CYBLE_EVT_CPSS_NOTIFICATION_ENABLED\000"
 10125      455F4556 
 10125      545F4350 
 10125      53535F4E 
 10125      4F544946 
 10126              	.LASF141:
 10127 353f 4359424C 		.ascii	"CYBLE_GAP_AUTH_ERROR_PAIRING_NOT_SUPPORTED\000"
 10127      455F4741 
 10127      505F4155 
 10127      54485F45 
 10127      52524F52 
 10128              	.LASF509:
 10129 356a 4359424C 		.ascii	"CYBLE_EVT_TPSC_READ_DESCR_RESPONSE\000"
 10129      455F4556 
 10129      545F5450 
 10129      53435F52 
 10129      4541445F 
 10130              	.LASF128:
 10131 358d 4359424C 		.ascii	"CYBLE_GENERIC_TO\000"
 10131      455F4745 
 10131      4E455249 
 10131      435F544F 
 10131      00
ARM GAS  C:\Users\Petro\AppData\Local\Temp\ccvLNIXl.s 			page 234


 10132              	.LASF644:
 10133 359e 43795379 		.ascii	"CySysWdtResetCounters\000"
 10133      73576474 
 10133      52657365 
 10133      74436F75 
 10133      6E746572 
 10134              	.LASF552:
 10135 35b4 4359424C 		.ascii	"CYBLE_SRVI_GAP\000"
 10135      455F5352 
 10135      56495F47 
 10135      415000
 10136              	.LASF524:
 10137 35c3 4359424C 		.ascii	"CYBLE_EVT_UDSC_ERROR_RESPONSE\000"
 10137      455F4556 
 10137      545F5544 
 10137      53435F45 
 10137      52524F52 
 10138              	.LASF47:
 10139 35e1 4359424C 		.ascii	"CYBLE_EVT_GATTC_FIND_INFO_RSP\000"
 10139      455F4556 
 10139      545F4741 
 10139      5454435F 
 10139      46494E44 
 10140              	.LASF46:
 10141 35ff 4359424C 		.ascii	"CYBLE_EVT_GATTC_READ_BY_TYPE_RSP\000"
 10141      455F4556 
 10141      545F4741 
 10141      5454435F 
 10141      52454144 
 10142              	.LASF478:
 10143 3620 4359424C 		.ascii	"CYBLE_EVT_PASSS_NOTIFICATION_DISABLED\000"
 10143      455F4556 
 10143      545F5041 
 10143      5353535F 
 10143      4E4F5449 
 10144              	.LASF364:
 10145 3646 4359424C 		.ascii	"CYBLE_EVT_CGMSC_READ_DESCR_RESPONSE\000"
 10145      455F4556 
 10145      545F4347 
 10145      4D53435F 
 10145      52454144 
 10146              	.LASF436:
 10147 366a 4359424C 		.ascii	"CYBLE_EVT_HIDSC_READ_CHAR_RESPONSE\000"
 10147      455F4556 
 10147      545F4849 
 10147      4453435F 
 10147      52454144 
 10148              	.LASF223:
 10149 368d 4359424C 		.ascii	"CYBLE_GATTS_ERR_OPERATION_FAILED\000"
 10149      455F4741 
 10149      5454535F 
 10149      4552525F 
 10149      4F504552 
 10150              	.LASF588:
 10151 36ae 61706952 		.ascii	"apiResult\000"
 10151      6573756C 
 10151      7400
ARM GAS  C:\Users\Petro\AppData\Local\Temp\ccvLNIXl.s 			page 235


 10152              	.LASF651:
 10153 36b8 4379426C 		.ascii	"CyBle_ProcessEvents\000"
 10153      655F5072 
 10153      6F636573 
 10153      73457665 
 10153      6E747300 
 10154              	.LASF618:
 10155 36cc 43795379 		.ascii	"CySysWdtClearInterrupt\000"
 10155      73576474 
 10155      436C6561 
 10155      72496E74 
 10155      65727275 
 10156              	.LASF602:
 10157 36e3 6379426C 		.ascii	"cyBle_state\000"
 10157      655F7374 
 10157      61746500 
 10158              	.LASF506:
 10159 36ef 4359424C 		.ascii	"CYBLE_EVT_TPSS_NOTIFICATION_DISABLED\000"
 10159      455F4556 
 10159      545F5450 
 10159      53535F4E 
 10159      4F544946 
 10160              	.LASF503:
 10161 3714 4359424C 		.ascii	"CYBLE_EVT_SCPSC_READ_DESCR_RESPONSE\000"
 10161      455F4556 
 10161      545F5343 
 10161      5053435F 
 10161      52454144 
 10162              	.LASF447:
 10163 3738 4359424C 		.ascii	"CYBLE_EVT_HRSC_WRITE_DESCR_RESPONSE\000"
 10163      455F4556 
 10163      545F4852 
 10163      53435F57 
 10163      52495445 
 10164              	.LASF469:
 10165 375c 4359424C 		.ascii	"CYBLE_EVT_LNSS_WRITE_CHAR\000"
 10165      455F4556 
 10165      545F4C4E 
 10165      53535F57 
 10165      52495445 
 10166              	.LASF407:
 10167 3776 4359424C 		.ascii	"CYBLE_EVT_ESSS_CHAR_WRITE\000"
 10167      455F4556 
 10167      545F4553 
 10167      53535F43 
 10167      4841525F 
 10168              	.LASF53:
 10169 3790 4359424C 		.ascii	"CYBLE_EVT_GATTC_WRITE_RSP\000"
 10169      455F4556 
 10169      545F4741 
 10169      5454435F 
 10169      57524954 
 10170              	.LASF260:
 10171 37aa 4359424C 		.ascii	"CYBLE_GATTC_READ_BY_TYPE_RSP_PARAM_T\000"
 10171      455F4741 
 10171      5454435F 
 10171      52454144 
ARM GAS  C:\Users\Petro\AppData\Local\Temp\ccvLNIXl.s 			page 236


 10171      5F42595F 
 10172              	.LASF550:
 10173 37cf 4359424C 		.ascii	"CYBLE_STATE_DISCONNECTED\000"
 10173      455F5354 
 10173      4154455F 
 10173      44495343 
 10173      4F4E4E45 
 10174              	.LASF424:
 10175 37e8 4359424C 		.ascii	"CYBLE_EVT_GLSC_READ_CHAR_RESPONSE\000"
 10175      455F4556 
 10175      545F474C 
 10175      53435F52 
 10175      4541445F 
 10176              	.LASF491:
 10177 380a 4359424C 		.ascii	"CYBLE_EVT_RSCSC_NOTIFICATION\000"
 10177      455F4556 
 10177      545F5253 
 10177      4353435F 
 10177      4E4F5449 
 10178              	.LASF33:
 10179 3827 4359424C 		.ascii	"CYBLE_EVT_GAPP_ADVERTISEMENT_START_STOP\000"
 10179      455F4556 
 10179      545F4741 
 10179      50505F41 
 10179      44564552 
 10180              	.LASF342:
 10181 384f 4359424C 		.ascii	"CYBLE_EVT_BLSS_INDICATION_CONFIRMED\000"
 10181      455F4556 
 10181      545F424C 
 10181      53535F49 
 10181      4E444943 
 10182              	.LASF535:
 10183 3873 4359424C 		.ascii	"CYBLE_EVT_WPTSC_READ_DESCR_RESPONSE\000"
 10183      455F4556 
 10183      545F5750 
 10183      5453435F 
 10183      52454144 
 10184              	.LASF313:
 10185 3897 4359424C 		.ascii	"CYBLE_EVT_ANCSC_NOTIFICATION\000"
 10185      455F4556 
 10185      545F414E 
 10185      4353435F 
 10185      4E4F5449 
 10186              	.LASF363:
 10187 38b4 4359424C 		.ascii	"CYBLE_EVT_CGMSC_WRITE_CHAR_RESPONSE\000"
 10187      455F4556 
 10187      545F4347 
 10187      4D53435F 
 10187      57524954 
 10188              	.LASF418:
 10189 38d8 4359424C 		.ascii	"CYBLE_EVT_GLSS_INDICATION_CONFIRMED\000"
 10189      455F4556 
 10189      545F474C 
 10189      53535F49 
 10189      4E444943 
 10190              	.LASF9:
 10191 38fc 75696E74 		.ascii	"uint8\000"
ARM GAS  C:\Users\Petro\AppData\Local\Temp\ccvLNIXl.s 			page 237


 10191      3800
 10192              	.LASF456:
 10193 3902 4359424C 		.ascii	"CYBLE_EVT_HTSC_READ_CHAR_RESPONSE\000"
 10193      455F4556 
 10193      545F4854 
 10193      53435F52 
 10193      4541445F 
 10194              	.LASF283:
 10195 3924 4359424C 		.ascii	"CYBLE_WPTS_CHAR_INDEX_T\000"
 10195      455F5750 
 10195      54535F43 
 10195      4841525F 
 10195      494E4445 
 10196              	.LASF150:
 10197 393c 73656375 		.ascii	"security\000"
 10197      72697479 
 10197      00
 10198              	.LASF484:
 10199 3945 4359424C 		.ascii	"CYBLE_EVT_PASSC_WRITE_DESCR_RESPONSE\000"
 10199      455F4556 
 10199      545F5041 
 10199      5353435F 
 10199      57524954 
 10200              	.LASF184:
 10201 396a 4359424C 		.ascii	"CYBLE_GATT_WRITE_REQ\000"
 10201      455F4741 
 10201      54545F57 
 10201      52495445 
 10201      5F524551 
 10202              	.LASF598:
 10203 397f 636F6D6D 		.ascii	"command\000"
 10203      616E6400 
 10204              	.LASF2:
 10205 3987 73686F72 		.ascii	"short int\000"
 10205      7420696E 
 10205      7400
 10206              	.LASF153:
 10207 3991 61757468 		.ascii	"authErr\000"
 10207      45727200 
 10208              	.LASF576:
 10209 3999 70656572 		.ascii	"peerAddr\000"
 10209      41646472 
 10209      00
 10210              	.LASF350:
 10211 39a2 4359424C 		.ascii	"CYBLE_EVT_BMSS_WRITE_CHAR\000"
 10211      455F4556 
 10211      545F424D 
 10211      53535F57 
 10211      52495445 
 10212              	.LASF297:
 10213 39bc 4359424C 		.ascii	"CYBLE_EVT_GATTS_INDICATION_DISABLED\000"
 10213      455F4556 
 10213      545F4741 
 10213      5454535F 
 10213      494E4449 
 10214              	.LASF132:
 10215 39e0 4359424C 		.ascii	"CYBLE_GAPC_SCAN_UNDIRECTED_ADV\000"
ARM GAS  C:\Users\Petro\AppData\Local\Temp\ccvLNIXl.s 			page 238


 10215      455F4741 
 10215      50435F53 
 10215      43414E5F 
 10215      554E4449 
 10216              	.LASF217:
 10217 39ff 4359424C 		.ascii	"CYBLE_GATT_ERR_CPS_INAPPROPRIATE_CONNECTION_PARAMET"
 10217      455F4741 
 10217      54545F45 
 10217      52525F43 
 10217      50535F49 
 10218 3a32 45525300 		.ascii	"ERS\000"
 10219              	.LASF361:
 10220 3a36 4359424C 		.ascii	"CYBLE_EVT_CGMSC_NOTIFICATION\000"
 10220      455F4556 
 10220      545F4347 
 10220      4D53435F 
 10220      4E4F5449 
 10221              	.LASF203:
 10222 3a53 4359424C 		.ascii	"CYBLE_GATT_ERR_REQUEST_NOT_SUPPORTED\000"
 10222      455F4741 
 10222      54545F45 
 10222      52525F52 
 10222      45515545 
 10223              	.LASF40:
 10224 3a78 4359424C 		.ascii	"CYBLE_EVT_GATTC_ERROR_RSP\000"
 10224      455F4556 
 10224      545F4741 
 10224      5454435F 
 10224      4552524F 
 10225              	.LASF245:
 10226 3a92 4359424C 		.ascii	"CYBLE_GATT_ATTR_HANDLE_RANGE_T\000"
 10226      455F4741 
 10226      54545F41 
 10226      5454525F 
 10226      48414E44 
 10227              	.LASF413:
 10228 3ab1 4359424C 		.ascii	"CYBLE_EVT_ESSC_WRITE_CHAR_RESPONSE\000"
 10228      455F4556 
 10228      545F4553 
 10228      53435F57 
 10228      52495445 
 10229              	.LASF250:
 10230 3ad4 4359424C 		.ascii	"CYBLE_GATTC_READ_RSP_PARAM_T\000"
 10230      455F4741 
 10230      5454435F 
 10230      52454144 
 10230      5F525350 
 10231              	.LASF318:
 10232 3af1 4359424C 		.ascii	"CYBLE_EVT_ANCSC_ERROR_RESPONSE\000"
 10232      455F4556 
 10232      545F414E 
 10232      4353435F 
 10232      4552524F 
 10233              	.LASF332:
 10234 3b10 4359424C 		.ascii	"CYBLE_EVT_BASC_WRITE_DESCR_RESPONSE\000"
 10234      455F4556 
 10234      545F4241 
ARM GAS  C:\Users\Petro\AppData\Local\Temp\ccvLNIXl.s 			page 239


 10234      53435F57 
 10234      52495445 
 10235              	.LASF299:
 10236 3b34 4359424C 		.ascii	"CYBLE_EVT_GATTC_SRVC_DISCOVERY_FAILED\000"
 10236      455F4556 
 10236      545F4741 
 10236      5454435F 
 10236      53525643 
 10237              	.LASF416:
 10238 3b5a 4359424C 		.ascii	"CYBLE_EVT_GLSS_INDICATION_ENABLED\000"
 10238      455F4556 
 10238      545F474C 
 10238      53535F49 
 10238      4E444943 
 10239              	.LASF321:
 10240 3b7c 4359424C 		.ascii	"CYBLE_EVT_ANSS_CHAR_WRITE\000"
 10240      455F4556 
 10240      545F414E 
 10240      53535F43 
 10240      4841525F 
 10241              	.LASF555:
 10242 3b96 4359424C 		.ascii	"CYBLE_SRVI_COUNT\000"
 10242      455F5352 
 10242      56495F43 
 10242      4F554E54 
 10242      00
 10243              	.LASF67:
 10244 3ba7 4359424C 		.ascii	"CYBLE_EVT_L2CAP_CBFC_CONN_IND\000"
 10244      455F4556 
 10244      545F4C32 
 10244      4341505F 
 10244      43424643 
 10245              	.LASF56:
 10246 3bc5 4359424C 		.ascii	"CYBLE_EVT_GATTS_EXEC_WRITE_REQ\000"
 10246      455F4556 
 10246      545F4741 
 10246      5454535F 
 10246      45584543 
 10247              	.LASF27:
 10248 3be4 4359424C 		.ascii	"CYBLE_EVT_GAPC_SCAN_PROGRESS_RESULT\000"
 10248      455F4556 
 10248      545F4741 
 10248      50435F53 
 10248      43414E5F 
 10249              	.LASF286:
 10250 3c08 4359424C 		.ascii	"CYBLE_WPTS_DESCR_INDEX_T\000"
 10250      455F5750 
 10250      54535F44 
 10250      45534352 
 10250      5F494E44 
 10251              	.LASF603:
 10252 3c21 6379426C 		.ascii	"cyBle_connHandle\000"
 10252      655F636F 
 10252      6E6E4861 
 10252      6E646C65 
 10252      00
 10253              	.LASF284:
ARM GAS  C:\Users\Petro\AppData\Local\Temp\ccvLNIXl.s 			page 240


 10254 3c32 4359424C 		.ascii	"CYBLE_WPTS_CCCD\000"
 10254      455F5750 
 10254      54535F43 
 10254      43434400 
 10255              	.LASF511:
 10256 3c42 4359424C 		.ascii	"CYBLE_EVT_UDSS_INDICATION_ENABLED\000"
 10256      455F4556 
 10256      545F5544 
 10256      53535F49 
 10256      4E444943 
 10257              	.LASF595:
 10258 3c64 5744545F 		.ascii	"WDT_Start\000"
 10258      53746172 
 10258      7400
 10259              	.LASF228:
 10260 3c6e 4359424C 		.ascii	"CYBLE_GATT_ERR_ANCS_INVALID_PARAMETER\000"
 10260      455F4741 
 10260      54545F45 
 10260      52525F41 
 10260      4E43535F 
 10261              	.LASF589:
 10262 3c94 6C6F6341 		.ascii	"locAttrData\000"
 10262      74747244 
 10262      61746100 
 10263              	.LASF585:
 10264 3ca0 41707043 		.ascii	"AppCallback\000"
 10264      616C6C62 
 10264      61636B00 
 10265              	.LASF87:
 10266 3cac 4359424C 		.ascii	"CYBLE_ERROR_GAP_ROLE\000"
 10266      455F4552 
 10266      524F525F 
 10266      4741505F 
 10266      524F4C45 
 10267              	.LASF450:
 10268 3cc1 4359424C 		.ascii	"CYBLE_EVT_HTSS_INDICATION_ENABLED\000"
 10268      455F4556 
 10268      545F4854 
 10268      53535F49 
 10268      4E444943 
 10269              	.LASF522:
 10270 3ce3 4359424C 		.ascii	"CYBLE_EVT_UDSC_READ_DESCR_RESPONSE\000"
 10270      455F4556 
 10270      545F5544 
 10270      53435F52 
 10270      4541445F 
 10271              	.LASF402:
 10272 3d06 4359424C 		.ascii	"CYBLE_EVT_ESSS_NOTIFICATION_ENABLED\000"
 10272      455F4556 
 10272      545F4553 
 10272      53535F4E 
 10272      4F544946 
 10273              	.LASF244:
 10274 3d2a 656E6448 		.ascii	"endHandle\000"
 10274      616E646C 
 10274      6500
 10275              	.LASF330:
ARM GAS  C:\Users\Petro\AppData\Local\Temp\ccvLNIXl.s 			page 241


 10276 3d34 4359424C 		.ascii	"CYBLE_EVT_BASC_READ_CHAR_RESPONSE\000"
 10276      455F4556 
 10276      545F4241 
 10276      53435F52 
 10276      4541445F 
 10277              	.LASF423:
 10278 3d56 4359424C 		.ascii	"CYBLE_EVT_GLSC_NOTIFICATION\000"
 10278      455F4556 
 10278      545F474C 
 10278      53435F4E 
 10278      4F544946 
 10279              	.LASF122:
 10280 3d72 62644164 		.ascii	"bdAddr\000"
 10280      647200
 10281              	.LASF617:
 10282 3d79 5363616E 		.ascii	"Scanning_LED_Write\000"
 10282      6E696E67 
 10282      5F4C4544 
 10282      5F577269 
 10282      746500
 10283              	.LASF225:
 10284 3d8c 4359424C 		.ascii	"CYBLE_GATT_ERR_ANS_COMMAND_NOT_SUPPORTED\000"
 10284      455F4741 
 10284      54545F45 
 10284      52525F41 
 10284      4E535F43 
 10285              	.LASF501:
 10286 3db5 4359424C 		.ascii	"CYBLE_EVT_SCPSS_SCAN_INT_WIN_CHAR_WRITE\000"
 10286      455F4556 
 10286      545F5343 
 10286      5053535F 
 10286      5343414E 
 10287              	.LASF640:
 10288 3ddd 5744545F 		.ascii	"WDT_Interrupt_StartEx\000"
 10288      496E7465 
 10288      72727570 
 10288      745F5374 
 10288      61727445 
 10289              	.LASF177:
 10290 3df3 4359424C 		.ascii	"CYBLE_GATT_READ_RSP\000"
 10290      455F4741 
 10290      54545F52 
 10290      4541445F 
 10290      52535000 
 10291              	.LASF290:
 10292 3e07 63686172 		.ascii	"charInfo\000"
 10292      496E666F 
 10292      00
 10293              	.LASF117:
 10294 3e10 4359424C 		.ascii	"CYBLE_BLESS_STATE_ECO_STABLE\000"
 10294      455F424C 
 10294      4553535F 
 10294      53544154 
 10294      455F4543 
 10295              	.LASF135:
 10296 3e2d 4359424C 		.ascii	"CYBLE_GAPC_ADV_EVENT_T\000"
 10296      455F4741 
ARM GAS  C:\Users\Petro\AppData\Local\Temp\ccvLNIXl.s 			page 242


 10296      50435F41 
 10296      44565F45 
 10296      56454E54 
 10297              	.LASF84:
 10298 3e44 4359424C 		.ascii	"CYBLE_ERROR_NO_CONNECTION\000"
 10298      455F4552 
 10298      524F525F 
 10298      4E4F5F43 
 10298      4F4E4E45 
 10299              	.LASF384:
 10300 3e5e 4359424C 		.ascii	"CYBLE_EVT_CSCSS_INDICATION_DISABLED\000"
 10300      455F4556 
 10300      545F4353 
 10300      4353535F 
 10300      494E4449 
 10301              	.LASF627:
 10302 3e82 6D656D63 		.ascii	"memcpy\000"
 10302      707900
 10303              	.LASF110:
 10304 3e89 4359424C 		.ascii	"CYBLE_BLESS_HIBERNATE\000"
 10304      455F424C 
 10304      4553535F 
 10304      48494245 
 10304      524E4154 
 10305              	.LASF353:
 10306 3e9f 4359424C 		.ascii	"CYBLE_EVT_BMSC_READ_DESCR_RESPONSE\000"
 10306      455F4556 
 10306      545F424D 
 10306      53435F52 
 10306      4541445F 
 10307              	.LASF76:
 10308 3ec2 4359424C 		.ascii	"CYBLE_EVT_LE_PING_AUTH_TIMEOUT\000"
 10308      455F4556 
 10308      545F4C45 
 10308      5F50494E 
 10308      475F4155 
 10309              	.LASF106:
 10310 3ee1 4359424C 		.ascii	"CYBLE_API_RESULT_T\000"
 10310      455F4150 
 10310      495F5245 
 10310      53554C54 
 10310      5F5400
 10311              	.LASF504:
 10312 3ef4 4359424C 		.ascii	"CYBLE_EVT_SCPSC_WRITE_DESCR_RESPONSE\000"
 10312      455F4556 
 10312      545F5343 
 10312      5053435F 
 10312      57524954 
 10313              	.LASF355:
 10314 3f19 4359424C 		.ascii	"CYBLE_EVT_CGMSS_INDICATION_DISABLED\000"
 10314      455F4556 
 10314      545F4347 
 10314      4D53535F 
 10314      494E4449 
 10315              	.LASF604:
 10316 3f3d 6379426C 		.ascii	"cyBle_busyStatus\000"
 10316      655F6275 
ARM GAS  C:\Users\Petro\AppData\Local\Temp\ccvLNIXl.s 			page 243


 10316      73795374 
 10316      61747573 
 10316      00
 10317              	.LASF580:
 10318 3f4e 4359424C 		.ascii	"CYBLE_PEER_DEVICE_INFO_T\000"
 10318      455F5045 
 10318      45525F44 
 10318      45564943 
 10318      455F494E 
 10319              	.LASF592:
 10320 3f67 6E657744 		.ascii	"newDevice\000"
 10320      65766963 
 10320      6500
 10321              	.LASF120:
 10322 3f71 4359424C 		.ascii	"CYBLE_BLESS_STATE_INVALID\000"
 10322      455F424C 
 10322      4553535F 
 10322      53544154 
 10322      455F494E 
 10323              	.LASF320:
 10324 3f8b 4359424C 		.ascii	"CYBLE_EVT_ANSS_NOTIFICATION_DISABLED\000"
 10324      455F4556 
 10324      545F414E 
 10324      53535F4E 
 10324      4F544946 
 10325              	.LASF309:
 10326 3fb0 4359424C 		.ascii	"CYBLE_EVT_GATTC_DISCOVERY_COMPLETE\000"
 10326      455F4556 
 10326      545F4741 
 10326      5454435F 
 10326      44495343 
 10327              	.LASF359:
 10328 3fd3 4359424C 		.ascii	"CYBLE_EVT_CGMSS_WRITE_CHAR\000"
 10328      455F4556 
 10328      545F4347 
 10328      4D53535F 
 10328      57524954 
 10329              	.LASF427:
 10330 3fee 4359424C 		.ascii	"CYBLE_EVT_GLSC_WRITE_DESCR_RESPONSE\000"
 10330      455F4556 
 10330      545F474C 
 10330      53435F57 
 10330      52495445 
 10331              	.LASF155:
 10332 4012 6576656E 		.ascii	"eventType\000"
 10332      74547970 
 10332      6500
 10333              	.LASF59:
 10334 401c 4359424C 		.ascii	"CYBLE_EVT_GATTC_HANDLE_VALUE_IND\000"
 10334      455F4556 
 10334      545F4741 
 10334      5454435F 
 10334      48414E44 
 10335              	.LASF380:
 10336 403d 4359424C 		.ascii	"CYBLE_EVT_CPSC_SCAN_PROGRESS_RESULT\000"
 10336      455F4556 
 10336      545F4350 
ARM GAS  C:\Users\Petro\AppData\Local\Temp\ccvLNIXl.s 			page 244


 10336      53435F53 
 10336      43414E5F 
 10337              	.LASF495:
 10338 4061 4359424C 		.ascii	"CYBLE_EVT_RSCSC_READ_DESCR_RESPONSE\000"
 10338      455F4556 
 10338      545F5253 
 10338      4353435F 
 10338      52454144 
 10339              	.LASF619:
 10340 4085 43795379 		.ascii	"CySysWdtGetInterruptSource\000"
 10340      73576474 
 10340      47657449 
 10340      6E746572 
 10340      72757074 
 10341              	.LASF90:
 10342 40a0 4359424C 		.ascii	"CYBLE_ERROR_SEC_FAILED\000"
 10342      455F4552 
 10342      524F525F 
 10342      5345435F 
 10342      4641494C 
 10343              	.LASF581:
 10344 40b7 626C654D 		.ascii	"bleMode\000"
 10344      6F646500 
 10345              	.LASF26:
 10346 40bf 4359424C 		.ascii	"CYBLE_EVT_STACK_BUSY_STATUS\000"
 10346      455F4556 
 10346      545F5354 
 10346      41434B5F 
 10346      42555359 
 10347              	.LASF584:
 10348 40db 55706461 		.ascii	"UpdateLedState\000"
 10348      74654C65 
 10348      64537461 
 10348      746500
 10349              	.LASF164:
 10350 40ea 636F6E6E 		.ascii	"connLatency\000"
 10350      4C617465 
 10350      6E637900 
 10351              	.LASF608:
 10352 40f6 61647644 		.ascii	"advDevices\000"
 10352      65766963 
 10352      657300
 10353              	.LASF459:
 10354 4101 4359424C 		.ascii	"CYBLE_EVT_HTSC_WRITE_DESCR_RESPONSE\000"
 10354      455F4556 
 10354      545F4854 
 10354      53435F57 
 10354      52495445 
 10355              	.LASF39:
 10356 4125 4359424C 		.ascii	"CYBLE_EVT_GAP_KEYINFO_EXCHNGE_CMPLT\000"
 10356      455F4556 
 10356      545F4741 
 10356      505F4B45 
 10356      59494E46 
 10357              	.LASF189:
 10358 4149 4359424C 		.ascii	"CYBLE_GATT_EXECUTE_WRITE_REQ\000"
 10358      455F4741 
ARM GAS  C:\Users\Petro\AppData\Local\Temp\ccvLNIXl.s 			page 245


 10358      54545F45 
 10358      58454355 
 10358      54455F57 
 10359              	.LASF536:
 10360 4166 4359424C 		.ascii	"CYBLE_EVT_WPTSC_WRITE_DESCR_RESPONSE\000"
 10360      455F4556 
 10360      545F5750 
 10360      5453435F 
 10360      57524954 
 10361              	.LASF256:
 10362 418b 61747472 		.ascii	"attrLen\000"
 10362      4C656E00 
 10363              	.LASF645:
 10364 4193 43795379 		.ascii	"CySysWdtEnable\000"
 10364      73576474 
 10364      456E6162 
 10364      6C6500
 10365              	.LASF64:
 10366 41a2 4359424C 		.ascii	"CYBLE_EVT_L2CAP_CONN_PARAM_UPDATE_REQ\000"
 10366      455F4556 
 10366      545F4C32 
 10366      4341505F 
 10366      434F4E4E 
 10367              	.LASF358:
 10368 41c8 4359424C 		.ascii	"CYBLE_EVT_CGMSS_NOTIFICATION_DISABLED\000"
 10368      455F4556 
 10368      545F4347 
 10368      4D53535F 
 10368      4E4F5449 
 10369              	.LASF661:
 10370 41ee 2E5C6D61 		.ascii	".\\main.c\000"
 10370      696E2E63 
 10370      00
 10371              	.LASF300:
 10372 41f7 4359424C 		.ascii	"CYBLE_EVT_GATTC_INCL_DISCOVERY_FAILED\000"
 10372      455F4556 
 10372      545F4741 
 10372      5454435F 
 10372      494E434C 
 10373              	.LASF200:
 10374 421d 4359424C 		.ascii	"CYBLE_GATT_ERR_WRITE_NOT_PERMITTED\000"
 10374      455F4741 
 10374      54545F45 
 10374      52525F57 
 10374      52495445 
 10375              	.LASF601:
 10376 4240 6379426C 		.ascii	"cyBle_wptsc\000"
 10376      655F7770 
 10376      74736300 
 10377              	.LASF163:
 10378 424c 636F6E6E 		.ascii	"connIntv\000"
 10378      496E7476 
 10378      00
 10379              	.LASF3:
 10380 4255 73686F72 		.ascii	"short unsigned int\000"
 10380      7420756E 
 10380      7369676E 
ARM GAS  C:\Users\Petro\AppData\Local\Temp\ccvLNIXl.s 			page 246


 10380      65642069 
 10380      6E7400
 10381              	.LASF212:
 10382 4268 4359424C 		.ascii	"CYBLE_GATT_ERR_INSUFFICIENT_ENCRYPTION\000"
 10382      455F4741 
 10382      54545F45 
 10382      52525F49 
 10382      4E535546 
 10383              	.LASF474:
 10384 428f 4359424C 		.ascii	"CYBLE_EVT_LNSC_READ_DESCR_RESPONSE\000"
 10384      455F4556 
 10384      545F4C4E 
 10384      53435F52 
 10384      4541445F 
 10385              	.LASF547:
 10386 42b2 4359424C 		.ascii	"CYBLE_STATE_CONNECTED\000"
 10386      455F5354 
 10386      4154455F 
 10386      434F4E4E 
 10386      45435445 
 10387              	.LASF238:
 10388 42c8 61637475 		.ascii	"actualLen\000"
 10388      616C4C65 
 10388      6E00
 10389              	.LASF275:
 10390 42d2 63636364 		.ascii	"cccdHandle\000"
 10390      48616E64 
 10390      6C6500
 10391              	.LASF182:
 10392 42dd 4359424C 		.ascii	"CYBLE_GATT_READ_BY_GROUP_REQ\000"
 10392      455F4741 
 10392      54545F52 
 10392      4541445F 
 10392      42595F47 
 10393              	.LASF583:
 10394 42fa 54696D65 		.ascii	"Timer_Interrupt\000"
 10394      725F496E 
 10394      74657272 
 10394      75707400 
 10395              	.LASF422:
 10396 430a 4359424C 		.ascii	"CYBLE_EVT_GLSC_INDICATION\000"
 10396      455F4556 
 10396      545F474C 
 10396      53435F49 
 10396      4E444943 
 10397              	.LASF372:
 10398 4324 4359424C 		.ascii	"CYBLE_EVT_CPSS_BROADCAST_DISABLED\000"
 10398      455F4556 
 10398      545F4350 
 10398      53535F42 
 10398      524F4144 
 10399              	.LASF634:
 10400 4346 57616B65 		.ascii	"Wakeup_Interrupt_Start\000"
 10400      75705F49 
 10400      6E746572 
 10400      72757074 
 10400      5F537461 
ARM GAS  C:\Users\Petro\AppData\Local\Temp\ccvLNIXl.s 			page 247


 10401              	.LASF236:
 10402 435d 61747449 		.ascii	"attId\000"
 10402      6400
 10403              	.LASF80:
 10404 4363 4359424C 		.ascii	"CYBLE_ERROR_INVALID_OPERATION\000"
 10404      455F4552 
 10404      524F525F 
 10404      494E5641 
 10404      4C49445F 
 10405              	.LASF622:
 10406 4381 43794578 		.ascii	"CyExitCriticalSection\000"
 10406      69744372 
 10406      69746963 
 10406      616C5365 
 10406      6374696F 
 10407              	.LASF25:
 10408 4397 4359424C 		.ascii	"CYBLE_EVT_HCI_STATUS\000"
 10408      455F4556 
 10408      545F4843 
 10408      495F5354 
 10408      41545553 
 10409              	.LASF42:
 10410 43ac 4359424C 		.ascii	"CYBLE_EVT_GATT_DISCONNECT_IND\000"
 10410      455F4556 
 10410      545F4741 
 10410      54545F44 
 10410      4953434F 
 10411              	.LASF165:
 10412 43ca 73757065 		.ascii	"supervisionTO\000"
 10412      72766973 
 10412      696F6E54 
 10412      4F00
 10413              	.LASF127:
 10414 43d8 4359424C 		.ascii	"CYBLE_GATT_RSP_TO\000"
 10414      455F4741 
 10414      54545F52 
 10414      53505F54 
 10414      4F00
 10415              	.LASF295:
 10416 43ea 4359424C 		.ascii	"CYBLE_KEY_EXCHANGE_INFO_REQUEST_REPLY\000"
 10416      455F4B45 
 10416      595F4558 
 10416      4348414E 
 10416      47455F49 
 10417              	.LASF74:
 10418 4410 4359424C 		.ascii	"CYBLE_EVT_L2CAP_CBFC_DATA_WRITE_IND\000"
 10418      455F4556 
 10418      545F4C32 
 10418      4341505F 
 10418      43424643 
 10419              	.LASF293:
 10420 4434 4359424C 		.ascii	"CYBLE_PASSKEY_ENTRY_REQUEST_REPLY\000"
 10420      455F5041 
 10420      53534B45 
 10420      595F454E 
 10420      5452595F 
 10421              	.LASF160:
ARM GAS  C:\Users\Petro\AppData\Local\Temp\ccvLNIXl.s 			page 248


 10422 4456 72737369 		.ascii	"rssi\000"
 10422      00
 10423              	.LASF339:
 10424 445b 4359424C 		.ascii	"CYBLE_EVT_BCSC_WRITE_DESCR_RESPONSE\000"
 10424      455F4556 
 10424      545F4243 
 10424      53435F57 
 10424      52495445 
 10425              	.LASF517:
 10426 447f 4359424C 		.ascii	"CYBLE_EVT_UDSS_WRITE_CHAR\000"
 10426      455F4556 
 10426      545F5544 
 10426      53535F57 
 10426      52495445 
 10427              	.LASF159:
 10428 4499 64617461 		.ascii	"data\000"
 10428      00
 10429              	.LASF281:
 10430 449e 4359424C 		.ascii	"CYBLE_WPTS_PRU_DYNAMIC_PAR\000"
 10430      455F5750 
 10430      54535F50 
 10430      52555F44 
 10430      594E414D 
 10431              	.LASF35:
 10432 44b9 4359424C 		.ascii	"CYBLE_EVT_GAP_DEVICE_DISCONNECTED\000"
 10432      455F4556 
 10432      545F4741 
 10432      505F4445 
 10432      56494345 
 10433              	.LASF430:
 10434 44db 4359424C 		.ascii	"CYBLE_EVT_HIDSS_BOOT_MODE_ENTER\000"
 10434      455F4556 
 10434      545F4849 
 10434      4453535F 
 10434      424F4F54 
 10435              	.LASF60:
 10436 44fb 4359424C 		.ascii	"CYBLE_EVT_GATTS_HANDLE_VALUE_CNF\000"
 10436      455F4556 
 10436      545F4741 
 10436      5454535F 
 10436      48414E44 
 10437              	.LASF647:
 10438 451c 43795379 		.ascii	"CySysWdtDisable\000"
 10438      73576474 
 10438      44697361 
 10438      626C6500 
 10439              	.LASF391:
 10440 452c 4359424C 		.ascii	"CYBLE_EVT_CSCSC_READ_DESCR_RESPONSE\000"
 10440      455F4556 
 10440      545F4353 
 10440      4353435F 
 10440      52454144 
 10441              	.LASF161:
 10442 4550 4359424C 		.ascii	"CYBLE_GAPC_ADV_REPORT_T\000"
 10442      455F4741 
 10442      50435F41 
 10442      44565F52 
ARM GAS  C:\Users\Petro\AppData\Local\Temp\ccvLNIXl.s 			page 249


 10442      45504F52 
 10443              	.LASF10:
 10444 4568 75696E74 		.ascii	"uint16\000"
 10444      313600
 10445              	.LASF315:
 10446 456f 4359424C 		.ascii	"CYBLE_EVT_ANCSC_WRITE_CHAR_RESPONSE\000"
 10446      455F4556 
 10446      545F414E 
 10446      4353435F 
 10446      57524954 
 10447              	.LASF574:
 10448 4593 77707473 		.ascii	"wptsServiceHandle\000"
 10448      53657276 
 10448      69636548 
 10448      616E646C 
 10448      6500
 10449              	.LASF88:
 10450 45a5 4359424C 		.ascii	"CYBLE_ERROR_TX_POWER_READ\000"
 10450      455F4552 
 10450      524F525F 
 10450      54585F50 
 10450      4F574552 
 10451              	.LASF485:
 10452 45bf 4359424C 		.ascii	"CYBLE_EVT_RSCSS_NOTIFICATION_ENABLED\000"
 10452      455F4556 
 10452      545F5253 
 10452      4353535F 
 10452      4E4F5449 
 10453              	.LASF541:
 10454 45e4 4359424C 		.ascii	"CYBLE_EVT_WSSC_READ_CHAR_RESPONSE\000"
 10454      455F4556 
 10454      545F5753 
 10454      53435F52 
 10454      4541445F 
 10455              	.LASF609:
 10456 4606 64657669 		.ascii	"deviceN\000"
 10456      63654E00 
 10457              	.LASF659:
 10458 460e 4379426C 		.ascii	"CyBle_WptscSetCharacteristicValue\000"
 10458      655F5770 
 10458      74736353 
 10458      65744368 
 10458      61726163 
 10459              	.LASF118:
 10460 4630 4359424C 		.ascii	"CYBLE_BLESS_STATE_DEEPSLEEP\000"
 10460      455F424C 
 10460      4553535F 
 10460      53544154 
 10460      455F4445 
 10461              	.LASF455:
 10462 464c 4359424C 		.ascii	"CYBLE_EVT_HTSC_INDICATION\000"
 10462      455F4556 
 10462      545F4854 
 10462      53435F49 
 10462      4E444943 
 10463              	.LASF272:
 10464 4666 76616C75 		.ascii	"valueHandle\000"
ARM GAS  C:\Users\Petro\AppData\Local\Temp\ccvLNIXl.s 			page 250


 10464      6548616E 
 10464      646C6500 
 10465              	.LASF428:
 10466 4672 4359424C 		.ascii	"CYBLE_EVT_HIDSS_NOTIFICATION_ENABLED\000"
 10466      455F4556 
 10466      545F4849 
 10466      4453535F 
 10466      4E4F5449 
 10467              	.LASF452:
 10468 4697 4359424C 		.ascii	"CYBLE_EVT_HTSS_INDICATION_CONFIRMED\000"
 10468      455F4556 
 10468      545F4854 
 10468      53535F49 
 10468      4E444943 
 10469              	.LASF529:
 10470 46bb 4359424C 		.ascii	"CYBLE_EVT_WPTSS_INDICATION_CONFIRMED\000"
 10470      455F4556 
 10470      545F5750 
 10470      5453535F 
 10470      494E4449 
 10471              	.LASF442:
 10472 46e0 4359424C 		.ascii	"CYBLE_EVT_HRSS_NOTIFICATION_DISABLED\000"
 10472      455F4556 
 10472      545F4852 
 10472      53535F4E 
 10472      4F544946 
 10473              		.ident	"GCC: (GNU Tools for ARM Embedded Processors) 4.9.3 20150303 (release) [ARM/embedded-4_9-br
