ARM GAS  C:\Users\Petro\AppData\Local\Temp\ccvLNIXl.s 			page 1


   1              		.cpu cortex-m0
   2              		.fpu softvfp
   3              		.eabi_attribute 20, 1
   4              		.eabi_attribute 21, 1
   5              		.eabi_attribute 23, 3
   6              		.eabi_attribute 24, 1
   7              		.eabi_attribute 25, 1
   8              		.eabi_attribute 26, 1
   9              		.eabi_attribute 30, 1
  10              		.eabi_attribute 34, 0
  11              		.eabi_attribute 18, 4
  12              		.code	16
  13              		.file	"main.c"
  14              		.text
  15              	.Ltext0:
  16              		.cfi_sections	.debug_frame
  17              		.global _printf_float
  18              		.global _printf_float
  19              		.code	16
  20              		.section	.text.Timer_Interrupt,"ax",%progbits
  21              		.align	2
  22              		.global	Timer_Interrupt
  23              		.code	16
  24              		.thumb_func
  25              		.type	Timer_Interrupt, %function
  26              	Timer_Interrupt:
  27              	.LFB38:
  28              		.file 1 ".\\main.c"
   1:.\main.c      **** /*******************************************************************************
   2:.\main.c      **** * File Name: main.c
   3:.\main.c      **** *
   4:.\main.c      **** * Version: 1.0
   5:.\main.c      **** *
   6:.\main.c      **** * Description:
   7:.\main.c      **** *  This project demonstrates Wireless Power Transfer profile in Power 
   8:.\main.c      **** *  Transmitter Unit (PTU) Client role.
   9:.\main.c      **** *
  10:.\main.c      **** * Related Document:
  11:.\main.c      **** *  A4WP Wireless Power Transfer System Baseline System Specification (BSS)
  12:.\main.c      **** *   V1.2.1
  13:.\main.c      **** *  BLUETOOTH SPECIFICATION Version 4.1
  14:.\main.c      **** *
  15:.\main.c      **** *******************************************************************************
  16:.\main.c      **** * Copyright 2015, Cypress Semiconductor Corporation.  All rights reserved.
  17:.\main.c      **** * You may use this file only in accordance with the license, terms, conditions,
  18:.\main.c      **** * disclaimers, and limitations in the end user license agreement accompanying
  19:.\main.c      **** * the software package with which this file was provided.
  20:.\main.c      **** *******************************************************************************/
  21:.\main.c      **** 
  22:.\main.c      **** #include "wptu.h"
  23:.\main.c      **** #include "common.h"
  24:.\main.c      **** #include <stdbool.h>
  25:.\main.c      **** 
  26:.\main.c      **** volatile uint32 mainTimer = 0u;
  27:.\main.c      **** 
  28:.\main.c      **** CYBLE_PEER_DEVICE_INFO_T peedDeviceInfo[CYBLE_MAX_ADV_DEVICES];
  29:.\main.c      **** uint8 advDevices = 0u;
ARM GAS  C:\Users\Petro\AppData\Local\Temp\ccvLNIXl.s 			page 2


  30:.\main.c      **** uint8 deviceN = 0u;
  31:.\main.c      **** 
  32:.\main.c      **** uint8 state = STATE_INIT;
  33:.\main.c      **** uint8 readingDynChar = 0u;
  34:.\main.c      **** 
  35:.\main.c      **** uint8 customCommand = 0u;
  36:.\main.c      **** uint16 alertCCCD = 0u;
  37:.\main.c      **** bool requestResponce = true;
  38:.\main.c      **** 
  39:.\main.c      **** 
  40:.\main.c      **** CYBLE_GAP_CONN_PARAM_UPDATED_IN_CONTROLLER_T connParameters;
  41:.\main.c      **** 
  42:.\main.c      **** 
  43:.\main.c      **** /*******************************************************************************
  44:.\main.c      **** * Function Name: AppCallBack()
  45:.\main.c      **** ********************************************************************************
  46:.\main.c      **** *
  47:.\main.c      **** * Summary:
  48:.\main.c      **** *   This is an event callback function to receive events from the BLE Component.
  49:.\main.c      **** *
  50:.\main.c      **** * Parameters:
  51:.\main.c      **** *  event - the event code
  52:.\main.c      **** *  *eventParam - the event parameters
  53:.\main.c      **** *
  54:.\main.c      **** * Theory:
  55:.\main.c      **** * The function is responsible for handling the events generated by the stack.
  56:.\main.c      **** * It first starts scanning once the stack is initialized. 
  57:.\main.c      **** * Upon scanning timeout this function enters Hibernate mode.
  58:.\main.c      **** *
  59:.\main.c      **** *******************************************************************************/
  60:.\main.c      **** void AppCallback(uint32 event, void* eventParam)
  61:.\main.c      **** {
  62:.\main.c      ****     CYBLE_API_RESULT_T apiResult;
  63:.\main.c      ****     CYBLE_GATTC_GRP_ATTR_DATA_LIST_T *locAttrData;
  64:.\main.c      ****     CYBLE_GAPC_ADV_REPORT_T *advReport;
  65:.\main.c      ****     CYBLE_GAP_AUTH_INFO_T *authInfo;
  66:.\main.c      ****     uint8 newDevice = 0u;
  67:.\main.c      ****     uint8 type;
  68:.\main.c      ****     uint16 i;
  69:.\main.c      ****     uint16 length;
  70:.\main.c      ****     uint8 *locHndlUuidList;
  71:.\main.c      ****     
  72:.\main.c      **** 	switch (event)
  73:.\main.c      **** 	{
  74:.\main.c      **** 		case CYBLE_EVT_STACK_ON: /* This event received when BLE stack is ON. */
  75:.\main.c      ****             DBG_PRINTF("Bluetooth On \r\n");
  76:.\main.c      ****             apiResult = CyBle_GapcStartScan(CYBLE_SCANNING_FAST);                   /* Start Limite
  77:.\main.c      ****             if(apiResult != CYBLE_ERROR_OK)
  78:.\main.c      ****             {
  79:.\main.c      ****                 DBG_PRINTF("StartScan API Error: %xd \r\n", apiResult);
  80:.\main.c      ****             }
  81:.\main.c      **** 			break;
  82:.\main.c      **** 		case CYBLE_EVT_TIMEOUT: 
  83:.\main.c      ****             DBG_PRINTF("CYBLE_EVT_TIMEOUT: %x \r\n", *(CYBLE_TO_REASON_CODE_T *)eventParam);
  84:.\main.c      **** 			break;
  85:.\main.c      **** 		case CYBLE_EVT_HARDWARE_ERROR:    /* This event indicates that some internal HW error has occurre
  86:.\main.c      ****             DBG_PRINTF("Hardware Error: %x \r\n", *(uint8 *)eventParam);
ARM GAS  C:\Users\Petro\AppData\Local\Temp\ccvLNIXl.s 			page 3


  87:.\main.c      **** 			break;
  88:.\main.c      ****         case CYBLE_EVT_HCI_STATUS:
  89:.\main.c      ****             DBG_PRINTF("CYBLE_EVT_HCI_STATUS: %x \r\n", *(uint8 *)eventParam);
  90:.\main.c      **** 			break;
  91:.\main.c      ****     	case CYBLE_EVT_STACK_BUSY_STATUS:
  92:.\main.c      ****             DBG_PRINTF("CYBLE_EVT_STACK_BUSY_STATUS: %x\r\n", CyBle_GattGetBusStatus());
  93:.\main.c      ****             break;
  94:.\main.c      ****             
  95:.\main.c      ****         /**********************************************************
  96:.\main.c      ****         *                       GAP Events
  97:.\main.c      ****         ***********************************************************/
  98:.\main.c      ****         /* This event provides the remote device lists during discovery process. */
  99:.\main.c      ****         case CYBLE_EVT_GAPC_SCAN_PROGRESS_RESULT:
 100:.\main.c      ****             {    
 101:.\main.c      ****                 CYBLE_PRU_ADV_SERVICE_DATA_T serviceData;
 102:.\main.c      ****                 advReport = (CYBLE_GAPC_ADV_REPORT_T *)eventParam;
 103:.\main.c      ****                 
 104:.\main.c      ****                 if(WptsScanProcessEventHandler(advReport, &serviceData) != 0u)
 105:.\main.c      ****                 {
 106:.\main.c      ****                     DBG_PRINTF("Advertisement report: eventType = %x, peerAddrType - %x, ", 
 107:.\main.c      ****                         advReport->eventType, advReport->peerAddrType);
 108:.\main.c      ****                     DBG_PRINTF("peerBdAddr - #");
 109:.\main.c      ****                     for(newDevice = 1u, i = 0u; i < advDevices; i++)
 110:.\main.c      ****                     {
 111:.\main.c      ****                         /* Compare device address with already logged one */
 112:.\main.c      ****                         if((memcmp(peedDeviceInfo[i].peerAddr.bdAddr, advReport->peerBdAddr, CYBLE_
 113:.\main.c      ****                         {
 114:.\main.c      ****                             DBG_PRINTF("%x: ",i);
 115:.\main.c      ****                             newDevice = 0u;
 116:.\main.c      ****                             break;
 117:.\main.c      ****                         }
 118:.\main.c      ****                     }
 119:.\main.c      ****                     if(newDevice != 0u)                    
 120:.\main.c      ****                     {
 121:.\main.c      ****                         if(advDevices < CYBLE_MAX_ADV_DEVICES)
 122:.\main.c      ****                         {
 123:.\main.c      ****                             memcpy(peedDeviceInfo[advDevices].peerAddr.bdAddr, advReport->peerBdAdd
 124:.\main.c      ****                             peedDeviceInfo[advDevices].peerAddr.type = advReport->peerAddrType;
 125:.\main.c      ****                             peedDeviceInfo[advDevices].peerAdvServData = serviceData;
 126:.\main.c      ****                             DBG_PRINTF("%x: ",advDevices);
 127:.\main.c      ****                             advDevices++;
 128:.\main.c      ****                         }
 129:.\main.c      ****                     }
 130:.\main.c      ****                     for(i = CYBLE_GAP_BD_ADDR_SIZE; i > 0u; i--)
 131:.\main.c      ****                     {
 132:.\main.c      ****                         DBG_PRINTF("%2.2x", advReport->peerBdAddr[i-1]);
 133:.\main.c      ****                     }
 134:.\main.c      ****                     DBG_PRINTF(", rssi - %d dBm,\r\n data - ", advReport->rssi);
 135:.\main.c      ****                     for( i = 0; i < advReport->dataLen; i++)
 136:.\main.c      ****                     {
 137:.\main.c      ****                         DBG_PRINTF("%2.2x ", advReport->data[i]);
 138:.\main.c      ****                     }
 139:.\main.c      ****                     DBG_PRINTF("\r\n");
 140:.\main.c      ****                 }
 141:.\main.c      ****             }
 142:.\main.c      ****             break;
 143:.\main.c      **** 	    case CYBLE_EVT_GAPC_SCAN_START_STOP:
ARM GAS  C:\Users\Petro\AppData\Local\Temp\ccvLNIXl.s 			page 4


 144:.\main.c      ****             DBG_PRINTF("CYBLE_EVT_GAPC_SCAN_START_STOP, state: %x\r\n", CyBle_GetState());
 145:.\main.c      ****             if(CyBle_GetState() == CYBLE_STATE_DISCONNECTED)
 146:.\main.c      ****             {
 147:.\main.c      ****                 if(state == STATE_CONNECTING)
 148:.\main.c      ****                 {
 149:.\main.c      ****                     DBG_PRINTF("GAPC_END_SCANNING\r\n");
 150:.\main.c      ****                     /* Connect to selected device */
 151:.\main.c      ****                     cyBle_connectingTimeout = 5;
 152:.\main.c      ****                     apiResult = CyBle_GapcConnectDevice(&peedDeviceInfo[deviceN].peerAddr);
 153:.\main.c      ****                     if(apiResult != CYBLE_ERROR_OK)
 154:.\main.c      ****                     {
 155:.\main.c      ****                         DBG_PRINTF("ConnectDevice API Error: %x \r\n", apiResult);
 156:.\main.c      ****                     }
 157:.\main.c      ****                 }
 158:.\main.c      ****                 else
 159:.\main.c      ****                 {
 160:.\main.c      ****                     /* Fast scanning period complete,
 161:.\main.c      ****                      * go to low power mode (Hibernate mode) and wait for an external
 162:.\main.c      ****                      * user event to wake up the device again */
 163:.\main.c      ****                     DBG_PRINTF("Hibernate \r\n");
 164:.\main.c      ****                     UpdateLedState();
 165:.\main.c      ****                 #if (DEBUG_UART_ENABLED == ENABLED)
 166:.\main.c      ****                     while((UART_DEB_SpiUartGetTxBufferSize() + UART_DEB_GET_TX_FIFO_SR_VALID) != 0)
 167:.\main.c      ****                 #endif /* (DEBUG_UART_ENABLED == ENABLED) */
 168:.\main.c      ****                     SW2_ClearInterrupt();
 169:.\main.c      ****                     Wakeup_Interrupt_ClearPending();
 170:.\main.c      ****                     Wakeup_Interrupt_Start();
 171:.\main.c      ****                     CySysPmHibernate();
 172:.\main.c      ****                 }
 173:.\main.c      ****             }
 174:.\main.c      ****             break;
 175:.\main.c      ****        case CYBLE_EVT_GAP_AUTH_COMPLETE:
 176:.\main.c      ****             authInfo = (CYBLE_GAP_AUTH_INFO_T *)eventParam;
 177:.\main.c      ****             (void)authInfo;
 178:.\main.c      ****             DBG_PRINTF("AUTH_COMPLETE: security:%x, bonding:%x, ekeySize:%x, authErr %x \r\n", 
 179:.\main.c      ****                                     authInfo->security, authInfo->bonding, authInfo->ekeySize, auth
 180:.\main.c      ****             break;
 181:.\main.c      ****         case CYBLE_EVT_GAP_AUTH_FAILED:
 182:.\main.c      ****             DBG_PRINTF("AUTH_FAILED: %x \r\n", *(uint8 *)eventParam);
 183:.\main.c      ****             break;
 184:.\main.c      ****         case CYBLE_EVT_GAP_DEVICE_CONNECTED:
 185:.\main.c      ****             connParameters = *(CYBLE_GAP_CONN_PARAM_UPDATED_IN_CONTROLLER_T *)eventParam;
 186:.\main.c      ****             DBG_PRINTF("CYBLE_EVT_GAP_DEVICE_CONNECTED: %x, %x(%d ms), %x, %x \r\n",   
 187:.\main.c      ****                 connParameters.status,
 188:.\main.c      ****                 connParameters.connIntv,
 189:.\main.c      ****                 connParameters.connIntv *5 /4,
 190:.\main.c      ****                 connParameters.connLatency,
 191:.\main.c      ****                 connParameters.supervisionTO);
 192:.\main.c      ****             state = STATE_CONNECTED;
 193:.\main.c      ****             UpdateLedState();
 194:.\main.c      ****             
 195:.\main.c      ****             if(peedDeviceInfo[deviceN].peerAdvServData.wptsServiceHandle != 0u)
 196:.\main.c      ****             {
 197:.\main.c      ****                 /* Use quick discovery method based on WPT service handle received in the advertisi
 198:.\main.c      ****                 CyBle_WptscDiscovery(peedDeviceInfo[deviceN].peerAdvServData.wptsServiceHandle);
 199:.\main.c      ****                 
 200:.\main.c      ****                 DBG_PRINTF("WPTS %x: ",  cyBle_wptsc.serviceHandle);
ARM GAS  C:\Users\Petro\AppData\Local\Temp\ccvLNIXl.s 			page 5


 201:.\main.c      ****                 for(i = 0u; i < CYBLE_WPTS_CHAR_COUNT; i++)
 202:.\main.c      ****                 {
 203:.\main.c      ****                     DBG_PRINTF("Char %x=%x, CCCD=%x ", i, CyBle_WptscGetCharacteristicValueHandle(i
 204:.\main.c      ****                                                           CyBle_WptscGetCharacteristicDescriptorHan
 205:.\main.c      ****                 }
 206:.\main.c      ****                 DBG_PRINTF("\r\n");
 207:.\main.c      ****                 /* Initiate to read PRU Static Parameter characteristic value */
 208:.\main.c      ****                 customCommand = '4';
 209:.\main.c      ****             }
 210:.\main.c      ****             else
 211:.\main.c      ****             {
 212:.\main.c      ****                 /* When the service handle is unknown, use the standard discovery procedure */
 213:.\main.c      ****                 customCommand = 's';
 214:.\main.c      ****             }
 215:.\main.c      ****             break;
 216:.\main.c      ****         case CYBLE_EVT_GAP_DEVICE_DISCONNECTED:
 217:.\main.c      ****             DBG_PRINTF("DEVICE_DISCONNECTED: \r\n");
 218:.\main.c      ****             apiResult = CyBle_GapcStartScan(CYBLE_SCANNING_FAST);                   /* Start Limite
 219:.\main.c      ****             if(apiResult != CYBLE_ERROR_OK)
 220:.\main.c      ****             {
 221:.\main.c      ****                 DBG_PRINTF("StartScan API Error: %xd \r\n", apiResult);
 222:.\main.c      ****             }
 223:.\main.c      ****             requestResponce = true;
 224:.\main.c      ****             state = STATE_DISCONNECTED;
 225:.\main.c      ****             break;
 226:.\main.c      ****         case CYBLE_EVT_GAP_ENCRYPT_CHANGE:
 227:.\main.c      ****             DBG_PRINTF("ENCRYPT_CHANGE: %d \r\n", *(uint8 *)eventParam);
 228:.\main.c      ****             break;
 229:.\main.c      ****         case CYBLE_EVT_GAPC_CONNECTION_UPDATE_COMPLETE:           
 230:.\main.c      ****             connParameters = *(CYBLE_GAP_CONN_PARAM_UPDATED_IN_CONTROLLER_T *)eventParam;
 231:.\main.c      ****             DBG_PRINTF("CYBLE_EVT_GAPC_CONNECTION_UPDATE_COMPLETE: %x, %x(%d ms), %x, %x \r\n",
 232:.\main.c      ****                 connParameters.status,
 233:.\main.c      ****                 connParameters.connIntv,
 234:.\main.c      ****                 connParameters.connIntv *5 /4,
 235:.\main.c      ****                 connParameters.connLatency,
 236:.\main.c      ****                 connParameters.supervisionTO);
 237:.\main.c      ****             break;
 238:.\main.c      ****         case CYBLE_EVT_GAP_KEYINFO_EXCHNGE_CMPLT:
 239:.\main.c      ****             DBG_PRINTF("CYBLE_EVT_GAP_KEYINFO_EXCHNGE_CMPLT \r\n");
 240:.\main.c      ****             break;
 241:.\main.c      ****             
 242:.\main.c      ****         /**********************************************************
 243:.\main.c      ****         *                       GATT Events
 244:.\main.c      ****         ***********************************************************/
 245:.\main.c      **** 
 246:.\main.c      ****         case CYBLE_EVT_GATTC_ERROR_RSP:
 247:.\main.c      ****             DBG_PRINTF("GATT_ERROR_RSP: opcode: %x,  handle: %x,  errorcode: %x \r\n",
 248:.\main.c      ****                 ((CYBLE_GATTC_ERR_RSP_PARAM_T *)eventParam)->opCode,
 249:.\main.c      ****                 ((CYBLE_GATTC_ERR_RSP_PARAM_T *)eventParam)->attrHandle,
 250:.\main.c      ****                 ((CYBLE_GATTC_ERR_RSP_PARAM_T *)eventParam)->errorCode);
 251:.\main.c      ****             break;
 252:.\main.c      ****         case CYBLE_EVT_GATT_CONNECT_IND:
 253:.\main.c      ****             DBG_PRINTF("CYBLE_EVT_GATT_CONNECT_IND: %x, %x \r\n", 
 254:.\main.c      ****                 (*(CYBLE_CONN_HANDLE_T *)eventParam).attId, (*(CYBLE_CONN_HANDLE_T *)eventParam).bd
 255:.\main.c      ****             break;
 256:.\main.c      ****         case CYBLE_EVT_GATT_DISCONNECT_IND:
 257:.\main.c      ****             DBG_PRINTF("GATT_DISCONNECT_IND \r\n");
ARM GAS  C:\Users\Petro\AppData\Local\Temp\ccvLNIXl.s 			page 6


 258:.\main.c      ****             break;
 259:.\main.c      ****         case CYBLE_EVT_GATTC_HANDLE_VALUE_NTF:
 260:.\main.c      ****             DBG_PRINTF("CYBLE_EVT_GATT_HANDLE_VALUE_NTF: handle: %x, Value:", ((CYBLE_GATTC_HANDLE_
 261:.\main.c      ****             ShowValue(&((CYBLE_GATTC_HANDLE_VALUE_IND_PARAM_T *)eventParam)->handleValPair.value, 0
 262:.\main.c      ****             break;  
 263:.\main.c      ****         case CYBLE_EVT_GATTC_HANDLE_VALUE_IND:
 264:.\main.c      ****             DBG_PRINTF("CYBLE_EVT_GATTC_HANDLE_VALUE_IND: handle: %x, Value:", ((CYBLE_GATTC_HANDLE
 265:.\main.c      ****             ShowValue(&((CYBLE_GATTC_HANDLE_VALUE_IND_PARAM_T *)eventParam)->handleValPair.value, 0
 266:.\main.c      ****             break;
 267:.\main.c      ****         case CYBLE_EVT_GATTC_INDICATION:
 268:.\main.c      ****             DBG_PRINTF("CYBLE_EVT_GATTC_INDICATION: handle: %x, Value:", ((CYBLE_GATTC_HANDLE_VALUE
 269:.\main.c      ****             ShowValue(&((CYBLE_GATTC_HANDLE_VALUE_IND_PARAM_T *)eventParam)->handleValPair.value, 0
 270:.\main.c      ****             break;
 271:.\main.c      ****         case CYBLE_EVT_GATTC_READ_RSP:
 272:.\main.c      ****             DBG_PRINTF("CYBLE_EVT_GATT_READ_RSP: ");
 273:.\main.c      ****             ShowValue(&((CYBLE_GATTC_READ_RSP_PARAM_T *)eventParam)->value, 0u);
 274:.\main.c      ****             break;            
 275:.\main.c      ****         case CYBLE_EVT_GATTC_READ_BLOB_RSP:
 276:.\main.c      ****             DBG_PRINTF("CYBLE_EVT_GATTC_READ_BLOB_RSP: ");
 277:.\main.c      ****             ShowValue(&((CYBLE_GATTC_READ_RSP_PARAM_T *)eventParam)->value, 0u);
 278:.\main.c      ****             break;
 279:.\main.c      ****         case CYBLE_EVT_GATTC_WRITE_RSP:
 280:.\main.c      ****             DBG_PRINTF("CYBLE_EVT_GATT_WRITE_RSP \r\n");
 281:.\main.c      ****             break;            
 282:.\main.c      ****         case CYBLE_EVT_GATTC_XCHNG_MTU_RSP:
 283:.\main.c      ****             DBG_PRINTF("CYBLE_EVT_GATT_XCHNG_MTU_RSP \r\n");
 284:.\main.c      ****             break;
 285:.\main.c      ****         case CYBLE_EVT_GATTC_READ_BY_GROUP_TYPE_RSP: /* Response to CYBLE_DiscoverAllPrimServices()
 286:.\main.c      ****             DBG_PRINTF("CYBLE_EVT_GATT_READ_BY_GROUP_TYPE_RSP: ");
 287:.\main.c      ****             locAttrData = &(*(CYBLE_GATTC_READ_BY_GRP_RSP_PARAM_T *)eventParam).attrData;
 288:.\main.c      ****             for(i = 0u; i < locAttrData -> attrLen; i ++)
 289:.\main.c      ****             { 
 290:.\main.c      ****                 DBG_PRINTF("%2.2x ",*(uint8 *)(locAttrData->attrValue + i));
 291:.\main.c      ****             }
 292:.\main.c      ****                 DBG_PRINTF("\r\n");
 293:.\main.c      ****             break;        
 294:.\main.c      ****         case CYBLE_EVT_GATTC_READ_BY_TYPE_RSP:      /* Response to CYBLE_DiscoverAllCharacteristics
 295:.\main.c      ****             DBG_PRINTF("CYBLE_EVT_GATT_READ_BY_TYPE_RSP: ");
 296:.\main.c      ****             locAttrData = &(*(CYBLE_GATTC_READ_BY_TYPE_RSP_PARAM_T *)eventParam).attrData;
 297:.\main.c      ****             for(i = 0u; i < locAttrData -> attrLen; i ++)
 298:.\main.c      ****             { 
 299:.\main.c      ****                 DBG_PRINTF("%2.2x ",*(uint8 *)(locAttrData->attrValue + i));
 300:.\main.c      ****             }
 301:.\main.c      ****             DBG_PRINTF("\r\n");
 302:.\main.c      ****             break;
 303:.\main.c      ****         case CYBLE_EVT_GATTC_FIND_INFO_RSP:
 304:.\main.c      ****             DBG_PRINTF("CYBLE_EVT_GATT_FIND_INFO_RSP: ");
 305:.\main.c      ****             type = (*(CYBLE_GATTC_FIND_INFO_RSP_PARAM_T *)eventParam).uuidFormat;
 306:.\main.c      ****             locHndlUuidList = (*(CYBLE_GATTC_FIND_INFO_RSP_PARAM_T *)eventParam).handleValueList.li
 307:.\main.c      ****             (void)locHndlUuidList;
 308:.\main.c      ****             if(type == CYBLE_GATT_16_BIT_UUID_FORMAT)
 309:.\main.c      ****             {
 310:.\main.c      ****                 length = CYBLE_ATTR_HANDLE_LEN + CYBLE_GATT_16_BIT_UUID_SIZE;
 311:.\main.c      ****             }
 312:.\main.c      ****             else
 313:.\main.c      ****             {
 314:.\main.c      ****                 length = CYBLE_ATTR_HANDLE_LEN + CYBLE_GATT_128_BIT_UUID_SIZE;
ARM GAS  C:\Users\Petro\AppData\Local\Temp\ccvLNIXl.s 			page 7


 315:.\main.c      ****             }
 316:.\main.c      ****             for(i = 0u; i < (*(CYBLE_GATTC_FIND_INFO_RSP_PARAM_T *)eventParam).handleValueList.byte
 317:.\main.c      ****             {
 318:.\main.c      ****                 if(type == CYBLE_GATT_16_BIT_UUID_FORMAT)
 319:.\main.c      ****                 {
 320:.\main.c      ****                     DBG_PRINTF("%2.2x %2.2x,",CyBle_Get16ByPtr(locHndlUuidList + i),
 321:.\main.c      ****                                               CyBle_Get16ByPtr(locHndlUuidList + i + CYBLE_ATTR_HAN
 322:.\main.c      ****                 }
 323:.\main.c      ****                 else
 324:.\main.c      ****                 {
 325:.\main.c      ****                     DBG_PRINTF("UUID128");
 326:.\main.c      ****                 }
 327:.\main.c      ****             }
 328:.\main.c      ****             DBG_PRINTF("\r\n");
 329:.\main.c      ****             break;
 330:.\main.c      ****         case CYBLE_EVT_GATTC_FIND_BY_TYPE_VALUE_RSP:
 331:.\main.c      ****             DBG_PRINTF("CYBLE_EVT_GATT_FIND_BY_TYPE_VALUE_RSP \r\n");
 332:.\main.c      ****             break;
 333:.\main.c      ****                 
 334:.\main.c      ****         /**********************************************************
 335:.\main.c      ****         *                       Discovery Events 
 336:.\main.c      ****         ***********************************************************/
 337:.\main.c      ****         case CYBLE_EVT_GATTC_DISCOVERY_COMPLETE:
 338:.\main.c      ****             DBG_PRINTF("CYBLE_EVT_SERVER_DISCOVERY_COMPLETE \r\n");
 339:.\main.c      ****             DBG_PRINTF("GATT %x-%x Char: %x, cccd: %x, \r\n", 
 340:.\main.c      ****                 cyBle_serverInfo[CYBLE_SRVI_GATT].range.startHandle,
 341:.\main.c      ****                 cyBle_serverInfo[CYBLE_SRVI_GATT].range.endHandle,
 342:.\main.c      ****                 cyBle_gattc.serviceChanged.valueHandle,
 343:.\main.c      ****                 cyBle_gattc.cccdHandle);
 344:.\main.c      ****             DBG_PRINTF("\r\nWPTS %x-%x: ",  cyBle_serverInfo[CYBLE_SRVI_WPTS].range.startHandle,
 345:.\main.c      ****                                        cyBle_serverInfo[CYBLE_SRVI_WPTS].range.endHandle);
 346:.\main.c      ****             for(i = 0u; i < CYBLE_WPTS_CHAR_COUNT; i++)
 347:.\main.c      ****             {
 348:.\main.c      ****                 DBG_PRINTF("Char %x=%x, CCCD=%x ", i, CyBle_WptscGetCharacteristicValueHandle(i),
 349:.\main.c      ****                                                       CyBle_WptscGetCharacteristicDescriptorHandle(
 350:.\main.c      ****             }
 351:.\main.c      ****             DBG_PRINTF("\r\n");
 352:.\main.c      ****             DBG_PRINTF("\r\n");
 353:.\main.c      ****             /* Statrt configuration procedure */
 354:.\main.c      ****             if(state == STATE_CONNECTED) 
 355:.\main.c      ****             {
 356:.\main.c      ****                 /* Initiate reading the PRU Static Parameter characteristic value */
 357:.\main.c      ****                 customCommand = '4';
 358:.\main.c      ****             }
 359:.\main.c      ****         break;
 360:.\main.c      **** 
 361:.\main.c      ****         /**********************************************************
 362:.\main.c      ****         *                       Other Events
 363:.\main.c      ****         ***********************************************************/
 364:.\main.c      ****         case CYBLE_EVT_PENDING_FLASH_WRITE:
 365:.\main.c      ****             /* Inform application that flash write is pending. Stack internal data 
 366:.\main.c      ****             * structures are modified and require to be stored in Flash using 
 367:.\main.c      ****             * CyBle_StoreBondingData() */
 368:.\main.c      ****             DBG_PRINTF("CYBLE_EVT_PENDING_FLASH_WRITE\r\n");
 369:.\main.c      ****             break;
 370:.\main.c      **** 		default:
 371:.\main.c      ****             DBG_PRINTF("OTHER event: %lx \r\n", event);
ARM GAS  C:\Users\Petro\AppData\Local\Temp\ccvLNIXl.s 			page 8


 372:.\main.c      **** 			break;
 373:.\main.c      **** 	}
 374:.\main.c      **** }
 375:.\main.c      **** 
 376:.\main.c      **** 
 377:.\main.c      **** /*******************************************************************************
 378:.\main.c      **** * Function Name: Timer_Interrupt
 379:.\main.c      **** ********************************************************************************
 380:.\main.c      **** *
 381:.\main.c      **** * Summary:
 382:.\main.c      **** *  Handles the Interrupt Service Routine for the WDT timer.
 383:.\main.c      **** *  Blinking Blue LED during scanning process.
 384:.\main.c      **** *
 385:.\main.c      **** *******************************************************************************/
 386:.\main.c      **** CY_ISR(Timer_Interrupt)
 387:.\main.c      **** {
  29              		.loc 1 387 0
  30              		.cfi_startproc
  31 0000 08B5     		push	{r3, lr}
  32              		.cfi_def_cfa_offset 8
  33              		.cfi_offset 3, -8
  34              		.cfi_offset 14, -4
 388:.\main.c      ****     if(CySysWdtGetInterruptSource() & WDT_INTERRUPT_SOURCE)
  35              		.loc 1 388 0
  36 0002 FFF7FEFF 		bl	CySysWdtGetInterruptSource
  37              	.LVL0:
  38 0006 4305     		lsl	r3, r0, #21
  39 0008 1CD5     		bpl	.L1
  40              	.LBB2:
 389:.\main.c      ****     {
 390:.\main.c      ****         static uint8 led = LED_OFF;
 391:.\main.c      ****         
 392:.\main.c      ****         /* Blink LED to indicate that device scans */
 393:.\main.c      ****         if(CyBle_GetState() == CYBLE_STATE_SCANNING)
  41              		.loc 1 393 0
  42 000a 0F4B     		ldr	r3, .L5
  43 000c 1B78     		ldrb	r3, [r3]
  44 000e 032B     		cmp	r3, #3
  45 0010 07D1     		bne	.L3
 394:.\main.c      ****         {
 395:.\main.c      ****             led ^= LED_ON;
  46              		.loc 1 395 0
  47 0012 0E4A     		ldr	r2, .L5+4
  48 0014 1078     		ldrb	r0, [r2]
  49 0016 023B     		sub	r3, r3, #2
  50 0018 5840     		eor	r0, r3
  51 001a 1070     		strb	r0, [r2]
 396:.\main.c      ****             Scanning_LED_Write(led);
  52              		.loc 1 396 0
  53 001c FFF7FEFF 		bl	Scanning_LED_Write
  54              	.LVL1:
  55 0020 08E0     		b	.L4
  56              	.L3:
 397:.\main.c      ****         }
 398:.\main.c      ****         else if(CyBle_GetState() == CYBLE_STATE_CONNECTED)
  57              		.loc 1 398 0
  58 0022 022B     		cmp	r3, #2
ARM GAS  C:\Users\Petro\AppData\Local\Temp\ccvLNIXl.s 			page 9


  59 0024 06D1     		bne	.L4
 399:.\main.c      ****         {
 400:.\main.c      ****             if(readingDynChar != 0u)
  60              		.loc 1 400 0
  61 0026 094B     		ldr	r3, .L5+4
  62 0028 5B78     		ldrb	r3, [r3, #1]
  63 002a 002B     		cmp	r3, #0
  64 002c 02D0     		beq	.L4
 401:.\main.c      ****             {
 402:.\main.c      ****                 /* Send Read request for PRU Dynamic Parameter characteristic */
 403:.\main.c      ****                 customCommand = '5';
  65              		.loc 1 403 0
  66 002e 3522     		mov	r2, #53
  67 0030 064B     		ldr	r3, .L5+4
  68 0032 9A70     		strb	r2, [r3, #2]
  69              	.L4:
 404:.\main.c      ****             }
 405:.\main.c      ****         }
 406:.\main.c      ****         else
 407:.\main.c      ****         {
 408:.\main.c      ****             /* nothing else */
 409:.\main.c      ****         }
 410:.\main.c      ****         
 411:.\main.c      ****         /* Indicate that timer is raised to the main loop */
 412:.\main.c      ****         mainTimer++;
  70              		.loc 1 412 0
  71 0034 054A     		ldr	r2, .L5+4
  72 0036 5368     		ldr	r3, [r2, #4]
  73 0038 0133     		add	r3, r3, #1
  74 003a 5360     		str	r3, [r2, #4]
 413:.\main.c      ****         
 414:.\main.c      ****         /* Clears interrupt request  */
 415:.\main.c      ****         CySysWdtClearInterrupt(WDT_INTERRUPT_SOURCE);
  75              		.loc 1 415 0
  76 003c 8020     		mov	r0, #128
  77 003e C000     		lsl	r0, r0, #3
  78 0040 FFF7FEFF 		bl	CySysWdtClearInterrupt
  79              	.LVL2:
  80              	.L1:
  81              	.LBE2:
 416:.\main.c      ****     }
 417:.\main.c      **** }
  82              		.loc 1 417 0
  83              		@ sp needed
  84 0044 08BD     		pop	{r3, pc}
  85              	.L6:
  86 0046 C046     		.align	2
  87              	.L5:
  88 0048 00000000 		.word	cyBle_state
  89 004c 00000000 		.word	.LANCHOR0
  90              		.cfi_endproc
  91              	.LFE38:
  92              		.size	Timer_Interrupt, .-Timer_Interrupt
  93              		.section	.text.LowPowerImplementation,"ax",%progbits
  94              		.align	2
  95              		.code	16
  96              		.thumb_func
ARM GAS  C:\Users\Petro\AppData\Local\Temp\ccvLNIXl.s 			page 10


  97              		.type	LowPowerImplementation, %function
  98              	LowPowerImplementation:
  99              	.LFB42:
 418:.\main.c      **** 
 419:.\main.c      **** void UpdateLedState(void)
 420:.\main.c      **** {
 421:.\main.c      ****    
 422:.\main.c      ****     if(CyBle_GetState() == CYBLE_STATE_DISCONNECTED)
 423:.\main.c      ****     {   
 424:.\main.c      ****         Scanning_LED_Write(LED_OFF);
 425:.\main.c      ****     }
 426:.\main.c      ****     else if(CyBle_GetState() == CYBLE_STATE_CONNECTED)
 427:.\main.c      ****     {
 428:.\main.c      ****         Scanning_LED_Write(LED_ON);
 429:.\main.c      ****     }
 430:.\main.c      ****     else
 431:.\main.c      ****     {
 432:.\main.c      ****         /* Scanning LED is handled in Timer_Interrupt */
 433:.\main.c      ****     }
 434:.\main.c      **** }
 435:.\main.c      **** 
 436:.\main.c      **** /*******************************************************************************
 437:.\main.c      **** * Function Name: WDT_Start
 438:.\main.c      **** ********************************************************************************
 439:.\main.c      **** *
 440:.\main.c      **** * Summary:
 441:.\main.c      **** *  Configures WDT to trigger an interrupt every second.
 442:.\main.c      **** *
 443:.\main.c      **** *******************************************************************************/
 444:.\main.c      **** 
 445:.\main.c      **** void WDT_Start(void)
 446:.\main.c      **** {
 447:.\main.c      ****     /* Unlock the WDT registers for modification */
 448:.\main.c      ****     CySysWdtUnlock(); 
 449:.\main.c      ****     /* Setup ISR */
 450:.\main.c      ****     WDT_Interrupt_StartEx(&Timer_Interrupt);
 451:.\main.c      ****     /* Write the mode to generate interrupt on match */
 452:.\main.c      ****     CySysWdtWriteMode(WDT_COUNTER, CY_SYS_WDT_MODE_INT);
 453:.\main.c      ****     /* Configure the WDT counter clear on a match setting */
 454:.\main.c      ****     CySysWdtWriteClearOnMatch(WDT_COUNTER, WDT_COUNTER_ENABLE);
 455:.\main.c      ****     /* Configure the WDT counter match comparison value */
 456:.\main.c      ****     CySysWdtWriteMatch(WDT_COUNTER, WDT_1SEC);
 457:.\main.c      ****     /* Reset WDT counter */
 458:.\main.c      ****     CySysWdtResetCounters(WDT_COUNTER);
 459:.\main.c      ****     /* Enable the specified WDT counter */
 460:.\main.c      ****     CySysWdtEnable(WDT_COUNTER_MASK);
 461:.\main.c      ****     /* Lock out configuration changes to the Watchdog timer registers */
 462:.\main.c      ****     CySysWdtLock();    
 463:.\main.c      **** }
 464:.\main.c      **** 
 465:.\main.c      **** 
 466:.\main.c      **** /*******************************************************************************
 467:.\main.c      **** * Function Name: WDT_Stop
 468:.\main.c      **** ********************************************************************************
 469:.\main.c      **** *
 470:.\main.c      **** * Summary:
 471:.\main.c      **** *  This API stops the WDT timer.
ARM GAS  C:\Users\Petro\AppData\Local\Temp\ccvLNIXl.s 			page 11


 472:.\main.c      **** *
 473:.\main.c      **** *******************************************************************************/
 474:.\main.c      **** void WDT_Stop(void)
 475:.\main.c      **** {
 476:.\main.c      ****     /* Unlock the WDT registers for modification */
 477:.\main.c      ****     CySysWdtUnlock(); 
 478:.\main.c      ****     /* Disable the specified WDT counter */
 479:.\main.c      ****     CySysWdtDisable(WDT_COUNTER_MASK);
 480:.\main.c      ****     /* Locks out configuration changes to the Watchdog timer registers */
 481:.\main.c      ****     CySysWdtLock();    
 482:.\main.c      **** }
 483:.\main.c      **** 
 484:.\main.c      **** 
 485:.\main.c      **** /*******************************************************************************
 486:.\main.c      **** * Function Name: LowPowerImplementation()
 487:.\main.c      **** ********************************************************************************
 488:.\main.c      **** * Summary:
 489:.\main.c      **** * Implements low power in the project.
 490:.\main.c      **** *
 491:.\main.c      **** * Parameters:
 492:.\main.c      **** * None
 493:.\main.c      **** *
 494:.\main.c      **** * Return:
 495:.\main.c      **** * None
 496:.\main.c      **** *
 497:.\main.c      **** * Theory:
 498:.\main.c      **** * The function tries to enter deep sleep as much as possible - whenever the 
 499:.\main.c      **** * BLE is idle and the UART transmission/reception is not happening. At all other
 500:.\main.c      **** * times, the function tries to enter CPU sleep.
 501:.\main.c      **** *
 502:.\main.c      **** *******************************************************************************/
 503:.\main.c      **** static void LowPowerImplementation(void)
 504:.\main.c      **** {
 100              		.loc 1 504 0
 101              		.cfi_startproc
 102 0000 38B5     		push	{r3, r4, r5, lr}
 103              		.cfi_def_cfa_offset 16
 104              		.cfi_offset 3, -16
 105              		.cfi_offset 4, -12
 106              		.cfi_offset 5, -8
 107              		.cfi_offset 14, -4
 505:.\main.c      ****     CYBLE_LP_MODE_T bleMode;
 506:.\main.c      ****     uint8 interruptStatus;
 507:.\main.c      ****     
 508:.\main.c      ****     /* For advertising and connected states, implement deep sleep 
 509:.\main.c      ****      * functionality to achieve low power in the system. For more details
 510:.\main.c      ****      * on the low power implementation, refer to the Low Power Application 
 511:.\main.c      ****      * Note.
 512:.\main.c      ****      */
 513:.\main.c      ****     if((CyBle_GetState() == CYBLE_STATE_SCANNING) || 
 108              		.loc 1 513 0
 109 0002 114B     		ldr	r3, .L12
 110 0004 1B78     		ldrb	r3, [r3]
 111 0006 023B     		sub	r3, r3, #2
 112 0008 012B     		cmp	r3, #1
 113 000a 1CD8     		bhi	.L7
 514:.\main.c      ****        (CyBle_GetState() == CYBLE_STATE_CONNECTED))
ARM GAS  C:\Users\Petro\AppData\Local\Temp\ccvLNIXl.s 			page 12


 515:.\main.c      ****     {
 516:.\main.c      ****         /* Request BLE subsystem to enter into Deep-Sleep mode between connection and advertising i
 517:.\main.c      ****         bleMode = CyBle_EnterLPM(CYBLE_BLESS_DEEPSLEEP);
 114              		.loc 1 517 0
 115 000c 0320     		mov	r0, #3
 116 000e FFF7FEFF 		bl	CyBle_EnterLPM
 117              	.LVL3:
 118 0012 051C     		mov	r5, r0
 119              	.LVL4:
 518:.\main.c      ****         /* Disable global interrupts */
 519:.\main.c      ****         interruptStatus = CyEnterCriticalSection();
 120              		.loc 1 519 0
 121 0014 FFF7FEFF 		bl	CyEnterCriticalSection
 122              	.LVL5:
 123 0018 041C     		mov	r4, r0
 124              	.LVL6:
 520:.\main.c      ****         /* When BLE subsystem has been put into Deep-Sleep mode */
 521:.\main.c      ****         if(bleMode == CYBLE_BLESS_DEEPSLEEP)
 125              		.loc 1 521 0
 126 001a 032D     		cmp	r5, #3
 127 001c 0AD1     		bne	.L9
 522:.\main.c      ****         {
 523:.\main.c      ****             /* And it is still there or ECO is on */
 524:.\main.c      ****             if((CyBle_GetBleSsState() == CYBLE_BLESS_STATE_ECO_ON) || 
 128              		.loc 1 524 0
 129 001e FFF7FEFF 		bl	CyBle_GetBleSsState
 130              	.LVL7:
 131 0022 0428     		cmp	r0, #4
 132 0024 03D0     		beq	.L10
 525:.\main.c      ****                (CyBle_GetBleSsState() == CYBLE_BLESS_STATE_DEEPSLEEP))
 133              		.loc 1 525 0 discriminator 1
 134 0026 FFF7FEFF 		bl	CyBle_GetBleSsState
 135              	.LVL8:
 524:.\main.c      ****                (CyBle_GetBleSsState() == CYBLE_BLESS_STATE_DEEPSLEEP))
 136              		.loc 1 524 0 discriminator 1
 137 002a 0628     		cmp	r0, #6
 138 002c 08D1     		bne	.L11
 139              	.L10:
 526:.\main.c      ****             {
 527:.\main.c      ****                 /* Put the CPU into Sleep mode and let SCB to continue sending debug data and recei
 528:.\main.c      ****                 CySysPmSleep();
 140              		.loc 1 528 0
 141 002e FFF7FEFF 		bl	CySysPmSleep
 142              	.LVL9:
 143 0032 05E0     		b	.L11
 144              	.L9:
 529:.\main.c      ****             }
 530:.\main.c      ****         }
 531:.\main.c      ****         else /* When BLE subsystem has been put into Sleep mode or is active */
 532:.\main.c      ****         {
 533:.\main.c      ****             /* And hardware hasn't finished Tx/Rx operation - put the CPU into Sleep mode */
 534:.\main.c      ****             if(CyBle_GetBleSsState() != CYBLE_BLESS_STATE_EVENT_CLOSE)
 145              		.loc 1 534 0
 146 0034 FFF7FEFF 		bl	CyBle_GetBleSsState
 147              	.LVL10:
 148 0038 0228     		cmp	r0, #2
 149 003a 01D0     		beq	.L11
ARM GAS  C:\Users\Petro\AppData\Local\Temp\ccvLNIXl.s 			page 13


 535:.\main.c      ****             {
 536:.\main.c      ****                 CySysPmSleep();
 150              		.loc 1 536 0
 151 003c FFF7FEFF 		bl	CySysPmSleep
 152              	.LVL11:
 153              	.L11:
 537:.\main.c      ****             }
 538:.\main.c      ****         }
 539:.\main.c      ****         /* Enable global interrupt */
 540:.\main.c      ****         CyExitCriticalSection(interruptStatus);
 154              		.loc 1 540 0
 155 0040 201C     		mov	r0, r4
 156 0042 FFF7FEFF 		bl	CyExitCriticalSection
 157              	.LVL12:
 158              	.L7:
 541:.\main.c      ****     }
 542:.\main.c      **** }
 159              		.loc 1 542 0
 160              		@ sp needed
 161 0046 38BD     		pop	{r3, r4, r5, pc}
 162              	.L13:
 163              		.align	2
 164              	.L12:
 165 0048 00000000 		.word	cyBle_state
 166              		.cfi_endproc
 167              	.LFE42:
 168              		.size	LowPowerImplementation, .-LowPowerImplementation
 169              		.section	.text.UpdateLedState,"ax",%progbits
 170              		.align	2
 171              		.global	UpdateLedState
 172              		.code	16
 173              		.thumb_func
 174              		.type	UpdateLedState, %function
 175              	UpdateLedState:
 176              	.LFB39:
 420:.\main.c      ****    
 177              		.loc 1 420 0
 178              		.cfi_startproc
 179 0000 08B5     		push	{r3, lr}
 180              		.cfi_def_cfa_offset 8
 181              		.cfi_offset 3, -8
 182              		.cfi_offset 14, -4
 422:.\main.c      ****     {   
 183              		.loc 1 422 0
 184 0002 074B     		ldr	r3, .L17
 185 0004 1B78     		ldrb	r3, [r3]
 186 0006 052B     		cmp	r3, #5
 187 0008 03D1     		bne	.L15
 424:.\main.c      ****     }
 188              		.loc 1 424 0
 189 000a 0020     		mov	r0, #0
 190 000c FFF7FEFF 		bl	Scanning_LED_Write
 191              	.LVL13:
 192 0010 04E0     		b	.L14
 193              	.L15:
 426:.\main.c      ****     {
 194              		.loc 1 426 0
ARM GAS  C:\Users\Petro\AppData\Local\Temp\ccvLNIXl.s 			page 14


 195 0012 022B     		cmp	r3, #2
 196 0014 02D1     		bne	.L14
 428:.\main.c      ****     }
 197              		.loc 1 428 0
 198 0016 0120     		mov	r0, #1
 199 0018 FFF7FEFF 		bl	Scanning_LED_Write
 200              	.LVL14:
 201              	.L14:
 434:.\main.c      **** 
 202              		.loc 1 434 0
 203              		@ sp needed
 204 001c 08BD     		pop	{r3, pc}
 205              	.L18:
 206 001e C046     		.align	2
 207              	.L17:
 208 0020 00000000 		.word	cyBle_state
 209              		.cfi_endproc
 210              	.LFE39:
 211              		.size	UpdateLedState, .-UpdateLedState
 212              		.section	.text.AppCallback,"ax",%progbits
 213              		.align	2
 214              		.global	AppCallback
 215              		.code	16
 216              		.thumb_func
 217              		.type	AppCallback, %function
 218              	AppCallback:
 219              	.LFB37:
  61:.\main.c      ****     CYBLE_API_RESULT_T apiResult;
 220              		.loc 1 61 0
 221              		.cfi_startproc
 222              	.LVL15:
 223 0000 F0B5     		push	{r4, r5, r6, r7, lr}
 224              		.cfi_def_cfa_offset 20
 225              		.cfi_offset 4, -20
 226              		.cfi_offset 5, -16
 227              		.cfi_offset 6, -12
 228              		.cfi_offset 7, -8
 229              		.cfi_offset 14, -4
 230 0002 4F46     		mov	r7, r9
 231 0004 80B4     		push	{r7}
 232              		.cfi_def_cfa_offset 24
 233              		.cfi_offset 9, -24
 234 0006 86B0     		sub	sp, sp, #24
 235              		.cfi_def_cfa_offset 48
 236 0008 021C     		mov	r2, r0
 237 000a 0C1C     		mov	r4, r1
 238              	.LVL16:
  72:.\main.c      **** 	{
 239              		.loc 1 72 0
 240 000c 1223     		mov	r3, #18
 241 000e FF33     		add	r3, r3, #255
 242 0010 9842     		cmp	r0, r3
 243 0012 00D9     		bls	.LCB197
 244 0014 8CE2     		b	.L20	@long jump
 245              	.LCB197:
 246 0016 8300     		lsl	r3, r0, #2
 247 0018 CF49     		ldr	r1, .L90
ARM GAS  C:\Users\Petro\AppData\Local\Temp\ccvLNIXl.s 			page 15


 248              	.LVL17:
 249 001a CB58     		ldr	r3, [r1, r3]
 250 001c 9F46     		mov	pc, r3
 251              		.section	.rodata
 252              		.align	2
 253              	.L22:
 254 0000 30050000 		.word	.L20
 255 0004 1E000000 		.word	.L21
 256 0008 38000000 		.word	.L23
 257 000c 42000000 		.word	.L24
 258 0010 4C000000 		.word	.L25
 259 0014 56000000 		.word	.L26
 260 0018 30050000 		.word	.L20
 261 001c 30050000 		.word	.L20
 262 0020 30050000 		.word	.L20
 263 0024 30050000 		.word	.L20
 264 0028 30050000 		.word	.L20
 265 002c 30050000 		.word	.L20
 266 0030 30050000 		.word	.L20
 267 0034 30050000 		.word	.L20
 268 0038 30050000 		.word	.L20
 269 003c 30050000 		.word	.L20
 270 0040 30050000 		.word	.L20
 271 0044 30050000 		.word	.L20
 272 0048 30050000 		.word	.L20
 273 004c 30050000 		.word	.L20
 274 0050 30050000 		.word	.L20
 275 0054 30050000 		.word	.L20
 276 0058 30050000 		.word	.L20
 277 005c 30050000 		.word	.L20
 278 0060 30050000 		.word	.L20
 279 0064 30050000 		.word	.L20
 280 0068 30050000 		.word	.L20
 281 006c 30050000 		.word	.L20
 282 0070 30050000 		.word	.L20
 283 0074 30050000 		.word	.L20
 284 0078 30050000 		.word	.L20
 285 007c 30050000 		.word	.L20
 286 0080 64000000 		.word	.L27
 287 0084 30050000 		.word	.L20
 288 0088 30050000 		.word	.L20
 289 008c 30050000 		.word	.L20
 290 0090 B0010000 		.word	.L28
 291 0094 C2010000 		.word	.L29
 292 0098 30050000 		.word	.L20
 293 009c CC010000 		.word	.L30
 294 00a0 68020000 		.word	.L31
 295 00a4 8C020000 		.word	.L32
 296 00a8 96020000 		.word	.L33
 297 00ac 36010000 		.word	.L34
 298 00b0 BC020000 		.word	.L35
 299 00b4 30050000 		.word	.L20
 300 00b8 30050000 		.word	.L20
 301 00bc 30050000 		.word	.L20
 302 00c0 30050000 		.word	.L20
 303 00c4 30050000 		.word	.L20
 304 00c8 30050000 		.word	.L20
ARM GAS  C:\Users\Petro\AppData\Local\Temp\ccvLNIXl.s 			page 16


 305 00cc 30050000 		.word	.L20
 306 00d0 30050000 		.word	.L20
 307 00d4 30050000 		.word	.L20
 308 00d8 30050000 		.word	.L20
 309 00dc 30050000 		.word	.L20
 310 00e0 30050000 		.word	.L20
 311 00e4 30050000 		.word	.L20
 312 00e8 30050000 		.word	.L20
 313 00ec 30050000 		.word	.L20
 314 00f0 30050000 		.word	.L20
 315 00f4 30050000 		.word	.L20
 316 00f8 30050000 		.word	.L20
 317 00fc 30050000 		.word	.L20
 318 0100 C4020000 		.word	.L36
 319 0104 D2020000 		.word	.L37
 320 0108 DE020000 		.word	.L38
 321 010c 30050000 		.word	.L20
 322 0110 44030000 		.word	.L39
 323 0114 4C030000 		.word	.L40
 324 0118 30040000 		.word	.L41
 325 011c 56040000 		.word	.L42
 326 0120 AA040000 		.word	.L43
 327 0124 1C030000 		.word	.L44
 328 0128 2C030000 		.word	.L45
 329 012c 30050000 		.word	.L20
 330 0130 30050000 		.word	.L20
 331 0134 3C030000 		.word	.L46
 332 0138 30050000 		.word	.L20
 333 013c 30050000 		.word	.L20
 334 0140 30050000 		.word	.L20
 335 0144 30050000 		.word	.L20
 336 0148 E6020000 		.word	.L47
 337 014c F8020000 		.word	.L48
 338 0150 30050000 		.word	.L20
 339 0154 30050000 		.word	.L20
 340 0158 30050000 		.word	.L20
 341 015c 30050000 		.word	.L20
 342 0160 30050000 		.word	.L20
 343 0164 30050000 		.word	.L20
 344 0168 30050000 		.word	.L20
 345 016c 30050000 		.word	.L20
 346 0170 30050000 		.word	.L20
 347 0174 30050000 		.word	.L20
 348 0178 30050000 		.word	.L20
 349 017c 30050000 		.word	.L20
 350 0180 30050000 		.word	.L20
 351 0184 30050000 		.word	.L20
 352 0188 30050000 		.word	.L20
 353 018c 30050000 		.word	.L20
 354 0190 30050000 		.word	.L20
 355 0194 30050000 		.word	.L20
 356 0198 30050000 		.word	.L20
 357 019c 30050000 		.word	.L20
 358 01a0 30050000 		.word	.L20
 359 01a4 30050000 		.word	.L20
 360 01a8 30050000 		.word	.L20
 361 01ac 30050000 		.word	.L20
ARM GAS  C:\Users\Petro\AppData\Local\Temp\ccvLNIXl.s 			page 17


 362 01b0 30050000 		.word	.L20
 363 01b4 30050000 		.word	.L20
 364 01b8 30050000 		.word	.L20
 365 01bc 30050000 		.word	.L20
 366 01c0 30050000 		.word	.L20
 367 01c4 30050000 		.word	.L20
 368 01c8 30050000 		.word	.L20
 369 01cc 30050000 		.word	.L20
 370 01d0 30050000 		.word	.L20
 371 01d4 30050000 		.word	.L20
 372 01d8 30050000 		.word	.L20
 373 01dc 30050000 		.word	.L20
 374 01e0 30050000 		.word	.L20
 375 01e4 30050000 		.word	.L20
 376 01e8 30050000 		.word	.L20
 377 01ec 30050000 		.word	.L20
 378 01f0 30050000 		.word	.L20
 379 01f4 30050000 		.word	.L20
 380 01f8 30050000 		.word	.L20
 381 01fc 30050000 		.word	.L20
 382 0200 30050000 		.word	.L20
 383 0204 30050000 		.word	.L20
 384 0208 30050000 		.word	.L20
 385 020c 30050000 		.word	.L20
 386 0210 30050000 		.word	.L20
 387 0214 30050000 		.word	.L20
 388 0218 30050000 		.word	.L20
 389 021c 30050000 		.word	.L20
 390 0220 30050000 		.word	.L20
 391 0224 30050000 		.word	.L20
 392 0228 30050000 		.word	.L20
 393 022c 30050000 		.word	.L20
 394 0230 30050000 		.word	.L20
 395 0234 30050000 		.word	.L20
 396 0238 30050000 		.word	.L20
 397 023c 30050000 		.word	.L20
 398 0240 30050000 		.word	.L20
 399 0244 30050000 		.word	.L20
 400 0248 30050000 		.word	.L20
 401 024c 30050000 		.word	.L20
 402 0250 30050000 		.word	.L20
 403 0254 30050000 		.word	.L20
 404 0258 30050000 		.word	.L20
 405 025c 30050000 		.word	.L20
 406 0260 30050000 		.word	.L20
 407 0264 30050000 		.word	.L20
 408 0268 30050000 		.word	.L20
 409 026c 30050000 		.word	.L20
 410 0270 30050000 		.word	.L20
 411 0274 30050000 		.word	.L20
 412 0278 30050000 		.word	.L20
 413 027c 30050000 		.word	.L20
 414 0280 30050000 		.word	.L20
 415 0284 30050000 		.word	.L20
 416 0288 30050000 		.word	.L20
 417 028c 30050000 		.word	.L20
 418 0290 30050000 		.word	.L20
ARM GAS  C:\Users\Petro\AppData\Local\Temp\ccvLNIXl.s 			page 18


 419 0294 30050000 		.word	.L20
 420 0298 30050000 		.word	.L20
 421 029c 30050000 		.word	.L20
 422 02a0 30050000 		.word	.L20
 423 02a4 30050000 		.word	.L20
 424 02a8 30050000 		.word	.L20
 425 02ac 30050000 		.word	.L20
 426 02b0 30050000 		.word	.L20
 427 02b4 30050000 		.word	.L20
 428 02b8 30050000 		.word	.L20
 429 02bc 30050000 		.word	.L20
 430 02c0 30050000 		.word	.L20
 431 02c4 30050000 		.word	.L20
 432 02c8 30050000 		.word	.L20
 433 02cc 30050000 		.word	.L20
 434 02d0 30050000 		.word	.L20
 435 02d4 30050000 		.word	.L20
 436 02d8 30050000 		.word	.L20
 437 02dc 30050000 		.word	.L20
 438 02e0 30050000 		.word	.L20
 439 02e4 30050000 		.word	.L20
 440 02e8 30050000 		.word	.L20
 441 02ec 30050000 		.word	.L20
 442 02f0 30050000 		.word	.L20
 443 02f4 30050000 		.word	.L20
 444 02f8 30050000 		.word	.L20
 445 02fc 30050000 		.word	.L20
 446 0300 30050000 		.word	.L20
 447 0304 30050000 		.word	.L20
 448 0308 30050000 		.word	.L20
 449 030c 30050000 		.word	.L20
 450 0310 30050000 		.word	.L20
 451 0314 30050000 		.word	.L20
 452 0318 30050000 		.word	.L20
 453 031c 30050000 		.word	.L20
 454 0320 30050000 		.word	.L20
 455 0324 30050000 		.word	.L20
 456 0328 30050000 		.word	.L20
 457 032c 30050000 		.word	.L20
 458 0330 30050000 		.word	.L20
 459 0334 30050000 		.word	.L20
 460 0338 30050000 		.word	.L20
 461 033c 30050000 		.word	.L20
 462 0340 30050000 		.word	.L20
 463 0344 30050000 		.word	.L20
 464 0348 30050000 		.word	.L20
 465 034c 30050000 		.word	.L20
 466 0350 30050000 		.word	.L20
 467 0354 30050000 		.word	.L20
 468 0358 30050000 		.word	.L20
 469 035c 30050000 		.word	.L20
 470 0360 30050000 		.word	.L20
 471 0364 30050000 		.word	.L20
 472 0368 30050000 		.word	.L20
 473 036c 30050000 		.word	.L20
 474 0370 30050000 		.word	.L20
 475 0374 30050000 		.word	.L20
ARM GAS  C:\Users\Petro\AppData\Local\Temp\ccvLNIXl.s 			page 19


 476 0378 30050000 		.word	.L20
 477 037c 30050000 		.word	.L20
 478 0380 30050000 		.word	.L20
 479 0384 30050000 		.word	.L20
 480 0388 30050000 		.word	.L20
 481 038c 30050000 		.word	.L20
 482 0390 30050000 		.word	.L20
 483 0394 30050000 		.word	.L20
 484 0398 30050000 		.word	.L20
 485 039c 30050000 		.word	.L20
 486 03a0 30050000 		.word	.L20
 487 03a4 30050000 		.word	.L20
 488 03a8 30050000 		.word	.L20
 489 03ac 30050000 		.word	.L20
 490 03b0 30050000 		.word	.L20
 491 03b4 30050000 		.word	.L20
 492 03b8 30050000 		.word	.L20
 493 03bc 30050000 		.word	.L20
 494 03c0 30050000 		.word	.L20
 495 03c4 30050000 		.word	.L20
 496 03c8 30050000 		.word	.L20
 497 03cc 30050000 		.word	.L20
 498 03d0 30050000 		.word	.L20
 499 03d4 30050000 		.word	.L20
 500 03d8 30050000 		.word	.L20
 501 03dc 30050000 		.word	.L20
 502 03e0 30050000 		.word	.L20
 503 03e4 30050000 		.word	.L20
 504 03e8 28050000 		.word	.L49
 505 03ec 30050000 		.word	.L20
 506 03f0 30050000 		.word	.L20
 507 03f4 30050000 		.word	.L20
 508 03f8 30050000 		.word	.L20
 509 03fc 30050000 		.word	.L20
 510 0400 30050000 		.word	.L20
 511 0404 30050000 		.word	.L20
 512 0408 30050000 		.word	.L20
 513 040c 30050000 		.word	.L20
 514 0410 30050000 		.word	.L20
 515 0414 30050000 		.word	.L20
 516 0418 0A030000 		.word	.L50
 517 041c 30050000 		.word	.L20
 518 0420 30050000 		.word	.L20
 519 0424 30050000 		.word	.L20
 520 0428 30050000 		.word	.L20
 521 042c 30050000 		.word	.L20
 522 0430 30050000 		.word	.L20
 523 0434 30050000 		.word	.L20
 524 0438 30050000 		.word	.L20
 525 043c 30050000 		.word	.L20
 526 0440 30050000 		.word	.L20
 527 0444 B2040000 		.word	.L51
 528              		.section	.text.AppCallback
 529              	.L21:
  75:.\main.c      ****             apiResult = CyBle_GapcStartScan(CYBLE_SCANNING_FAST);                   /* Start Limite
 530              		.loc 1 75 0
 531 001e CF48     		ldr	r0, .L90+4
ARM GAS  C:\Users\Petro\AppData\Local\Temp\ccvLNIXl.s 			page 20


 532              	.LVL18:
 533 0020 FFF7FEFF 		bl	puts
 534              	.LVL19:
  76:.\main.c      ****             if(apiResult != CYBLE_ERROR_OK)
 535              		.loc 1 76 0
 536 0024 0020     		mov	r0, #0
 537 0026 FFF7FEFF 		bl	CyBle_GapcStartScan
 538              	.LVL20:
 539 002a 011E     		sub	r1, r0, #0
 540              	.LVL21:
  77:.\main.c      ****             {
 541              		.loc 1 77 0
 542 002c 00D1     		bne	.LCB222
 543 002e 83E2     		b	.L19	@long jump
 544              	.LCB222:
  79:.\main.c      ****             }
 545              		.loc 1 79 0
 546 0030 CB48     		ldr	r0, .L90+8
 547              	.LVL22:
 548 0032 FFF7FEFF 		bl	printf
 549              	.LVL23:
 550 0036 7FE2     		b	.L19
 551              	.LVL24:
 552              	.L23:
  83:.\main.c      **** 			break;
 553              		.loc 1 83 0
 554 0038 2178     		ldrb	r1, [r4]
 555 003a CA48     		ldr	r0, .L90+12
 556              	.LVL25:
 557 003c FFF7FEFF 		bl	printf
 558              	.LVL26:
  84:.\main.c      **** 		case CYBLE_EVT_HARDWARE_ERROR:    /* This event indicates that some internal HW error has occurre
 559              		.loc 1 84 0
 560 0040 7AE2     		b	.L19
 561              	.LVL27:
 562              	.L24:
  86:.\main.c      **** 			break;
 563              		.loc 1 86 0
 564 0042 2178     		ldrb	r1, [r4]
 565 0044 C848     		ldr	r0, .L90+16
 566              	.LVL28:
 567 0046 FFF7FEFF 		bl	printf
 568              	.LVL29:
  87:.\main.c      ****         case CYBLE_EVT_HCI_STATUS:
 569              		.loc 1 87 0
 570 004a 75E2     		b	.L19
 571              	.LVL30:
 572              	.L25:
  89:.\main.c      **** 			break;
 573              		.loc 1 89 0
 574 004c 2178     		ldrb	r1, [r4]
 575 004e C748     		ldr	r0, .L90+20
 576              	.LVL31:
 577 0050 FFF7FEFF 		bl	printf
 578              	.LVL32:
  90:.\main.c      ****     	case CYBLE_EVT_STACK_BUSY_STATUS:
 579              		.loc 1 90 0
ARM GAS  C:\Users\Petro\AppData\Local\Temp\ccvLNIXl.s 			page 21


 580 0054 70E2     		b	.L19
 581              	.LVL33:
 582              	.L26:
  92:.\main.c      ****             break;
 583              		.loc 1 92 0
 584 0056 C64B     		ldr	r3, .L90+24
 585 0058 1978     		ldrb	r1, [r3]
 586 005a C9B2     		uxtb	r1, r1
 587 005c C548     		ldr	r0, .L90+28
 588              	.LVL34:
 589 005e FFF7FEFF 		bl	printf
 590              	.LVL35:
  93:.\main.c      ****             
 591              		.loc 1 93 0
 592 0062 69E2     		b	.L19
 593              	.LVL36:
 594              	.L27:
 595              	.LBB3:
 104:.\main.c      ****                 {
 596              		.loc 1 104 0
 597 0064 201C     		mov	r0, r4
 598              	.LVL37:
 599 0066 05A9     		add	r1, sp, #20
 600 0068 FFF7FEFF 		bl	WptsScanProcessEventHandler
 601              	.LVL38:
 602 006c 0028     		cmp	r0, #0
 603 006e 00D1     		bne	.LCB291
 604 0070 62E2     		b	.L19	@long jump
 605              	.LCB291:
 106:.\main.c      ****                         advReport->eventType, advReport->peerAddrType);
 606              		.loc 1 106 0
 607 0072 2178     		ldrb	r1, [r4]
 608 0074 6278     		ldrb	r2, [r4, #1]
 609 0076 C048     		ldr	r0, .L90+32
 610 0078 FFF7FEFF 		bl	printf
 611              	.LVL39:
 108:.\main.c      ****                     for(newDevice = 1u, i = 0u; i < advDevices; i++)
 612              		.loc 1 108 0
 613 007c BF48     		ldr	r0, .L90+36
 614 007e FFF7FEFF 		bl	printf
 615              	.LVL40:
 109:.\main.c      ****                     {
 616              		.loc 1 109 0
 617 0082 0025     		mov	r5, #0
 618 0084 12E0     		b	.L54
 619              	.LVL41:
 620              	.L57:
 112:.\main.c      ****                         {
 621              		.loc 1 112 0
 622 0086 EB00     		lsl	r3, r5, #3
 623 0088 5B19     		add	r3, r3, r5
 624 008a 9B00     		lsl	r3, r3, #2
 625 008c BC48     		ldr	r0, .L90+40
 626 008e 1818     		add	r0, r3, r0
 627 0090 6168     		ldr	r1, [r4, #4]
 628 0092 0622     		mov	r2, #6
 629 0094 FFF7FEFF 		bl	memcmp
ARM GAS  C:\Users\Petro\AppData\Local\Temp\ccvLNIXl.s 			page 22


 630              	.LVL42:
 631 0098 0028     		cmp	r0, #0
 632 009a 05D1     		bne	.L55
 114:.\main.c      ****                             newDevice = 0u;
 633              		.loc 1 114 0
 634 009c B948     		ldr	r0, .L90+44
 635 009e 291C     		mov	r1, r5
 636 00a0 FFF7FEFF 		bl	printf
 637              	.LVL43:
 115:.\main.c      ****                             break;
 638              		.loc 1 115 0
 639 00a4 0023     		mov	r3, #0
 116:.\main.c      ****                         }
 640              		.loc 1 116 0
 641 00a6 06E0     		b	.L56
 642              	.LVL44:
 643              	.L55:
 109:.\main.c      ****                     {
 644              		.loc 1 109 0 discriminator 2
 645 00a8 0135     		add	r5, r5, #1
 646              	.LVL45:
 647 00aa ADB2     		uxth	r5, r5
 648              	.LVL46:
 649              	.L54:
 109:.\main.c      ****                     {
 650              		.loc 1 109 0 is_stmt 0 discriminator 1
 651 00ac B64B     		ldr	r3, .L90+48
 652 00ae 1B7A     		ldrb	r3, [r3, #8]
 653 00b0 AB42     		cmp	r3, r5
 654 00b2 E8D8     		bhi	.L57
 109:.\main.c      ****                     {
 655              		.loc 1 109 0
 656 00b4 0123     		mov	r3, #1
 657              	.LVL47:
 658              	.L56:
 119:.\main.c      ****                     {
 659              		.loc 1 119 0 is_stmt 1
 660 00b6 002B     		cmp	r3, #0
 661 00b8 1CD0     		beq	.L58
 121:.\main.c      ****                         {
 662              		.loc 1 121 0
 663 00ba B34B     		ldr	r3, .L90+48
 664              	.LVL48:
 665 00bc 1D7A     		ldrb	r5, [r3, #8]
 666              	.LVL49:
 667 00be 072D     		cmp	r5, #7
 668 00c0 18D8     		bhi	.L58
 123:.\main.c      ****                             peedDeviceInfo[advDevices].peerAddr.type = advReport->peerAddrType;
 669              		.loc 1 123 0
 670 00c2 EE00     		lsl	r6, r5, #3
 671 00c4 7319     		add	r3, r6, r5
 672 00c6 9B00     		lsl	r3, r3, #2
 673 00c8 AD4E     		ldr	r6, .L90+40
 674 00ca F618     		add	r6, r6, r3
 675 00cc 301C     		mov	r0, r6
 676 00ce 6168     		ldr	r1, [r4, #4]
 677 00d0 0622     		mov	r2, #6
ARM GAS  C:\Users\Petro\AppData\Local\Temp\ccvLNIXl.s 			page 23


 678 00d2 FFF7FEFF 		bl	memcpy
 679              	.LVL50:
 124:.\main.c      ****                             peedDeviceInfo[advDevices].peerAdvServData = serviceData;
 680              		.loc 1 124 0
 681 00d6 6378     		ldrb	r3, [r4, #1]
 682 00d8 B371     		strb	r3, [r6, #6]
 125:.\main.c      ****                             DBG_PRINTF("%x: ",advDevices);
 683              		.loc 1 125 0
 684 00da F01D     		add	r0, r6, #7
 685 00dc 05A9     		add	r1, sp, #20
 686 00de 0422     		mov	r2, #4
 687 00e0 FFF7FEFF 		bl	memcpy
 688              	.LVL51:
 126:.\main.c      ****                             advDevices++;
 689              		.loc 1 126 0
 690 00e4 A748     		ldr	r0, .L90+44
 691 00e6 291C     		mov	r1, r5
 692 00e8 FFF7FEFF 		bl	printf
 693              	.LVL52:
 127:.\main.c      ****                         }
 694              		.loc 1 127 0
 695 00ec A64A     		ldr	r2, .L90+48
 696 00ee 137A     		ldrb	r3, [r2, #8]
 697 00f0 0133     		add	r3, r3, #1
 698 00f2 1372     		strb	r3, [r2, #8]
 699              	.L58:
 109:.\main.c      ****                     {
 700              		.loc 1 109 0 discriminator 1
 701 00f4 0625     		mov	r5, #6
 702 00f6 08E0     		b	.L59
 703              	.LVL53:
 704              	.L60:
 132:.\main.c      ****                     }
 705              		.loc 1 132 0 discriminator 3
 706 00f8 6368     		ldr	r3, [r4, #4]
 707 00fa 5B19     		add	r3, r3, r5
 708 00fc 013B     		sub	r3, r3, #1
 709 00fe 1978     		ldrb	r1, [r3]
 710 0100 A248     		ldr	r0, .L90+52
 711 0102 FFF7FEFF 		bl	printf
 712              	.LVL54:
 130:.\main.c      ****                     {
 713              		.loc 1 130 0 discriminator 3
 714 0106 013D     		sub	r5, r5, #1
 715              	.LVL55:
 716 0108 ADB2     		uxth	r5, r5
 717              	.LVL56:
 718              	.L59:
 130:.\main.c      ****                     {
 719              		.loc 1 130 0 is_stmt 0 discriminator 1
 720 010a 002D     		cmp	r5, #0
 721 010c F4D1     		bne	.L60
 134:.\main.c      ****                     for( i = 0; i < advReport->dataLen; i++)
 722              		.loc 1 134 0 is_stmt 1
 723 010e 1021     		mov	r1, #16
 724 0110 6156     		ldrsb	r1, [r4, r1]
 725 0112 9F48     		ldr	r0, .L90+56
ARM GAS  C:\Users\Petro\AppData\Local\Temp\ccvLNIXl.s 			page 24


 726 0114 FFF7FEFF 		bl	printf
 727              	.LVL57:
 135:.\main.c      ****                     {
 728              		.loc 1 135 0
 729 0118 06E0     		b	.L61
 730              	.LVL58:
 731              	.L62:
 137:.\main.c      ****                     }
 732              		.loc 1 137 0 discriminator 3
 733 011a E368     		ldr	r3, [r4, #12]
 734 011c 595D     		ldrb	r1, [r3, r5]
 735 011e 9D48     		ldr	r0, .L90+60
 736 0120 FFF7FEFF 		bl	printf
 737              	.LVL59:
 135:.\main.c      ****                     {
 738              		.loc 1 135 0 discriminator 3
 739 0124 0135     		add	r5, r5, #1
 740              	.LVL60:
 741 0126 ADB2     		uxth	r5, r5
 742              	.LVL61:
 743              	.L61:
 135:.\main.c      ****                     {
 744              		.loc 1 135 0 is_stmt 0 discriminator 1
 745 0128 237A     		ldrb	r3, [r4, #8]
 746 012a AB42     		cmp	r3, r5
 747 012c F5D8     		bhi	.L62
 139:.\main.c      ****                 }
 748              		.loc 1 139 0 is_stmt 1
 749 012e 9A48     		ldr	r0, .L90+64
 750 0130 FFF7FEFF 		bl	puts
 751              	.LVL62:
 752              	.LBE3:
 142:.\main.c      **** 	    case CYBLE_EVT_GAPC_SCAN_START_STOP:
 753              		.loc 1 142 0
 754 0134 00E2     		b	.L19
 755              	.LVL63:
 756              	.L34:
 144:.\main.c      ****             if(CyBle_GetState() == CYBLE_STATE_DISCONNECTED)
 757              		.loc 1 144 0
 758 0136 994C     		ldr	r4, .L90+68
 759              	.LVL64:
 760 0138 2178     		ldrb	r1, [r4]
 761 013a 9948     		ldr	r0, .L90+72
 762              	.LVL65:
 763 013c FFF7FEFF 		bl	printf
 764              	.LVL66:
 145:.\main.c      ****             {
 765              		.loc 1 145 0
 766 0140 2378     		ldrb	r3, [r4]
 767 0142 052B     		cmp	r3, #5
 768 0144 00D0     		beq	.LCB477
 769 0146 F7E1     		b	.L19	@long jump
 770              	.LCB477:
 147:.\main.c      ****                 {
 771              		.loc 1 147 0
 772 0148 8F4B     		ldr	r3, .L90+48
 773 014a 5B7A     		ldrb	r3, [r3, #9]
ARM GAS  C:\Users\Petro\AppData\Local\Temp\ccvLNIXl.s 			page 25


 774 014c 012B     		cmp	r3, #1
 775 014e 15D1     		bne	.L63
 149:.\main.c      ****                     /* Connect to selected device */
 776              		.loc 1 149 0
 777 0150 9448     		ldr	r0, .L90+76
 778 0152 FFF7FEFF 		bl	puts
 779              	.LVL67:
 151:.\main.c      ****                     apiResult = CyBle_GapcConnectDevice(&peedDeviceInfo[deviceN].peerAddr);
 780              		.loc 1 151 0
 781 0156 0522     		mov	r2, #5
 782 0158 934B     		ldr	r3, .L90+80
 783 015a 1A80     		strh	r2, [r3]
 152:.\main.c      ****                     if(apiResult != CYBLE_ERROR_OK)
 784              		.loc 1 152 0
 785 015c 8A4B     		ldr	r3, .L90+48
 786 015e 9B7A     		ldrb	r3, [r3, #10]
 787 0160 D800     		lsl	r0, r3, #3
 788 0162 C318     		add	r3, r0, r3
 789 0164 9B00     		lsl	r3, r3, #2
 790 0166 8648     		ldr	r0, .L90+40
 791 0168 1818     		add	r0, r3, r0
 792 016a FFF7FEFF 		bl	CyBle_GapcConnectDevice
 793              	.LVL68:
 794 016e 011E     		sub	r1, r0, #0
 795              	.LVL69:
 153:.\main.c      ****                     {
 796              		.loc 1 153 0
 797 0170 00D1     		bne	.LCB502
 798 0172 E1E1     		b	.L19	@long jump
 799              	.LCB502:
 155:.\main.c      ****                     }
 800              		.loc 1 155 0
 801 0174 8D48     		ldr	r0, .L90+84
 802              	.LVL70:
 803 0176 FFF7FEFF 		bl	printf
 804              	.LVL71:
 805 017a DDE1     		b	.L19
 806              	.L63:
 163:.\main.c      ****                     UpdateLedState();
 807              		.loc 1 163 0
 808 017c 8C48     		ldr	r0, .L90+88
 809 017e FFF7FEFF 		bl	puts
 810              	.LVL72:
 164:.\main.c      ****                 #if (DEBUG_UART_ENABLED == ENABLED)
 811              		.loc 1 164 0
 812 0182 FFF7FEFF 		bl	UpdateLedState
 813              	.LVL73:
 814              	.L65:
 166:.\main.c      ****                 #endif /* (DEBUG_UART_ENABLED == ENABLED) */
 815              		.loc 1 166 0 discriminator 5
 816 0186 FFF7FEFF 		bl	UART_DEB_SpiUartGetTxBufferSize
 817              	.LVL74:
 818 018a 8A4B     		ldr	r3, .L90+92
 819 018c 1B68     		ldr	r3, [r3]
 820 018e 8022     		mov	r2, #128
 821 0190 1202     		lsl	r2, r2, #8
 822 0192 1340     		and	r3, r2
ARM GAS  C:\Users\Petro\AppData\Local\Temp\ccvLNIXl.s 			page 26


 823 0194 00D0     		beq	.L64
 166:.\main.c      ****                 #endif /* (DEBUG_UART_ENABLED == ENABLED) */
 824              		.loc 1 166 0 is_stmt 0
 825 0196 0123     		mov	r3, #1
 826              	.L64:
 166:.\main.c      ****                 #endif /* (DEBUG_UART_ENABLED == ENABLED) */
 827              		.loc 1 166 0 discriminator 4
 828 0198 C318     		add	r3, r0, r3
 829 019a 002B     		cmp	r3, #0
 830 019c F3D1     		bne	.L65
 168:.\main.c      ****                     Wakeup_Interrupt_ClearPending();
 831              		.loc 1 168 0 is_stmt 1
 832 019e FFF7FEFF 		bl	SW2_ClearInterrupt
 833              	.LVL75:
 169:.\main.c      ****                     Wakeup_Interrupt_Start();
 834              		.loc 1 169 0
 835 01a2 FFF7FEFF 		bl	Wakeup_Interrupt_ClearPending
 836              	.LVL76:
 170:.\main.c      ****                     CySysPmHibernate();
 837              		.loc 1 170 0
 838 01a6 FFF7FEFF 		bl	Wakeup_Interrupt_Start
 839              	.LVL77:
 171:.\main.c      ****                 }
 840              		.loc 1 171 0
 841 01aa FFF7FEFF 		bl	CySysPmHibernate
 842              	.LVL78:
 843 01ae C3E1     		b	.L19
 844              	.LVL79:
 845              	.L28:
 178:.\main.c      ****                                     authInfo->security, authInfo->bonding, authInfo->ekeySize, auth
 846              		.loc 1 178 0
 847 01b0 2178     		ldrb	r1, [r4]
 848 01b2 6278     		ldrb	r2, [r4, #1]
 849 01b4 A378     		ldrb	r3, [r4, #2]
 850 01b6 E078     		ldrb	r0, [r4, #3]
 851              	.LVL80:
 852 01b8 0090     		str	r0, [sp]
 853 01ba 7F48     		ldr	r0, .L90+96
 854 01bc FFF7FEFF 		bl	printf
 855              	.LVL81:
 180:.\main.c      ****         case CYBLE_EVT_GAP_AUTH_FAILED:
 856              		.loc 1 180 0
 857 01c0 BAE1     		b	.L19
 858              	.LVL82:
 859              	.L29:
 182:.\main.c      ****             break;
 860              		.loc 1 182 0
 861 01c2 2178     		ldrb	r1, [r4]
 862 01c4 7D48     		ldr	r0, .L90+100
 863              	.LVL83:
 864 01c6 FFF7FEFF 		bl	printf
 865              	.LVL84:
 183:.\main.c      ****         case CYBLE_EVT_GAP_DEVICE_CONNECTED:
 866              		.loc 1 183 0
 867 01ca B5E1     		b	.L19
 868              	.LVL85:
 869              	.L30:
ARM GAS  C:\Users\Petro\AppData\Local\Temp\ccvLNIXl.s 			page 27


 185:.\main.c      ****             DBG_PRINTF("CYBLE_EVT_GAP_DEVICE_CONNECTED: %x, %x(%d ms), %x, %x \r\n",   
 870              		.loc 1 185 0
 871 01cc 7C4D     		ldr	r5, .L90+104
 872 01ce 281C     		mov	r0, r5
 873              	.LVL86:
 874 01d0 211C     		mov	r1, r4
 875 01d2 0822     		mov	r2, #8
 876              	.LVL87:
 877 01d4 FFF7FEFF 		bl	memcpy
 878              	.LVL88:
 186:.\main.c      ****                 connParameters.status,
 879              		.loc 1 186 0
 880 01d8 2978     		ldrb	r1, [r5]
 881 01da 6A88     		ldrh	r2, [r5, #2]
 882 01dc 9300     		lsl	r3, r2, #2
 883 01de AC88     		ldrh	r4, [r5, #4]
 884              	.LVL89:
 885 01e0 E888     		ldrh	r0, [r5, #6]
 886 01e2 D318     		add	r3, r2, r3
 887 01e4 9B10     		asr	r3, r3, #2
 888 01e6 0094     		str	r4, [sp]
 889 01e8 0190     		str	r0, [sp, #4]
 890 01ea 7648     		ldr	r0, .L90+108
 891 01ec FFF7FEFF 		bl	printf
 892              	.LVL90:
 192:.\main.c      ****             UpdateLedState();
 893              		.loc 1 192 0
 894 01f0 654C     		ldr	r4, .L90+48
 895 01f2 0323     		mov	r3, #3
 896 01f4 6372     		strb	r3, [r4, #9]
 193:.\main.c      ****             
 897              		.loc 1 193 0
 898 01f6 FFF7FEFF 		bl	UpdateLedState
 899              	.LVL91:
 195:.\main.c      ****             {
 900              		.loc 1 195 0
 901 01fa A37A     		ldrb	r3, [r4, #10]
 902 01fc DA00     		lsl	r2, r3, #3
 903 01fe D318     		add	r3, r2, r3
 904 0200 9B00     		lsl	r3, r3, #2
 905 0202 5F4A     		ldr	r2, .L90+40
 906 0204 D318     		add	r3, r2, r3
 907 0206 DA79     		ldrb	r2, [r3, #7]
 908 0208 187A     		ldrb	r0, [r3, #8]
 909 020a 0002     		lsl	r0, r0, #8
 910 020c 1043     		orr	r0, r2
 911 020e 27D0     		beq	.L66
 198:.\main.c      ****                 
 912              		.loc 1 198 0
 913 0210 FFF7FEFF 		bl	CyBle_WptscDiscovery
 914              	.LVL92:
 200:.\main.c      ****                 for(i = 0u; i < CYBLE_WPTS_CHAR_COUNT; i++)
 915              		.loc 1 200 0
 916 0214 6C4B     		ldr	r3, .L90+112
 917 0216 1988     		ldrh	r1, [r3]
 918 0218 6C48     		ldr	r0, .L90+116
 919 021a FFF7FEFF 		bl	printf
ARM GAS  C:\Users\Petro\AppData\Local\Temp\ccvLNIXl.s 			page 28


 920              	.LVL93:
 201:.\main.c      ****                 {
 921              		.loc 1 201 0
 922 021e 0024     		mov	r4, #0
 923 0220 15E0     		b	.L67
 924              	.LVL94:
 925              	.L70:
 203:.\main.c      ****                                                           CyBle_WptscGetCharacteristicDescriptorHan
 926              		.loc 1 203 0
 927 0222 211E     		sub	r1, r4, #0
 928 0224 0429     		cmp	r1, #4
 929 0226 04D8     		bhi	.L85
 203:.\main.c      ****                                                           CyBle_WptscGetCharacteristicDescriptorHan
 930              		.loc 1 203 0 is_stmt 0 discriminator 1
 931 0228 E300     		lsl	r3, r4, #3
 932 022a 674A     		ldr	r2, .L90+112
 933 022c D318     		add	r3, r2, r3
 934 022e 9A88     		ldrh	r2, [r3, #4]
 935 0230 00E0     		b	.L68
 936              	.L85:
 203:.\main.c      ****                                                           CyBle_WptscGetCharacteristicDescriptorHan
 937              		.loc 1 203 0
 938 0232 0022     		mov	r2, #0
 939              	.L68:
 203:.\main.c      ****                                                           CyBle_WptscGetCharacteristicDescriptorHan
 940              		.loc 1 203 0 discriminator 4
 941 0234 042C     		cmp	r4, #4
 942 0236 04D8     		bhi	.L86
 203:.\main.c      ****                                                           CyBle_WptscGetCharacteristicDescriptorHan
 943              		.loc 1 203 0 discriminator 5
 944 0238 CB00     		lsl	r3, r1, #3
 945 023a 6348     		ldr	r0, .L90+112
 946 023c C318     		add	r3, r0, r3
 947 023e 5B88     		ldrh	r3, [r3, #2]
 948 0240 00E0     		b	.L69
 949              	.L86:
 203:.\main.c      ****                                                           CyBle_WptscGetCharacteristicDescriptorHan
 950              		.loc 1 203 0
 951 0242 0023     		mov	r3, #0
 952              	.L69:
 203:.\main.c      ****                                                           CyBle_WptscGetCharacteristicDescriptorHan
 953              		.loc 1 203 0 discriminator 8
 954 0244 6248     		ldr	r0, .L90+120
 955 0246 FFF7FEFF 		bl	printf
 956              	.LVL95:
 201:.\main.c      ****                 {
 957              		.loc 1 201 0 is_stmt 1 discriminator 8
 958 024a 0134     		add	r4, r4, #1
 959              	.LVL96:
 960 024c A4B2     		uxth	r4, r4
 961              	.LVL97:
 962              	.L67:
 201:.\main.c      ****                 {
 963              		.loc 1 201 0 is_stmt 0 discriminator 2
 964 024e 042C     		cmp	r4, #4
 965 0250 E7D9     		bls	.L70
 206:.\main.c      ****                 /* Initiate to read PRU Static Parameter characteristic value */
ARM GAS  C:\Users\Petro\AppData\Local\Temp\ccvLNIXl.s 			page 29


 966              		.loc 1 206 0 is_stmt 1
 967 0252 5148     		ldr	r0, .L90+64
 968 0254 FFF7FEFF 		bl	puts
 969              	.LVL98:
 208:.\main.c      ****             }
 970              		.loc 1 208 0
 971 0258 3422     		mov	r2, #52
 972 025a 4B4B     		ldr	r3, .L90+48
 973 025c 9A70     		strb	r2, [r3, #2]
 974 025e 6BE1     		b	.L19
 975              	.LVL99:
 976              	.L66:
 213:.\main.c      ****             }
 977              		.loc 1 213 0
 978 0260 7322     		mov	r2, #115
 979 0262 494B     		ldr	r3, .L90+48
 980 0264 9A70     		strb	r2, [r3, #2]
 981 0266 67E1     		b	.L19
 982              	.LVL100:
 983              	.L31:
 217:.\main.c      ****             apiResult = CyBle_GapcStartScan(CYBLE_SCANNING_FAST);                   /* Start Limite
 984              		.loc 1 217 0
 985 0268 5A48     		ldr	r0, .L90+124
 986              	.LVL101:
 987 026a FFF7FEFF 		bl	puts
 988              	.LVL102:
 218:.\main.c      ****             if(apiResult != CYBLE_ERROR_OK)
 989              		.loc 1 218 0
 990 026e 0020     		mov	r0, #0
 991 0270 FFF7FEFF 		bl	CyBle_GapcStartScan
 992              	.LVL103:
 993 0274 011E     		sub	r1, r0, #0
 994              	.LVL104:
 219:.\main.c      ****             {
 995              		.loc 1 219 0
 996 0276 02D0     		beq	.L71
 221:.\main.c      ****             }
 997              		.loc 1 221 0
 998 0278 3948     		ldr	r0, .L90+8
 999              	.LVL105:
 1000 027a FFF7FEFF 		bl	printf
 1001              	.LVL106:
 1002              	.L71:
 223:.\main.c      ****             state = STATE_DISCONNECTED;
 1003              		.loc 1 223 0
 1004 027e 0122     		mov	r2, #1
 1005 0280 554B     		ldr	r3, .L90+128
 1006 0282 1A70     		strb	r2, [r3]
 224:.\main.c      ****             break;
 1007              		.loc 1 224 0
 1008 0284 0132     		add	r2, r2, #1
 1009 0286 404B     		ldr	r3, .L90+48
 1010 0288 5A72     		strb	r2, [r3, #9]
 225:.\main.c      ****         case CYBLE_EVT_GAP_ENCRYPT_CHANGE:
 1011              		.loc 1 225 0
 1012 028a 55E1     		b	.L19
 1013              	.LVL107:
ARM GAS  C:\Users\Petro\AppData\Local\Temp\ccvLNIXl.s 			page 30


 1014              	.L32:
 227:.\main.c      ****             break;
 1015              		.loc 1 227 0
 1016 028c 2178     		ldrb	r1, [r4]
 1017 028e 5348     		ldr	r0, .L90+132
 1018              	.LVL108:
 1019 0290 FFF7FEFF 		bl	printf
 1020              	.LVL109:
 228:.\main.c      ****         case CYBLE_EVT_GAPC_CONNECTION_UPDATE_COMPLETE:           
 1021              		.loc 1 228 0
 1022 0294 50E1     		b	.L19
 1023              	.LVL110:
 1024              	.L33:
 230:.\main.c      ****             DBG_PRINTF("CYBLE_EVT_GAPC_CONNECTION_UPDATE_COMPLETE: %x, %x(%d ms), %x, %x \r\n",
 1025              		.loc 1 230 0
 1026 0296 4A4D     		ldr	r5, .L90+104
 1027 0298 281C     		mov	r0, r5
 1028              	.LVL111:
 1029 029a 211C     		mov	r1, r4
 1030 029c 0822     		mov	r2, #8
 1031              	.LVL112:
 1032 029e FFF7FEFF 		bl	memcpy
 1033              	.LVL113:
 231:.\main.c      ****                 connParameters.status,
 1034              		.loc 1 231 0
 1035 02a2 2978     		ldrb	r1, [r5]
 1036 02a4 6A88     		ldrh	r2, [r5, #2]
 1037 02a6 9300     		lsl	r3, r2, #2
 1038 02a8 AC88     		ldrh	r4, [r5, #4]
 1039              	.LVL114:
 1040 02aa E888     		ldrh	r0, [r5, #6]
 1041 02ac D318     		add	r3, r2, r3
 1042 02ae 9B10     		asr	r3, r3, #2
 1043 02b0 0094     		str	r4, [sp]
 1044 02b2 0190     		str	r0, [sp, #4]
 1045 02b4 4A48     		ldr	r0, .L90+136
 1046 02b6 FFF7FEFF 		bl	printf
 1047              	.LVL115:
 237:.\main.c      ****         case CYBLE_EVT_GAP_KEYINFO_EXCHNGE_CMPLT:
 1048              		.loc 1 237 0
 1049 02ba 3DE1     		b	.L19
 1050              	.LVL116:
 1051              	.L35:
 239:.\main.c      ****             break;
 1052              		.loc 1 239 0
 1053 02bc 4948     		ldr	r0, .L90+140
 1054              	.LVL117:
 1055 02be FFF7FEFF 		bl	puts
 1056              	.LVL118:
 240:.\main.c      ****             
 1057              		.loc 1 240 0
 1058 02c2 39E1     		b	.L19
 1059              	.LVL119:
 1060              	.L36:
 247:.\main.c      ****                 ((CYBLE_GATTC_ERR_RSP_PARAM_T *)eventParam)->opCode,
 1061              		.loc 1 247 0
 1062 02c4 A178     		ldrb	r1, [r4, #2]
ARM GAS  C:\Users\Petro\AppData\Local\Temp\ccvLNIXl.s 			page 31


 1063 02c6 A288     		ldrh	r2, [r4, #4]
 1064 02c8 A379     		ldrb	r3, [r4, #6]
 1065 02ca 4748     		ldr	r0, .L90+144
 1066              	.LVL120:
 1067 02cc FFF7FEFF 		bl	printf
 1068              	.LVL121:
 251:.\main.c      ****         case CYBLE_EVT_GATT_CONNECT_IND:
 1069              		.loc 1 251 0
 1070 02d0 32E1     		b	.L19
 1071              	.LVL122:
 1072              	.L37:
 253:.\main.c      ****                 (*(CYBLE_CONN_HANDLE_T *)eventParam).attId, (*(CYBLE_CONN_HANDLE_T *)eventParam).bd
 1073              		.loc 1 253 0
 1074 02d2 6178     		ldrb	r1, [r4, #1]
 1075 02d4 2278     		ldrb	r2, [r4]
 1076 02d6 4548     		ldr	r0, .L90+148
 1077              	.LVL123:
 1078 02d8 FFF7FEFF 		bl	printf
 1079              	.LVL124:
 255:.\main.c      ****         case CYBLE_EVT_GATT_DISCONNECT_IND:
 1080              		.loc 1 255 0
 1081 02dc 2CE1     		b	.L19
 1082              	.LVL125:
 1083              	.L38:
 257:.\main.c      ****             break;
 1084              		.loc 1 257 0
 1085 02de 4448     		ldr	r0, .L90+152
 1086              	.LVL126:
 1087 02e0 FFF7FEFF 		bl	puts
 1088              	.LVL127:
 258:.\main.c      ****         case CYBLE_EVT_GATTC_HANDLE_VALUE_NTF:
 1089              		.loc 1 258 0
 1090 02e4 28E1     		b	.L19
 1091              	.LVL128:
 1092              	.L47:
 260:.\main.c      ****             ShowValue(&((CYBLE_GATTC_HANDLE_VALUE_IND_PARAM_T *)eventParam)->handleValPair.value, 0
 1093              		.loc 1 260 0
 1094 02e6 A189     		ldrh	r1, [r4, #12]
 1095 02e8 4248     		ldr	r0, .L90+156
 1096              	.LVL129:
 1097 02ea FFF7FEFF 		bl	printf
 1098              	.LVL130:
 261:.\main.c      ****             break;  
 1099              		.loc 1 261 0
 1100 02ee 201D     		add	r0, r4, #4
 1101 02f0 0021     		mov	r1, #0
 1102 02f2 FFF7FEFF 		bl	ShowValue
 1103              	.LVL131:
 262:.\main.c      ****         case CYBLE_EVT_GATTC_HANDLE_VALUE_IND:
 1104              		.loc 1 262 0
 1105 02f6 1FE1     		b	.L19
 1106              	.LVL132:
 1107              	.L48:
 264:.\main.c      ****             ShowValue(&((CYBLE_GATTC_HANDLE_VALUE_IND_PARAM_T *)eventParam)->handleValPair.value, 0
 1108              		.loc 1 264 0
 1109 02f8 A189     		ldrh	r1, [r4, #12]
 1110 02fa 3F48     		ldr	r0, .L90+160
ARM GAS  C:\Users\Petro\AppData\Local\Temp\ccvLNIXl.s 			page 32


 1111              	.LVL133:
 1112 02fc FFF7FEFF 		bl	printf
 1113              	.LVL134:
 265:.\main.c      ****             break;
 1114              		.loc 1 265 0
 1115 0300 201D     		add	r0, r4, #4
 1116 0302 0021     		mov	r1, #0
 1117 0304 FFF7FEFF 		bl	ShowValue
 1118              	.LVL135:
 266:.\main.c      ****         case CYBLE_EVT_GATTC_INDICATION:
 1119              		.loc 1 266 0
 1120 0308 16E1     		b	.L19
 1121              	.LVL136:
 1122              	.L50:
 268:.\main.c      ****             ShowValue(&((CYBLE_GATTC_HANDLE_VALUE_IND_PARAM_T *)eventParam)->handleValPair.value, 0
 1123              		.loc 1 268 0
 1124 030a A189     		ldrh	r1, [r4, #12]
 1125 030c 3B48     		ldr	r0, .L90+164
 1126              	.LVL137:
 1127 030e FFF7FEFF 		bl	printf
 1128              	.LVL138:
 269:.\main.c      ****             break;
 1129              		.loc 1 269 0
 1130 0312 201D     		add	r0, r4, #4
 1131 0314 0021     		mov	r1, #0
 1132 0316 FFF7FEFF 		bl	ShowValue
 1133              	.LVL139:
 270:.\main.c      ****         case CYBLE_EVT_GATTC_READ_RSP:
 1134              		.loc 1 270 0
 1135 031a 0DE1     		b	.L19
 1136              	.LVL140:
 1137              	.L44:
 272:.\main.c      ****             ShowValue(&((CYBLE_GATTC_READ_RSP_PARAM_T *)eventParam)->value, 0u);
 1138              		.loc 1 272 0
 1139 031c 3848     		ldr	r0, .L90+168
 1140              	.LVL141:
 1141 031e FFF7FEFF 		bl	printf
 1142              	.LVL142:
 273:.\main.c      ****             break;            
 1143              		.loc 1 273 0
 1144 0322 201D     		add	r0, r4, #4
 1145 0324 0021     		mov	r1, #0
 1146 0326 FFF7FEFF 		bl	ShowValue
 1147              	.LVL143:
 274:.\main.c      ****         case CYBLE_EVT_GATTC_READ_BLOB_RSP:
 1148              		.loc 1 274 0
 1149 032a 05E1     		b	.L19
 1150              	.LVL144:
 1151              	.L45:
 276:.\main.c      ****             ShowValue(&((CYBLE_GATTC_READ_RSP_PARAM_T *)eventParam)->value, 0u);
 1152              		.loc 1 276 0
 1153 032c 3548     		ldr	r0, .L90+172
 1154              	.LVL145:
 1155 032e FFF7FEFF 		bl	printf
 1156              	.LVL146:
 277:.\main.c      ****             break;
 1157              		.loc 1 277 0
ARM GAS  C:\Users\Petro\AppData\Local\Temp\ccvLNIXl.s 			page 33


 1158 0332 201D     		add	r0, r4, #4
 1159 0334 0021     		mov	r1, #0
 1160 0336 FFF7FEFF 		bl	ShowValue
 1161              	.LVL147:
 278:.\main.c      ****         case CYBLE_EVT_GATTC_WRITE_RSP:
 1162              		.loc 1 278 0
 1163 033a FDE0     		b	.L19
 1164              	.LVL148:
 1165              	.L46:
 280:.\main.c      ****             break;            
 1166              		.loc 1 280 0
 1167 033c 3248     		ldr	r0, .L90+176
 1168              	.LVL149:
 1169 033e FFF7FEFF 		bl	puts
 1170              	.LVL150:
 281:.\main.c      ****         case CYBLE_EVT_GATTC_XCHNG_MTU_RSP:
 1171              		.loc 1 281 0
 1172 0342 F9E0     		b	.L19
 1173              	.LVL151:
 1174              	.L39:
 283:.\main.c      ****             break;
 1175              		.loc 1 283 0
 1176 0344 3148     		ldr	r0, .L90+180
 1177              	.LVL152:
 1178 0346 FFF7FEFF 		bl	puts
 1179              	.LVL153:
 284:.\main.c      ****         case CYBLE_EVT_GATTC_READ_BY_GROUP_TYPE_RSP: /* Response to CYBLE_DiscoverAllPrimServices()
 1180              		.loc 1 284 0
 1181 034a F5E0     		b	.L19
 1182              	.LVL154:
 1183              	.L40:
 286:.\main.c      ****             locAttrData = &(*(CYBLE_GATTC_READ_BY_GRP_RSP_PARAM_T *)eventParam).attrData;
 1184              		.loc 1 286 0
 1185 034c 3048     		ldr	r0, .L90+184
 1186              	.LVL155:
 1187 034e FFF7FEFF 		bl	printf
 1188              	.LVL156:
 288:.\main.c      ****             { 
 1189              		.loc 1 288 0
 1190 0352 0025     		mov	r5, #0
 1191 0354 65E0     		b	.L72
 1192              	.L91:
 1193 0356 C046     		.align	2
 1194              	.L90:
 1195 0358 00000000 		.word	.L22
 1196 035c 00000000 		.word	.LC5
 1197 0360 10000000 		.word	.LC7
 1198 0364 2C000000 		.word	.LC9
 1199 0368 48000000 		.word	.LC11
 1200 036c 60000000 		.word	.LC13
 1201 0370 00000000 		.word	cyBle_busyStatus
 1202 0374 7C000000 		.word	.LC16
 1203 0378 A0000000 		.word	.LC18
 1204 037c DC000000 		.word	.LC20
 1205 0380 00000000 		.word	peedDeviceInfo
 1206 0384 EC000000 		.word	.LC23
 1207 0388 00000000 		.word	.LANCHOR0
ARM GAS  C:\Users\Petro\AppData\Local\Temp\ccvLNIXl.s 			page 34


 1208 038c F4000000 		.word	.LC26
 1209 0390 FC000000 		.word	.LC28
 1210 0394 18010000 		.word	.LC30
 1211 0398 20010000 		.word	.LC32
 1212 039c 00000000 		.word	cyBle_state
 1213 03a0 24010000 		.word	.LC34
 1214 03a4 50010000 		.word	.LC37
 1215 03a8 00000000 		.word	cyBle_connectingTimeout
 1216 03ac 64010000 		.word	.LC40
 1217 03b0 84010000 		.word	.LC42
 1218 03b4 08022440 		.word	1076101640
 1219 03b8 90010000 		.word	.LC44
 1220 03bc D4010000 		.word	.LC46
 1221 03c0 00000000 		.word	connParameters
 1222 03c4 E8010000 		.word	.LC49
 1223 03c8 00000000 		.word	cyBle_wptsc
 1224 03cc 24020000 		.word	.LC52
 1225 03d0 30020000 		.word	.LC54
 1226 03d4 48020000 		.word	.LC56
 1227 03d8 00000000 		.word	.LANCHOR1
 1228 03dc 60020000 		.word	.LC59
 1229 03e0 78020000 		.word	.LC61
 1230 03e4 BC020000 		.word	.LC63
 1231 03e8 E4020000 		.word	.LC65
 1232 03ec 20030000 		.word	.LC67
 1233 03f0 48030000 		.word	.LC69
 1234 03f4 60030000 		.word	.LC71
 1235 03f8 94030000 		.word	.LC73
 1236 03fc CC030000 		.word	.LC75
 1237 0400 FC030000 		.word	.LC77
 1238 0404 18040000 		.word	.LC79
 1239 0408 38040000 		.word	.LC81
 1240 040c 54040000 		.word	.LC83
 1241 0410 74040000 		.word	.LC85
 1242              	.LVL157:
 1243              	.L73:
 290:.\main.c      ****             }
 1244              		.loc 1 290 0 discriminator 3
 1245 0414 6368     		ldr	r3, [r4, #4]
 1246 0416 595D     		ldrb	r1, [r3, r5]
 1247 0418 4948     		ldr	r0, .L92
 1248 041a FFF7FEFF 		bl	printf
 1249              	.LVL158:
 288:.\main.c      ****             { 
 1250              		.loc 1 288 0 discriminator 3
 1251 041e 0135     		add	r5, r5, #1
 1252              	.LVL159:
 1253 0420 ADB2     		uxth	r5, r5
 1254              	.LVL160:
 1255              	.L72:
 288:.\main.c      ****             { 
 1256              		.loc 1 288 0 is_stmt 0 discriminator 1
 1257 0422 6389     		ldrh	r3, [r4, #10]
 1258 0424 AB42     		cmp	r3, r5
 1259 0426 F5D8     		bhi	.L73
 292:.\main.c      ****             break;        
 1260              		.loc 1 292 0 is_stmt 1
ARM GAS  C:\Users\Petro\AppData\Local\Temp\ccvLNIXl.s 			page 35


 1261 0428 4648     		ldr	r0, .L92+4
 1262 042a FFF7FEFF 		bl	puts
 1263              	.LVL161:
 293:.\main.c      ****         case CYBLE_EVT_GATTC_READ_BY_TYPE_RSP:      /* Response to CYBLE_DiscoverAllCharacteristics
 1264              		.loc 1 293 0
 1265 042e 83E0     		b	.L19
 1266              	.LVL162:
 1267              	.L41:
 295:.\main.c      ****             locAttrData = &(*(CYBLE_GATTC_READ_BY_TYPE_RSP_PARAM_T *)eventParam).attrData;
 1268              		.loc 1 295 0
 1269 0430 4548     		ldr	r0, .L92+8
 1270              	.LVL163:
 1271 0432 FFF7FEFF 		bl	printf
 1272              	.LVL164:
 297:.\main.c      ****             { 
 1273              		.loc 1 297 0
 1274 0436 0025     		mov	r5, #0
 1275 0438 06E0     		b	.L74
 1276              	.LVL165:
 1277              	.L75:
 299:.\main.c      ****             }
 1278              		.loc 1 299 0 discriminator 3
 1279 043a 6368     		ldr	r3, [r4, #4]
 1280 043c 595D     		ldrb	r1, [r3, r5]
 1281 043e 4048     		ldr	r0, .L92
 1282 0440 FFF7FEFF 		bl	printf
 1283              	.LVL166:
 297:.\main.c      ****             { 
 1284              		.loc 1 297 0 discriminator 3
 1285 0444 0135     		add	r5, r5, #1
 1286              	.LVL167:
 1287 0446 ADB2     		uxth	r5, r5
 1288              	.LVL168:
 1289              	.L74:
 297:.\main.c      ****             { 
 1290              		.loc 1 297 0 is_stmt 0 discriminator 1
 1291 0448 6389     		ldrh	r3, [r4, #10]
 1292 044a AB42     		cmp	r3, r5
 1293 044c F5D8     		bhi	.L75
 301:.\main.c      ****             break;
 1294              		.loc 1 301 0 is_stmt 1
 1295 044e 3D48     		ldr	r0, .L92+4
 1296 0450 FFF7FEFF 		bl	puts
 1297              	.LVL169:
 302:.\main.c      ****         case CYBLE_EVT_GATTC_FIND_INFO_RSP:
 1298              		.loc 1 302 0
 1299 0454 70E0     		b	.L19
 1300              	.LVL170:
 1301              	.L42:
 304:.\main.c      ****             type = (*(CYBLE_GATTC_FIND_INFO_RSP_PARAM_T *)eventParam).uuidFormat;
 1302              		.loc 1 304 0
 1303 0456 3D48     		ldr	r0, .L92+12
 1304              	.LVL171:
 1305 0458 FFF7FEFF 		bl	printf
 1306              	.LVL172:
 305:.\main.c      ****             locHndlUuidList = (*(CYBLE_GATTC_FIND_INFO_RSP_PARAM_T *)eventParam).handleValueList.li
 1307              		.loc 1 305 0
ARM GAS  C:\Users\Petro\AppData\Local\Temp\ccvLNIXl.s 			page 36


 1308 045c 267B     		ldrb	r6, [r4, #12]
 1309              	.LVL173:
 306:.\main.c      ****             (void)locHndlUuidList;
 1310              		.loc 1 306 0
 1311 045e 6368     		ldr	r3, [r4, #4]
 1312 0460 9946     		mov	r9, r3
 1313              	.LVL174:
 308:.\main.c      ****             {
 1314              		.loc 1 308 0
 1315 0462 012E     		cmp	r6, #1
 1316 0464 01D1     		bne	.L87
 310:.\main.c      ****             }
 1317              		.loc 1 310 0
 1318 0466 0427     		mov	r7, #4
 1319 0468 00E0     		b	.L76
 1320              	.L87:
 314:.\main.c      ****             }
 1321              		.loc 1 314 0
 1322 046a 1227     		mov	r7, #18
 1323              	.L76:
 1324              	.LVL175:
 316:.\main.c      ****             {
 1325              		.loc 1 316 0
 1326 046c 0025     		mov	r5, #0
 1327 046e 15E0     		b	.L77
 1328              	.LVL176:
 1329              	.L80:
 318:.\main.c      ****                 {
 1330              		.loc 1 318 0
 1331 0470 012E     		cmp	r6, #1
 1332 0472 0ED1     		bne	.L78
 320:.\main.c      ****                                               CyBle_Get16ByPtr(locHndlUuidList + i + CYBLE_ATTR_HAN
 1333              		.loc 1 320 0
 1334 0474 4B46     		mov	r3, r9
 1335 0476 5819     		add	r0, r3, r5
 1336 0478 FFF7FEFF 		bl	CyBle_Get16ByPtr
 1337              	.LVL177:
 1338 047c 0390     		str	r0, [sp, #12]
 1339 047e A81C     		add	r0, r5, #2
 1340 0480 4844     		add	r0, r0, r9
 1341 0482 FFF7FEFF 		bl	CyBle_Get16ByPtr
 1342              	.LVL178:
 1343 0486 021C     		mov	r2, r0
 1344 0488 3148     		ldr	r0, .L92+16
 1345 048a 0399     		ldr	r1, [sp, #12]
 1346 048c FFF7FEFF 		bl	printf
 1347              	.LVL179:
 1348 0490 02E0     		b	.L79
 1349              	.L78:
 325:.\main.c      ****                 }
 1350              		.loc 1 325 0
 1351 0492 3048     		ldr	r0, .L92+20
 1352 0494 FFF7FEFF 		bl	printf
 1353              	.LVL180:
 1354              	.L79:
 316:.\main.c      ****             {
 1355              		.loc 1 316 0 discriminator 2
ARM GAS  C:\Users\Petro\AppData\Local\Temp\ccvLNIXl.s 			page 37


 1356 0498 ED19     		add	r5, r5, r7
 1357              	.LVL181:
 1358 049a ADB2     		uxth	r5, r5
 1359              	.LVL182:
 1360              	.L77:
 316:.\main.c      ****             {
 1361              		.loc 1 316 0 is_stmt 0 discriminator 1
 1362 049c 2389     		ldrh	r3, [r4, #8]
 1363 049e AB42     		cmp	r3, r5
 1364 04a0 E6D8     		bhi	.L80
 328:.\main.c      ****             break;
 1365              		.loc 1 328 0 is_stmt 1
 1366 04a2 2848     		ldr	r0, .L92+4
 1367 04a4 FFF7FEFF 		bl	puts
 1368              	.LVL183:
 329:.\main.c      ****         case CYBLE_EVT_GATTC_FIND_BY_TYPE_VALUE_RSP:
 1369              		.loc 1 329 0
 1370 04a8 46E0     		b	.L19
 1371              	.LVL184:
 1372              	.L43:
 331:.\main.c      ****             break;
 1373              		.loc 1 331 0
 1374 04aa 2B48     		ldr	r0, .L92+24
 1375              	.LVL185:
 1376 04ac FFF7FEFF 		bl	puts
 1377              	.LVL186:
 332:.\main.c      ****                 
 1378              		.loc 1 332 0
 1379 04b0 42E0     		b	.L19
 1380              	.LVL187:
 1381              	.L51:
 338:.\main.c      ****             DBG_PRINTF("GATT %x-%x Char: %x, cccd: %x, \r\n", 
 1382              		.loc 1 338 0
 1383 04b2 2A48     		ldr	r0, .L92+28
 1384              	.LVL188:
 1385 04b4 FFF7FEFF 		bl	puts
 1386              	.LVL189:
 339:.\main.c      ****                 cyBle_serverInfo[CYBLE_SRVI_GATT].range.startHandle,
 1387              		.loc 1 339 0
 1388 04b8 294C     		ldr	r4, .L92+32
 1389              	.LVL190:
 1390 04ba E188     		ldrh	r1, [r4, #6]
 1391 04bc 2289     		ldrh	r2, [r4, #8]
 1392 04be 2948     		ldr	r0, .L92+36
 1393 04c0 4388     		ldrh	r3, [r0, #2]
 1394 04c2 8088     		ldrh	r0, [r0, #4]
 1395 04c4 0090     		str	r0, [sp]
 1396 04c6 2848     		ldr	r0, .L92+40
 1397 04c8 FFF7FEFF 		bl	printf
 1398              	.LVL191:
 344:.\main.c      ****                                        cyBle_serverInfo[CYBLE_SRVI_WPTS].range.endHandle);
 1399              		.loc 1 344 0
 1400 04cc A189     		ldrh	r1, [r4, #12]
 1401 04ce E289     		ldrh	r2, [r4, #14]
 1402 04d0 2648     		ldr	r0, .L92+44
 1403 04d2 FFF7FEFF 		bl	printf
 1404              	.LVL192:
ARM GAS  C:\Users\Petro\AppData\Local\Temp\ccvLNIXl.s 			page 38


 346:.\main.c      ****             {
 1405              		.loc 1 346 0
 1406 04d6 0024     		mov	r4, #0
 1407 04d8 15E0     		b	.L81
 1408              	.LVL193:
 1409              	.L84:
 348:.\main.c      ****                                                       CyBle_WptscGetCharacteristicDescriptorHandle(
 1410              		.loc 1 348 0
 1411 04da 211E     		sub	r1, r4, #0
 1412 04dc 0429     		cmp	r1, #4
 1413 04de 04D8     		bhi	.L88
 348:.\main.c      ****                                                       CyBle_WptscGetCharacteristicDescriptorHandle(
 1414              		.loc 1 348 0 is_stmt 0 discriminator 1
 1415 04e0 E300     		lsl	r3, r4, #3
 1416 04e2 234A     		ldr	r2, .L92+48
 1417 04e4 D318     		add	r3, r2, r3
 1418 04e6 9A88     		ldrh	r2, [r3, #4]
 1419 04e8 00E0     		b	.L82
 1420              	.L88:
 348:.\main.c      ****                                                       CyBle_WptscGetCharacteristicDescriptorHandle(
 1421              		.loc 1 348 0
 1422 04ea 0022     		mov	r2, #0
 1423              	.L82:
 348:.\main.c      ****                                                       CyBle_WptscGetCharacteristicDescriptorHandle(
 1424              		.loc 1 348 0 discriminator 4
 1425 04ec 042C     		cmp	r4, #4
 1426 04ee 04D8     		bhi	.L89
 348:.\main.c      ****                                                       CyBle_WptscGetCharacteristicDescriptorHandle(
 1427              		.loc 1 348 0 discriminator 5
 1428 04f0 CB00     		lsl	r3, r1, #3
 1429 04f2 1F48     		ldr	r0, .L92+48
 1430 04f4 C318     		add	r3, r0, r3
 1431 04f6 5B88     		ldrh	r3, [r3, #2]
 1432 04f8 00E0     		b	.L83
 1433              	.L89:
 348:.\main.c      ****                                                       CyBle_WptscGetCharacteristicDescriptorHandle(
 1434              		.loc 1 348 0
 1435 04fa 0023     		mov	r3, #0
 1436              	.L83:
 348:.\main.c      ****                                                       CyBle_WptscGetCharacteristicDescriptorHandle(
 1437              		.loc 1 348 0 discriminator 8
 1438 04fc 1D48     		ldr	r0, .L92+52
 1439 04fe FFF7FEFF 		bl	printf
 1440              	.LVL194:
 346:.\main.c      ****             {
 1441              		.loc 1 346 0 is_stmt 1 discriminator 8
 1442 0502 0134     		add	r4, r4, #1
 1443              	.LVL195:
 1444 0504 A4B2     		uxth	r4, r4
 1445              	.LVL196:
 1446              	.L81:
 346:.\main.c      ****             {
 1447              		.loc 1 346 0 is_stmt 0 discriminator 2
 1448 0506 042C     		cmp	r4, #4
 1449 0508 E7D9     		bls	.L84
 351:.\main.c      ****             DBG_PRINTF("\r\n");
 1450              		.loc 1 351 0 is_stmt 1
ARM GAS  C:\Users\Petro\AppData\Local\Temp\ccvLNIXl.s 			page 39


 1451 050a 0E4C     		ldr	r4, .L92+4
 1452              	.LVL197:
 1453 050c 201C     		mov	r0, r4
 1454 050e FFF7FEFF 		bl	puts
 1455              	.LVL198:
 352:.\main.c      ****             /* Statrt configuration procedure */
 1456              		.loc 1 352 0
 1457 0512 201C     		mov	r0, r4
 1458 0514 FFF7FEFF 		bl	puts
 1459              	.LVL199:
 354:.\main.c      ****             {
 1460              		.loc 1 354 0
 1461 0518 174B     		ldr	r3, .L92+56
 1462 051a 5B7A     		ldrb	r3, [r3, #9]
 1463 051c 032B     		cmp	r3, #3
 1464 051e 0BD1     		bne	.L19
 357:.\main.c      ****             }
 1465              		.loc 1 357 0
 1466 0520 3422     		mov	r2, #52
 1467 0522 154B     		ldr	r3, .L92+56
 1468 0524 9A70     		strb	r2, [r3, #2]
 1469 0526 07E0     		b	.L19
 1470              	.LVL200:
 1471              	.L49:
 368:.\main.c      ****             break;
 1472              		.loc 1 368 0
 1473 0528 1448     		ldr	r0, .L92+60
 1474              	.LVL201:
 1475 052a FFF7FEFF 		bl	puts
 1476              	.LVL202:
 369:.\main.c      **** 		default:
 1477              		.loc 1 369 0
 1478 052e 03E0     		b	.L19
 1479              	.LVL203:
 1480              	.L20:
 371:.\main.c      **** 			break;
 1481              		.loc 1 371 0
 1482 0530 1348     		ldr	r0, .L92+64
 1483              	.LVL204:
 1484 0532 111C     		mov	r1, r2
 1485 0534 FFF7FEFF 		bl	printf
 1486              	.LVL205:
 1487              	.L19:
 374:.\main.c      **** 
 1488              		.loc 1 374 0
 1489 0538 06B0     		add	sp, sp, #24
 1490              		@ sp needed
 1491 053a 04BC     		pop	{r2}
 1492 053c 9146     		mov	r9, r2
 1493 053e F0BD     		pop	{r4, r5, r6, r7, pc}
 1494              	.L93:
 1495              		.align	2
 1496              	.L92:
 1497 0540 18010000 		.word	.LC30
 1498 0544 20010000 		.word	.LC32
 1499 0548 9C040000 		.word	.LC87
 1500 054c C0040000 		.word	.LC89
ARM GAS  C:\Users\Petro\AppData\Local\Temp\ccvLNIXl.s 			page 40


 1501 0550 E0040000 		.word	.LC91
 1502 0554 F0040000 		.word	.LC93
 1503 0558 F8040000 		.word	.LC95
 1504 055c 20050000 		.word	.LC97
 1505 0560 00000000 		.word	cyBle_serverInfo
 1506 0564 00000000 		.word	cyBle_gattc
 1507 0568 48050000 		.word	.LC101
 1508 056c 6C050000 		.word	.LC103
 1509 0570 00000000 		.word	cyBle_wptsc
 1510 0574 30020000 		.word	.LC54
 1511 0578 00000000 		.word	.LANCHOR0
 1512 057c 7C050000 		.word	.LC105
 1513 0580 9C050000 		.word	.LC107
 1514              		.cfi_endproc
 1515              	.LFE37:
 1516              		.size	AppCallback, .-AppCallback
 1517              		.section	.text.WDT_Start,"ax",%progbits
 1518              		.align	2
 1519              		.global	WDT_Start
 1520              		.code	16
 1521              		.thumb_func
 1522              		.type	WDT_Start, %function
 1523              	WDT_Start:
 1524              	.LFB40:
 446:.\main.c      ****     /* Unlock the WDT registers for modification */
 1525              		.loc 1 446 0
 1526              		.cfi_startproc
 1527 0000 08B5     		push	{r3, lr}
 1528              		.cfi_def_cfa_offset 8
 1529              		.cfi_offset 3, -8
 1530              		.cfi_offset 14, -4
 448:.\main.c      ****     /* Setup ISR */
 1531              		.loc 1 448 0
 1532 0002 FFF7FEFF 		bl	CySysWdtUnlock
 1533              	.LVL206:
 450:.\main.c      ****     /* Write the mode to generate interrupt on match */
 1534              		.loc 1 450 0
 1535 0006 0C48     		ldr	r0, .L95
 1536 0008 FFF7FEFF 		bl	WDT_Interrupt_StartEx
 1537              	.LVL207:
 452:.\main.c      ****     /* Configure the WDT counter clear on a match setting */
 1538              		.loc 1 452 0
 1539 000c 0120     		mov	r0, #1
 1540 000e 0121     		mov	r1, #1
 1541 0010 FFF7FEFF 		bl	CySysWdtSetMode
 1542              	.LVL208:
 454:.\main.c      ****     /* Configure the WDT counter match comparison value */
 1543              		.loc 1 454 0
 1544 0014 0120     		mov	r0, #1
 1545 0016 0121     		mov	r1, #1
 1546 0018 FFF7FEFF 		bl	CySysWdtSetClearOnMatch
 1547              	.LVL209:
 456:.\main.c      ****     /* Reset WDT counter */
 1548              		.loc 1 456 0
 1549 001c 0120     		mov	r0, #1
 1550 001e 0749     		ldr	r1, .L95+4
 1551 0020 FFF7FEFF 		bl	CySysWdtSetMatch
ARM GAS  C:\Users\Petro\AppData\Local\Temp\ccvLNIXl.s 			page 41


 1552              	.LVL210:
 458:.\main.c      ****     /* Enable the specified WDT counter */
 1553              		.loc 1 458 0
 1554 0024 0120     		mov	r0, #1
 1555 0026 FFF7FEFF 		bl	CySysWdtResetCounters
 1556              	.LVL211:
 460:.\main.c      ****     /* Lock out configuration changes to the Watchdog timer registers */
 1557              		.loc 1 460 0
 1558 002a 8020     		mov	r0, #128
 1559 002c 4000     		lsl	r0, r0, #1
 1560 002e FFF7FEFF 		bl	CySysWdtEnable
 1561              	.LVL212:
 462:.\main.c      **** }
 1562              		.loc 1 462 0
 1563 0032 FFF7FEFF 		bl	CySysWdtLock
 1564              	.LVL213:
 463:.\main.c      **** 
 1565              		.loc 1 463 0
 1566              		@ sp needed
 1567 0036 08BD     		pop	{r3, pc}
 1568              	.L96:
 1569              		.align	2
 1570              	.L95:
 1571 0038 00000000 		.word	Timer_Interrupt
 1572 003c FF7F0000 		.word	32767
 1573              		.cfi_endproc
 1574              	.LFE40:
 1575              		.size	WDT_Start, .-WDT_Start
 1576              		.section	.text.WDT_Stop,"ax",%progbits
 1577              		.align	2
 1578              		.global	WDT_Stop
 1579              		.code	16
 1580              		.thumb_func
 1581              		.type	WDT_Stop, %function
 1582              	WDT_Stop:
 1583              	.LFB41:
 475:.\main.c      ****     /* Unlock the WDT registers for modification */
 1584              		.loc 1 475 0
 1585              		.cfi_startproc
 1586 0000 08B5     		push	{r3, lr}
 1587              		.cfi_def_cfa_offset 8
 1588              		.cfi_offset 3, -8
 1589              		.cfi_offset 14, -4
 477:.\main.c      ****     /* Disable the specified WDT counter */
 1590              		.loc 1 477 0
 1591 0002 FFF7FEFF 		bl	CySysWdtUnlock
 1592              	.LVL214:
 479:.\main.c      ****     /* Locks out configuration changes to the Watchdog timer registers */
 1593              		.loc 1 479 0
 1594 0006 8020     		mov	r0, #128
 1595 0008 4000     		lsl	r0, r0, #1
 1596 000a FFF7FEFF 		bl	CySysWdtDisable
 1597              	.LVL215:
 481:.\main.c      **** }
 1598              		.loc 1 481 0
 1599 000e FFF7FEFF 		bl	CySysWdtLock
 1600              	.LVL216:
ARM GAS  C:\Users\Petro\AppData\Local\Temp\ccvLNIXl.s 			page 42


 482:.\main.c      **** 
 1601              		.loc 1 482 0
 1602              		@ sp needed
 1603 0012 08BD     		pop	{r3, pc}
 1604              		.cfi_endproc
 1605              	.LFE41:
 1606              		.size	WDT_Stop, .-WDT_Stop
 1607              		.section	.text.main,"ax",%progbits
 1608              		.align	2
 1609              		.global	main
 1610              		.code	16
 1611              		.thumb_func
 1612              		.type	main, %function
 1613              	main:
 1614              	.LFB43:
 543:.\main.c      **** 
 544:.\main.c      **** 
 545:.\main.c      **** /*******************************************************************************
 546:.\main.c      **** * Function Name: main()
 547:.\main.c      **** ********************************************************************************
 548:.\main.c      **** * Summary:
 549:.\main.c      **** *  Main function for the project.
 550:.\main.c      **** *
 551:.\main.c      **** * Parameters:
 552:.\main.c      **** *  None
 553:.\main.c      **** *
 554:.\main.c      **** * Return:
 555:.\main.c      **** *  None
 556:.\main.c      **** *
 557:.\main.c      **** * Theory:
 558:.\main.c      **** *  The function starts BLE and UART components.
 559:.\main.c      **** *  This function processes all BLE events and also implements the low power 
 560:.\main.c      **** *  functionality.
 561:.\main.c      **** *
 562:.\main.c      **** *******************************************************************************/
 563:.\main.c      **** int main()
 564:.\main.c      **** {
 1615              		.loc 1 564 0
 1616              		.cfi_startproc
 1617 0000 30B5     		push	{r4, r5, lr}
 1618              		.cfi_def_cfa_offset 12
 1619              		.cfi_offset 4, -12
 1620              		.cfi_offset 5, -8
 1621              		.cfi_offset 14, -4
 1622 0002 83B0     		sub	sp, sp, #12
 1623              		.cfi_def_cfa_offset 24
 1624              	.LVL217:
 565:.\main.c      ****     CYBLE_API_RESULT_T apiResult;
 566:.\main.c      ****     char8 command = 0u;
 567:.\main.c      ****     
 568:.\main.c      ****     CyGlobalIntEnable;              /* Enable interrupts */
 1625              		.loc 1 568 0
 1626              	@ 568 ".\main.c" 1
 1627 0004 62B6     		CPSIE   i
 1628              	@ 0 "" 2
 569:.\main.c      ****     UART_DEB_Start();               /* Start communication component */
 1629              		.loc 1 569 0
ARM GAS  C:\Users\Petro\AppData\Local\Temp\ccvLNIXl.s 			page 43


 1630              		.code	16
 1631 0006 FFF7FEFF 		bl	UART_DEB_Start
 1632              	.LVL218:
 570:.\main.c      ****     DBG_PRINTF("BLE Wireless Power Transmitter Example Project \r\n");
 1633              		.loc 1 570 0
 1634 000a C748     		ldr	r0, .L132
 1635 000c FFF7FEFF 		bl	puts
 1636              	.LVL219:
 571:.\main.c      ****     
 572:.\main.c      ****     /* Start BLE component */
 573:.\main.c      ****     CyBle_Start(AppCallback);    
 1637              		.loc 1 573 0
 1638 0010 C648     		ldr	r0, .L132+4
 1639 0012 FFF7FEFF 		bl	CyBle_Start
 1640              	.LVL220:
 574:.\main.c      ****     
 575:.\main.c      ****     /* Register service specific callback functions */
 576:.\main.c      ****     WptsInit();
 1641              		.loc 1 576 0
 1642 0016 FFF7FEFF 		bl	WptsInit
 1643              	.LVL221:
 577:.\main.c      ****     
 578:.\main.c      ****     /* Start general timer */
 579:.\main.c      ****     WDT_Start();
 1644              		.loc 1 579 0
 1645 001a FFF7FEFF 		bl	WDT_Start
 1646              	.LVL222:
 566:.\main.c      ****     
 1647              		.loc 1 566 0
 1648 001e 0024     		mov	r4, #0
 1649 0020 12E0     		b	.L99
 1650              	.LVL223:
 1651              	.L122:
 580:.\main.c      **** 
 581:.\main.c      ****     for(;;)
 582:.\main.c      ****     {
 583:.\main.c      ****         /* Process all the generated events. */
 584:.\main.c      ****         CyBle_ProcessEvents();
 585:.\main.c      **** 
 586:.\main.c      ****         /* To achieve low power in the device */
 587:.\main.c      ****         LowPowerImplementation();
 588:.\main.c      ****         
 589:.\main.c      ****         /* Get new command */
 590:.\main.c      ****         if(command == 0u)
 591:.\main.c      ****         {
 592:.\main.c      ****             command = UART_DEB_UartGetChar();
 593:.\main.c      ****         }
 594:.\main.c      ****         
 595:.\main.c      ****         /* Handle received from terminal locally generated commands */
 596:.\main.c      ****         if(((command != 0u) || (customCommand != 0u)) && (requestResponce != false))
 597:.\main.c      ****         {
 598:.\main.c      ****             if((command == 0u) && (customCommand != 0u))
 599:.\main.c      ****             {
 600:.\main.c      ****                 command = customCommand;
 601:.\main.c      ****                 customCommand = 0u;
 602:.\main.c      ****             }
 603:.\main.c      ****             switch(command)
ARM GAS  C:\Users\Petro\AppData\Local\Temp\ccvLNIXl.s 			page 44


 604:.\main.c      ****             {
 605:.\main.c      ****                 case 'c':                   /* connect  */
 606:.\main.c      ****                     CyBle_GapcStopScan(); 
 607:.\main.c      ****                     state = STATE_CONNECTING;
 608:.\main.c      ****                     break;
 609:.\main.c      ****                 case 'v':
 610:.\main.c      ****                     apiResult = CyBle_GapcCancelDeviceConnection();
 611:.\main.c      ****                     DBG_PRINTF("CyBle_GapcCancelDeviceConnection: %x\r\n" , apiResult);
 612:.\main.c      ****                     break;
 613:.\main.c      ****                 case 'd':                   /* disconnect */
 614:.\main.c      ****                     apiResult = CyBle_GapDisconnect(cyBle_connHandle.bdHandle); 
 615:.\main.c      ****                     if(apiResult != CYBLE_ERROR_OK)
 616:.\main.c      ****                     {
 617:.\main.c      ****                         DBG_PRINTF("DisconnectDevice API Error: %x \r\n", apiResult);
 618:.\main.c      ****                     }
 619:.\main.c      ****                     break;
 620:.\main.c      ****                 case 's':
 621:.\main.c      ****                     /* Disable sequential read of PRU Dynamic Parameter characteristic before disco
 622:.\main.c      ****                     readingDynChar = 0u;
 623:.\main.c      ****                     /* And clean pending command */
 624:.\main.c      ****                     customCommand = 0u;
 625:.\main.c      ****                     apiResult = CyBle_GattcStartDiscovery(cyBle_connHandle);
 626:.\main.c      ****                     DBG_PRINTF("StartDiscovery \r\n");
 627:.\main.c      ****                     if(apiResult != CYBLE_ERROR_OK)
 628:.\main.c      ****                     {
 629:.\main.c      ****                         DBG_PRINTF("StartDiscovery API Error: %x \r\n", apiResult);
 630:.\main.c      ****                     }
 631:.\main.c      ****                     break;
 632:.\main.c      ****                 case 'z':                   /* select peer device  */
 633:.\main.c      ****                     DBG_PRINTF("Select Device:\n"); 
 634:.\main.c      ****                     while((command = UART_DEB_UartGetChar()) == 0);
 635:.\main.c      ****                     if((command >= '0') && (command <= '9'))
 636:.\main.c      ****                     {
 637:.\main.c      ****                         deviceN = (uint8)(command - '0');
 638:.\main.c      ****                         DBG_PRINTF("%c\n",command); /* print number */
 639:.\main.c      ****                     }
 640:.\main.c      ****                     else
 641:.\main.c      ****                     {
 642:.\main.c      ****                         DBG_PRINTF(" Wrong digit \r\n");
 643:.\main.c      ****                         break;
 644:.\main.c      ****                     }
 645:.\main.c      ****                     break;
 646:.\main.c      ****                 case '1':                   /* Enable Notification */
 647:.\main.c      ****                     alertCCCD |= CYBLE_CCCD_NOTIFICATION;
 648:.\main.c      ****                     apiResult = CyBle_WptscSetCharacteristicDescriptor(cyBle_connHandle, CYBLE_WPTS
 649:.\main.c      ****                         CYBLE_WPTS_CCCD, sizeof(alertCCCD), (uint8 *)&alertCCCD);
 650:.\main.c      ****                     DBG_PRINTF("Enable Alert Notification, apiResult: %x \r\n", apiResult);
 651:.\main.c      ****                     if(apiResult == CYBLE_ERROR_OK)
 652:.\main.c      ****                     {
 653:.\main.c      ****                         requestResponce = false;
 654:.\main.c      ****                     }
 655:.\main.c      ****                     break;
 656:.\main.c      ****                 case '2':                   /* Enable Indication */
 657:.\main.c      ****                     alertCCCD |= CYBLE_CCCD_INDICATION;
 658:.\main.c      ****                     apiResult = CyBle_WptscSetCharacteristicDescriptor(cyBle_connHandle, CYBLE_WPTS
 659:.\main.c      ****                         CYBLE_WPTS_CCCD, sizeof(alertCCCD), (uint8 *)&alertCCCD);
 660:.\main.c      ****                     DBG_PRINTF("Enable Alert Indication, apiResult: %x \r\n", apiResult);
ARM GAS  C:\Users\Petro\AppData\Local\Temp\ccvLNIXl.s 			page 45


 661:.\main.c      ****                     if(apiResult == CYBLE_ERROR_OK)
 662:.\main.c      ****                     {
 663:.\main.c      ****                         requestResponce = false;
 664:.\main.c      ****                     }
 665:.\main.c      ****                     break;
 666:.\main.c      ****                 case '3':                   /* Disable Notification and Indication */
 667:.\main.c      ****                     alertCCCD = 0u;
 668:.\main.c      ****                     apiResult = CyBle_WptscSetCharacteristicDescriptor(cyBle_connHandle, CYBLE_WPTS
 669:.\main.c      ****                         CYBLE_WPTS_CCCD, sizeof(alertCCCD), (uint8 *)&alertCCCD);
 670:.\main.c      ****                     DBG_PRINTF("Disable Alert Notification and Indication, apiResult: %x \r\n", api
 671:.\main.c      ****                     if(apiResult == CYBLE_ERROR_OK)
 672:.\main.c      ****                     {
 673:.\main.c      ****                         requestResponce = false;
 674:.\main.c      ****                     }
 675:.\main.c      ****                     break;
 676:.\main.c      ****                 case '4':                   /* Send Read request for PRU Static Parameter character
 677:.\main.c      ****                     apiResult = CyBle_WptscGetCharacteristicValue(cyBle_connHandle, CYBLE_WPTS_PRU_
 678:.\main.c      ****                     DBG_PRINTF("Get PRU Static Parameter char value, apiResult: %x \r\n", apiResult
 679:.\main.c      ****                     if(apiResult == CYBLE_ERROR_OK)
 680:.\main.c      ****                     {
 681:.\main.c      ****                         requestResponce = false;
 682:.\main.c      ****                     }
 683:.\main.c      ****                     break;
 684:.\main.c      ****                 case '5':                   /* Send Read request for PRU Dynamic Parameter characte
 685:.\main.c      ****                     apiResult = CyBle_WptscGetCharacteristicValue(cyBle_connHandle, CYBLE_WPTS_PRU_
 686:.\main.c      ****                     DBG_PRINTF("Get PRU Dynamic Parameter char value, apiResult: %x \r\n", apiResul
 687:.\main.c      ****                     if(apiResult == CYBLE_ERROR_OK)
 688:.\main.c      ****                     {
 689:.\main.c      ****                         requestResponce = false;
 690:.\main.c      ****                     }
 691:.\main.c      ****                     break;
 692:.\main.c      ****                 case '6':                   /* Enable Charging */
 693:.\main.c      ****                     peedDeviceInfo[deviceN].pruControl.enables = PRU_CONTROL_ENABLES_ENABLE_CHARGE_
 694:.\main.c      ****                     apiResult = CyBle_WptscSetCharacteristicValue(cyBle_connHandle, CYBLE_WPTS_PRU_
 695:.\main.c      ****                         sizeof(peedDeviceInfo[deviceN].pruControl), (uint8 *)&peedDeviceInfo[device
 696:.\main.c      ****                     DBG_PRINTF("Set PRU Control char (enable charging), apiResult: %x \r\n", apiRes
 697:.\main.c      ****                     if(apiResult == CYBLE_ERROR_OK)
 698:.\main.c      ****                     {
 699:.\main.c      ****                         requestResponce = false;
 700:.\main.c      ****                     }
 701:.\main.c      ****                     break;
 702:.\main.c      ****                 case '7':                   /* Disable Charging */
 703:.\main.c      ****                     peedDeviceInfo[deviceN].pruControl.enables &= ~PRU_CONTROL_ENABLES_ENABLE_CHARG
 704:.\main.c      ****                     apiResult = CyBle_WptscSetCharacteristicValue(cyBle_connHandle, CYBLE_WPTS_PRU_
 705:.\main.c      ****                         sizeof(peedDeviceInfo[deviceN].pruControl), (uint8 *)&peedDeviceInfo[device
 706:.\main.c      ****                     DBG_PRINTF("Set PRU Control char (disable charging), apiResult: %x \r\n", apiRe
 707:.\main.c      ****                     if(apiResult == CYBLE_ERROR_OK)
 708:.\main.c      ****                     {
 709:.\main.c      ****                         requestResponce = false;
 710:.\main.c      ****                     }
 711:.\main.c      ****                     break;
 712:.\main.c      ****                 case '8':                   /* Enable sequential read of PRU Dynamic Parameter char
 713:.\main.c      ****                     readingDynChar = 1u;
 714:.\main.c      ****                     break;
 715:.\main.c      ****                 case '9':                   /* Disable sequential read of PRU Dynamic Parameter cha
 716:.\main.c      ****                     readingDynChar = 0u;
 717:.\main.c      ****                     break;
ARM GAS  C:\Users\Petro\AppData\Local\Temp\ccvLNIXl.s 			page 46


 718:.\main.c      ****                 case 'h':  /* Help menu */
 719:.\main.c      ****                     DBG_PRINTF("\r\n");
 720:.\main.c      ****                     DBG_PRINTF("Available commands:\r\n");
 721:.\main.c      ****                     DBG_PRINTF(" \'h\' - Help menu.\r\n");
 722:.\main.c      ****                     DBG_PRINTF(" \'z\' + 'Number' - Select peer device.\r\n");
 723:.\main.c      ****                     DBG_PRINTF(" \'c\' - Send connect request to peer device.\r\n");
 724:.\main.c      ****                     DBG_PRINTF(" \'d\' - Send disconnect request to peer device.\r\n");
 725:.\main.c      ****                     DBG_PRINTF(" \'v\' - Cancel connection request.\r\n");
 726:.\main.c      ****                     DBG_PRINTF(" \'s\' - Start discovery procedure.\r\n");
 727:.\main.c      ****                     DBG_PRINTF(" \'1\' - Enable notifications for Alert characteristic.\r\n");
 728:.\main.c      ****                     DBG_PRINTF(" \'2\' - Enable indications for Alert characteristic.\r\n");
 729:.\main.c      ****                     DBG_PRINTF(" \'3\' - Disable notifications and indication for Alert characteris
 730:.\main.c      ****                     DBG_PRINTF(" \'4\' - Send Read request for PRU Static Parameter characteristic.
 731:.\main.c      ****                     DBG_PRINTF(" \'5\' - Send Read request for PRU Dynamic Parameter characteristic
 732:.\main.c      ****                     DBG_PRINTF(" \'6\' - Send Enable Charging command to PRU control characteristic
 733:.\main.c      ****                     DBG_PRINTF(" \'7\' - Send Disable Charging command to PRU control characteristi
 734:.\main.c      ****                     DBG_PRINTF(" \'8\' - Enable sequential read of PRU Dynamic Parameter characteri
 735:.\main.c      ****                     DBG_PRINTF(" \'9\' - Disable sequential read of PRU Dynamic Parameter character
 736:.\main.c      ****                     break;
 737:.\main.c      ****             }
 738:.\main.c      ****             command = 0u;
 1652              		.loc 1 738 0
 1653 0022 0024     		mov	r4, #0
 1654 0024 10E0     		b	.L99
 1655              	.LVL224:
 1656              	.L123:
 1657 0026 0024     		mov	r4, #0
 1658 0028 0EE0     		b	.L99
 1659              	.LVL225:
 1660              	.L124:
 1661 002a 0024     		mov	r4, #0
 1662              	.LVL226:
 1663 002c 0CE0     		b	.L99
 1664              	.LVL227:
 1665              	.L125:
 1666 002e 0024     		mov	r4, #0
 1667              	.LVL228:
 1668 0030 0AE0     		b	.L99
 1669              	.LVL229:
 1670              	.L126:
 1671 0032 0024     		mov	r4, #0
 1672              	.LVL230:
 1673 0034 08E0     		b	.L99
 1674              	.LVL231:
 1675              	.L127:
 1676 0036 0024     		mov	r4, #0
 1677              	.LVL232:
 1678 0038 06E0     		b	.L99
 1679              	.LVL233:
 1680              	.L128:
 1681 003a 0024     		mov	r4, #0
 1682              	.LVL234:
 1683 003c 04E0     		b	.L99
 1684              	.LVL235:
 1685              	.L129:
 1686 003e 0024     		mov	r4, #0
 1687              	.LVL236:
ARM GAS  C:\Users\Petro\AppData\Local\Temp\ccvLNIXl.s 			page 47


 1688 0040 02E0     		b	.L99
 1689              	.LVL237:
 1690              	.L130:
 1691 0042 0024     		mov	r4, #0
 1692              	.LVL238:
 1693 0044 00E0     		b	.L99
 1694              	.LVL239:
 1695              	.L131:
 1696 0046 0024     		mov	r4, #0
 1697              	.LVL240:
 1698              	.L99:
 584:.\main.c      **** 
 1699              		.loc 1 584 0
 1700 0048 FFF7FEFF 		bl	CyBle_ProcessEvents
 1701              	.LVL241:
 587:.\main.c      ****         
 1702              		.loc 1 587 0
 1703 004c FFF7FEFF 		bl	LowPowerImplementation
 1704              	.LVL242:
 590:.\main.c      ****         {
 1705              		.loc 1 590 0
 1706 0050 002C     		cmp	r4, #0
 1707 0052 02D1     		bne	.L101
 592:.\main.c      ****         }
 1708              		.loc 1 592 0
 1709 0054 FFF7FEFF 		bl	UART_DEB_UartGetChar
 1710              	.LVL243:
 1711 0058 C4B2     		uxtb	r4, r0
 1712              	.LVL244:
 1713              	.L101:
 596:.\main.c      ****         {
 1714              		.loc 1 596 0
 1715 005a 002C     		cmp	r4, #0
 1716 005c 03D1     		bne	.L102
 596:.\main.c      ****         {
 1717              		.loc 1 596 0 is_stmt 0 discriminator 2
 1718 005e B44B     		ldr	r3, .L132+8
 1719 0060 9B78     		ldrb	r3, [r3, #2]
 1720 0062 002B     		cmp	r3, #0
 1721 0064 F0D0     		beq	.L99
 1722              	.L102:
 596:.\main.c      ****         {
 1723              		.loc 1 596 0 discriminator 3
 1724 0066 B34B     		ldr	r3, .L132+12
 1725 0068 1B78     		ldrb	r3, [r3]
 1726 006a 002B     		cmp	r3, #0
 1727 006c ECD0     		beq	.L99
 598:.\main.c      ****             {
 1728              		.loc 1 598 0 is_stmt 1
 1729 006e 002C     		cmp	r4, #0
 1730 0070 07D1     		bne	.L103
 598:.\main.c      ****             {
 1731              		.loc 1 598 0 is_stmt 0 discriminator 1
 1732 0072 AF4B     		ldr	r3, .L132+8
 1733 0074 9B78     		ldrb	r3, [r3, #2]
 1734 0076 002B     		cmp	r3, #0
 1735 0078 03D0     		beq	.L103
ARM GAS  C:\Users\Petro\AppData\Local\Temp\ccvLNIXl.s 			page 48


 1736              	.LVL245:
 601:.\main.c      ****             }
 1737              		.loc 1 601 0 is_stmt 1
 1738 007a 0021     		mov	r1, #0
 1739 007c AC4A     		ldr	r2, .L132+8
 1740 007e 9170     		strb	r1, [r2, #2]
 600:.\main.c      ****                 customCommand = 0u;
 1741              		.loc 1 600 0
 1742 0080 1C1C     		mov	r4, r3
 1743              	.LVL246:
 1744              	.L103:
 603:.\main.c      ****             {
 1745              		.loc 1 603 0
 1746 0082 313C     		sub	r4, r4, #49
 1747              	.LVL247:
 1748 0084 E3B2     		uxtb	r3, r4
 1749 0086 492B     		cmp	r3, #73
 1750 0088 CBD8     		bhi	.L122
 1751 008a 9C00     		lsl	r4, r3, #2
 1752 008c AA4B     		ldr	r3, .L132+16
 1753 008e 1B59     		ldr	r3, [r3, r4]
 1754 0090 9F46     		mov	pc, r3
 1755              		.section	.rodata
 1756              		.align	2
 1757              	.L105:
 1758 0448 28010000 		.word	.L104
 1759 044c 62010000 		.word	.L106
 1760 0450 9C010000 		.word	.L107
 1761 0454 D2010000 		.word	.L108
 1762 0458 FA010000 		.word	.L109
 1763 045c 22020000 		.word	.L110
 1764 0460 62020000 		.word	.L111
 1765 0464 AA020000 		.word	.L112
 1766 0468 B4020000 		.word	.L113
 1767 046c 22000000 		.word	.L122
 1768 0470 22000000 		.word	.L122
 1769 0474 22000000 		.word	.L122
 1770 0478 22000000 		.word	.L122
 1771 047c 22000000 		.word	.L122
 1772 0480 22000000 		.word	.L122
 1773 0484 22000000 		.word	.L122
 1774 0488 22000000 		.word	.L122
 1775 048c 22000000 		.word	.L122
 1776 0490 22000000 		.word	.L122
 1777 0494 22000000 		.word	.L122
 1778 0498 22000000 		.word	.L122
 1779 049c 22000000 		.word	.L122
 1780 04a0 22000000 		.word	.L122
 1781 04a4 22000000 		.word	.L122
 1782 04a8 22000000 		.word	.L122
 1783 04ac 22000000 		.word	.L122
 1784 04b0 22000000 		.word	.L122
 1785 04b4 22000000 		.word	.L122
 1786 04b8 22000000 		.word	.L122
 1787 04bc 22000000 		.word	.L122
 1788 04c0 22000000 		.word	.L122
 1789 04c4 22000000 		.word	.L122
ARM GAS  C:\Users\Petro\AppData\Local\Temp\ccvLNIXl.s 			page 49


 1790 04c8 22000000 		.word	.L122
 1791 04cc 22000000 		.word	.L122
 1792 04d0 22000000 		.word	.L122
 1793 04d4 22000000 		.word	.L122
 1794 04d8 22000000 		.word	.L122
 1795 04dc 22000000 		.word	.L122
 1796 04e0 22000000 		.word	.L122
 1797 04e4 22000000 		.word	.L122
 1798 04e8 22000000 		.word	.L122
 1799 04ec 22000000 		.word	.L122
 1800 04f0 22000000 		.word	.L122
 1801 04f4 22000000 		.word	.L122
 1802 04f8 22000000 		.word	.L122
 1803 04fc 22000000 		.word	.L122
 1804 0500 22000000 		.word	.L122
 1805 0504 22000000 		.word	.L122
 1806 0508 22000000 		.word	.L122
 1807 050c 22000000 		.word	.L122
 1808 0510 92000000 		.word	.L114
 1809 0514 B0000000 		.word	.L115
 1810 0518 22000000 		.word	.L122
 1811 051c 22000000 		.word	.L122
 1812 0520 22000000 		.word	.L122
 1813 0524 BE020000 		.word	.L116
 1814 0528 22000000 		.word	.L122
 1815 052c 22000000 		.word	.L122
 1816 0530 22000000 		.word	.L122
 1817 0534 22000000 		.word	.L122
 1818 0538 22000000 		.word	.L122
 1819 053c 22000000 		.word	.L122
 1820 0540 22000000 		.word	.L122
 1821 0544 22000000 		.word	.L122
 1822 0548 22000000 		.word	.L122
 1823 054c 22000000 		.word	.L122
 1824 0550 C6000000 		.word	.L117
 1825 0554 22000000 		.word	.L122
 1826 0558 22000000 		.word	.L122
 1827 055c A0000000 		.word	.L118
 1828 0560 22000000 		.word	.L122
 1829 0564 22000000 		.word	.L122
 1830 0568 22000000 		.word	.L122
 1831 056c F4000000 		.word	.L119
 1832              		.section	.text.main
 1833              	.L114:
 606:.\main.c      ****                     state = STATE_CONNECTING;
 1834              		.loc 1 606 0
 1835 0092 FFF7FEFF 		bl	CyBle_GapcStopScan
 1836              	.LVL248:
 607:.\main.c      ****                     break;
 1837              		.loc 1 607 0
 1838 0096 0122     		mov	r2, #1
 1839 0098 A54B     		ldr	r3, .L132+8
 1840 009a 5A72     		strb	r2, [r3, #9]
 1841              		.loc 1 738 0
 1842 009c 0024     		mov	r4, #0
 608:.\main.c      ****                 case 'v':
 1843              		.loc 1 608 0
ARM GAS  C:\Users\Petro\AppData\Local\Temp\ccvLNIXl.s 			page 50


 1844 009e D3E7     		b	.L99
 1845              	.L118:
 610:.\main.c      ****                     DBG_PRINTF("CyBle_GapcCancelDeviceConnection: %x\r\n" , apiResult);
 1846              		.loc 1 610 0
 1847 00a0 FFF7FEFF 		bl	CyBle_GapcCancelDeviceConnection
 1848              	.LVL249:
 1849 00a4 011C     		mov	r1, r0
 1850              	.LVL250:
 611:.\main.c      ****                     break;
 1851              		.loc 1 611 0
 1852 00a6 A548     		ldr	r0, .L132+20
 1853 00a8 FFF7FEFF 		bl	printf
 1854              	.LVL251:
 1855              		.loc 1 738 0
 1856 00ac 0024     		mov	r4, #0
 612:.\main.c      ****                 case 'd':                   /* disconnect */
 1857              		.loc 1 612 0
 1858 00ae CBE7     		b	.L99
 1859              	.L115:
 614:.\main.c      ****                     if(apiResult != CYBLE_ERROR_OK)
 1860              		.loc 1 614 0
 1861 00b0 A34B     		ldr	r3, .L132+24
 1862 00b2 1878     		ldrb	r0, [r3]
 1863 00b4 FFF7FEFF 		bl	CyBle_GapDisconnect
 1864              	.LVL252:
 1865 00b8 011E     		sub	r1, r0, #0
 1866              	.LVL253:
 615:.\main.c      ****                     {
 1867              		.loc 1 615 0
 1868 00ba B4D0     		beq	.L123
 617:.\main.c      ****                     }
 1869              		.loc 1 617 0
 1870 00bc A148     		ldr	r0, .L132+28
 1871              	.LVL254:
 1872 00be FFF7FEFF 		bl	printf
 1873              	.LVL255:
 1874              		.loc 1 738 0
 1875 00c2 0024     		mov	r4, #0
 1876 00c4 C0E7     		b	.L99
 1877              	.L117:
 622:.\main.c      ****                     /* And clean pending command */
 1878              		.loc 1 622 0
 1879 00c6 9A4B     		ldr	r3, .L132+8
 1880 00c8 0022     		mov	r2, #0
 1881 00ca 5A70     		strb	r2, [r3, #1]
 624:.\main.c      ****                     apiResult = CyBle_GattcStartDiscovery(cyBle_connHandle);
 1882              		.loc 1 624 0
 1883 00cc 9A70     		strb	r2, [r3, #2]
 625:.\main.c      ****                     DBG_PRINTF("StartDiscovery \r\n");
 1884              		.loc 1 625 0
 1885 00ce 9C4A     		ldr	r2, .L132+24
 1886 00d0 1378     		ldrb	r3, [r2]
 1887 00d2 5078     		ldrb	r0, [r2, #1]
 1888 00d4 0002     		lsl	r0, r0, #8
 1889 00d6 1843     		orr	r0, r3
 1890 00d8 FFF7FEFF 		bl	CyBle_GattcStartDiscovery
 1891              	.LVL256:
ARM GAS  C:\Users\Petro\AppData\Local\Temp\ccvLNIXl.s 			page 51


 1892 00dc 041C     		mov	r4, r0
 1893              	.LVL257:
 626:.\main.c      ****                     if(apiResult != CYBLE_ERROR_OK)
 1894              		.loc 1 626 0
 1895 00de 9A48     		ldr	r0, .L132+32
 1896 00e0 FFF7FEFF 		bl	puts
 1897              	.LVL258:
 627:.\main.c      ****                     {
 1898              		.loc 1 627 0
 1899 00e4 002C     		cmp	r4, #0
 1900 00e6 A0D0     		beq	.L124
 629:.\main.c      ****                     }
 1901              		.loc 1 629 0
 1902 00e8 9848     		ldr	r0, .L132+36
 1903 00ea 211C     		mov	r1, r4
 1904 00ec FFF7FEFF 		bl	printf
 1905              	.LVL259:
 1906              		.loc 1 738 0
 1907 00f0 0024     		mov	r4, #0
 1908              	.LVL260:
 1909 00f2 A9E7     		b	.L99
 1910              	.L119:
 633:.\main.c      ****                     while((command = UART_DEB_UartGetChar()) == 0);
 1911              		.loc 1 633 0
 1912 00f4 9648     		ldr	r0, .L132+40
 1913 00f6 FFF7FEFF 		bl	puts
 1914              	.LVL261:
 1915              	.L120:
 634:.\main.c      ****                     if((command >= '0') && (command <= '9'))
 1916              		.loc 1 634 0 discriminator 1
 1917 00fa FFF7FEFF 		bl	UART_DEB_UartGetChar
 1918              	.LVL262:
 1919 00fe C3B2     		uxtb	r3, r0
 1920              	.LVL263:
 1921 0100 002B     		cmp	r3, #0
 1922 0102 FAD0     		beq	.L120
 635:.\main.c      ****                     {
 1923              		.loc 1 635 0
 1924 0104 303B     		sub	r3, r3, #48
 1925              	.LVL264:
 1926 0106 DBB2     		uxtb	r3, r3
 1927              	.LVL265:
 1928 0108 092B     		cmp	r3, #9
 1929 010a 08D8     		bhi	.L121
 637:.\main.c      ****                         DBG_PRINTF("%c\n",command); /* print number */
 1930              		.loc 1 637 0
 1931 010c 884A     		ldr	r2, .L132+8
 1932 010e 9372     		strb	r3, [r2, #10]
 1933 0110 FF21     		mov	r1, #255
 1934 0112 0140     		and	r1, r0
 638:.\main.c      ****                     }
 1935              		.loc 1 638 0
 1936 0114 8F48     		ldr	r0, .L132+44
 1937              	.LVL266:
 1938 0116 FFF7FEFF 		bl	printf
 1939              	.LVL267:
 1940              		.loc 1 738 0
ARM GAS  C:\Users\Petro\AppData\Local\Temp\ccvLNIXl.s 			page 52


 1941 011a 0024     		mov	r4, #0
 645:.\main.c      ****                 case '1':                   /* Enable Notification */
 1942              		.loc 1 645 0
 1943 011c 94E7     		b	.L99
 1944              	.LVL268:
 1945              	.L121:
 642:.\main.c      ****                         break;
 1946              		.loc 1 642 0
 1947 011e 8E48     		ldr	r0, .L132+48
 1948              	.LVL269:
 1949 0120 FFF7FEFF 		bl	puts
 1950              	.LVL270:
 1951              		.loc 1 738 0
 1952 0124 0024     		mov	r4, #0
 643:.\main.c      ****                     }
 1953              		.loc 1 643 0
 1954 0126 8FE7     		b	.L99
 1955              	.L104:
 647:.\main.c      ****                     apiResult = CyBle_WptscSetCharacteristicDescriptor(cyBle_connHandle, CYBLE_WPTS
 1956              		.loc 1 647 0
 1957 0128 814B     		ldr	r3, .L132+8
 1958 012a 9989     		ldrh	r1, [r3, #12]
 1959 012c 0122     		mov	r2, #1
 1960 012e 0A43     		orr	r2, r1
 1961 0130 9A81     		strh	r2, [r3, #12]
 648:.\main.c      ****                         CYBLE_WPTS_CCCD, sizeof(alertCCCD), (uint8 *)&alertCCCD);
 1962              		.loc 1 648 0
 1963 0132 834A     		ldr	r2, .L132+24
 1964 0134 0C33     		add	r3, r3, #12
 1965 0136 0093     		str	r3, [sp]
 1966 0138 1378     		ldrb	r3, [r2]
 1967 013a 5078     		ldrb	r0, [r2, #1]
 1968 013c 0002     		lsl	r0, r0, #8
 1969 013e 1843     		orr	r0, r3
 1970 0140 0221     		mov	r1, #2
 1971 0142 0022     		mov	r2, #0
 1972 0144 0223     		mov	r3, #2
 1973 0146 FFF7FEFF 		bl	CyBle_WptscSetCharacteristicDescriptor
 1974              	.LVL271:
 1975 014a 041C     		mov	r4, r0
 1976              	.LVL272:
 650:.\main.c      ****                     if(apiResult == CYBLE_ERROR_OK)
 1977              		.loc 1 650 0
 1978 014c 8348     		ldr	r0, .L132+52
 1979 014e 211C     		mov	r1, r4
 1980 0150 FFF7FEFF 		bl	printf
 1981              	.LVL273:
 651:.\main.c      ****                     {
 1982              		.loc 1 651 0
 1983 0154 002C     		cmp	r4, #0
 1984 0156 00D0     		beq	.LCB1657
 1985 0158 69E7     		b	.L125	@long jump
 1986              	.LCB1657:
 653:.\main.c      ****                     }
 1987              		.loc 1 653 0
 1988 015a 0022     		mov	r2, #0
 1989 015c 754B     		ldr	r3, .L132+12
ARM GAS  C:\Users\Petro\AppData\Local\Temp\ccvLNIXl.s 			page 53


 1990 015e 1A70     		strb	r2, [r3]
 1991 0160 72E7     		b	.L99
 1992              	.LVL274:
 1993              	.L106:
 657:.\main.c      ****                     apiResult = CyBle_WptscSetCharacteristicDescriptor(cyBle_connHandle, CYBLE_WPTS
 1994              		.loc 1 657 0
 1995 0162 734B     		ldr	r3, .L132+8
 1996 0164 9989     		ldrh	r1, [r3, #12]
 1997 0166 0222     		mov	r2, #2
 1998 0168 0A43     		orr	r2, r1
 1999 016a 9A81     		strh	r2, [r3, #12]
 658:.\main.c      ****                         CYBLE_WPTS_CCCD, sizeof(alertCCCD), (uint8 *)&alertCCCD);
 2000              		.loc 1 658 0
 2001 016c 744A     		ldr	r2, .L132+24
 2002 016e 0C33     		add	r3, r3, #12
 2003 0170 0093     		str	r3, [sp]
 2004 0172 1378     		ldrb	r3, [r2]
 2005 0174 5078     		ldrb	r0, [r2, #1]
 2006 0176 0002     		lsl	r0, r0, #8
 2007 0178 1843     		orr	r0, r3
 2008 017a 0221     		mov	r1, #2
 2009 017c 0022     		mov	r2, #0
 2010 017e 0223     		mov	r3, #2
 2011 0180 FFF7FEFF 		bl	CyBle_WptscSetCharacteristicDescriptor
 2012              	.LVL275:
 2013 0184 041C     		mov	r4, r0
 2014              	.LVL276:
 660:.\main.c      ****                     if(apiResult == CYBLE_ERROR_OK)
 2015              		.loc 1 660 0
 2016 0186 7648     		ldr	r0, .L132+56
 2017 0188 211C     		mov	r1, r4
 2018 018a FFF7FEFF 		bl	printf
 2019              	.LVL277:
 661:.\main.c      ****                     {
 2020              		.loc 1 661 0
 2021 018e 002C     		cmp	r4, #0
 2022 0190 00D0     		beq	.LCB1692
 2023 0192 4EE7     		b	.L126	@long jump
 2024              	.LCB1692:
 663:.\main.c      ****                     }
 2025              		.loc 1 663 0
 2026 0194 0022     		mov	r2, #0
 2027 0196 674B     		ldr	r3, .L132+12
 2028 0198 1A70     		strb	r2, [r3]
 2029 019a 55E7     		b	.L99
 2030              	.LVL278:
 2031              	.L107:
 667:.\main.c      ****                     apiResult = CyBle_WptscSetCharacteristicDescriptor(cyBle_connHandle, CYBLE_WPTS
 2032              		.loc 1 667 0
 2033 019c 644B     		ldr	r3, .L132+8
 2034 019e 0022     		mov	r2, #0
 2035 01a0 9A81     		strh	r2, [r3, #12]
 668:.\main.c      ****                         CYBLE_WPTS_CCCD, sizeof(alertCCCD), (uint8 *)&alertCCCD);
 2036              		.loc 1 668 0
 2037 01a2 674A     		ldr	r2, .L132+24
 2038 01a4 0C33     		add	r3, r3, #12
 2039 01a6 0093     		str	r3, [sp]
ARM GAS  C:\Users\Petro\AppData\Local\Temp\ccvLNIXl.s 			page 54


 2040 01a8 1378     		ldrb	r3, [r2]
 2041 01aa 5078     		ldrb	r0, [r2, #1]
 2042 01ac 0002     		lsl	r0, r0, #8
 2043 01ae 1843     		orr	r0, r3
 2044 01b0 0221     		mov	r1, #2
 2045 01b2 0022     		mov	r2, #0
 2046 01b4 0223     		mov	r3, #2
 2047 01b6 FFF7FEFF 		bl	CyBle_WptscSetCharacteristicDescriptor
 2048              	.LVL279:
 2049 01ba 041C     		mov	r4, r0
 2050              	.LVL280:
 670:.\main.c      ****                     if(apiResult == CYBLE_ERROR_OK)
 2051              		.loc 1 670 0
 2052 01bc 6948     		ldr	r0, .L132+60
 2053 01be 211C     		mov	r1, r4
 2054 01c0 FFF7FEFF 		bl	printf
 2055              	.LVL281:
 671:.\main.c      ****                     {
 2056              		.loc 1 671 0
 2057 01c4 002C     		cmp	r4, #0
 2058 01c6 00D0     		beq	.LCB1725
 2059 01c8 35E7     		b	.L127	@long jump
 2060              	.LCB1725:
 673:.\main.c      ****                     }
 2061              		.loc 1 673 0
 2062 01ca 0022     		mov	r2, #0
 2063 01cc 594B     		ldr	r3, .L132+12
 2064 01ce 1A70     		strb	r2, [r3]
 2065 01d0 3AE7     		b	.L99
 2066              	.LVL282:
 2067              	.L108:
 677:.\main.c      ****                     DBG_PRINTF("Get PRU Static Parameter char value, apiResult: %x \r\n", apiResult
 2068              		.loc 1 677 0
 2069 01d2 5B4A     		ldr	r2, .L132+24
 2070 01d4 1378     		ldrb	r3, [r2]
 2071 01d6 5078     		ldrb	r0, [r2, #1]
 2072 01d8 0002     		lsl	r0, r0, #8
 2073 01da 1843     		orr	r0, r3
 2074 01dc 0321     		mov	r1, #3
 2075 01de FFF7FEFF 		bl	CyBle_WptscGetCharacteristicValue
 2076              	.LVL283:
 2077 01e2 041C     		mov	r4, r0
 2078              	.LVL284:
 678:.\main.c      ****                     if(apiResult == CYBLE_ERROR_OK)
 2079              		.loc 1 678 0
 2080 01e4 6048     		ldr	r0, .L132+64
 2081 01e6 211C     		mov	r1, r4
 2082 01e8 FFF7FEFF 		bl	printf
 2083              	.LVL285:
 679:.\main.c      ****                     {
 2084              		.loc 1 679 0
 2085 01ec 002C     		cmp	r4, #0
 2086 01ee 00D0     		beq	.LCB1751
 2087 01f0 23E7     		b	.L128	@long jump
 2088              	.LCB1751:
 681:.\main.c      ****                     }
 2089              		.loc 1 681 0
ARM GAS  C:\Users\Petro\AppData\Local\Temp\ccvLNIXl.s 			page 55


 2090 01f2 0022     		mov	r2, #0
 2091 01f4 4F4B     		ldr	r3, .L132+12
 2092 01f6 1A70     		strb	r2, [r3]
 2093 01f8 26E7     		b	.L99
 2094              	.LVL286:
 2095              	.L109:
 685:.\main.c      ****                     DBG_PRINTF("Get PRU Dynamic Parameter char value, apiResult: %x \r\n", apiResul
 2096              		.loc 1 685 0
 2097 01fa 514A     		ldr	r2, .L132+24
 2098 01fc 1378     		ldrb	r3, [r2]
 2099 01fe 5078     		ldrb	r0, [r2, #1]
 2100 0200 0002     		lsl	r0, r0, #8
 2101 0202 1843     		orr	r0, r3
 2102 0204 0421     		mov	r1, #4
 2103 0206 FFF7FEFF 		bl	CyBle_WptscGetCharacteristicValue
 2104              	.LVL287:
 2105 020a 041C     		mov	r4, r0
 2106              	.LVL288:
 686:.\main.c      ****                     if(apiResult == CYBLE_ERROR_OK)
 2107              		.loc 1 686 0
 2108 020c 5748     		ldr	r0, .L132+68
 2109 020e 211C     		mov	r1, r4
 2110 0210 FFF7FEFF 		bl	printf
 2111              	.LVL289:
 687:.\main.c      ****                     {
 2112              		.loc 1 687 0
 2113 0214 002C     		cmp	r4, #0
 2114 0216 00D0     		beq	.LCB1777
 2115 0218 11E7     		b	.L129	@long jump
 2116              	.LCB1777:
 689:.\main.c      ****                     }
 2117              		.loc 1 689 0
 2118 021a 0022     		mov	r2, #0
 2119 021c 454B     		ldr	r3, .L132+12
 2120 021e 1A70     		strb	r2, [r3]
 2121 0220 12E7     		b	.L99
 2122              	.LVL290:
 2123              	.L110:
 693:.\main.c      ****                     apiResult = CyBle_WptscSetCharacteristicValue(cyBle_connHandle, CYBLE_WPTS_PRU_
 2124              		.loc 1 693 0
 2125 0222 434B     		ldr	r3, .L132+8
 2126 0224 9A7A     		ldrb	r2, [r3, #10]
 2127 0226 5248     		ldr	r0, .L132+72
 2128 0228 D300     		lsl	r3, r2, #3
 2129 022a 9918     		add	r1, r3, r2
 2130 022c 8900     		lsl	r1, r1, #2
 2131 022e 4118     		add	r1, r0, r1
 2132 0230 4024     		mov	r4, #64
 2133 0232 CC72     		strb	r4, [r1, #11]
 695:.\main.c      ****                     DBG_PRINTF("Set PRU Control char (enable charging), apiResult: %x \r\n", apiRes
 2134              		.loc 1 695 0
 2135 0234 0B1C     		mov	r3, r1
 2136 0236 0B33     		add	r3, r3, #11
 694:.\main.c      ****                         sizeof(peedDeviceInfo[deviceN].pruControl), (uint8 *)&peedDeviceInfo[device
 2137              		.loc 1 694 0
 2138 0238 4149     		ldr	r1, .L132+24
 2139 023a 0A78     		ldrb	r2, [r1]
ARM GAS  C:\Users\Petro\AppData\Local\Temp\ccvLNIXl.s 			page 56


 2140 023c 4878     		ldrb	r0, [r1, #1]
 2141 023e 0002     		lsl	r0, r0, #8
 2142 0240 1043     		orr	r0, r2
 2143 0242 0021     		mov	r1, #0
 2144 0244 0522     		mov	r2, #5
 2145 0246 FFF7FEFF 		bl	CyBle_WptscSetCharacteristicValue
 2146              	.LVL291:
 2147 024a 041C     		mov	r4, r0
 2148              	.LVL292:
 696:.\main.c      ****                     if(apiResult == CYBLE_ERROR_OK)
 2149              		.loc 1 696 0
 2150 024c 4948     		ldr	r0, .L132+76
 2151 024e 211C     		mov	r1, r4
 2152 0250 FFF7FEFF 		bl	printf
 2153              	.LVL293:
 697:.\main.c      ****                     {
 2154              		.loc 1 697 0
 2155 0254 002C     		cmp	r4, #0
 2156 0256 00D0     		beq	.LCB1819
 2157 0258 F3E6     		b	.L130	@long jump
 2158              	.LCB1819:
 699:.\main.c      ****                     }
 2159              		.loc 1 699 0
 2160 025a 0022     		mov	r2, #0
 2161 025c 354B     		ldr	r3, .L132+12
 2162 025e 1A70     		strb	r2, [r3]
 2163 0260 F2E6     		b	.L99
 2164              	.LVL294:
 2165              	.L111:
 703:.\main.c      ****                     apiResult = CyBle_WptscSetCharacteristicValue(cyBle_connHandle, CYBLE_WPTS_PRU_
 2166              		.loc 1 703 0
 2167 0262 334B     		ldr	r3, .L132+8
 2168 0264 9A7A     		ldrb	r2, [r3, #10]
 2169 0266 424C     		ldr	r4, .L132+72
 2170 0268 D300     		lsl	r3, r2, #3
 2171 026a 9918     		add	r1, r3, r2
 2172 026c 8900     		lsl	r1, r1, #2
 2173 026e 6118     		add	r1, r4, r1
 2174 0270 C87A     		ldrb	r0, [r1, #11]
 2175 0272 4025     		mov	r5, #64
 2176 0274 A843     		bic	r0, r5
 2177 0276 C872     		strb	r0, [r1, #11]
 705:.\main.c      ****                     DBG_PRINTF("Set PRU Control char (disable charging), apiResult: %x \r\n", apiRe
 2178              		.loc 1 705 0
 2179 0278 9B18     		add	r3, r3, r2
 2180 027a 9B00     		lsl	r3, r3, #2
 2181 027c E318     		add	r3, r4, r3
 2182 027e 0B33     		add	r3, r3, #11
 704:.\main.c      ****                         sizeof(peedDeviceInfo[deviceN].pruControl), (uint8 *)&peedDeviceInfo[device
 2183              		.loc 1 704 0
 2184 0280 2F49     		ldr	r1, .L132+24
 2185 0282 0A78     		ldrb	r2, [r1]
 2186 0284 4878     		ldrb	r0, [r1, #1]
 2187 0286 0002     		lsl	r0, r0, #8
 2188 0288 1043     		orr	r0, r2
 2189 028a 0021     		mov	r1, #0
 2190 028c 0522     		mov	r2, #5
ARM GAS  C:\Users\Petro\AppData\Local\Temp\ccvLNIXl.s 			page 57


 2191 028e FFF7FEFF 		bl	CyBle_WptscSetCharacteristicValue
 2192              	.LVL295:
 2193 0292 041C     		mov	r4, r0
 2194              	.LVL296:
 706:.\main.c      ****                     if(apiResult == CYBLE_ERROR_OK)
 2195              		.loc 1 706 0
 2196 0294 3848     		ldr	r0, .L132+80
 2197 0296 211C     		mov	r1, r4
 2198 0298 FFF7FEFF 		bl	printf
 2199              	.LVL297:
 707:.\main.c      ****                     {
 2200              		.loc 1 707 0
 2201 029c 002C     		cmp	r4, #0
 2202 029e 00D0     		beq	.LCB1865
 2203 02a0 D1E6     		b	.L131	@long jump
 2204              	.LCB1865:
 709:.\main.c      ****                     }
 2205              		.loc 1 709 0
 2206 02a2 0022     		mov	r2, #0
 2207 02a4 234B     		ldr	r3, .L132+12
 2208 02a6 1A70     		strb	r2, [r3]
 2209 02a8 CEE6     		b	.L99
 2210              	.LVL298:
 2211              	.L112:
 713:.\main.c      ****                     break;
 2212              		.loc 1 713 0
 2213 02aa 0122     		mov	r2, #1
 2214 02ac 204B     		ldr	r3, .L132+8
 2215 02ae 5A70     		strb	r2, [r3, #1]
 2216              		.loc 1 738 0
 2217 02b0 0024     		mov	r4, #0
 714:.\main.c      ****                 case '9':                   /* Disable sequential read of PRU Dynamic Parameter cha
 2218              		.loc 1 714 0
 2219 02b2 C9E6     		b	.L99
 2220              	.L113:
 716:.\main.c      ****                     break;
 2221              		.loc 1 716 0
 2222 02b4 0022     		mov	r2, #0
 2223 02b6 1E4B     		ldr	r3, .L132+8
 2224 02b8 5A70     		strb	r2, [r3, #1]
 2225              		.loc 1 738 0
 2226 02ba 0024     		mov	r4, #0
 717:.\main.c      ****                 case 'h':  /* Help menu */
 2227              		.loc 1 717 0
 2228 02bc C4E6     		b	.L99
 2229              	.L116:
 719:.\main.c      ****                     DBG_PRINTF("Available commands:\r\n");
 2230              		.loc 1 719 0
 2231 02be 2F48     		ldr	r0, .L132+84
 2232 02c0 FFF7FEFF 		bl	puts
 2233              	.LVL299:
 720:.\main.c      ****                     DBG_PRINTF(" \'h\' - Help menu.\r\n");
 2234              		.loc 1 720 0
 2235 02c4 2E48     		ldr	r0, .L132+88
 2236 02c6 FFF7FEFF 		bl	puts
 2237              	.LVL300:
 721:.\main.c      ****                     DBG_PRINTF(" \'z\' + 'Number' - Select peer device.\r\n");
ARM GAS  C:\Users\Petro\AppData\Local\Temp\ccvLNIXl.s 			page 58


 2238              		.loc 1 721 0
 2239 02ca 2E48     		ldr	r0, .L132+92
 2240 02cc FFF7FEFF 		bl	puts
 2241              	.LVL301:
 722:.\main.c      ****                     DBG_PRINTF(" \'c\' - Send connect request to peer device.\r\n");
 2242              		.loc 1 722 0
 2243 02d0 2D48     		ldr	r0, .L132+96
 2244 02d2 FFF7FEFF 		bl	puts
 2245              	.LVL302:
 723:.\main.c      ****                     DBG_PRINTF(" \'d\' - Send disconnect request to peer device.\r\n");
 2246              		.loc 1 723 0
 2247 02d6 2D48     		ldr	r0, .L132+100
 2248 02d8 FFF7FEFF 		bl	puts
 2249              	.LVL303:
 724:.\main.c      ****                     DBG_PRINTF(" \'v\' - Cancel connection request.\r\n");
 2250              		.loc 1 724 0
 2251 02dc 2C48     		ldr	r0, .L132+104
 2252 02de FFF7FEFF 		bl	puts
 2253              	.LVL304:
 725:.\main.c      ****                     DBG_PRINTF(" \'s\' - Start discovery procedure.\r\n");
 2254              		.loc 1 725 0
 2255 02e2 2C48     		ldr	r0, .L132+108
 2256 02e4 FFF7FEFF 		bl	puts
 2257              	.LVL305:
 726:.\main.c      ****                     DBG_PRINTF(" \'1\' - Enable notifications for Alert characteristic.\r\n");
 2258              		.loc 1 726 0
 2259 02e8 2B48     		ldr	r0, .L132+112
 2260 02ea FFF7FEFF 		bl	puts
 2261              	.LVL306:
 727:.\main.c      ****                     DBG_PRINTF(" \'2\' - Enable indications for Alert characteristic.\r\n");
 2262              		.loc 1 727 0
 2263 02ee 2B48     		ldr	r0, .L132+116
 2264 02f0 FFF7FEFF 		bl	puts
 2265              	.LVL307:
 728:.\main.c      ****                     DBG_PRINTF(" \'3\' - Disable notifications and indication for Alert characteris
 2266              		.loc 1 728 0
 2267 02f4 2A48     		ldr	r0, .L132+120
 2268 02f6 FFF7FEFF 		bl	puts
 2269              	.LVL308:
 729:.\main.c      ****                     DBG_PRINTF(" \'4\' - Send Read request for PRU Static Parameter characteristic.
 2270              		.loc 1 729 0
 2271 02fa 2A48     		ldr	r0, .L132+124
 2272 02fc FFF7FEFF 		bl	puts
 2273              	.LVL309:
 730:.\main.c      ****                     DBG_PRINTF(" \'5\' - Send Read request for PRU Dynamic Parameter characteristic
 2274              		.loc 1 730 0
 2275 0300 2948     		ldr	r0, .L132+128
 2276 0302 FFF7FEFF 		bl	puts
 2277              	.LVL310:
 731:.\main.c      ****                     DBG_PRINTF(" \'6\' - Send Enable Charging command to PRU control characteristic
 2278              		.loc 1 731 0
 2279 0306 2948     		ldr	r0, .L132+132
 2280 0308 FFF7FEFF 		bl	puts
 2281              	.LVL311:
 732:.\main.c      ****                     DBG_PRINTF(" \'7\' - Send Disable Charging command to PRU control characteristi
 2282              		.loc 1 732 0
 2283 030c 2848     		ldr	r0, .L132+136
ARM GAS  C:\Users\Petro\AppData\Local\Temp\ccvLNIXl.s 			page 59


 2284 030e FFF7FEFF 		bl	puts
 2285              	.LVL312:
 733:.\main.c      ****                     DBG_PRINTF(" \'8\' - Enable sequential read of PRU Dynamic Parameter characteri
 2286              		.loc 1 733 0
 2287 0312 2848     		ldr	r0, .L132+140
 2288 0314 FFF7FEFF 		bl	puts
 2289              	.LVL313:
 734:.\main.c      ****                     DBG_PRINTF(" \'9\' - Disable sequential read of PRU Dynamic Parameter character
 2290              		.loc 1 734 0
 2291 0318 2748     		ldr	r0, .L132+144
 2292 031a FFF7FEFF 		bl	puts
 2293              	.LVL314:
 735:.\main.c      ****                     break;
 2294              		.loc 1 735 0
 2295 031e 2748     		ldr	r0, .L132+148
 2296 0320 FFF7FEFF 		bl	puts
 2297              	.LVL315:
 2298              		.loc 1 738 0
 2299 0324 0024     		mov	r4, #0
 736:.\main.c      ****             }
 2300              		.loc 1 736 0
 2301 0326 8FE6     		b	.L99
 2302              	.L133:
 2303              		.align	2
 2304              	.L132:
 2305 0328 B0050000 		.word	.LC110
 2306 032c 00000000 		.word	AppCallback
 2307 0330 00000000 		.word	.LANCHOR0
 2308 0334 00000000 		.word	.LANCHOR1
 2309 0338 48040000 		.word	.L105
 2310 033c E4050000 		.word	.LC116
 2311 0340 00000000 		.word	cyBle_connHandle
 2312 0344 0C060000 		.word	.LC119
 2313 0348 30060000 		.word	.LC121
 2314 034c 44060000 		.word	.LC123
 2315 0350 64060000 		.word	.LC125
 2316 0354 74060000 		.word	.LC127
 2317 0358 78060000 		.word	.LC129
 2318 035c 88060000 		.word	.LC131
 2319 0360 B4060000 		.word	.LC133
 2320 0364 E0060000 		.word	.LC135
 2321 0368 1C070000 		.word	.LC137
 2322 036c 54070000 		.word	.LC139
 2323 0370 00000000 		.word	peedDeviceInfo
 2324 0374 8C070000 		.word	.LC142
 2325 0378 C8070000 		.word	.LC144
 2326 037c 20010000 		.word	.LC32
 2327 0380 04080000 		.word	.LC147
 2328 0384 1C080000 		.word	.LC149
 2329 0388 30080000 		.word	.LC151
 2330 038c 58080000 		.word	.LC153
 2331 0390 88080000 		.word	.LC155
 2332 0394 B8080000 		.word	.LC157
 2333 0398 DC080000 		.word	.LC159
 2334 039c 00090000 		.word	.LC161
 2335 03a0 38090000 		.word	.LC163
 2336 03a4 70090000 		.word	.LC165
ARM GAS  C:\Users\Petro\AppData\Local\Temp\ccvLNIXl.s 			page 60


 2337 03a8 B8090000 		.word	.LC167
 2338 03ac FC090000 		.word	.LC169
 2339 03b0 400A0000 		.word	.LC171
 2340 03b4 840A0000 		.word	.LC173
 2341 03b8 CC0A0000 		.word	.LC175
 2342 03bc 140B0000 		.word	.LC177
 2343              		.cfi_endproc
 2344              	.LFE43:
 2345              		.size	main, .-main
 2346              		.comm	connParameters,8,4
 2347              		.global	requestResponce
 2348              		.global	alertCCCD
 2349              		.global	customCommand
 2350              		.global	readingDynChar
 2351              		.global	state
 2352              		.global	deviceN
 2353              		.global	advDevices
 2354              		.comm	peedDeviceInfo,288,4
 2355              		.global	mainTimer
 2356              		.data
 2357              		.set	.LANCHOR1,. + 0
 2358              		.type	requestResponce, %object
 2359              		.size	requestResponce, 1
 2360              	requestResponce:
 2361 0000 01       		.byte	1
 2362              		.section	.rodata.str1.4,"aMS",%progbits,1
 2363              		.align	2
 2364              	.LC5:
 2365 0000 426C7565 		.ascii	"Bluetooth On \015\000"
 2365      746F6F74 
 2365      68204F6E 
 2365      200D00
 2366 000f 00       		.space	1
 2367              	.LC7:
 2368 0010 53746172 		.ascii	"StartScan API Error: %xd \015\012\000"
 2368      74536361 
 2368      6E204150 
 2368      49204572 
 2368      726F723A 
 2369              	.LC9:
 2370 002c 4359424C 		.ascii	"CYBLE_EVT_TIMEOUT: %x \015\012\000"
 2370      455F4556 
 2370      545F5449 
 2370      4D454F55 
 2370      543A2025 
 2371 0045 000000   		.space	3
 2372              	.LC11:
 2373 0048 48617264 		.ascii	"Hardware Error: %x \015\012\000"
 2373      77617265 
 2373      20457272 
 2373      6F723A20 
 2373      2578200D 
 2374 005e 0000     		.space	2
 2375              	.LC13:
 2376 0060 4359424C 		.ascii	"CYBLE_EVT_HCI_STATUS: %x \015\012\000"
 2376      455F4556 
 2376      545F4843 
ARM GAS  C:\Users\Petro\AppData\Local\Temp\ccvLNIXl.s 			page 61


 2376      495F5354 
 2376      41545553 
 2377              	.LC16:
 2378 007c 4359424C 		.ascii	"CYBLE_EVT_STACK_BUSY_STATUS: %x\015\012\000"
 2378      455F4556 
 2378      545F5354 
 2378      41434B5F 
 2378      42555359 
 2379 009e 0000     		.space	2
 2380              	.LC18:
 2381 00a0 41647665 		.ascii	"Advertisement report: eventType = %x, peerAddrType "
 2381      72746973 
 2381      656D656E 
 2381      74207265 
 2381      706F7274 
 2382 00d3 2D202578 		.ascii	"- %x, \000"
 2382      2C2000
 2383 00da 0000     		.space	2
 2384              	.LC20:
 2385 00dc 70656572 		.ascii	"peerBdAddr - #\000"
 2385      42644164 
 2385      6472202D 
 2385      202300
 2386 00eb 00       		.space	1
 2387              	.LC23:
 2388 00ec 25783A20 		.ascii	"%x: \000"
 2388      00
 2389 00f1 000000   		.space	3
 2390              	.LC26:
 2391 00f4 25322E32 		.ascii	"%2.2x\000"
 2391      7800
 2392 00fa 0000     		.space	2
 2393              	.LC28:
 2394 00fc 2C207273 		.ascii	", rssi - %d dBm,\015\012 data - \000"
 2394      7369202D 
 2394      20256420 
 2394      64426D2C 
 2394      0D0A2064 
 2395 0117 00       		.space	1
 2396              	.LC30:
 2397 0118 25322E32 		.ascii	"%2.2x \000"
 2397      782000
 2398 011f 00       		.space	1
 2399              	.LC32:
 2400 0120 0D00     		.ascii	"\015\000"
 2401 0122 0000     		.space	2
 2402              	.LC34:
 2403 0124 4359424C 		.ascii	"CYBLE_EVT_GAPC_SCAN_START_STOP, state: %x\015\012\000"
 2403      455F4556 
 2403      545F4741 
 2403      50435F53 
 2403      43414E5F 
 2404              	.LC37:
 2405 0150 47415043 		.ascii	"GAPC_END_SCANNING\015\000"
 2405      5F454E44 
 2405      5F534341 
 2405      4E4E494E 
ARM GAS  C:\Users\Petro\AppData\Local\Temp\ccvLNIXl.s 			page 62


 2405      470D00
 2406 0163 00       		.space	1
 2407              	.LC40:
 2408 0164 436F6E6E 		.ascii	"ConnectDevice API Error: %x \015\012\000"
 2408      65637444 
 2408      65766963 
 2408      65204150 
 2408      49204572 
 2409 0183 00       		.space	1
 2410              	.LC42:
 2411 0184 48696265 		.ascii	"Hibernate \015\000"
 2411      726E6174 
 2411      65200D00 
 2412              	.LC44:
 2413 0190 41555448 		.ascii	"AUTH_COMPLETE: security:%x, bonding:%x, ekeySize:%x"
 2413      5F434F4D 
 2413      504C4554 
 2413      453A2073 
 2413      65637572 
 2414 01c3 2C206175 		.ascii	", authErr %x \015\012\000"
 2414      74684572 
 2414      72202578 
 2414      200D0A00 
 2415 01d3 00       		.space	1
 2416              	.LC46:
 2417 01d4 41555448 		.ascii	"AUTH_FAILED: %x \015\012\000"
 2417      5F464149 
 2417      4C45443A 
 2417      20257820 
 2417      0D0A00
 2418 01e7 00       		.space	1
 2419              	.LC49:
 2420 01e8 4359424C 		.ascii	"CYBLE_EVT_GAP_DEVICE_CONNECTED: %x, %x(%d ms), %x, "
 2420      455F4556 
 2420      545F4741 
 2420      505F4445 
 2420      56494345 
 2421 021b 2578200D 		.ascii	"%x \015\012\000"
 2421      0A00
 2422 0221 000000   		.space	3
 2423              	.LC52:
 2424 0224 57505453 		.ascii	"WPTS %x: \000"
 2424      2025783A 
 2424      2000
 2425 022e 0000     		.space	2
 2426              	.LC54:
 2427 0230 43686172 		.ascii	"Char %x=%x, CCCD=%x \000"
 2427      2025783D 
 2427      25782C20 
 2427      43434344 
 2427      3D257820 
 2428 0245 000000   		.space	3
 2429              	.LC56:
 2430 0248 44455649 		.ascii	"DEVICE_DISCONNECTED: \015\000"
 2430      43455F44 
 2430      4953434F 
 2430      4E4E4543 
ARM GAS  C:\Users\Petro\AppData\Local\Temp\ccvLNIXl.s 			page 63


 2430      5445443A 
 2431 025f 00       		.space	1
 2432              	.LC59:
 2433 0260 454E4352 		.ascii	"ENCRYPT_CHANGE: %d \015\012\000"
 2433      5950545F 
 2433      4348414E 
 2433      47453A20 
 2433      2564200D 
 2434 0276 0000     		.space	2
 2435              	.LC61:
 2436 0278 4359424C 		.ascii	"CYBLE_EVT_GAPC_CONNECTION_UPDATE_COMPLETE: %x, %x(%"
 2436      455F4556 
 2436      545F4741 
 2436      50435F43 
 2436      4F4E4E45 
 2437 02ab 64206D73 		.ascii	"d ms), %x, %x \015\012\000"
 2437      292C2025 
 2437      782C2025 
 2437      78200D0A 
 2437      00
 2438              	.LC63:
 2439 02bc 4359424C 		.ascii	"CYBLE_EVT_GAP_KEYINFO_EXCHNGE_CMPLT \015\000"
 2439      455F4556 
 2439      545F4741 
 2439      505F4B45 
 2439      59494E46 
 2440 02e2 0000     		.space	2
 2441              	.LC65:
 2442 02e4 47415454 		.ascii	"GATT_ERROR_RSP: opcode: %x,  handle: %x,  errorcode"
 2442      5F455252 
 2442      4F525F52 
 2442      53503A20 
 2442      6F70636F 
 2443 0317 3A202578 		.ascii	": %x \015\012\000"
 2443      200D0A00 
 2444 031f 00       		.space	1
 2445              	.LC67:
 2446 0320 4359424C 		.ascii	"CYBLE_EVT_GATT_CONNECT_IND: %x, %x \015\012\000"
 2446      455F4556 
 2446      545F4741 
 2446      54545F43 
 2446      4F4E4E45 
 2447 0346 0000     		.space	2
 2448              	.LC69:
 2449 0348 47415454 		.ascii	"GATT_DISCONNECT_IND \015\000"
 2449      5F444953 
 2449      434F4E4E 
 2449      4543545F 
 2449      494E4420 
 2450 035e 0000     		.space	2
 2451              	.LC71:
 2452 0360 4359424C 		.ascii	"CYBLE_EVT_GATT_HANDLE_VALUE_NTF: handle: %x, Value:"
 2452      455F4556 
 2452      545F4741 
 2452      54545F48 
 2452      414E444C 
 2453 0393 00       		.ascii	"\000"
ARM GAS  C:\Users\Petro\AppData\Local\Temp\ccvLNIXl.s 			page 64


 2454              	.LC73:
 2455 0394 4359424C 		.ascii	"CYBLE_EVT_GATTC_HANDLE_VALUE_IND: handle: %x, Value"
 2455      455F4556 
 2455      545F4741 
 2455      5454435F 
 2455      48414E44 
 2456 03c7 3A00     		.ascii	":\000"
 2457 03c9 000000   		.space	3
 2458              	.LC75:
 2459 03cc 4359424C 		.ascii	"CYBLE_EVT_GATTC_INDICATION: handle: %x, Value:\000"
 2459      455F4556 
 2459      545F4741 
 2459      5454435F 
 2459      494E4449 
 2460 03fb 00       		.space	1
 2461              	.LC77:
 2462 03fc 4359424C 		.ascii	"CYBLE_EVT_GATT_READ_RSP: \000"
 2462      455F4556 
 2462      545F4741 
 2462      54545F52 
 2462      4541445F 
 2463 0416 0000     		.space	2
 2464              	.LC79:
 2465 0418 4359424C 		.ascii	"CYBLE_EVT_GATTC_READ_BLOB_RSP: \000"
 2465      455F4556 
 2465      545F4741 
 2465      5454435F 
 2465      52454144 
 2466              	.LC81:
 2467 0438 4359424C 		.ascii	"CYBLE_EVT_GATT_WRITE_RSP \015\000"
 2467      455F4556 
 2467      545F4741 
 2467      54545F57 
 2467      52495445 
 2468 0453 00       		.space	1
 2469              	.LC83:
 2470 0454 4359424C 		.ascii	"CYBLE_EVT_GATT_XCHNG_MTU_RSP \015\000"
 2470      455F4556 
 2470      545F4741 
 2470      54545F58 
 2470      43484E47 
 2471 0473 00       		.space	1
 2472              	.LC85:
 2473 0474 4359424C 		.ascii	"CYBLE_EVT_GATT_READ_BY_GROUP_TYPE_RSP: \000"
 2473      455F4556 
 2473      545F4741 
 2473      54545F52 
 2473      4541445F 
 2474              	.LC87:
 2475 049c 4359424C 		.ascii	"CYBLE_EVT_GATT_READ_BY_TYPE_RSP: \000"
 2475      455F4556 
 2475      545F4741 
 2475      54545F52 
 2475      4541445F 
 2476 04be 0000     		.space	2
 2477              	.LC89:
 2478 04c0 4359424C 		.ascii	"CYBLE_EVT_GATT_FIND_INFO_RSP: \000"
ARM GAS  C:\Users\Petro\AppData\Local\Temp\ccvLNIXl.s 			page 65


 2478      455F4556 
 2478      545F4741 
 2478      54545F46 
 2478      494E445F 
 2479 04df 00       		.space	1
 2480              	.LC91:
 2481 04e0 25322E32 		.ascii	"%2.2x %2.2x,\000"
 2481      78202532 
 2481      2E32782C 
 2481      00
 2482 04ed 000000   		.space	3
 2483              	.LC93:
 2484 04f0 55554944 		.ascii	"UUID128\000"
 2484      31323800 
 2485              	.LC95:
 2486 04f8 4359424C 		.ascii	"CYBLE_EVT_GATT_FIND_BY_TYPE_VALUE_RSP \015\000"
 2486      455F4556 
 2486      545F4741 
 2486      54545F46 
 2486      494E445F 
 2487              	.LC97:
 2488 0520 4359424C 		.ascii	"CYBLE_EVT_SERVER_DISCOVERY_COMPLETE \015\000"
 2488      455F4556 
 2488      545F5345 
 2488      52564552 
 2488      5F444953 
 2489 0546 0000     		.space	2
 2490              	.LC101:
 2491 0548 47415454 		.ascii	"GATT %x-%x Char: %x, cccd: %x, \015\012\000"
 2491      2025782D 
 2491      25782043 
 2491      6861723A 
 2491      2025782C 
 2492 056a 0000     		.space	2
 2493              	.LC103:
 2494 056c 0D0A5750 		.ascii	"\015\012WPTS %x-%x: \000"
 2494      54532025 
 2494      782D2578 
 2494      3A2000
 2495 057b 00       		.space	1
 2496              	.LC105:
 2497 057c 4359424C 		.ascii	"CYBLE_EVT_PENDING_FLASH_WRITE\015\000"
 2497      455F4556 
 2497      545F5045 
 2497      4E44494E 
 2497      475F464C 
 2498 059b 00       		.space	1
 2499              	.LC107:
 2500 059c 4F544845 		.ascii	"OTHER event: %lx \015\012\000"
 2500      52206576 
 2500      656E743A 
 2500      20256C78 
 2500      200D0A00 
 2501              	.LC110:
 2502 05b0 424C4520 		.ascii	"BLE Wireless Power Transmitter Example Project \015"
 2502      57697265 
 2502      6C657373 
ARM GAS  C:\Users\Petro\AppData\Local\Temp\ccvLNIXl.s 			page 66


 2502      20506F77 
 2502      65722054 
 2503 05e0 00       		.ascii	"\000"
 2504 05e1 000000   		.space	3
 2505              	.LC116:
 2506 05e4 4379426C 		.ascii	"CyBle_GapcCancelDeviceConnection: %x\015\012\000"
 2506      655F4761 
 2506      70634361 
 2506      6E63656C 
 2506      44657669 
 2507 060b 00       		.space	1
 2508              	.LC119:
 2509 060c 44697363 		.ascii	"DisconnectDevice API Error: %x \015\012\000"
 2509      6F6E6E65 
 2509      63744465 
 2509      76696365 
 2509      20415049 
 2510 062e 0000     		.space	2
 2511              	.LC121:
 2512 0630 53746172 		.ascii	"StartDiscovery \015\000"
 2512      74446973 
 2512      636F7665 
 2512      7279200D 
 2512      00
 2513 0641 000000   		.space	3
 2514              	.LC123:
 2515 0644 53746172 		.ascii	"StartDiscovery API Error: %x \015\012\000"
 2515      74446973 
 2515      636F7665 
 2515      72792041 
 2515      50492045 
 2516              	.LC125:
 2517 0664 53656C65 		.ascii	"Select Device:\000"
 2517      63742044 
 2517      65766963 
 2517      653A00
 2518 0673 00       		.space	1
 2519              	.LC127:
 2520 0674 25630A00 		.ascii	"%c\012\000"
 2521              	.LC129:
 2522 0678 2057726F 		.ascii	" Wrong digit \015\000"
 2522      6E672064 
 2522      69676974 
 2522      200D00
 2523 0687 00       		.space	1
 2524              	.LC131:
 2525 0688 456E6162 		.ascii	"Enable Alert Notification, apiResult: %x \015\012\000"
 2525      6C652041 
 2525      6C657274 
 2525      204E6F74 
 2525      69666963 
 2526              	.LC133:
 2527 06b4 456E6162 		.ascii	"Enable Alert Indication, apiResult: %x \015\012\000"
 2527      6C652041 
 2527      6C657274 
 2527      20496E64 
 2527      69636174 
ARM GAS  C:\Users\Petro\AppData\Local\Temp\ccvLNIXl.s 			page 67


 2528 06de 0000     		.space	2
 2529              	.LC135:
 2530 06e0 44697361 		.ascii	"Disable Alert Notification and Indication, apiResul"
 2530      626C6520 
 2530      416C6572 
 2530      74204E6F 
 2530      74696669 
 2531 0713 743A2025 		.ascii	"t: %x \015\012\000"
 2531      78200D0A 
 2531      00
 2532              	.LC137:
 2533 071c 47657420 		.ascii	"Get PRU Static Parameter char value, apiResult: %x "
 2533      50525520 
 2533      53746174 
 2533      69632050 
 2533      6172616D 
 2534 074f 0D0A00   		.ascii	"\015\012\000"
 2535 0752 0000     		.space	2
 2536              	.LC139:
 2537 0754 47657420 		.ascii	"Get PRU Dynamic Parameter char value, apiResult: %x"
 2537      50525520 
 2537      44796E61 
 2537      6D696320 
 2537      50617261 
 2538 0787 200D0A00 		.ascii	" \015\012\000"
 2539 078b 00       		.space	1
 2540              	.LC142:
 2541 078c 53657420 		.ascii	"Set PRU Control char (enable charging), apiResult: "
 2541      50525520 
 2541      436F6E74 
 2541      726F6C20 
 2541      63686172 
 2542 07bf 2578200D 		.ascii	"%x \015\012\000"
 2542      0A00
 2543 07c5 000000   		.space	3
 2544              	.LC144:
 2545 07c8 53657420 		.ascii	"Set PRU Control char (disable charging), apiResult:"
 2545      50525520 
 2545      436F6E74 
 2545      726F6C20 
 2545      63686172 
 2546 07fb 20257820 		.ascii	" %x \015\012\000"
 2546      0D0A00
 2547 0802 0000     		.space	2
 2548              	.LC147:
 2549 0804 41766169 		.ascii	"Available commands:\015\000"
 2549      6C61626C 
 2549      6520636F 
 2549      6D6D616E 
 2549      64733A0D 
 2550 0819 000000   		.space	3
 2551              	.LC149:
 2552 081c 20276827 		.ascii	" 'h' - Help menu.\015\000"
 2552      202D2048 
 2552      656C7020 
 2552      6D656E75 
 2552      2E0D00
ARM GAS  C:\Users\Petro\AppData\Local\Temp\ccvLNIXl.s 			page 68


 2553 082f 00       		.space	1
 2554              	.LC151:
 2555 0830 20277A27 		.ascii	" 'z' + 'Number' - Select peer device.\015\000"
 2555      202B2027 
 2555      4E756D62 
 2555      65722720 
 2555      2D205365 
 2556 0857 00       		.space	1
 2557              	.LC153:
 2558 0858 20276327 		.ascii	" 'c' - Send connect request to peer device.\015\000"
 2558      202D2053 
 2558      656E6420 
 2558      636F6E6E 
 2558      65637420 
 2559 0885 000000   		.space	3
 2560              	.LC155:
 2561 0888 20276427 		.ascii	" 'd' - Send disconnect request to peer device.\015\000"
 2561      202D2053 
 2561      656E6420 
 2561      64697363 
 2561      6F6E6E65 
 2562              	.LC157:
 2563 08b8 20277627 		.ascii	" 'v' - Cancel connection request.\015\000"
 2563      202D2043 
 2563      616E6365 
 2563      6C20636F 
 2563      6E6E6563 
 2564 08db 00       		.space	1
 2565              	.LC159:
 2566 08dc 20277327 		.ascii	" 's' - Start discovery procedure.\015\000"
 2566      202D2053 
 2566      74617274 
 2566      20646973 
 2566      636F7665 
 2567 08ff 00       		.space	1
 2568              	.LC161:
 2569 0900 20273127 		.ascii	" '1' - Enable notifications for Alert characteristi"
 2569      202D2045 
 2569      6E61626C 
 2569      65206E6F 
 2569      74696669 
 2570 0933 632E0D00 		.ascii	"c.\015\000"
 2571 0937 00       		.space	1
 2572              	.LC163:
 2573 0938 20273227 		.ascii	" '2' - Enable indications for Alert characteristic."
 2573      202D2045 
 2573      6E61626C 
 2573      6520696E 
 2573      64696361 
 2574 096b 0D00     		.ascii	"\015\000"
 2575 096d 000000   		.space	3
 2576              	.LC165:
 2577 0970 20273327 		.ascii	" '3' - Disable notifications and indication for Ale"
 2577      202D2044 
 2577      69736162 
 2577      6C65206E 
 2577      6F746966 
ARM GAS  C:\Users\Petro\AppData\Local\Temp\ccvLNIXl.s 			page 69


 2578 09a3 72742063 		.ascii	"rt characteristic.\015\000"
 2578      68617261 
 2578      63746572 
 2578      69737469 
 2578      632E0D00 
 2579 09b7 00       		.space	1
 2580              	.LC167:
 2581 09b8 20273427 		.ascii	" '4' - Send Read request for PRU Static Parameter c"
 2581      202D2053 
 2581      656E6420 
 2581      52656164 
 2581      20726571 
 2582 09eb 68617261 		.ascii	"haracteristic.\015\000"
 2582      63746572 
 2582      69737469 
 2582      632E0D00 
 2583 09fb 00       		.space	1
 2584              	.LC169:
 2585 09fc 20273527 		.ascii	" '5' - Send Read request for PRU Dynamic Parameter "
 2585      202D2053 
 2585      656E6420 
 2585      52656164 
 2585      20726571 
 2586 0a2f 63686172 		.ascii	"characteristic.\015\000"
 2586      61637465 
 2586      72697374 
 2586      69632E0D 
 2586      00
 2587              	.LC171:
 2588 0a40 20273627 		.ascii	" '6' - Send Enable Charging command to PRU control "
 2588      202D2053 
 2588      656E6420 
 2588      456E6162 
 2588      6C652043 
 2589 0a73 63686172 		.ascii	"characteristic.\015\000"
 2589      61637465 
 2589      72697374 
 2589      69632E0D 
 2589      00
 2590              	.LC173:
 2591 0a84 20273727 		.ascii	" '7' - Send Disable Charging command to PRU control"
 2591      202D2053 
 2591      656E6420 
 2591      44697361 
 2591      626C6520 
 2592 0ab7 20636861 		.ascii	" characteristic.\015\000"
 2592      72616374 
 2592      65726973 
 2592      7469632E 
 2592      0D00
 2593 0ac9 000000   		.space	3
 2594              	.LC175:
 2595 0acc 20273827 		.ascii	" '8' - Enable sequential read of PRU Dynamic Parame"
 2595      202D2045 
 2595      6E61626C 
 2595      65207365 
 2595      7175656E 
ARM GAS  C:\Users\Petro\AppData\Local\Temp\ccvLNIXl.s 			page 70


 2596 0aff 74657220 		.ascii	"ter characteristic.\015\000"
 2596      63686172 
 2596      61637465 
 2596      72697374 
 2596      69632E0D 
 2597              	.LC177:
 2598 0b14 20273927 		.ascii	" '9' - Disable sequential read of PRU Dynamic Param"
 2598      202D2044 
 2598      69736162 
 2598      6C652073 
 2598      65717565 
 2599 0b47 65746572 		.ascii	"eter characteristic.\015\000"
 2599      20636861 
 2599      72616374 
 2599      65726973 
 2599      7469632E 
 2600 0b5d 000000   		.bss
 2601              		.align	2
 2602              		.set	.LANCHOR0,. + 0
 2603              		.type	led.7669, %object
 2604              		.size	led.7669, 1
 2605              	led.7669:
 2606 0000 00       		.space	1
 2607              		.type	readingDynChar, %object
 2608              		.size	readingDynChar, 1
 2609              	readingDynChar:
 2610 0001 00       		.space	1
 2611              		.type	customCommand, %object
 2612              		.size	customCommand, 1
 2613              	customCommand:
 2614 0002 00       		.space	1
 2615 0003 00       		.space	1
 2616              		.type	mainTimer, %object
 2617              		.size	mainTimer, 4
 2618              	mainTimer:
 2619 0004 00000000 		.space	4
 2620              		.type	advDevices, %object
 2621              		.size	advDevices, 1
 2622              	advDevices:
 2623 0008 00       		.space	1
 2624              		.type	state, %object
 2625              		.size	state, 1
 2626              	state:
 2627 0009 00       		.space	1
 2628              		.type	deviceN, %object
 2629              		.size	deviceN, 1
 2630              	deviceN:
 2631 000a 00       		.space	1
 2632 000b 00       		.space	1
 2633              		.type	alertCCCD, %object
 2634              		.size	alertCCCD, 2
 2635              	alertCCCD:
 2636 000c 0000     		.space	2
 2637 000e 0000     		.text
 2638              	.Letext0:
 2639              		.file 2 "Generated_Source\\PSoC4/cytypes.h"
 2640              		.file 3 "c:\\program files (x86)\\cypress\\psoc creator\\3.3\\psoc creator\\import\\gnu\\arm\\4.9.
ARM GAS  C:\Users\Petro\AppData\Local\Temp\ccvLNIXl.s 			page 71


 2641              		.file 4 "Generated_Source\\PSoC4/BLE_Stack.h"
 2642              		.file 5 "Generated_Source\\PSoC4/BLE_StackHostMain.h"
 2643              		.file 6 "Generated_Source\\PSoC4/BLE_StackGap.h"
 2644              		.file 7 "Generated_Source\\PSoC4/BLE_StackGatt.h"
 2645              		.file 8 "Generated_Source\\PSoC4/BLE_StackGattClient.h"
 2646              		.file 9 "Generated_Source\\PSoC4/BLE.h"
 2647              		.file 10 "Generated_Source\\PSoC4/BLE_gatt.h"
 2648              		.file 11 "Generated_Source\\PSoC4/BLE_wpts.h"
 2649              		.file 12 "Generated_Source\\PSoC4/BLE_eventHandler.h"
 2650              		.file 13 ".\\wptu.h"
 2651              		.file 14 "Generated_Source\\PSoC4/Scanning_LED.h"
 2652              		.file 15 "Generated_Source\\PSoC4/CyLFClk.h"
 2653              		.file 16 "Generated_Source\\PSoC4/CyLib.h"
 2654              		.file 17 "c:\\program files (x86)\\cypress\\psoc creator\\3.3\\psoc creator\\import\\gnu\\arm\\4.9
 2655              		.file 18 "c:\\program files (x86)\\cypress\\psoc creator\\3.3\\psoc creator\\import\\gnu\\arm\\4.9
 2656              		.file 19 "Generated_Source\\PSoC4/UART_DEB_SPI_UART.h"
 2657              		.file 20 "Generated_Source\\PSoC4/SW2.h"
 2658              		.file 21 "Generated_Source\\PSoC4/cyPm.h"
 2659              		.file 22 "Generated_Source\\PSoC4/Wakeup_Interrupt.h"
 2660              		.file 23 ".\\common.h"
 2661              		.file 24 "Generated_Source\\PSoC4/WDT_Interrupt.h"
 2662              		.file 25 "Generated_Source\\PSoC4/UART_DEB.h"
 2663              		.file 26 "<built-in>"